ARM GAS  C:\Users\YUANFA~1\AppData\Local\Temp\ccIEyak6.s 			page 1


   1              		.syntax unified
   2              		.cpu cortex-m0plus
   3              		.fpu softvfp
   4              		.eabi_attribute 20, 1
   5              		.eabi_attribute 21, 1
   6              		.eabi_attribute 23, 3
   7              		.eabi_attribute 24, 1
   8              		.eabi_attribute 25, 1
   9              		.eabi_attribute 26, 1
  10              		.eabi_attribute 30, 1
  11              		.eabi_attribute 34, 0
  12              		.eabi_attribute 18, 4
  13              		.thumb
  14              		.syntax unified
  15              		.file	"CapSense_Control.c"
  16              		.text
  17              	.Ltext0:
  18              		.cfi_sections	.debug_frame
  19              		.section	.text.CapSense_Initialize,"ax",%progbits
  20              		.align	2
  21              		.global	CapSense_Initialize
  22              		.code	16
  23              		.thumb_func
  24              		.type	CapSense_Initialize, %function
  25              	CapSense_Initialize:
  26              	.LFB2:
  27              		.file 1 "Generated_Source\\PSoC4\\CapSense_Control.c"
   1:Generated_Source\PSoC4/CapSense_Control.c **** /***************************************************************************//**
   2:Generated_Source\PSoC4/CapSense_Control.c **** * \file CapSense_Control.c
   3:Generated_Source\PSoC4/CapSense_Control.c **** * \version 7.0
   4:Generated_Source\PSoC4/CapSense_Control.c **** *
   5:Generated_Source\PSoC4/CapSense_Control.c **** * \brief
   6:Generated_Source\PSoC4/CapSense_Control.c **** *   This file provides the source code to the Control module API of the
   7:Generated_Source\PSoC4/CapSense_Control.c **** *   Component.
   8:Generated_Source\PSoC4/CapSense_Control.c **** *
   9:Generated_Source\PSoC4/CapSense_Control.c **** * \see CapSense v7.0 Datasheet
  10:Generated_Source\PSoC4/CapSense_Control.c **** *
  11:Generated_Source\PSoC4/CapSense_Control.c **** *//*****************************************************************************
  12:Generated_Source\PSoC4/CapSense_Control.c **** * Copyright (2016-2019), Cypress Semiconductor Corporation.
  13:Generated_Source\PSoC4/CapSense_Control.c **** ********************************************************************************
  14:Generated_Source\PSoC4/CapSense_Control.c **** * This software is owned by Cypress Semiconductor Corporation (Cypress) and is
  15:Generated_Source\PSoC4/CapSense_Control.c **** * protected by and subject to worldwide patent protection (United States and
  16:Generated_Source\PSoC4/CapSense_Control.c **** * foreign), United States copyright laws and international treaty provisions.
  17:Generated_Source\PSoC4/CapSense_Control.c **** * Cypress hereby grants to licensee a personal, non-exclusive, non-transferable
  18:Generated_Source\PSoC4/CapSense_Control.c **** * license to copy, use, modify, create derivative works of, and compile the
  19:Generated_Source\PSoC4/CapSense_Control.c **** * Cypress Source Code and derivative works for the sole purpose of creating
  20:Generated_Source\PSoC4/CapSense_Control.c **** * custom software in support of licensee product to be used only in conjunction
  21:Generated_Source\PSoC4/CapSense_Control.c **** * with a Cypress integrated circuit as specified in the applicable agreement.
  22:Generated_Source\PSoC4/CapSense_Control.c **** * Any reproduction, modification, translation, compilation, or representation of
  23:Generated_Source\PSoC4/CapSense_Control.c **** * this software except as specified above is prohibited without the express
  24:Generated_Source\PSoC4/CapSense_Control.c **** * written permission of Cypress.
  25:Generated_Source\PSoC4/CapSense_Control.c **** *
  26:Generated_Source\PSoC4/CapSense_Control.c **** * Disclaimer: CYPRESS MAKES NO WARRANTY OF ANY KIND, EXPRESS OR IMPLIED, WITH
  27:Generated_Source\PSoC4/CapSense_Control.c **** * REGARD TO THIS MATERIAL, INCLUDING, BUT NOT LIMITED TO, THE IMPLIED
  28:Generated_Source\PSoC4/CapSense_Control.c **** * WARRANTIES OF MERCHANTABILITY AND FITNESS FOR A PARTICULAR PURPOSE.
  29:Generated_Source\PSoC4/CapSense_Control.c **** * Cypress reserves the right to make changes without further notice to the
  30:Generated_Source\PSoC4/CapSense_Control.c **** * materials described herein. Cypress does not assume any liability arising out
ARM GAS  C:\Users\YUANFA~1\AppData\Local\Temp\ccIEyak6.s 			page 2


  31:Generated_Source\PSoC4/CapSense_Control.c **** * of the application or use of any product or circuit described herein. Cypress
  32:Generated_Source\PSoC4/CapSense_Control.c **** * does not authorize its products for use as critical components in life-support
  33:Generated_Source\PSoC4/CapSense_Control.c **** * systems where a malfunction or failure may reasonably be expected to result in
  34:Generated_Source\PSoC4/CapSense_Control.c **** * significant injury to the user. The inclusion of Cypress' product in a life-
  35:Generated_Source\PSoC4/CapSense_Control.c **** * support systems application implies that the manufacturer assumes all risk of
  36:Generated_Source\PSoC4/CapSense_Control.c **** * such use and in doing so indemnifies Cypress against all charges. Use may be
  37:Generated_Source\PSoC4/CapSense_Control.c **** * limited by and subject to the applicable Cypress software license agreement.
  38:Generated_Source\PSoC4/CapSense_Control.c **** *******************************************************************************/
  39:Generated_Source\PSoC4/CapSense_Control.c **** 
  40:Generated_Source\PSoC4/CapSense_Control.c **** #include "cytypes.h"
  41:Generated_Source\PSoC4/CapSense_Control.c **** #include "CyLib.h"
  42:Generated_Source\PSoC4/CapSense_Control.c **** #include "cyPm.h"
  43:Generated_Source\PSoC4/CapSense_Control.c **** #include "CapSense_Configuration.h"
  44:Generated_Source\PSoC4/CapSense_Control.c **** #include "CapSense_Structure.h"
  45:Generated_Source\PSoC4/CapSense_Control.c **** #include "CapSense_Control.h"
  46:Generated_Source\PSoC4/CapSense_Control.c **** #include "CapSense_Processing.h"
  47:Generated_Source\PSoC4/CapSense_Control.c **** #include "CapSense_Filter.h"
  48:Generated_Source\PSoC4/CapSense_Control.c **** #include "CapSense_Sensing.h"
  49:Generated_Source\PSoC4/CapSense_Control.c **** #include "CapSense_Tuner.h"
  50:Generated_Source\PSoC4/CapSense_Control.c **** 
  51:Generated_Source\PSoC4/CapSense_Control.c **** #if (CapSense_ENABLE == CapSense_SELF_TEST_EN)
  52:Generated_Source\PSoC4/CapSense_Control.c ****     #include "CapSense_SelfTest.h"
  53:Generated_Source\PSoC4/CapSense_Control.c **** #endif
  54:Generated_Source\PSoC4/CapSense_Control.c **** 
  55:Generated_Source\PSoC4/CapSense_Control.c **** #if (0u != CapSense_ADC_EN)
  56:Generated_Source\PSoC4/CapSense_Control.c ****     #include "CapSense_Adc.h"
  57:Generated_Source\PSoC4/CapSense_Control.c **** #endif /* (0u != CapSense_ADC_EN) */
  58:Generated_Source\PSoC4/CapSense_Control.c **** 
  59:Generated_Source\PSoC4/CapSense_Control.c **** #if ((CapSense_ENABLE == CapSense_GES_GLOBAL_EN) || \
  60:Generated_Source\PSoC4/CapSense_Control.c ****      (CapSense_ENABLE == CapSense_BALLISTIC_MULTIPLIER_EN))
  61:Generated_Source\PSoC4/CapSense_Control.c ****     #include "CapSense_Gesture.h"
  62:Generated_Source\PSoC4/CapSense_Control.c **** #endif /* (CapSense_ENABLE == CapSense_GES_GLOBAL_EN) */
  63:Generated_Source\PSoC4/CapSense_Control.c **** 
  64:Generated_Source\PSoC4/CapSense_Control.c **** /**************************************************************************************************
  65:Generated_Source\PSoC4/CapSense_Control.c **** * Local definition
  66:Generated_Source\PSoC4/CapSense_Control.c **** ***************************************************************************************************
  67:Generated_Source\PSoC4/CapSense_Control.c **** #define CapSense_INIT_DONE   (1u)
  68:Generated_Source\PSoC4/CapSense_Control.c **** #define CapSense_INIT_NEEDED (0u)
  69:Generated_Source\PSoC4/CapSense_Control.c **** 
  70:Generated_Source\PSoC4/CapSense_Control.c **** /**************************************************************************************************
  71:Generated_Source\PSoC4/CapSense_Control.c **** * Local variables
  72:Generated_Source\PSoC4/CapSense_Control.c **** ***************************************************************************************************
  73:Generated_Source\PSoC4/CapSense_Control.c **** static uint8 CapSense_InitVar = CapSense_INIT_NEEDED;
  74:Generated_Source\PSoC4/CapSense_Control.c **** 
  75:Generated_Source\PSoC4/CapSense_Control.c **** /*******************************************************************************
  76:Generated_Source\PSoC4/CapSense_Control.c **** * Function Name: CapSense_Start
  77:Generated_Source\PSoC4/CapSense_Control.c **** ****************************************************************************//**
  78:Generated_Source\PSoC4/CapSense_Control.c **** *
  79:Generated_Source\PSoC4/CapSense_Control.c **** * \brief
  80:Generated_Source\PSoC4/CapSense_Control.c **** *  Initializes the Component hardware and firmware modules. This function is
  81:Generated_Source\PSoC4/CapSense_Control.c **** *  called by the application program prior to calling any other function of the
  82:Generated_Source\PSoC4/CapSense_Control.c **** *  Component.
  83:Generated_Source\PSoC4/CapSense_Control.c **** *
  84:Generated_Source\PSoC4/CapSense_Control.c **** * \details
  85:Generated_Source\PSoC4/CapSense_Control.c **** *  This function initializes the Component hardware and firmware modules and
  86:Generated_Source\PSoC4/CapSense_Control.c **** *  is called by the application program prior to calling any other API
  87:Generated_Source\PSoC4/CapSense_Control.c **** *  of the Component. When this function is called, the following tasks are
ARM GAS  C:\Users\YUANFA~1\AppData\Local\Temp\ccIEyak6.s 			page 3


  88:Generated_Source\PSoC4/CapSense_Control.c **** *  executed as part of the initialization process:
  89:Generated_Source\PSoC4/CapSense_Control.c **** *    1. Initialize the registers of the \ref group_structures variable
  90:Generated_Source\PSoC4/CapSense_Control.c **** *       CapSense_dsRam based on the user selection in the Component
  91:Generated_Source\PSoC4/CapSense_Control.c **** *       configuration wizard.
  92:Generated_Source\PSoC4/CapSense_Control.c **** *    2. Configure the hardware to perform sensing.
  93:Generated_Source\PSoC4/CapSense_Control.c **** *    \if SECTION_C_HIGH_LEVEL
  94:Generated_Source\PSoC4/CapSense_Control.c **** *    3. If SmartSense Auto-tuning is selected for the CSD Tuning mode in the
  95:Generated_Source\PSoC4/CapSense_Control.c **** *       Basic tab, the auto-tuning algorithm is executed to set the optimal
  96:Generated_Source\PSoC4/CapSense_Control.c **** *       values for the hardware parameters of the widgets/sensors.
  97:Generated_Source\PSoC4/CapSense_Control.c **** *    \endif
  98:Generated_Source\PSoC4/CapSense_Control.c **** *    4. Calibrate the sensors and find the optimal values for IDACs of each
  99:Generated_Source\PSoC4/CapSense_Control.c **** *       widget / sensor, if the Enable IDAC auto-calibration is enabled in the
 100:Generated_Source\PSoC4/CapSense_Control.c **** *       Mode's Setting tabs.
 101:Generated_Source\PSoC4/CapSense_Control.c **** *    5. Perform scanning for all the sensors and initialize the baseline history.
 102:Generated_Source\PSoC4/CapSense_Control.c **** *    6. If the firmware filters are enabled in the Advanced General tab, the
 103:Generated_Source\PSoC4/CapSense_Control.c **** *       filter histories are also initialized.
 104:Generated_Source\PSoC4/CapSense_Control.c **** 
 105:Generated_Source\PSoC4/CapSense_Control.c **** *  Any next call of this API repeats an initialization process except for
 106:Generated_Source\PSoC4/CapSense_Control.c **** *  data structure initialization. Therefore, it is possible to change the
 107:Generated_Source\PSoC4/CapSense_Control.c **** *  Component configuration from the application program by writing registers to the
 108:Generated_Source\PSoC4/CapSense_Control.c **** *  data structure and calling this function again. This is also
 109:Generated_Source\PSoC4/CapSense_Control.c **** *  done inside the CapSense_RunTuner() function when a restart command
 110:Generated_Source\PSoC4/CapSense_Control.c **** *  is received.
 111:Generated_Source\PSoC4/CapSense_Control.c **** *
 112:Generated_Source\PSoC4/CapSense_Control.c **** *  When the Component operation is stopped by the CapSense_Stop()
 113:Generated_Source\PSoC4/CapSense_Control.c **** *  function, the CapSense_Start() function repeats an initialization
 114:Generated_Source\PSoC4/CapSense_Control.c **** *  process including data structure initialization.
 115:Generated_Source\PSoC4/CapSense_Control.c **** *
 116:Generated_Source\PSoC4/CapSense_Control.c **** * \return
 117:Generated_Source\PSoC4/CapSense_Control.c **** *  Returns the status of the initialization process. If CYRET_SUCCESS is not
 118:Generated_Source\PSoC4/CapSense_Control.c **** *  received, some of the initialization fails and the Component may not operate
 119:Generated_Source\PSoC4/CapSense_Control.c **** *  as expected.
 120:Generated_Source\PSoC4/CapSense_Control.c **** *
 121:Generated_Source\PSoC4/CapSense_Control.c **** *******************************************************************************/
 122:Generated_Source\PSoC4/CapSense_Control.c **** cystatus CapSense_Start(void)
 123:Generated_Source\PSoC4/CapSense_Control.c **** {
 124:Generated_Source\PSoC4/CapSense_Control.c ****     cystatus result;
 125:Generated_Source\PSoC4/CapSense_Control.c ****     uint32 watchdogCounter;
 126:Generated_Source\PSoC4/CapSense_Control.c **** 
 127:Generated_Source\PSoC4/CapSense_Control.c ****     /* Initialize CapSense modules */
 128:Generated_Source\PSoC4/CapSense_Control.c ****     result = CapSense_Initialize();
 129:Generated_Source\PSoC4/CapSense_Control.c **** 
 130:Generated_Source\PSoC4/CapSense_Control.c ****     #if (CapSense_CSD_AUTOTUNE != CapSense_CSD_SS_DIS)
 131:Generated_Source\PSoC4/CapSense_Control.c ****         if (CYRET_SUCCESS == result)
 132:Generated_Source\PSoC4/CapSense_Control.c ****         {
 133:Generated_Source\PSoC4/CapSense_Control.c ****             result = CapSense_SsAutoTune();
 134:Generated_Source\PSoC4/CapSense_Control.c ****         }
 135:Generated_Source\PSoC4/CapSense_Control.c ****     #endif /* #if (CapSense_CSD_AUTOTUNE != CapSense_CSD_SS_DIS) */
 136:Generated_Source\PSoC4/CapSense_Control.c **** 
 137:Generated_Source\PSoC4/CapSense_Control.c ****     #if (CapSense_ANY_NONSS_AUTOCAL)
 138:Generated_Source\PSoC4/CapSense_Control.c ****         if (CYRET_SUCCESS == result)
 139:Generated_Source\PSoC4/CapSense_Control.c ****         {
 140:Generated_Source\PSoC4/CapSense_Control.c ****             result = CapSense_CalibrateAllWidgets();
 141:Generated_Source\PSoC4/CapSense_Control.c ****         }
 142:Generated_Source\PSoC4/CapSense_Control.c ****     #endif
 143:Generated_Source\PSoC4/CapSense_Control.c **** 
 144:Generated_Source\PSoC4/CapSense_Control.c ****     if (CYRET_SUCCESS == result)
ARM GAS  C:\Users\YUANFA~1\AppData\Local\Temp\ccIEyak6.s 			page 4


 145:Generated_Source\PSoC4/CapSense_Control.c ****     {
 146:Generated_Source\PSoC4/CapSense_Control.c ****         result = CapSense_ScanAllWidgets();
 147:Generated_Source\PSoC4/CapSense_Control.c ****     }
 148:Generated_Source\PSoC4/CapSense_Control.c **** 
 149:Generated_Source\PSoC4/CapSense_Control.c ****     if (CYRET_SUCCESS == result)
 150:Generated_Source\PSoC4/CapSense_Control.c ****     {
 151:Generated_Source\PSoC4/CapSense_Control.c ****         /* Init Watchdog Counter to prevent a hang */
 152:Generated_Source\PSoC4/CapSense_Control.c ****         watchdogCounter = CapSense_SW_WATCHDOG_SCAN_ALL;
 153:Generated_Source\PSoC4/CapSense_Control.c **** 
 154:Generated_Source\PSoC4/CapSense_Control.c ****         /* Wait for scan to finish. */
 155:Generated_Source\PSoC4/CapSense_Control.c ****         while((CapSense_NOT_BUSY != CapSense_IsBusy()) && (0u != watchdogCounter))
 156:Generated_Source\PSoC4/CapSense_Control.c ****         {
 157:Generated_Source\PSoC4/CapSense_Control.c ****             watchdogCounter--;
 158:Generated_Source\PSoC4/CapSense_Control.c ****         }
 159:Generated_Source\PSoC4/CapSense_Control.c ****         if (0u == watchdogCounter)
 160:Generated_Source\PSoC4/CapSense_Control.c ****         {
 161:Generated_Source\PSoC4/CapSense_Control.c ****             result = CYRET_TIMEOUT;
 162:Generated_Source\PSoC4/CapSense_Control.c ****         }
 163:Generated_Source\PSoC4/CapSense_Control.c ****     }
 164:Generated_Source\PSoC4/CapSense_Control.c **** 
 165:Generated_Source\PSoC4/CapSense_Control.c ****     CapSense_FtInitialize();
 166:Generated_Source\PSoC4/CapSense_Control.c ****     CapSense_InitializeAllBaselines();
 167:Generated_Source\PSoC4/CapSense_Control.c **** 
 168:Generated_Source\PSoC4/CapSense_Control.c ****     #if(CapSense_ENABLE == CapSense_GES_GLOBAL_EN)
 169:Generated_Source\PSoC4/CapSense_Control.c ****         if (CYRET_SUCCESS == result)
 170:Generated_Source\PSoC4/CapSense_Control.c ****         {
 171:Generated_Source\PSoC4/CapSense_Control.c ****             CapSense_InitializeGestures();
 172:Generated_Source\PSoC4/CapSense_Control.c ****         }
 173:Generated_Source\PSoC4/CapSense_Control.c ****     #endif /* (CapSense_ENABLE == CapSense_GES_GLOBAL_EN) */
 174:Generated_Source\PSoC4/CapSense_Control.c **** 
 175:Generated_Source\PSoC4/CapSense_Control.c ****     #if (0u != CapSense_BALLISTIC_MULTIPLIER_EN)
 176:Generated_Source\PSoC4/CapSense_Control.c ****         if (CYRET_SUCCESS == result)
 177:Generated_Source\PSoC4/CapSense_Control.c ****         {
 178:Generated_Source\PSoC4/CapSense_Control.c ****             CapSense_InitializeBallisticMultiplier();
 179:Generated_Source\PSoC4/CapSense_Control.c ****         }
 180:Generated_Source\PSoC4/CapSense_Control.c ****     #endif /* (0u != CapSense_BALLISTIC_MULTIPLIER_EN) */
 181:Generated_Source\PSoC4/CapSense_Control.c **** 
 182:Generated_Source\PSoC4/CapSense_Control.c ****     #if (0u != CapSense_ADC_EN)
 183:Generated_Source\PSoC4/CapSense_Control.c ****         CapSense_AdcInitialize();
 184:Generated_Source\PSoC4/CapSense_Control.c ****     #endif /* (0u != CapSense_ADC_EN) */
 185:Generated_Source\PSoC4/CapSense_Control.c **** 
 186:Generated_Source\PSoC4/CapSense_Control.c ****     return result;
 187:Generated_Source\PSoC4/CapSense_Control.c **** }
 188:Generated_Source\PSoC4/CapSense_Control.c **** 
 189:Generated_Source\PSoC4/CapSense_Control.c **** /*******************************************************************************
 190:Generated_Source\PSoC4/CapSense_Control.c **** * Function Name: CapSense_Initialize
 191:Generated_Source\PSoC4/CapSense_Control.c **** ****************************************************************************//**
 192:Generated_Source\PSoC4/CapSense_Control.c **** *
 193:Generated_Source\PSoC4/CapSense_Control.c **** * \brief
 194:Generated_Source\PSoC4/CapSense_Control.c **** *  This function initializes the CapSense Component.
 195:Generated_Source\PSoC4/CapSense_Control.c **** *
 196:Generated_Source\PSoC4/CapSense_Control.c **** * \details
 197:Generated_Source\PSoC4/CapSense_Control.c **** *  This API initializes all sub-modules of the CapSense Component:
 198:Generated_Source\PSoC4/CapSense_Control.c **** *   - Data Structure - set the default Component parameters defined in the Customizer.
 199:Generated_Source\PSoC4/CapSense_Control.c **** *   - Data Processing - resets all widget statuses.
 200:Generated_Source\PSoC4/CapSense_Control.c **** *   - Tuner - resets tuning state.
 201:Generated_Source\PSoC4/CapSense_Control.c **** *   - Sensing - prepares CSD HW for operation.
ARM GAS  C:\Users\YUANFA~1\AppData\Local\Temp\ccIEyak6.s 			page 5


 202:Generated_Source\PSoC4/CapSense_Control.c **** *
 203:Generated_Source\PSoC4/CapSense_Control.c **** *  Note that Data Structure module is initialized only once after the reset or
 204:Generated_Source\PSoC4/CapSense_Control.c **** *  CapSense_Stop() API is called. The repeated calls of Initialize API
 205:Generated_Source\PSoC4/CapSense_Control.c **** *  will not re-initialize Data Structure. This is done to preserve Component
 206:Generated_Source\PSoC4/CapSense_Control.c **** *  parameters that user may set in runtime.
 207:Generated_Source\PSoC4/CapSense_Control.c **** *
 208:Generated_Source\PSoC4/CapSense_Control.c **** * \return
 209:Generated_Source\PSoC4/CapSense_Control.c **** *  Return CYRET_SUCCESS if the initialization was successful.
 210:Generated_Source\PSoC4/CapSense_Control.c **** *
 211:Generated_Source\PSoC4/CapSense_Control.c **** *******************************************************************************/
 212:Generated_Source\PSoC4/CapSense_Control.c **** cystatus CapSense_Initialize(void)
 213:Generated_Source\PSoC4/CapSense_Control.c **** {
  28              		.loc 1 213 0
  29              		.cfi_startproc
  30              		@ args = 0, pretend = 0, frame = 0
  31              		@ frame_needed = 0, uses_anonymous_args = 0
  32 0000 10B5     		push	{r4, lr}
  33              		.cfi_def_cfa_offset 8
  34              		.cfi_offset 4, -8
  35              		.cfi_offset 14, -4
 214:Generated_Source\PSoC4/CapSense_Control.c ****     cystatus result;
 215:Generated_Source\PSoC4/CapSense_Control.c **** 
 216:Generated_Source\PSoC4/CapSense_Control.c ****     /* The Data Structure and Tuner are initialized only once */
 217:Generated_Source\PSoC4/CapSense_Control.c ****     if (CapSense_INIT_NEEDED == CapSense_InitVar)
  36              		.loc 1 217 0
  37 0002 084B     		ldr	r3, .L3
  38 0004 1B78     		ldrb	r3, [r3]
  39 0006 002B     		cmp	r3, #0
  40 0008 06D1     		bne	.L2
 218:Generated_Source\PSoC4/CapSense_Control.c ****     {
 219:Generated_Source\PSoC4/CapSense_Control.c ****         CapSense_DsInitialize();
  41              		.loc 1 219 0
  42 000a FFF7FEFF 		bl	CapSense_DsInitialize
  43              	.LVL0:
 220:Generated_Source\PSoC4/CapSense_Control.c ****         CapSense_TuInitialize();
  44              		.loc 1 220 0
  45 000e FFF7FEFF 		bl	CapSense_TuInitialize
  46              	.LVL1:
 221:Generated_Source\PSoC4/CapSense_Control.c ****         CapSense_InitVar = CapSense_INIT_DONE;
  47              		.loc 1 221 0
  48 0012 0122     		movs	r2, #1
  49 0014 034B     		ldr	r3, .L3
  50 0016 1A70     		strb	r2, [r3]
  51              	.L2:
 222:Generated_Source\PSoC4/CapSense_Control.c ****     }
 223:Generated_Source\PSoC4/CapSense_Control.c **** 
 224:Generated_Source\PSoC4/CapSense_Control.c ****     CapSense_DpInitialize();
  52              		.loc 1 224 0
  53 0018 FFF7FEFF 		bl	CapSense_DpInitialize
  54              	.LVL2:
 225:Generated_Source\PSoC4/CapSense_Control.c **** 
 226:Generated_Source\PSoC4/CapSense_Control.c ****     result = CapSense_SsInitialize();
  55              		.loc 1 226 0
  56 001c FFF7FEFF 		bl	CapSense_SsInitialize
  57              	.LVL3:
 227:Generated_Source\PSoC4/CapSense_Control.c **** 
 228:Generated_Source\PSoC4/CapSense_Control.c ****     return result;
ARM GAS  C:\Users\YUANFA~1\AppData\Local\Temp\ccIEyak6.s 			page 6


 229:Generated_Source\PSoC4/CapSense_Control.c **** }
  58              		.loc 1 229 0
  59              		@ sp needed
  60 0020 10BD     		pop	{r4, pc}
  61              	.L4:
  62 0022 C046     		.align	2
  63              	.L3:
  64 0024 00000000 		.word	.LANCHOR0
  65              		.cfi_endproc
  66              	.LFE2:
  67              		.size	CapSense_Initialize, .-CapSense_Initialize
  68              		.section	.text.CapSense_Start,"ax",%progbits
  69              		.align	2
  70              		.global	CapSense_Start
  71              		.code	16
  72              		.thumb_func
  73              		.type	CapSense_Start, %function
  74              	CapSense_Start:
  75              	.LFB1:
 123:Generated_Source\PSoC4/CapSense_Control.c ****     cystatus result;
  76              		.loc 1 123 0
  77              		.cfi_startproc
  78              		@ args = 0, pretend = 0, frame = 0
  79              		@ frame_needed = 0, uses_anonymous_args = 0
  80 0000 70B5     		push	{r4, r5, r6, lr}
  81              		.cfi_def_cfa_offset 16
  82              		.cfi_offset 4, -16
  83              		.cfi_offset 5, -12
  84              		.cfi_offset 6, -8
  85              		.cfi_offset 14, -4
 128:Generated_Source\PSoC4/CapSense_Control.c **** 
  86              		.loc 1 128 0
  87 0002 FFF7FEFF 		bl	CapSense_Initialize
  88              	.LVL4:
  89 0006 051E     		subs	r5, r0, #0
  90              	.LVL5:
 131:Generated_Source\PSoC4/CapSense_Control.c ****         {
  91              		.loc 1 131 0
  92 0008 02D1     		bne	.L6
 133:Generated_Source\PSoC4/CapSense_Control.c ****         }
  93              		.loc 1 133 0
  94 000a FFF7FEFF 		bl	CapSense_SsAutoTune
  95              	.LVL6:
  96 000e 0500     		movs	r5, r0
  97              	.LVL7:
  98              	.L6:
 144:Generated_Source\PSoC4/CapSense_Control.c ****     {
  99              		.loc 1 144 0
 100 0010 002D     		cmp	r5, #0
 101 0012 02D1     		bne	.L7
 146:Generated_Source\PSoC4/CapSense_Control.c ****     }
 102              		.loc 1 146 0
 103 0014 FFF7FEFF 		bl	CapSense_ScanAllWidgets
 104              	.LVL8:
 105 0018 0500     		movs	r5, r0
 106              	.LVL9:
 107              	.L7:
ARM GAS  C:\Users\YUANFA~1\AppData\Local\Temp\ccIEyak6.s 			page 7


 149:Generated_Source\PSoC4/CapSense_Control.c ****     {
 108              		.loc 1 149 0
 109 001a 002D     		cmp	r5, #0
 110 001c 02D0     		beq	.L12
 111 001e 0BE0     		b	.L9
 112              	.LVL10:
 113              	.L11:
 157:Generated_Source\PSoC4/CapSense_Control.c ****         }
 114              		.loc 1 157 0
 115 0020 013C     		subs	r4, r4, #1
 116              	.LVL11:
 117 0022 00E0     		b	.L8
 118              	.LVL12:
 119              	.L12:
 120 0024 074C     		ldr	r4, .L14
 121              	.LVL13:
 122              	.L8:
 155:Generated_Source\PSoC4/CapSense_Control.c ****         {
 123              		.loc 1 155 0
 124 0026 FFF7FEFF 		bl	CapSense_IsBusy
 125              	.LVL14:
 126 002a 0028     		cmp	r0, #0
 127 002c 01D0     		beq	.L10
 155:Generated_Source\PSoC4/CapSense_Control.c ****         {
 128              		.loc 1 155 0 is_stmt 0 discriminator 1
 129 002e 002C     		cmp	r4, #0
 130 0030 F6D1     		bne	.L11
 131              	.L10:
 159:Generated_Source\PSoC4/CapSense_Control.c ****         {
 132              		.loc 1 159 0 is_stmt 1
 133 0032 002C     		cmp	r4, #0
 134 0034 00D1     		bne	.L9
 161:Generated_Source\PSoC4/CapSense_Control.c ****         }
 135              		.loc 1 161 0
 136 0036 1025     		movs	r5, #16
 137              	.LVL15:
 138              	.L9:
 165:Generated_Source\PSoC4/CapSense_Control.c ****     CapSense_InitializeAllBaselines();
 139              		.loc 1 165 0
 140 0038 FFF7FEFF 		bl	CapSense_FtInitialize
 141              	.LVL16:
 166:Generated_Source\PSoC4/CapSense_Control.c **** 
 142              		.loc 1 166 0
 143 003c FFF7FEFF 		bl	CapSense_InitializeAllBaselines
 144              	.LVL17:
 187:Generated_Source\PSoC4/CapSense_Control.c **** 
 145              		.loc 1 187 0
 146 0040 2800     		movs	r0, r5
 147              		@ sp needed
 148              	.LVL18:
 149 0042 70BD     		pop	{r4, r5, r6, pc}
 150              	.L15:
 151              		.align	2
 152              	.L14:
 153 0044 404B4C00 		.word	5000000
 154              		.cfi_endproc
 155              	.LFE1:
ARM GAS  C:\Users\YUANFA~1\AppData\Local\Temp\ccIEyak6.s 			page 8


 156              		.size	CapSense_Start, .-CapSense_Start
 157              		.section	.text.CapSense_Stop,"ax",%progbits
 158              		.align	2
 159              		.global	CapSense_Stop
 160              		.code	16
 161              		.thumb_func
 162              		.type	CapSense_Stop, %function
 163              	CapSense_Stop:
 164              	.LFB3:
 230:Generated_Source\PSoC4/CapSense_Control.c **** 
 231:Generated_Source\PSoC4/CapSense_Control.c **** /*******************************************************************************
 232:Generated_Source\PSoC4/CapSense_Control.c **** * Function Name: CapSense_Stop
 233:Generated_Source\PSoC4/CapSense_Control.c **** ****************************************************************************//**
 234:Generated_Source\PSoC4/CapSense_Control.c **** *
 235:Generated_Source\PSoC4/CapSense_Control.c **** * \brief
 236:Generated_Source\PSoC4/CapSense_Control.c **** *  Stops the Component operation.
 237:Generated_Source\PSoC4/CapSense_Control.c **** *
 238:Generated_Source\PSoC4/CapSense_Control.c **** * \details
 239:Generated_Source\PSoC4/CapSense_Control.c **** *  This function stops the Component operation, no sensor scanning can be
 240:Generated_Source\PSoC4/CapSense_Control.c **** *  executed when the Component is stopped. Once stopped, the hardware block may
 241:Generated_Source\PSoC4/CapSense_Control.c **** *  be reconfigured by the application program for any other special usage. The
 242:Generated_Source\PSoC4/CapSense_Control.c **** *  Component operation can be resumed by calling the CapSense_Resume()
 243:Generated_Source\PSoC4/CapSense_Control.c **** *  function or the Component can be reset by calling the
 244:Generated_Source\PSoC4/CapSense_Control.c **** *  CapSense_Start() function.
 245:Generated_Source\PSoC4/CapSense_Control.c **** *
 246:Generated_Source\PSoC4/CapSense_Control.c **** *  This function is called when no scanning is in progress.
 247:Generated_Source\PSoC4/CapSense_Control.c **** *  I.e. CapSense_IsBusy() returns a non-busy status.
 248:Generated_Source\PSoC4/CapSense_Control.c **** *
 249:Generated_Source\PSoC4/CapSense_Control.c **** * \return
 250:Generated_Source\PSoC4/CapSense_Control.c **** *  Returns the status of the stop process. If CYRET_SUCCESS is not received,
 251:Generated_Source\PSoC4/CapSense_Control.c **** *  the stop process fails and retries may be required.
 252:Generated_Source\PSoC4/CapSense_Control.c **** *
 253:Generated_Source\PSoC4/CapSense_Control.c **** *******************************************************************************/
 254:Generated_Source\PSoC4/CapSense_Control.c **** cystatus CapSense_Stop(void)
 255:Generated_Source\PSoC4/CapSense_Control.c **** {
 165              		.loc 1 255 0
 166              		.cfi_startproc
 167              		@ args = 0, pretend = 0, frame = 0
 168              		@ frame_needed = 0, uses_anonymous_args = 0
 169              		@ link register save eliminated.
 170              	.LVL19:
 256:Generated_Source\PSoC4/CapSense_Control.c ****     cystatus result = CYRET_SUCCESS;
 257:Generated_Source\PSoC4/CapSense_Control.c **** 
 258:Generated_Source\PSoC4/CapSense_Control.c ****     #if (CapSense_ENABLE == CapSense_ADC_EN)
 259:Generated_Source\PSoC4/CapSense_Control.c ****         /* Release CSD resources */
 260:Generated_Source\PSoC4/CapSense_Control.c ****         result = CapSense_SsReleaseResources();
 261:Generated_Source\PSoC4/CapSense_Control.c **** 
 262:Generated_Source\PSoC4/CapSense_Control.c ****         /* Release ADC resources */
 263:Generated_Source\PSoC4/CapSense_Control.c ****         CapSense_AdcStop();
 264:Generated_Source\PSoC4/CapSense_Control.c ****     #endif /* (CapSense_ENABLE == CapSense_ADC_EN) */
 265:Generated_Source\PSoC4/CapSense_Control.c **** 
 266:Generated_Source\PSoC4/CapSense_Control.c ****     CapSense_InitVar = CapSense_INIT_NEEDED;
 171              		.loc 1 266 0
 172 0000 0022     		movs	r2, #0
 173 0002 024B     		ldr	r3, .L17
 174 0004 1A70     		strb	r2, [r3]
 267:Generated_Source\PSoC4/CapSense_Control.c **** 
ARM GAS  C:\Users\YUANFA~1\AppData\Local\Temp\ccIEyak6.s 			page 9


 268:Generated_Source\PSoC4/CapSense_Control.c ****     return result;
 269:Generated_Source\PSoC4/CapSense_Control.c **** }
 175              		.loc 1 269 0
 176 0006 0020     		movs	r0, #0
 177              		@ sp needed
 178 0008 7047     		bx	lr
 179              	.L18:
 180 000a C046     		.align	2
 181              	.L17:
 182 000c 00000000 		.word	.LANCHOR0
 183              		.cfi_endproc
 184              	.LFE3:
 185              		.size	CapSense_Stop, .-CapSense_Stop
 186              		.section	.text.CapSense_Resume,"ax",%progbits
 187              		.align	2
 188              		.global	CapSense_Resume
 189              		.code	16
 190              		.thumb_func
 191              		.type	CapSense_Resume, %function
 192              	CapSense_Resume:
 193              	.LFB4:
 270:Generated_Source\PSoC4/CapSense_Control.c **** 
 271:Generated_Source\PSoC4/CapSense_Control.c **** /*******************************************************************************
 272:Generated_Source\PSoC4/CapSense_Control.c **** * Function Name: CapSense_Resume
 273:Generated_Source\PSoC4/CapSense_Control.c **** ****************************************************************************//**
 274:Generated_Source\PSoC4/CapSense_Control.c **** *
 275:Generated_Source\PSoC4/CapSense_Control.c **** * \brief
 276:Generated_Source\PSoC4/CapSense_Control.c **** *  Resumes the Component operation if the CapSense_Stop() function was
 277:Generated_Source\PSoC4/CapSense_Control.c **** *  called previously.
 278:Generated_Source\PSoC4/CapSense_Control.c **** *
 279:Generated_Source\PSoC4/CapSense_Control.c **** * \details
 280:Generated_Source\PSoC4/CapSense_Control.c **** *  This function resumes the Component operation if the operation is stopped
 281:Generated_Source\PSoC4/CapSense_Control.c **** *  previously by the CapSense_Stop() function. The following tasks are
 282:Generated_Source\PSoC4/CapSense_Control.c **** *  executed as part of the operation resume process:
 283:Generated_Source\PSoC4/CapSense_Control.c **** *    1. Reset all the Widgets/Sensors statuses.
 284:Generated_Source\PSoC4/CapSense_Control.c **** *    2. Configure the hardware to perform sensing.
 285:Generated_Source\PSoC4/CapSense_Control.c **** *
 286:Generated_Source\PSoC4/CapSense_Control.c **** * \return
 287:Generated_Source\PSoC4/CapSense_Control.c **** *  Returns the status of the resume process. If CYRET_SUCCESS is not received,
 288:Generated_Source\PSoC4/CapSense_Control.c **** *  the resume process fails and retries may be required.
 289:Generated_Source\PSoC4/CapSense_Control.c **** *
 290:Generated_Source\PSoC4/CapSense_Control.c **** *******************************************************************************/
 291:Generated_Source\PSoC4/CapSense_Control.c **** cystatus CapSense_Resume(void)
 292:Generated_Source\PSoC4/CapSense_Control.c **** {
 194              		.loc 1 292 0
 195              		.cfi_startproc
 196              		@ args = 0, pretend = 0, frame = 0
 197              		@ frame_needed = 0, uses_anonymous_args = 0
 198 0000 10B5     		push	{r4, lr}
 199              		.cfi_def_cfa_offset 8
 200              		.cfi_offset 4, -8
 201              		.cfi_offset 14, -4
 293:Generated_Source\PSoC4/CapSense_Control.c ****     cystatus result;
 294:Generated_Source\PSoC4/CapSense_Control.c **** 
 295:Generated_Source\PSoC4/CapSense_Control.c ****     /* The Tuner are initialized only once in order not to break communication */
 296:Generated_Source\PSoC4/CapSense_Control.c ****     if (CapSense_INIT_NEEDED == CapSense_InitVar)
 202              		.loc 1 296 0
ARM GAS  C:\Users\YUANFA~1\AppData\Local\Temp\ccIEyak6.s 			page 10


 203 0002 074B     		ldr	r3, .L21
 204 0004 1B78     		ldrb	r3, [r3]
 205 0006 002B     		cmp	r3, #0
 206 0008 04D1     		bne	.L20
 297:Generated_Source\PSoC4/CapSense_Control.c ****     {
 298:Generated_Source\PSoC4/CapSense_Control.c ****         CapSense_TuInitialize();
 207              		.loc 1 298 0
 208 000a FFF7FEFF 		bl	CapSense_TuInitialize
 209              	.LVL20:
 299:Generated_Source\PSoC4/CapSense_Control.c ****         CapSense_InitVar = CapSense_INIT_DONE;
 210              		.loc 1 299 0
 211 000e 0122     		movs	r2, #1
 212 0010 034B     		ldr	r3, .L21
 213 0012 1A70     		strb	r2, [r3]
 214              	.L20:
 300:Generated_Source\PSoC4/CapSense_Control.c ****     }
 301:Generated_Source\PSoC4/CapSense_Control.c ****     CapSense_DpInitialize();
 215              		.loc 1 301 0
 216 0014 FFF7FEFF 		bl	CapSense_DpInitialize
 217              	.LVL21:
 302:Generated_Source\PSoC4/CapSense_Control.c **** 
 303:Generated_Source\PSoC4/CapSense_Control.c ****     result = CapSense_SsInitialize();
 218              		.loc 1 303 0
 219 0018 FFF7FEFF 		bl	CapSense_SsInitialize
 220              	.LVL22:
 304:Generated_Source\PSoC4/CapSense_Control.c **** 
 305:Generated_Source\PSoC4/CapSense_Control.c ****     return result;
 306:Generated_Source\PSoC4/CapSense_Control.c **** }
 221              		.loc 1 306 0
 222              		@ sp needed
 223 001c 10BD     		pop	{r4, pc}
 224              	.L22:
 225 001e C046     		.align	2
 226              	.L21:
 227 0020 00000000 		.word	.LANCHOR0
 228              		.cfi_endproc
 229              	.LFE4:
 230              		.size	CapSense_Resume, .-CapSense_Resume
 231              		.section	.text.CapSense_ProcessAllWidgets,"ax",%progbits
 232              		.align	2
 233              		.global	CapSense_ProcessAllWidgets
 234              		.code	16
 235              		.thumb_func
 236              		.type	CapSense_ProcessAllWidgets, %function
 237              	CapSense_ProcessAllWidgets:
 238              	.LFB5:
 307:Generated_Source\PSoC4/CapSense_Control.c **** 
 308:Generated_Source\PSoC4/CapSense_Control.c **** /*******************************************************************************
 309:Generated_Source\PSoC4/CapSense_Control.c **** * Function Name: CapSense_ProcessAllWidgets
 310:Generated_Source\PSoC4/CapSense_Control.c **** ****************************************************************************//**
 311:Generated_Source\PSoC4/CapSense_Control.c **** *
 312:Generated_Source\PSoC4/CapSense_Control.c **** * \brief
 313:Generated_Source\PSoC4/CapSense_Control.c **** *  Performs full data processing of all enabled widgets.
 314:Generated_Source\PSoC4/CapSense_Control.c **** *
 315:Generated_Source\PSoC4/CapSense_Control.c **** * \details
 316:Generated_Source\PSoC4/CapSense_Control.c **** *  This function performs all data processes for all enabled widgets in the
 317:Generated_Source\PSoC4/CapSense_Control.c **** *  Component. The following tasks are executed as part of processing all the
ARM GAS  C:\Users\YUANFA~1\AppData\Local\Temp\ccIEyak6.s 			page 11


 318:Generated_Source\PSoC4/CapSense_Control.c **** *  widgets:
 319:Generated_Source\PSoC4/CapSense_Control.c **** *    1. Apply raw count filters to the raw counts, if they are enabled in the
 320:Generated_Source\PSoC4/CapSense_Control.c **** *       customizer.
 321:Generated_Source\PSoC4/CapSense_Control.c **** *    2. Update the thresholds if the SmartSense Full Auto-Tuning is enabled in
 322:Generated_Source\PSoC4/CapSense_Control.c **** *       the customizer.
 323:Generated_Source\PSoC4/CapSense_Control.c **** *    3. Update the baselines and difference counts for all the sensors.
 324:Generated_Source\PSoC4/CapSense_Control.c **** *    4. Update the sensor and widget status (on/off), update the centroid for
 325:Generated_Source\PSoC4/CapSense_Control.c **** *       the sliders and the X/Y position for the touchpads.
 326:Generated_Source\PSoC4/CapSense_Control.c **** *
 327:Generated_Source\PSoC4/CapSense_Control.c **** *  This function is called by an application program only after all the enabled
 328:Generated_Source\PSoC4/CapSense_Control.c **** *  widgets (and sensors) in the Component is scanned. Calling this function
 329:Generated_Source\PSoC4/CapSense_Control.c **** *  multiple times without sensor scanning causes unexpected behavior.
 330:Generated_Source\PSoC4/CapSense_Control.c **** *
 331:Generated_Source\PSoC4/CapSense_Control.c **** *  The disabled widgets are not processed by this function. To disable/enable
 332:Generated_Source\PSoC4/CapSense_Control.c **** *  a widget, set the appropriate values in the
 333:Generated_Source\PSoC4/CapSense_Control.c **** *  CapSense_WDGT_ENABLE<RegisterNumber>_PARAM_ID register using the
 334:Generated_Source\PSoC4/CapSense_Control.c **** *  CapSense_SetParam() function.
 335:Generated_Source\PSoC4/CapSense_Control.c **** *
 336:Generated_Source\PSoC4/CapSense_Control.c **** *  If the Ballistic multiplier filter is enabled the Timestamp must be
 337:Generated_Source\PSoC4/CapSense_Control.c **** *  updated before calling this function using the
 338:Generated_Source\PSoC4/CapSense_Control.c **** *  CapSense_IncrementGestureTimestamp() function.
 339:Generated_Source\PSoC4/CapSense_Control.c **** *
 340:Generated_Source\PSoC4/CapSense_Control.c **** *  If the Self-test library is enabled, this function executes the baseline duplication
 341:Generated_Source\PSoC4/CapSense_Control.c **** *  test. Refer to CapSense_CheckBaselineDuplication() for details.
 342:Generated_Source\PSoC4/CapSense_Control.c **** *
 343:Generated_Source\PSoC4/CapSense_Control.c **** *  If the ballistic multiplier filter is enabled, make sure the timestamp is
 344:Generated_Source\PSoC4/CapSense_Control.c **** *  updated before calling this function. Use one of the following functions to update
 345:Generated_Source\PSoC4/CapSense_Control.c **** *  the timestamp:
 346:Generated_Source\PSoC4/CapSense_Control.c **** *  - CapSense_IncrementGestureTimestamp().
 347:Generated_Source\PSoC4/CapSense_Control.c **** *  - CapSense_SetGestureTimestamp().
 348:Generated_Source\PSoC4/CapSense_Control.c **** *
 349:Generated_Source\PSoC4/CapSense_Control.c **** * \return
 350:Generated_Source\PSoC4/CapSense_Control.c **** *  Returns the status of the processing operation. If CYRET_SUCCESS is not received,
 351:Generated_Source\PSoC4/CapSense_Control.c **** *  the processing fails and retries may be required.
 352:Generated_Source\PSoC4/CapSense_Control.c **** *
 353:Generated_Source\PSoC4/CapSense_Control.c **** *******************************************************************************/
 354:Generated_Source\PSoC4/CapSense_Control.c **** cystatus CapSense_ProcessAllWidgets(void)
 355:Generated_Source\PSoC4/CapSense_Control.c **** {
 239              		.loc 1 355 0
 240              		.cfi_startproc
 241              		@ args = 0, pretend = 0, frame = 0
 242              		@ frame_needed = 0, uses_anonymous_args = 0
 243 0000 70B5     		push	{r4, r5, r6, lr}
 244              		.cfi_def_cfa_offset 16
 245              		.cfi_offset 4, -16
 246              		.cfi_offset 5, -12
 247              		.cfi_offset 6, -8
 248              		.cfi_offset 14, -4
 249              	.LVL23:
 356:Generated_Source\PSoC4/CapSense_Control.c ****     uint32 wdgtId;
 357:Generated_Source\PSoC4/CapSense_Control.c ****     cystatus result = CYRET_SUCCESS;
 358:Generated_Source\PSoC4/CapSense_Control.c ****     CapSense_FLASH_WD_STRUCT const *ptrFlashWdgt;
 359:Generated_Source\PSoC4/CapSense_Control.c **** 
 360:Generated_Source\PSoC4/CapSense_Control.c ****     ptrFlashWdgt = CapSense_dsFlash.wdgtArray;
 250              		.loc 1 360 0
 251 0002 144D     		ldr	r5, .L27
 357:Generated_Source\PSoC4/CapSense_Control.c ****     CapSense_FLASH_WD_STRUCT const *ptrFlashWdgt;
ARM GAS  C:\Users\YUANFA~1\AppData\Local\Temp\ccIEyak6.s 			page 12


 252              		.loc 1 357 0
 253 0004 0026     		movs	r6, #0
 361:Generated_Source\PSoC4/CapSense_Control.c **** 
 362:Generated_Source\PSoC4/CapSense_Control.c ****     for (wdgtId = 0u; wdgtId < CapSense_TOTAL_WIDGETS; wdgtId++)
 254              		.loc 1 362 0
 255 0006 0024     		movs	r4, #0
 256 0008 1FE0     		b	.L24
 257              	.LVL24:
 258              	.L26:
 363:Generated_Source\PSoC4/CapSense_Control.c ****     {
 364:Generated_Source\PSoC4/CapSense_Control.c ****         if (0uL != CapSense_GET_WIDGET_EN_STATUS(wdgtId))
 259              		.loc 1 364 0
 260 000a 1F23     		movs	r3, #31
 261 000c 2340     		ands	r3, r4
 262 000e 0122     		movs	r2, #1
 263 0010 9A40     		lsls	r2, r2, r3
 264 0012 1100     		movs	r1, r2
 265 0014 6209     		lsrs	r2, r4, #5
 266 0016 1048     		ldr	r0, .L27+4
 267 0018 0432     		adds	r2, r2, #4
 268 001a 9300     		lsls	r3, r2, #2
 269 001c 1A58     		ldr	r2, [r3, r0]
 270 001e 0A40     		ands	r2, r1
 271 0020 C318     		adds	r3, r0, r3
 272 0022 5B68     		ldr	r3, [r3, #4]
 273 0024 1342     		tst	r3, r2
 274 0026 0ED0     		beq	.L25
 365:Generated_Source\PSoC4/CapSense_Control.c ****         {
 366:Generated_Source\PSoC4/CapSense_Control.c ****             switch(CapSense_GET_SENSE_METHOD(ptrFlashWdgt))
 367:Generated_Source\PSoC4/CapSense_Control.c ****             {
 368:Generated_Source\PSoC4/CapSense_Control.c ****             #if (0u != CapSense_TOTAL_CSD_WIDGETS)
 369:Generated_Source\PSoC4/CapSense_Control.c ****                 case CapSense_SENSE_METHOD_CSD_E:
 370:Generated_Source\PSoC4/CapSense_Control.c ****                     result = CapSense_DpProcessCsdWidgetRawCounts(ptrFlashWdgt);
 275              		.loc 1 370 0
 276 0028 2800     		movs	r0, r5
 277 002a FFF7FEFF 		bl	CapSense_DpProcessCsdWidgetRawCounts
 278              	.LVL25:
 279 002e 0600     		movs	r6, r0
 280              	.LVL26:
 371:Generated_Source\PSoC4/CapSense_Control.c ****                     CapSense_DpProcessCsdWidgetStatus(wdgtId, ptrFlashWdgt);
 281              		.loc 1 371 0
 282 0030 2900     		movs	r1, r5
 283 0032 2000     		movs	r0, r4
 284              	.LVL27:
 285 0034 FFF7FEFF 		bl	CapSense_DpProcessCsdWidgetStatus
 286              	.LVL28:
 372:Generated_Source\PSoC4/CapSense_Control.c ****                     break;
 373:Generated_Source\PSoC4/CapSense_Control.c ****             #endif /* #if (0u != CapSense_TOTAL_CSD_WIDGETS) */
 374:Generated_Source\PSoC4/CapSense_Control.c **** 
 375:Generated_Source\PSoC4/CapSense_Control.c ****             #if (0u != CapSense_TOTAL_CSX_WIDGETS)
 376:Generated_Source\PSoC4/CapSense_Control.c ****                 case CapSense_SENSE_METHOD_CSX_E:
 377:Generated_Source\PSoC4/CapSense_Control.c ****                     result = CapSense_DpProcessCsxWidgetRawCounts(ptrFlashWdgt);
 378:Generated_Source\PSoC4/CapSense_Control.c ****                     CapSense_DpProcessCsxWidgetStatus(wdgtId, ptrFlashWdgt);
 379:Generated_Source\PSoC4/CapSense_Control.c ****                     break;
 380:Generated_Source\PSoC4/CapSense_Control.c ****             #endif /* #if (0u != CapSense_TOTAL_CSX_WIDGETS) */
 381:Generated_Source\PSoC4/CapSense_Control.c **** 
 382:Generated_Source\PSoC4/CapSense_Control.c ****             #if (0u != CapSense_TOTAL_ISX_WIDGETS)
ARM GAS  C:\Users\YUANFA~1\AppData\Local\Temp\ccIEyak6.s 			page 13


 383:Generated_Source\PSoC4/CapSense_Control.c ****                 case CapSense_SENSE_METHOD_ISX_E:
 384:Generated_Source\PSoC4/CapSense_Control.c ****                     result = CapSense_DpProcessIsxWidgetRawCounts(ptrFlashWdgt);
 385:Generated_Source\PSoC4/CapSense_Control.c ****                     CapSense_DpProcessIsxWidgetStatus(wdgtId, ptrFlashWdgt);
 386:Generated_Source\PSoC4/CapSense_Control.c ****                     break;
 387:Generated_Source\PSoC4/CapSense_Control.c ****             #endif /* #if (0u != CapSense_TOTAL_ISX_WIDGETS) */
 388:Generated_Source\PSoC4/CapSense_Control.c **** 
 389:Generated_Source\PSoC4/CapSense_Control.c ****             default:
 390:Generated_Source\PSoC4/CapSense_Control.c ****                 CYASSERT(0u);
 391:Generated_Source\PSoC4/CapSense_Control.c ****                 break;
 392:Generated_Source\PSoC4/CapSense_Control.c ****             }
 393:Generated_Source\PSoC4/CapSense_Control.c **** 
 394:Generated_Source\PSoC4/CapSense_Control.c ****             #if (CapSense_ENABLE == CapSense_TST_BSLN_DUPLICATION_EN)
 395:Generated_Source\PSoC4/CapSense_Control.c ****                 if (CYRET_SUCCESS != result)
 287              		.loc 1 395 0
 288 0038 002E     		cmp	r6, #0
 289 003a 04D0     		beq	.L25
 396:Generated_Source\PSoC4/CapSense_Control.c ****                 {
 397:Generated_Source\PSoC4/CapSense_Control.c ****                     CapSense_UpdateTestResultBaselineDuplication(wdgtId, result);
 290              		.loc 1 397 0
 291 003c 3100     		movs	r1, r6
 292 003e 2000     		movs	r0, r4
 293 0040 FFF7FEFF 		bl	CapSense_UpdateTestResultBaselineDuplication
 294              	.LVL29:
 398:Generated_Source\PSoC4/CapSense_Control.c ****                     result = CYRET_BAD_DATA;
 295              		.loc 1 398 0
 296 0044 0626     		movs	r6, #6
 297              	.LVL30:
 298              	.L25:
 399:Generated_Source\PSoC4/CapSense_Control.c ****                 }
 400:Generated_Source\PSoC4/CapSense_Control.c ****             #endif /* (CapSense_ENABLE == CapSense_TST_BSLN_DUPLICATION_EN) */
 401:Generated_Source\PSoC4/CapSense_Control.c **** 
 402:Generated_Source\PSoC4/CapSense_Control.c ****         }
 403:Generated_Source\PSoC4/CapSense_Control.c ****         ptrFlashWdgt++;
 299              		.loc 1 403 0 discriminator 2
 300 0046 2035     		adds	r5, r5, #32
 301              	.LVL31:
 362:Generated_Source\PSoC4/CapSense_Control.c ****     {
 302              		.loc 1 362 0 discriminator 2
 303 0048 0134     		adds	r4, r4, #1
 304              	.LVL32:
 305              	.L24:
 362:Generated_Source\PSoC4/CapSense_Control.c ****     {
 306              		.loc 1 362 0 is_stmt 0 discriminator 1
 307 004a 122C     		cmp	r4, #18
 308 004c DDD9     		bls	.L26
 404:Generated_Source\PSoC4/CapSense_Control.c ****     }
 405:Generated_Source\PSoC4/CapSense_Control.c ****     return result;
 406:Generated_Source\PSoC4/CapSense_Control.c **** }
 309              		.loc 1 406 0 is_stmt 1
 310 004e 3000     		movs	r0, r6
 311              		@ sp needed
 312              	.LVL33:
 313              	.LVL34:
 314              	.LVL35:
 315 0050 70BD     		pop	{r4, r5, r6, pc}
 316              	.L28:
 317 0052 C046     		.align	2
ARM GAS  C:\Users\YUANFA~1\AppData\Local\Temp\ccIEyak6.s 			page 14


 318              	.L27:
 319 0054 00000000 		.word	CapSense_dsFlash
 320 0058 00000000 		.word	CapSense_dsRam
 321              		.cfi_endproc
 322              	.LFE5:
 323              		.size	CapSense_ProcessAllWidgets, .-CapSense_ProcessAllWidgets
 324              		.section	.text.CapSense_ProcessWidget,"ax",%progbits
 325              		.align	2
 326              		.global	CapSense_ProcessWidget
 327              		.code	16
 328              		.thumb_func
 329              		.type	CapSense_ProcessWidget, %function
 330              	CapSense_ProcessWidget:
 331              	.LFB6:
 407:Generated_Source\PSoC4/CapSense_Control.c **** 
 408:Generated_Source\PSoC4/CapSense_Control.c **** /*******************************************************************************
 409:Generated_Source\PSoC4/CapSense_Control.c **** * Function Name: CapSense_ProcessWidget
 410:Generated_Source\PSoC4/CapSense_Control.c **** ****************************************************************************//**
 411:Generated_Source\PSoC4/CapSense_Control.c **** *
 412:Generated_Source\PSoC4/CapSense_Control.c **** * \brief
 413:Generated_Source\PSoC4/CapSense_Control.c **** *  Performs full data processing of the specified widget if it is enabled.
 414:Generated_Source\PSoC4/CapSense_Control.c **** *
 415:Generated_Source\PSoC4/CapSense_Control.c **** * \details
 416:Generated_Source\PSoC4/CapSense_Control.c **** *  This function performs exactly the same tasks as
 417:Generated_Source\PSoC4/CapSense_Control.c **** *  CapSense_ProcessAllWidgets(), but only for a specified widget. This
 418:Generated_Source\PSoC4/CapSense_Control.c **** *  function can be used along with the CapSense_SetupWidget() and
 419:Generated_Source\PSoC4/CapSense_Control.c **** *  CapSense_Scan() functions to scan and process data for a specific
 420:Generated_Source\PSoC4/CapSense_Control.c **** *  widget. This function is called only after all the sensors in the
 421:Generated_Source\PSoC4/CapSense_Control.c **** *  widgets are scanned. A disabled widget is not processed by this function.
 422:Generated_Source\PSoC4/CapSense_Control.c **** *
 423:Generated_Source\PSoC4/CapSense_Control.c **** *  A pipeline scan method (i.e. during scanning of a widget perform processing
 424:Generated_Source\PSoC4/CapSense_Control.c **** *  of the previously scanned widget) can be implemented using this function and
 425:Generated_Source\PSoC4/CapSense_Control.c **** *  it may reduce the total execution time, increase the refresh rate and
 426:Generated_Source\PSoC4/CapSense_Control.c **** *  decrease the average power consumption.
 427:Generated_Source\PSoC4/CapSense_Control.c **** *
 428:Generated_Source\PSoC4/CapSense_Control.c **** *  If the Ballistic multiplier filter is enabled the Timestamp must be
 429:Generated_Source\PSoC4/CapSense_Control.c **** *  updated before calling this function using the
 430:Generated_Source\PSoC4/CapSense_Control.c **** *  CapSense_IncrementGestureTimestamp() function.
 431:Generated_Source\PSoC4/CapSense_Control.c **** *
 432:Generated_Source\PSoC4/CapSense_Control.c **** *  If the Self-test library is enabled, this function executes the baseline duplication
 433:Generated_Source\PSoC4/CapSense_Control.c **** *  test. Refer to CapSense_CheckBaselineDuplication() for details.
 434:Generated_Source\PSoC4/CapSense_Control.c **** *
 435:Generated_Source\PSoC4/CapSense_Control.c **** *  If the specified widget has enabled ballistic multiplier filter, make sure
 436:Generated_Source\PSoC4/CapSense_Control.c **** *  the timestamp is updated before calling this function. Use one of the following
 437:Generated_Source\PSoC4/CapSense_Control.c **** *  functions to update the timestamp:
 438:Generated_Source\PSoC4/CapSense_Control.c **** *  - CapSense_IncrementGestureTimestamp().
 439:Generated_Source\PSoC4/CapSense_Control.c **** *  - CapSense_SetGestureTimestamp().
 440:Generated_Source\PSoC4/CapSense_Control.c **** *
 441:Generated_Source\PSoC4/CapSense_Control.c **** * \param widgetId
 442:Generated_Source\PSoC4/CapSense_Control.c **** *  Specifies the ID number of the widget to be processed.
 443:Generated_Source\PSoC4/CapSense_Control.c **** *  A macro for the widget ID can be found in the
 444:Generated_Source\PSoC4/CapSense_Control.c **** *  CapSense Configuration header file defined as
 445:Generated_Source\PSoC4/CapSense_Control.c **** *  CapSense_<WidgetName>_WDGT_ID
 446:Generated_Source\PSoC4/CapSense_Control.c **** *
 447:Generated_Source\PSoC4/CapSense_Control.c **** * \return
 448:Generated_Source\PSoC4/CapSense_Control.c **** *  Returns the status of the widget processing:
 449:Generated_Source\PSoC4/CapSense_Control.c **** *  - CYRET_SUCCESS - The operation is successfully completed.
ARM GAS  C:\Users\YUANFA~1\AppData\Local\Temp\ccIEyak6.s 			page 15


 450:Generated_Source\PSoC4/CapSense_Control.c **** *  - CYRET_BAD_PARAM - The input parameter is invalid.
 451:Generated_Source\PSoC4/CapSense_Control.c **** *  - CYRET_INVALID_STATE - The specified widget is disabled.
 452:Generated_Source\PSoC4/CapSense_Control.c **** *  - CYRET_BAD_DATA - The processing is failed.
 453:Generated_Source\PSoC4/CapSense_Control.c **** *
 454:Generated_Source\PSoC4/CapSense_Control.c **** *******************************************************************************/
 455:Generated_Source\PSoC4/CapSense_Control.c **** cystatus CapSense_ProcessWidget(uint32 widgetId)
 456:Generated_Source\PSoC4/CapSense_Control.c **** {
 332              		.loc 1 456 0
 333              		.cfi_startproc
 334              		@ args = 0, pretend = 0, frame = 0
 335              		@ frame_needed = 0, uses_anonymous_args = 0
 336              	.LVL36:
 337 0000 70B5     		push	{r4, r5, r6, lr}
 338              		.cfi_def_cfa_offset 16
 339              		.cfi_offset 4, -16
 340              		.cfi_offset 5, -12
 341              		.cfi_offset 6, -8
 342              		.cfi_offset 14, -4
 343 0002 0500     		movs	r5, r0
 344              	.LVL37:
 457:Generated_Source\PSoC4/CapSense_Control.c ****     cystatus result = CYRET_SUCCESS;
 458:Generated_Source\PSoC4/CapSense_Control.c ****     CapSense_FLASH_WD_STRUCT const *ptrFlashWdgt;
 459:Generated_Source\PSoC4/CapSense_Control.c **** 
 460:Generated_Source\PSoC4/CapSense_Control.c ****     if (widgetId >= CapSense_TOTAL_WIDGETS)
 345              		.loc 1 460 0
 346 0004 1228     		cmp	r0, #18
 347 0006 01D8     		bhi	.L33
 457:Generated_Source\PSoC4/CapSense_Control.c ****     cystatus result = CYRET_SUCCESS;
 348              		.loc 1 457 0
 349 0008 0024     		movs	r4, #0
 350 000a 00E0     		b	.L30
 351              	.L33:
 461:Generated_Source\PSoC4/CapSense_Control.c ****     {
 462:Generated_Source\PSoC4/CapSense_Control.c ****         result = CYRET_BAD_PARAM;
 352              		.loc 1 462 0
 353 000c 0124     		movs	r4, #1
 354              	.L30:
 355              	.LVL38:
 463:Generated_Source\PSoC4/CapSense_Control.c ****     }
 464:Generated_Source\PSoC4/CapSense_Control.c **** 
 465:Generated_Source\PSoC4/CapSense_Control.c ****     if ((CYRET_SUCCESS == result) && (0uL == CapSense_GET_WIDGET_EN_STATUS(widgetId)))
 356              		.loc 1 465 0
 357 000e 002C     		cmp	r4, #0
 358 0010 0FD1     		bne	.L31
 359              		.loc 1 465 0 is_stmt 0 discriminator 1
 360 0012 1F23     		movs	r3, #31
 361 0014 2B40     		ands	r3, r5
 362 0016 0122     		movs	r2, #1
 363 0018 9A40     		lsls	r2, r2, r3
 364 001a 1100     		movs	r1, r2
 365 001c 6A09     		lsrs	r2, r5, #5
 366 001e 1048     		ldr	r0, .L35
 367              	.LVL39:
 368 0020 0432     		adds	r2, r2, #4
 369 0022 9300     		lsls	r3, r2, #2
 370 0024 1A58     		ldr	r2, [r3, r0]
 371 0026 0A40     		ands	r2, r1
ARM GAS  C:\Users\YUANFA~1\AppData\Local\Temp\ccIEyak6.s 			page 16


 372 0028 C318     		adds	r3, r0, r3
 373 002a 5B68     		ldr	r3, [r3, #4]
 374 002c 1342     		tst	r3, r2
 375 002e 00D1     		bne	.L31
 466:Generated_Source\PSoC4/CapSense_Control.c ****     {
 467:Generated_Source\PSoC4/CapSense_Control.c ****         result = CYRET_INVALID_STATE;
 376              		.loc 1 467 0 is_stmt 1
 377 0030 1134     		adds	r4, r4, #17
 378              	.LVL40:
 379              	.L31:
 468:Generated_Source\PSoC4/CapSense_Control.c ****     }
 469:Generated_Source\PSoC4/CapSense_Control.c **** 
 470:Generated_Source\PSoC4/CapSense_Control.c ****     if (CYRET_SUCCESS == result)
 380              		.loc 1 470 0
 381 0032 002C     		cmp	r4, #0
 382 0034 11D1     		bne	.L32
 471:Generated_Source\PSoC4/CapSense_Control.c ****     {
 472:Generated_Source\PSoC4/CapSense_Control.c ****         ptrFlashWdgt = &CapSense_dsFlash.wdgtArray[widgetId];
 383              		.loc 1 472 0
 384 0036 6E01     		lsls	r6, r5, #5
 385 0038 0A4B     		ldr	r3, .L35+4
 386 003a F618     		adds	r6, r6, r3
 387              	.LVL41:
 473:Generated_Source\PSoC4/CapSense_Control.c **** 
 474:Generated_Source\PSoC4/CapSense_Control.c ****         switch(CapSense_GET_SENSE_METHOD(ptrFlashWdgt))
 475:Generated_Source\PSoC4/CapSense_Control.c ****         {
 476:Generated_Source\PSoC4/CapSense_Control.c ****         #if (0u != CapSense_TOTAL_CSD_WIDGETS)
 477:Generated_Source\PSoC4/CapSense_Control.c ****             case CapSense_SENSE_METHOD_CSD_E:
 478:Generated_Source\PSoC4/CapSense_Control.c ****                 result = CapSense_DpProcessCsdWidgetRawCounts(ptrFlashWdgt);
 388              		.loc 1 478 0
 389 003c 3000     		movs	r0, r6
 390 003e FFF7FEFF 		bl	CapSense_DpProcessCsdWidgetRawCounts
 391              	.LVL42:
 392 0042 0400     		movs	r4, r0
 393              	.LVL43:
 479:Generated_Source\PSoC4/CapSense_Control.c ****                 CapSense_DpProcessCsdWidgetStatus(widgetId, ptrFlashWdgt);
 394              		.loc 1 479 0
 395 0044 3100     		movs	r1, r6
 396 0046 2800     		movs	r0, r5
 397              	.LVL44:
 398 0048 FFF7FEFF 		bl	CapSense_DpProcessCsdWidgetStatus
 399              	.LVL45:
 480:Generated_Source\PSoC4/CapSense_Control.c ****                 break;
 481:Generated_Source\PSoC4/CapSense_Control.c ****         #endif /* #if (0u != CapSense_TOTAL_CSD_WIDGETS) */
 482:Generated_Source\PSoC4/CapSense_Control.c **** 
 483:Generated_Source\PSoC4/CapSense_Control.c ****         #if (0u != CapSense_TOTAL_CSX_WIDGETS)
 484:Generated_Source\PSoC4/CapSense_Control.c ****             case CapSense_SENSE_METHOD_CSX_E:
 485:Generated_Source\PSoC4/CapSense_Control.c ****                 result = CapSense_DpProcessCsxWidgetRawCounts(ptrFlashWdgt);
 486:Generated_Source\PSoC4/CapSense_Control.c ****                 CapSense_DpProcessCsxWidgetStatus(widgetId, ptrFlashWdgt);
 487:Generated_Source\PSoC4/CapSense_Control.c ****                 break;
 488:Generated_Source\PSoC4/CapSense_Control.c ****         #endif /* #if (0u != CapSense_TOTAL_CSX_WIDGETS) */
 489:Generated_Source\PSoC4/CapSense_Control.c **** 
 490:Generated_Source\PSoC4/CapSense_Control.c ****         #if (0u != CapSense_TOTAL_ISX_WIDGETS)
 491:Generated_Source\PSoC4/CapSense_Control.c ****             case CapSense_SENSE_METHOD_ISX_E:
 492:Generated_Source\PSoC4/CapSense_Control.c ****                 result = CapSense_DpProcessIsxWidgetRawCounts(ptrFlashWdgt);
 493:Generated_Source\PSoC4/CapSense_Control.c ****                 CapSense_DpProcessIsxWidgetStatus(widgetId, ptrFlashWdgt);
 494:Generated_Source\PSoC4/CapSense_Control.c ****                 break;
ARM GAS  C:\Users\YUANFA~1\AppData\Local\Temp\ccIEyak6.s 			page 17


 495:Generated_Source\PSoC4/CapSense_Control.c ****         #endif /* #if (0u != CapSense_TOTAL_ISX_WIDGETS) */
 496:Generated_Source\PSoC4/CapSense_Control.c **** 
 497:Generated_Source\PSoC4/CapSense_Control.c ****         default:
 498:Generated_Source\PSoC4/CapSense_Control.c ****             CYASSERT(0u);
 499:Generated_Source\PSoC4/CapSense_Control.c ****             break;
 500:Generated_Source\PSoC4/CapSense_Control.c ****         }
 501:Generated_Source\PSoC4/CapSense_Control.c **** 
 502:Generated_Source\PSoC4/CapSense_Control.c ****         #if (CapSense_ENABLE == CapSense_TST_BSLN_DUPLICATION_EN)
 503:Generated_Source\PSoC4/CapSense_Control.c ****             if (CYRET_SUCCESS != result)
 400              		.loc 1 503 0
 401 004c 002C     		cmp	r4, #0
 402 004e 04D0     		beq	.L32
 504:Generated_Source\PSoC4/CapSense_Control.c ****             {
 505:Generated_Source\PSoC4/CapSense_Control.c ****                 CapSense_UpdateTestResultBaselineDuplication(widgetId, result);
 403              		.loc 1 505 0
 404 0050 2100     		movs	r1, r4
 405 0052 2800     		movs	r0, r5
 406 0054 FFF7FEFF 		bl	CapSense_UpdateTestResultBaselineDuplication
 407              	.LVL46:
 506:Generated_Source\PSoC4/CapSense_Control.c ****                 result = CYRET_BAD_DATA;
 408              		.loc 1 506 0
 409 0058 0624     		movs	r4, #6
 410              	.LVL47:
 411              	.L32:
 507:Generated_Source\PSoC4/CapSense_Control.c ****             }
 508:Generated_Source\PSoC4/CapSense_Control.c ****         #endif /* (CapSense_ENABLE == CapSense_TST_BSLN_DUPLICATION_EN) */
 509:Generated_Source\PSoC4/CapSense_Control.c ****     }
 510:Generated_Source\PSoC4/CapSense_Control.c ****     return result;
 511:Generated_Source\PSoC4/CapSense_Control.c **** }
 412              		.loc 1 511 0
 413 005a 2000     		movs	r0, r4
 414              		@ sp needed
 415              	.LVL48:
 416              	.LVL49:
 417 005c 70BD     		pop	{r4, r5, r6, pc}
 418              	.L36:
 419 005e C046     		.align	2
 420              	.L35:
 421 0060 00000000 		.word	CapSense_dsRam
 422 0064 00000000 		.word	CapSense_dsFlash
 423              		.cfi_endproc
 424              	.LFE6:
 425              		.size	CapSense_ProcessWidget, .-CapSense_ProcessWidget
 426              		.section	.text.CapSense_ProcessWidgetExt,"ax",%progbits
 427              		.align	2
 428              		.global	CapSense_ProcessWidgetExt
 429              		.code	16
 430              		.thumb_func
 431              		.type	CapSense_ProcessWidgetExt, %function
 432              	CapSense_ProcessWidgetExt:
 433              	.LFB7:
 512:Generated_Source\PSoC4/CapSense_Control.c **** 
 513:Generated_Source\PSoC4/CapSense_Control.c **** 
 514:Generated_Source\PSoC4/CapSense_Control.c **** /*******************************************************************************
 515:Generated_Source\PSoC4/CapSense_Control.c **** * Function Name: CapSense_ProcessWidgetExt
 516:Generated_Source\PSoC4/CapSense_Control.c **** ****************************************************************************//**
 517:Generated_Source\PSoC4/CapSense_Control.c **** *
ARM GAS  C:\Users\YUANFA~1\AppData\Local\Temp\ccIEyak6.s 			page 18


 518:Generated_Source\PSoC4/CapSense_Control.c **** * \brief
 519:Generated_Source\PSoC4/CapSense_Control.c **** *  Performs customized data processing on the selected widget.
 520:Generated_Source\PSoC4/CapSense_Control.c **** *
 521:Generated_Source\PSoC4/CapSense_Control.c **** * \details
 522:Generated_Source\PSoC4/CapSense_Control.c **** *  This function performs data processes for the specified widget specified by
 523:Generated_Source\PSoC4/CapSense_Control.c **** *  the mode parameter. The execution order of the requested operations is from
 524:Generated_Source\PSoC4/CapSense_Control.c **** *  LSB to MSB of the mode parameter. For a different order, this API
 525:Generated_Source\PSoC4/CapSense_Control.c **** *  can be called multiple times with the required mode parameter.
 526:Generated_Source\PSoC4/CapSense_Control.c **** *
 527:Generated_Source\PSoC4/CapSense_Control.c **** *  This function can be used with any of the available scan functions. This
 528:Generated_Source\PSoC4/CapSense_Control.c **** *  function is called only after all the sensors in the specified widget are
 529:Generated_Source\PSoC4/CapSense_Control.c **** *  scanned. Calling this function multiple times with the same mode without
 530:Generated_Source\PSoC4/CapSense_Control.c **** *  sensor scanning causes unexpected behavior. This function ignores the value
 531:Generated_Source\PSoC4/CapSense_Control.c **** *  of the wdgtEnable register.
 532:Generated_Source\PSoC4/CapSense_Control.c **** *  \if SECTION_C_LOW_LEVEL
 533:Generated_Source\PSoC4/CapSense_Control.c **** *  The CapSense_PROCESS_CALC_NOISE and
 534:Generated_Source\PSoC4/CapSense_Control.c **** *  CapSense_PROCESS_THRESHOLDS flags are supported by the CSD sensing
 535:Generated_Source\PSoC4/CapSense_Control.c **** *  method only when Auto-tuning mode is enabled.
 536:Generated_Source\PSoC4/CapSense_Control.c **** *  \endif
 537:Generated_Source\PSoC4/CapSense_Control.c **** *  The pipeline scan method (i.e. during scanning of a widget, processing
 538:Generated_Source\PSoC4/CapSense_Control.c **** *  of a previously scanned widget is performed) can be implemented using this
 539:Generated_Source\PSoC4/CapSense_Control.c **** *  function and it may reduce the total scan/process time, increase the refresh
 540:Generated_Source\PSoC4/CapSense_Control.c **** *  rate and decrease the power consumption.
 541:Generated_Source\PSoC4/CapSense_Control.c **** *
 542:Generated_Source\PSoC4/CapSense_Control.c **** *  If the Ballistic multiplier filter is enabled the Timestamp must be
 543:Generated_Source\PSoC4/CapSense_Control.c **** *  updated before calling this function using the
 544:Generated_Source\PSoC4/CapSense_Control.c **** *  CapSense_IncrementGestureTimestamp() function.
 545:Generated_Source\PSoC4/CapSense_Control.c **** *
 546:Generated_Source\PSoC4/CapSense_Control.c **** *  If the Self-test library is enabled, this function executes the baseline duplication
 547:Generated_Source\PSoC4/CapSense_Control.c **** *  test. Refer to CapSense_CheckBaselineDuplication() for details.
 548:Generated_Source\PSoC4/CapSense_Control.c **** *
 549:Generated_Source\PSoC4/CapSense_Control.c **** *  If the specified widget has enabled ballistic multiplier filter, make sure
 550:Generated_Source\PSoC4/CapSense_Control.c **** *  the timestamp is updated before calling this function. Use one of the following
 551:Generated_Source\PSoC4/CapSense_Control.c **** *  functions to update the timestamp:
 552:Generated_Source\PSoC4/CapSense_Control.c **** *  - CapSense_IncrementGestureTimestamp().
 553:Generated_Source\PSoC4/CapSense_Control.c **** *  - CapSense_SetGestureTimestamp().
 554:Generated_Source\PSoC4/CapSense_Control.c **** *
 555:Generated_Source\PSoC4/CapSense_Control.c **** * \param widgetId
 556:Generated_Source\PSoC4/CapSense_Control.c **** *  Specifies the ID number of the widget to be processed.
 557:Generated_Source\PSoC4/CapSense_Control.c **** *  A macro for the widget ID can be found in the CapSense Configuration header
 558:Generated_Source\PSoC4/CapSense_Control.c **** *  file defined as CapSense_<WidgetName>_WDGT_ID.
 559:Generated_Source\PSoC4/CapSense_Control.c **** 
 560:Generated_Source\PSoC4/CapSense_Control.c **** * \param mode
 561:Generated_Source\PSoC4/CapSense_Control.c **** *  Specifies the type of widget processing to be executed for the
 562:Generated_Source\PSoC4/CapSense_Control.c **** *  specified widget:
 563:Generated_Source\PSoC4/CapSense_Control.c **** *    1. Bits [31..6] - Reserved.
 564:Generated_Source\PSoC4/CapSense_Control.c **** *    2. Bits [5..0] - CapSense_PROCESS_ALL - Execute all the tasks.
 565:Generated_Source\PSoC4/CapSense_Control.c **** *    3. Bit [5] - CapSense_PROCESS_STATUS - Update the status (on/off,
 566:Generated_Source\PSoC4/CapSense_Control.c **** *       centroid position).
 567:Generated_Source\PSoC4/CapSense_Control.c **** *    \if SECTION_C_LOW_LEVEL
 568:Generated_Source\PSoC4/CapSense_Control.c **** *    4. Bit [4] - CapSense_PROCESS_THRESHOLDS - Update the thresholds
 569:Generated_Source\PSoC4/CapSense_Control.c **** *       (only in CSD auto-tuning mode).
 570:Generated_Source\PSoC4/CapSense_Control.c **** *    5. Bit [3] - CapSense_PROCESS_CALC_NOISE - Calculate the noise (only in
 571:Generated_Source\PSoC4/CapSense_Control.c **** *       CSD auto-tuning mode).
 572:Generated_Source\PSoC4/CapSense_Control.c **** *    \endif
 573:Generated_Source\PSoC4/CapSense_Control.c **** *    6. Bit [2] - CapSense_PROCESS_DIFFCOUNTS - Update the difference counts.
 574:Generated_Source\PSoC4/CapSense_Control.c **** *    7. Bit [1] - CapSense_PROCESS_BASELINE - Update the baselines.
ARM GAS  C:\Users\YUANFA~1\AppData\Local\Temp\ccIEyak6.s 			page 19


 575:Generated_Source\PSoC4/CapSense_Control.c **** *    8. Bit [0] - CapSense_PROCESS_FILTER - Run the firmware filters.
 576:Generated_Source\PSoC4/CapSense_Control.c **** *
 577:Generated_Source\PSoC4/CapSense_Control.c **** * \return
 578:Generated_Source\PSoC4/CapSense_Control.c **** *  Returns the status of the widget processing operation:
 579:Generated_Source\PSoC4/CapSense_Control.c **** *  - CYRET_SUCCESS - The processing is successfully performed.
 580:Generated_Source\PSoC4/CapSense_Control.c **** *  - CYRET_BAD_PARAM - The input parameter is invalid.
 581:Generated_Source\PSoC4/CapSense_Control.c **** *  - CYRET_BAD_DATA - The processing is failed.
 582:Generated_Source\PSoC4/CapSense_Control.c **** *
 583:Generated_Source\PSoC4/CapSense_Control.c **** *******************************************************************************/
 584:Generated_Source\PSoC4/CapSense_Control.c **** cystatus CapSense_ProcessWidgetExt(uint32 widgetId, uint32 mode)
 585:Generated_Source\PSoC4/CapSense_Control.c **** {
 434              		.loc 1 585 0
 435              		.cfi_startproc
 436              		@ args = 0, pretend = 0, frame = 8
 437              		@ frame_needed = 0, uses_anonymous_args = 0
 438              	.LVL50:
 439 0000 F0B5     		push	{r4, r5, r6, r7, lr}
 440              		.cfi_def_cfa_offset 20
 441              		.cfi_offset 4, -20
 442              		.cfi_offset 5, -16
 443              		.cfi_offset 6, -12
 444              		.cfi_offset 7, -8
 445              		.cfi_offset 14, -4
 446 0002 4746     		mov	r7, r8
 447 0004 80B4     		push	{r7}
 448              		.cfi_def_cfa_offset 24
 449              		.cfi_offset 8, -24
 450 0006 82B0     		sub	sp, sp, #8
 451              		.cfi_def_cfa_offset 32
 452 0008 8046     		mov	r8, r0
 453 000a 0091     		str	r1, [sp]
 454              	.LVL51:
 586:Generated_Source\PSoC4/CapSense_Control.c ****     uint32 snsCount;
 587:Generated_Source\PSoC4/CapSense_Control.c ****     cystatus result = CYRET_BAD_PARAM;
 588:Generated_Source\PSoC4/CapSense_Control.c ****     CapSense_FLASH_WD_STRUCT const *ptrFlashWdgt;
 589:Generated_Source\PSoC4/CapSense_Control.c ****     CapSense_PTR_FILTER_VARIANT fltrHistV;
 590:Generated_Source\PSoC4/CapSense_Control.c ****     CapSense_RAM_SNS_STRUCT *ptrSnsTmp;
 591:Generated_Source\PSoC4/CapSense_Control.c **** 
 592:Generated_Source\PSoC4/CapSense_Control.c ****     #if (0u != CapSense_TOTAL_CSD_WIDGETS)
 593:Generated_Source\PSoC4/CapSense_Control.c ****         uint32 isProxWdgt;
 594:Generated_Source\PSoC4/CapSense_Control.c ****     #endif
 595:Generated_Source\PSoC4/CapSense_Control.c **** 
 596:Generated_Source\PSoC4/CapSense_Control.c ****     if (widgetId < CapSense_TOTAL_WIDGETS)
 455              		.loc 1 596 0
 456 000c 1228     		cmp	r0, #18
 457 000e 27D8     		bhi	.L43
 597:Generated_Source\PSoC4/CapSense_Control.c ****     {
 598:Generated_Source\PSoC4/CapSense_Control.c ****         ptrFlashWdgt = &CapSense_dsFlash.wdgtArray[widgetId];
 458              		.loc 1 598 0
 459 0010 4301     		lsls	r3, r0, #5
 460 0012 164A     		ldr	r2, .L44
 461 0014 9E18     		adds	r6, r3, r2
 462              	.LVL52:
 599:Generated_Source\PSoC4/CapSense_Control.c ****         snsCount = CapSense_GET_SNS_CNT_BY_PTR(ptrFlashWdgt);
 463              		.loc 1 599 0
 464 0016 338B     		ldrh	r3, [r6, #24]
 465              	.LVL53:
ARM GAS  C:\Users\YUANFA~1\AppData\Local\Temp\ccIEyak6.s 			page 20


 600:Generated_Source\PSoC4/CapSense_Control.c ****         ptrSnsTmp = ptrFlashWdgt->ptr2SnsRam;
 466              		.loc 1 600 0
 467 0018 B768     		ldr	r7, [r6, #8]
 468              	.LVL54:
 601:Generated_Source\PSoC4/CapSense_Control.c ****         fltrHistV.ptr = ptrFlashWdgt->ptr2FltrHistory;
 469              		.loc 1 601 0
 470 001a F268     		ldr	r2, [r6, #12]
 471              	.LVL55:
 472 001c 0192     		str	r2, [sp, #4]
 587:Generated_Source\PSoC4/CapSense_Control.c ****     CapSense_FLASH_WD_STRUCT const *ptrFlashWdgt;
 473              		.loc 1 587 0
 474 001e 0124     		movs	r4, #1
 475 0020 0CE0     		b	.L39
 476              	.LVL56:
 477              	.L41:
 602:Generated_Source\PSoC4/CapSense_Control.c **** 
 603:Generated_Source\PSoC4/CapSense_Control.c ****         switch(CapSense_GET_SENSE_METHOD(ptrFlashWdgt))
 604:Generated_Source\PSoC4/CapSense_Control.c ****         {
 605:Generated_Source\PSoC4/CapSense_Control.c ****         #if (0u != CapSense_TOTAL_CSD_WIDGETS)
 606:Generated_Source\PSoC4/CapSense_Control.c ****             case CapSense_SENSE_METHOD_CSD_E:
 607:Generated_Source\PSoC4/CapSense_Control.c ****             {
 608:Generated_Source\PSoC4/CapSense_Control.c ****                 /* Determine if widget is type of proximity.
 609:Generated_Source\PSoC4/CapSense_Control.c ****                  * The Proximity widgets use different filters and
 610:Generated_Source\PSoC4/CapSense_Control.c ****                  * therefore have different filter history object structure */
 611:Generated_Source\PSoC4/CapSense_Control.c ****                 isProxWdgt = (CapSense_GET_WIDGET_TYPE(ptrFlashWdgt) == CapSense_WD_PROXIMITY_E) ? 
 612:Generated_Source\PSoC4/CapSense_Control.c **** 
 613:Generated_Source\PSoC4/CapSense_Control.c ****                 /* Run the desired processing for the all CSD widget sensors */
 614:Generated_Source\PSoC4/CapSense_Control.c ****                 for (;snsCount-- > 0u;)
 615:Generated_Source\PSoC4/CapSense_Control.c ****                 {
 616:Generated_Source\PSoC4/CapSense_Control.c ****                     result = CapSense_DpProcessCsdSensorRawCountsExt(ptrFlashWdgt, ptrSnsTmp, fltrH
 478              		.loc 1 616 0
 479 0022 009B     		ldr	r3, [sp]
 480 0024 019A     		ldr	r2, [sp, #4]
 481              	.LVL57:
 482 0026 3900     		movs	r1, r7
 483 0028 3000     		movs	r0, r6
 484 002a FFF7FEFF 		bl	CapSense_DpProcessCsdSensorRawCountsExt
 485              	.LVL58:
 486 002e 041E     		subs	r4, r0, #0
 487              	.LVL59:
 617:Generated_Source\PSoC4/CapSense_Control.c **** 
 618:Generated_Source\PSoC4/CapSense_Control.c ****                     #if (CapSense_ENABLE == CapSense_TST_BSLN_DUPLICATION_EN)
 619:Generated_Source\PSoC4/CapSense_Control.c ****                         if (CYRET_SUCCESS != result)
 488              		.loc 1 619 0
 489 0030 02D0     		beq	.L40
 620:Generated_Source\PSoC4/CapSense_Control.c ****                         {
 621:Generated_Source\PSoC4/CapSense_Control.c ****                             result = (result | CapSense_TST_LSBYTE) & snsCount;
 490              		.loc 1 621 0
 491 0032 FF23     		movs	r3, #255
 492 0034 1C43     		orrs	r4, r3
 493 0036 2C40     		ands	r4, r5
 494              	.LVL60:
 495              	.L40:
 622:Generated_Source\PSoC4/CapSense_Control.c ****                         }
 623:Generated_Source\PSoC4/CapSense_Control.c ****                     #endif /* (CapSense_ENABLE == CapSense_TST_BSLN_DUPLICATION_EN) */
 624:Generated_Source\PSoC4/CapSense_Control.c **** 
 625:Generated_Source\PSoC4/CapSense_Control.c ****                     /* Move to the next sensor and filter history objects */
ARM GAS  C:\Users\YUANFA~1\AppData\Local\Temp\ccIEyak6.s 			page 21


 626:Generated_Source\PSoC4/CapSense_Control.c ****                     ptrSnsTmp++;
 496              		.loc 1 626 0
 497 0038 0C37     		adds	r7, r7, #12
 498              	.LVL61:
 614:Generated_Source\PSoC4/CapSense_Control.c ****                 {
 499              		.loc 1 614 0
 500 003a 2B00     		movs	r3, r5
 501              	.LVL62:
 502              	.L39:
 503 003c 5D1E     		subs	r5, r3, #1
 504              	.LVL63:
 505 003e 002B     		cmp	r3, #0
 506 0040 EFD1     		bne	.L41
 627:Generated_Source\PSoC4/CapSense_Control.c ****                     CapSense_INC_FLTR_OBJ_VARIANT(isProxWdgt, fltrHistV);
 628:Generated_Source\PSoC4/CapSense_Control.c ****                 }
 629:Generated_Source\PSoC4/CapSense_Control.c **** 
 630:Generated_Source\PSoC4/CapSense_Control.c ****                 if (0u != (mode & CapSense_PROCESS_STATUS))
 507              		.loc 1 630 0
 508 0042 009B     		ldr	r3, [sp]
 509 0044 9B06     		lsls	r3, r3, #26
 510 0046 03D5     		bpl	.L42
 631:Generated_Source\PSoC4/CapSense_Control.c ****                 {
 632:Generated_Source\PSoC4/CapSense_Control.c ****                     CapSense_DpProcessCsdWidgetStatus(widgetId, ptrFlashWdgt);
 511              		.loc 1 632 0
 512 0048 3100     		movs	r1, r6
 513 004a 4046     		mov	r0, r8
 514 004c FFF7FEFF 		bl	CapSense_DpProcessCsdWidgetStatus
 515              	.LVL64:
 516              	.L42:
 633:Generated_Source\PSoC4/CapSense_Control.c ****                 }
 634:Generated_Source\PSoC4/CapSense_Control.c ****                 break;
 635:Generated_Source\PSoC4/CapSense_Control.c ****             }
 636:Generated_Source\PSoC4/CapSense_Control.c ****         #endif /* #if (0u != CapSense_TOTAL_CSD_WIDGETS) */
 637:Generated_Source\PSoC4/CapSense_Control.c **** 
 638:Generated_Source\PSoC4/CapSense_Control.c ****         #if (0u != CapSense_TOTAL_CSX_WIDGETS)
 639:Generated_Source\PSoC4/CapSense_Control.c ****             case CapSense_SENSE_METHOD_CSX_E:
 640:Generated_Source\PSoC4/CapSense_Control.c **** 
 641:Generated_Source\PSoC4/CapSense_Control.c ****                 #if (0u != CapSense_CSX_MULTIPHASE_TX_EN)
 642:Generated_Source\PSoC4/CapSense_Control.c ****                     if ((0u != (mode & CapSense_PROCESS_DECONVOLUTION)) &&
 643:Generated_Source\PSoC4/CapSense_Control.c ****                         (0u != (ptrFlashWdgt->staticConfig & CapSense_MULTIPHASE_TX_MASK)))
 644:Generated_Source\PSoC4/CapSense_Control.c ****                     {
 645:Generated_Source\PSoC4/CapSense_Control.c ****                         CapSense_DpDeconvolution(ptrFlashWdgt);
 646:Generated_Source\PSoC4/CapSense_Control.c ****                     }
 647:Generated_Source\PSoC4/CapSense_Control.c ****                 #endif /* #if (0u != CapSense_CSX_MULTIPHASE_TX_EN) */
 648:Generated_Source\PSoC4/CapSense_Control.c **** 
 649:Generated_Source\PSoC4/CapSense_Control.c ****                 /* Run the desired processing for the all CSX widget sensors */
 650:Generated_Source\PSoC4/CapSense_Control.c ****                 for (;snsCount-- > 0u;)
 651:Generated_Source\PSoC4/CapSense_Control.c ****                 {
 652:Generated_Source\PSoC4/CapSense_Control.c ****                     result = CapSense_DpProcessCsxSensorRawCountsExt(ptrFlashWdgt, ptrSnsTmp, fltrH
 653:Generated_Source\PSoC4/CapSense_Control.c **** 
 654:Generated_Source\PSoC4/CapSense_Control.c ****                     #if (CapSense_ENABLE == CapSense_TST_BSLN_DUPLICATION_EN)
 655:Generated_Source\PSoC4/CapSense_Control.c ****                         if (CYRET_SUCCESS != result)
 656:Generated_Source\PSoC4/CapSense_Control.c ****                         {
 657:Generated_Source\PSoC4/CapSense_Control.c ****                             result = (result | CapSense_TST_LSBYTE) & snsCount;
 658:Generated_Source\PSoC4/CapSense_Control.c ****                         }
 659:Generated_Source\PSoC4/CapSense_Control.c ****                     #endif /* (CapSense_ENABLE == CapSense_TST_BSLN_DUPLICATION_EN) */
 660:Generated_Source\PSoC4/CapSense_Control.c **** 
ARM GAS  C:\Users\YUANFA~1\AppData\Local\Temp\ccIEyak6.s 			page 22


 661:Generated_Source\PSoC4/CapSense_Control.c ****                     /* Move to the next sensor and filter history objects */
 662:Generated_Source\PSoC4/CapSense_Control.c ****                     ptrSnsTmp++;
 663:Generated_Source\PSoC4/CapSense_Control.c ****                     CapSense_INC_REG_FLTR_OBJ(fltrHistV);
 664:Generated_Source\PSoC4/CapSense_Control.c ****                 }
 665:Generated_Source\PSoC4/CapSense_Control.c **** 
 666:Generated_Source\PSoC4/CapSense_Control.c ****                 if (0u != (mode & CapSense_PROCESS_STATUS))
 667:Generated_Source\PSoC4/CapSense_Control.c ****                 {
 668:Generated_Source\PSoC4/CapSense_Control.c ****                     CapSense_DpProcessCsxWidgetStatus(widgetId, ptrFlashWdgt);
 669:Generated_Source\PSoC4/CapSense_Control.c ****                 }
 670:Generated_Source\PSoC4/CapSense_Control.c ****                 break;
 671:Generated_Source\PSoC4/CapSense_Control.c ****         #endif /* #if (0u != CapSense_TOTAL_CSX_WIDGETS) */
 672:Generated_Source\PSoC4/CapSense_Control.c **** 
 673:Generated_Source\PSoC4/CapSense_Control.c ****         #if (0u != CapSense_TOTAL_ISX_WIDGETS)
 674:Generated_Source\PSoC4/CapSense_Control.c ****             case CapSense_SENSE_METHOD_ISX_E:
 675:Generated_Source\PSoC4/CapSense_Control.c ****                 /* Run the desired processing for the all ISX widget sensors */
 676:Generated_Source\PSoC4/CapSense_Control.c ****                 for (;snsCount-- > 0u;)
 677:Generated_Source\PSoC4/CapSense_Control.c ****                 {
 678:Generated_Source\PSoC4/CapSense_Control.c ****                     result = CapSense_DpProcessIsxSensorRawCountsExt(ptrFlashWdgt, ptrSnsTmp, fltrH
 679:Generated_Source\PSoC4/CapSense_Control.c **** 
 680:Generated_Source\PSoC4/CapSense_Control.c ****                     #if (CapSense_ENABLE == CapSense_TST_BSLN_DUPLICATION_EN)
 681:Generated_Source\PSoC4/CapSense_Control.c ****                         if (CYRET_SUCCESS != result)
 682:Generated_Source\PSoC4/CapSense_Control.c ****                         {
 683:Generated_Source\PSoC4/CapSense_Control.c ****                             result = (result | CapSense_TST_LSBYTE) & snsCount;
 684:Generated_Source\PSoC4/CapSense_Control.c ****                         }
 685:Generated_Source\PSoC4/CapSense_Control.c ****                     #endif /* (CapSense_ENABLE == CapSense_TST_BSLN_DUPLICATION_EN) */
 686:Generated_Source\PSoC4/CapSense_Control.c **** 
 687:Generated_Source\PSoC4/CapSense_Control.c ****                     /* Move to the next sensor and filter history objects */
 688:Generated_Source\PSoC4/CapSense_Control.c ****                     ptrSnsTmp++;
 689:Generated_Source\PSoC4/CapSense_Control.c ****                     CapSense_INC_REG_FLTR_OBJ(fltrHistV);
 690:Generated_Source\PSoC4/CapSense_Control.c ****                 }
 691:Generated_Source\PSoC4/CapSense_Control.c **** 
 692:Generated_Source\PSoC4/CapSense_Control.c ****                 if (0u != (mode & CapSense_PROCESS_STATUS))
 693:Generated_Source\PSoC4/CapSense_Control.c ****                 {
 694:Generated_Source\PSoC4/CapSense_Control.c ****                     CapSense_DpProcessIsxWidgetStatus(widgetId, ptrFlashWdgt);
 695:Generated_Source\PSoC4/CapSense_Control.c ****                 }
 696:Generated_Source\PSoC4/CapSense_Control.c ****                 break;
 697:Generated_Source\PSoC4/CapSense_Control.c ****         #endif /* #if (0u != CapSense_TOTAL_ISX_WIDGETS) */
 698:Generated_Source\PSoC4/CapSense_Control.c **** 
 699:Generated_Source\PSoC4/CapSense_Control.c ****         default:
 700:Generated_Source\PSoC4/CapSense_Control.c ****             CYASSERT(0u);
 701:Generated_Source\PSoC4/CapSense_Control.c ****             break;
 702:Generated_Source\PSoC4/CapSense_Control.c ****         }
 703:Generated_Source\PSoC4/CapSense_Control.c **** 
 704:Generated_Source\PSoC4/CapSense_Control.c ****         #if (CapSense_ENABLE == CapSense_TST_BSLN_DUPLICATION_EN)
 705:Generated_Source\PSoC4/CapSense_Control.c ****             if (CYRET_SUCCESS != result)
 517              		.loc 1 705 0
 518 0050 002C     		cmp	r4, #0
 519 0052 06D0     		beq	.L38
 706:Generated_Source\PSoC4/CapSense_Control.c ****             {
 707:Generated_Source\PSoC4/CapSense_Control.c ****                 CapSense_UpdateTestResultBaselineDuplication(widgetId, snsCount);
 520              		.loc 1 707 0
 521 0054 2900     		movs	r1, r5
 522 0056 4046     		mov	r0, r8
 523 0058 FFF7FEFF 		bl	CapSense_UpdateTestResultBaselineDuplication
 524              	.LVL65:
 708:Generated_Source\PSoC4/CapSense_Control.c ****                 result = CYRET_BAD_DATA;
 525              		.loc 1 708 0
ARM GAS  C:\Users\YUANFA~1\AppData\Local\Temp\ccIEyak6.s 			page 23


 526 005c 0624     		movs	r4, #6
 527 005e 00E0     		b	.L38
 528              	.LVL66:
 529              	.L43:
 587:Generated_Source\PSoC4/CapSense_Control.c ****     CapSense_FLASH_WD_STRUCT const *ptrFlashWdgt;
 530              		.loc 1 587 0
 531 0060 0124     		movs	r4, #1
 532              	.LVL67:
 533              	.L38:
 709:Generated_Source\PSoC4/CapSense_Control.c ****             }
 710:Generated_Source\PSoC4/CapSense_Control.c ****         #endif /* (CapSense_ENABLE == CapSense_TST_BSLN_DUPLICATION_EN) */
 711:Generated_Source\PSoC4/CapSense_Control.c **** 
 712:Generated_Source\PSoC4/CapSense_Control.c ****     }
 713:Generated_Source\PSoC4/CapSense_Control.c ****     return result;
 714:Generated_Source\PSoC4/CapSense_Control.c **** }
 534              		.loc 1 714 0
 535 0062 2000     		movs	r0, r4
 536 0064 02B0     		add	sp, sp, #8
 537              	.LVL68:
 538              		@ sp needed
 539              	.LVL69:
 540              	.LVL70:
 541 0066 04BC     		pop	{r2}
 542 0068 9046     		mov	r8, r2
 543 006a F0BD     		pop	{r4, r5, r6, r7, pc}
 544              	.L45:
 545              		.align	2
 546              	.L44:
 547 006c 00000000 		.word	CapSense_dsFlash
 548              		.cfi_endproc
 549              	.LFE7:
 550              		.size	CapSense_ProcessWidgetExt, .-CapSense_ProcessWidgetExt
 551              		.section	.text.CapSense_ProcessSensorExt,"ax",%progbits
 552              		.align	2
 553              		.global	CapSense_ProcessSensorExt
 554              		.code	16
 555              		.thumb_func
 556              		.type	CapSense_ProcessSensorExt, %function
 557              	CapSense_ProcessSensorExt:
 558              	.LFB8:
 715:Generated_Source\PSoC4/CapSense_Control.c **** 
 716:Generated_Source\PSoC4/CapSense_Control.c **** /*******************************************************************************
 717:Generated_Source\PSoC4/CapSense_Control.c **** * Function Name: CapSense_ProcessSensorExt
 718:Generated_Source\PSoC4/CapSense_Control.c **** ****************************************************************************//**
 719:Generated_Source\PSoC4/CapSense_Control.c **** *
 720:Generated_Source\PSoC4/CapSense_Control.c **** * \brief
 721:Generated_Source\PSoC4/CapSense_Control.c **** *  Performs customized data processing on the selected widget's sensor.
 722:Generated_Source\PSoC4/CapSense_Control.c **** *
 723:Generated_Source\PSoC4/CapSense_Control.c **** * \details
 724:Generated_Source\PSoC4/CapSense_Control.c **** *  This function performs data processes for the specified sensor specified by
 725:Generated_Source\PSoC4/CapSense_Control.c **** *  the mode parameter. The execution order of the requested operations is from
 726:Generated_Source\PSoC4/CapSense_Control.c **** *  LSB to MSB of the mode parameter. For a different order, this
 727:Generated_Source\PSoC4/CapSense_Control.c **** *  function can be called multiple times with the required mode parameter.
 728:Generated_Source\PSoC4/CapSense_Control.c **** *
 729:Generated_Source\PSoC4/CapSense_Control.c **** *  This function can be used with any of the available scan functions. This
 730:Generated_Source\PSoC4/CapSense_Control.c **** *  function is called only after a specified sensor in the widget is
 731:Generated_Source\PSoC4/CapSense_Control.c **** *  scanned. Calling this function multiple times with the same mode without
ARM GAS  C:\Users\YUANFA~1\AppData\Local\Temp\ccIEyak6.s 			page 24


 732:Generated_Source\PSoC4/CapSense_Control.c **** *  sensor scanning causes unexpected behavior. This function ignores the value
 733:Generated_Source\PSoC4/CapSense_Control.c **** *  of the wdgtEnable register.
 734:Generated_Source\PSoC4/CapSense_Control.c **** *
 735:Generated_Source\PSoC4/CapSense_Control.c **** *  \if SECTION_C_LOW_LEVEL
 736:Generated_Source\PSoC4/CapSense_Control.c **** *  The CapSense_PROCESS_CALC_NOISE and
 737:Generated_Source\PSoC4/CapSense_Control.c **** *  CapSense_PROCESS_THRESHOLDS flags are supported by the CSD sensing
 738:Generated_Source\PSoC4/CapSense_Control.c **** *  method only when Auto-tuning mode is enabled.
 739:Generated_Source\PSoC4/CapSense_Control.c **** *  \endif
 740:Generated_Source\PSoC4/CapSense_Control.c **** *
 741:Generated_Source\PSoC4/CapSense_Control.c **** *  The pipeline scan method (i.e. during scanning of a sensor, processing
 742:Generated_Source\PSoC4/CapSense_Control.c **** *  of a previously scanned sensor is performed) can be implemented using this
 743:Generated_Source\PSoC4/CapSense_Control.c **** *  function and it may reduce the total scan/process time, increase the refresh
 744:Generated_Source\PSoC4/CapSense_Control.c **** *  rate and decrease the power consumption.
 745:Generated_Source\PSoC4/CapSense_Control.c **** *
 746:Generated_Source\PSoC4/CapSense_Control.c **** *  If the Self-test library is enabled, this function executes the baseline duplication
 747:Generated_Source\PSoC4/CapSense_Control.c **** *  test. Refer to CapSense_CheckBaselineDuplication() for details.
 748:Generated_Source\PSoC4/CapSense_Control.c **** *
 749:Generated_Source\PSoC4/CapSense_Control.c **** * \param widgetId
 750:Generated_Source\PSoC4/CapSense_Control.c **** *  Specifies the ID number of the widget to process one of its sensors.
 751:Generated_Source\PSoC4/CapSense_Control.c **** *  A macro for the widget ID can be found in the
 752:Generated_Source\PSoC4/CapSense_Control.c **** *  CapSense Configuration header file defined as
 753:Generated_Source\PSoC4/CapSense_Control.c **** *  CapSense_<WidgetName>_WDGT_ID.
 754:Generated_Source\PSoC4/CapSense_Control.c **** *
 755:Generated_Source\PSoC4/CapSense_Control.c **** * \param sensorId
 756:Generated_Source\PSoC4/CapSense_Control.c **** *  Specifies the ID number of the sensor within the widget to process it.
 757:Generated_Source\PSoC4/CapSense_Control.c **** *  A macro for the sensor ID within a specified widget can be found in the
 758:Generated_Source\PSoC4/CapSense_Control.c **** *  CapSense Configuration header file defined as
 759:Generated_Source\PSoC4/CapSense_Control.c **** *  CapSense_<WidgetName>_SNS<SensorNumber>_ID.
 760:Generated_Source\PSoC4/CapSense_Control.c **** *
 761:Generated_Source\PSoC4/CapSense_Control.c **** * \param mode
 762:Generated_Source\PSoC4/CapSense_Control.c **** *  Specifies the type of the sensor processing that needs to be executed for the
 763:Generated_Source\PSoC4/CapSense_Control.c **** *  specified sensor:
 764:Generated_Source\PSoC4/CapSense_Control.c **** *    1. Bits [31..5] - Reserved.
 765:Generated_Source\PSoC4/CapSense_Control.c **** *    2. Bits [4..0] - CapSense_PROCESS_ALL - Executes all the tasks.
 766:Generated_Source\PSoC4/CapSense_Control.c **** *    \if SECTION_C_LOW_LEVEL
 767:Generated_Source\PSoC4/CapSense_Control.c **** *    3. Bit [4] - CapSense_PROCESS_THRESHOLDS - Updates the thresholds (only
 768:Generated_Source\PSoC4/CapSense_Control.c **** *       in auto-tuning mode).
 769:Generated_Source\PSoC4/CapSense_Control.c **** *    4. Bit [3] - CapSense_PROCESS_CALC_NOISE - Calculates the noise (only
 770:Generated_Source\PSoC4/CapSense_Control.c **** *       in auto-tuning mode).
 771:Generated_Source\PSoC4/CapSense_Control.c **** *    \endif
 772:Generated_Source\PSoC4/CapSense_Control.c **** *    5. Bit [2] - CapSense_PROCESS_DIFFCOUNTS - Updates the difference count.
 773:Generated_Source\PSoC4/CapSense_Control.c **** *    6. Bit [1] - CapSense_PROCESS_BASELINE - Updates the baseline.
 774:Generated_Source\PSoC4/CapSense_Control.c **** *    7. Bit [0] - CapSense_PROCESS_FILTER - Runs the firmware filters.
 775:Generated_Source\PSoC4/CapSense_Control.c **** *
 776:Generated_Source\PSoC4/CapSense_Control.c **** * \return
 777:Generated_Source\PSoC4/CapSense_Control.c **** *  Returns the status of the sensor process operation:
 778:Generated_Source\PSoC4/CapSense_Control.c **** *  - CYRET_SUCCESS - The processing is successfully performed.
 779:Generated_Source\PSoC4/CapSense_Control.c **** *  - CYRET_BAD_PARAM - The input parameter is invalid.
 780:Generated_Source\PSoC4/CapSense_Control.c **** *  - CYRET_BAD_DATA - The processing is failed.
 781:Generated_Source\PSoC4/CapSense_Control.c **** *
 782:Generated_Source\PSoC4/CapSense_Control.c **** *******************************************************************************/
 783:Generated_Source\PSoC4/CapSense_Control.c **** cystatus CapSense_ProcessSensorExt(uint32 widgetId, uint32 sensorId, uint32 mode)
 784:Generated_Source\PSoC4/CapSense_Control.c **** {
 559              		.loc 1 784 0
 560              		.cfi_startproc
 561              		@ args = 0, pretend = 0, frame = 0
 562              		@ frame_needed = 0, uses_anonymous_args = 0
ARM GAS  C:\Users\YUANFA~1\AppData\Local\Temp\ccIEyak6.s 			page 25


 563              	.LVL71:
 564 0000 70B5     		push	{r4, r5, r6, lr}
 565              		.cfi_def_cfa_offset 16
 566              		.cfi_offset 4, -16
 567              		.cfi_offset 5, -12
 568              		.cfi_offset 6, -8
 569              		.cfi_offset 14, -4
 570 0002 0400     		movs	r4, r0
 571 0004 0D00     		movs	r5, r1
 572              	.LVL72:
 785:Generated_Source\PSoC4/CapSense_Control.c ****     cystatus result = CYRET_BAD_PARAM;
 786:Generated_Source\PSoC4/CapSense_Control.c ****     CapSense_FLASH_WD_STRUCT const *ptrFlashWdgt;
 787:Generated_Source\PSoC4/CapSense_Control.c ****     CapSense_PTR_FILTER_VARIANT fltrHistV;
 788:Generated_Source\PSoC4/CapSense_Control.c ****     CapSense_RAM_SNS_STRUCT *ptrSnsTmp;
 789:Generated_Source\PSoC4/CapSense_Control.c **** 
 790:Generated_Source\PSoC4/CapSense_Control.c ****     if ((widgetId < CapSense_TOTAL_WIDGETS) && (sensorId < CapSense_GET_SENSOR_COUNT(widgetId)))
 573              		.loc 1 790 0
 574 0006 1228     		cmp	r0, #18
 575 0008 1AD8     		bhi	.L48
 576              		.loc 1 790 0 is_stmt 0 discriminator 1
 577 000a 4101     		lsls	r1, r0, #5
 578              	.LVL73:
 579 000c 0E4B     		ldr	r3, .L50
 580 000e 5918     		adds	r1, r3, r1
 581 0010 0B8B     		ldrh	r3, [r1, #24]
 582 0012 AB42     		cmp	r3, r5
 583 0014 16D9     		bls	.L49
 584              	.LVL74:
 791:Generated_Source\PSoC4/CapSense_Control.c ****     {
 792:Generated_Source\PSoC4/CapSense_Control.c ****         result = CYRET_SUCCESS;
 793:Generated_Source\PSoC4/CapSense_Control.c **** 
 794:Generated_Source\PSoC4/CapSense_Control.c ****         ptrFlashWdgt = &CapSense_dsFlash.wdgtArray[widgetId];
 585              		.loc 1 794 0 is_stmt 1
 586 0016 4001     		lsls	r0, r0, #5
 587              	.LVL75:
 588 0018 0B49     		ldr	r1, .L50
 589 001a 4018     		adds	r0, r0, r1
 590              	.LVL76:
 795:Generated_Source\PSoC4/CapSense_Control.c ****         fltrHistV.ptr = ptrFlashWdgt->ptr2FltrHistory;
 796:Generated_Source\PSoC4/CapSense_Control.c ****         ptrSnsTmp = ptrFlashWdgt->ptr2SnsRam;
 797:Generated_Source\PSoC4/CapSense_Control.c ****         ptrSnsTmp += sensorId;
 591              		.loc 1 797 0
 592 001c 6B00     		lsls	r3, r5, #1
 593 001e 5B19     		adds	r3, r3, r5
 594 0020 9900     		lsls	r1, r3, #2
 595 0022 8368     		ldr	r3, [r0, #8]
 596 0024 9C46     		mov	ip, r3
 597 0026 6144     		add	r1, r1, ip
 598              	.LVL77:
 798:Generated_Source\PSoC4/CapSense_Control.c **** 
 799:Generated_Source\PSoC4/CapSense_Control.c ****         switch(CapSense_GET_SENSE_METHOD(ptrFlashWdgt))
 800:Generated_Source\PSoC4/CapSense_Control.c ****         {
 801:Generated_Source\PSoC4/CapSense_Control.c ****         #if (0u != CapSense_TOTAL_CSD_WIDGETS)
 802:Generated_Source\PSoC4/CapSense_Control.c ****             case CapSense_SENSE_METHOD_CSD_E:
 803:Generated_Source\PSoC4/CapSense_Control.c ****                 if (CapSense_WD_PROXIMITY_E == (CapSense_WD_TYPE_ENUM)ptrFlashWdgt->wdgtType)
 804:Generated_Source\PSoC4/CapSense_Control.c ****                 {
 805:Generated_Source\PSoC4/CapSense_Control.c ****                     #if (0u != CapSense_PROX_RC_ALP_FILTER_EN)
ARM GAS  C:\Users\YUANFA~1\AppData\Local\Temp\ccIEyak6.s 			page 26


 806:Generated_Source\PSoC4/CapSense_Control.c ****                         fltrHistV.ptr = &fltrHistV.ptrAlp[sensorId];
 807:Generated_Source\PSoC4/CapSense_Control.c ****                     #elif (0u != CapSense_PROX_RC_FILTER_EN)
 808:Generated_Source\PSoC4/CapSense_Control.c ****                         fltrHistV.ptr = &fltrHistV.ptrProx[sensorId];
 809:Generated_Source\PSoC4/CapSense_Control.c ****                     #endif
 810:Generated_Source\PSoC4/CapSense_Control.c ****                 }
 811:Generated_Source\PSoC4/CapSense_Control.c ****                 else
 812:Generated_Source\PSoC4/CapSense_Control.c ****                 {
 813:Generated_Source\PSoC4/CapSense_Control.c ****                     #if (0u != CapSense_REGULAR_RC_ALP_FILTER_EN)
 814:Generated_Source\PSoC4/CapSense_Control.c ****                         fltrHistV.ptr = &fltrHistV.ptrAlp[sensorId];
 815:Generated_Source\PSoC4/CapSense_Control.c ****                     #elif (0u != CapSense_REGULAR_RC_FILTER_EN)
 816:Generated_Source\PSoC4/CapSense_Control.c ****                         fltrHistV.ptr = &fltrHistV.ptrRegular[sensorId];
 817:Generated_Source\PSoC4/CapSense_Control.c ****                     #endif
 818:Generated_Source\PSoC4/CapSense_Control.c ****                 }
 819:Generated_Source\PSoC4/CapSense_Control.c **** 
 820:Generated_Source\PSoC4/CapSense_Control.c ****                 result = CapSense_DpProcessCsdSensorRawCountsExt(ptrFlashWdgt, ptrSnsTmp, fltrHistV
 599              		.loc 1 820 0
 600 0028 1300     		movs	r3, r2
 601 002a C268     		ldr	r2, [r0, #12]
 602              	.LVL78:
 603 002c FFF7FEFF 		bl	CapSense_DpProcessCsdSensorRawCountsExt
 604              	.LVL79:
 821:Generated_Source\PSoC4/CapSense_Control.c ****                 break;
 822:Generated_Source\PSoC4/CapSense_Control.c ****         #endif /* #if (0u != CapSense_TOTAL_CSD_WIDGETS) */
 823:Generated_Source\PSoC4/CapSense_Control.c **** 
 824:Generated_Source\PSoC4/CapSense_Control.c ****         #if (0u != CapSense_TOTAL_CSX_WIDGETS)
 825:Generated_Source\PSoC4/CapSense_Control.c ****             case CapSense_SENSE_METHOD_CSX_E:
 826:Generated_Source\PSoC4/CapSense_Control.c ****                 #if (0u != CapSense_REGULAR_RC_ALP_FILTER_EN)
 827:Generated_Source\PSoC4/CapSense_Control.c ****                     fltrHistV.ptr = &fltrHistV.ptrAlp[sensorId];
 828:Generated_Source\PSoC4/CapSense_Control.c ****                 #elif (0u != CapSense_REGULAR_RC_FILTER_EN)
 829:Generated_Source\PSoC4/CapSense_Control.c ****                     fltrHistV.ptr = &fltrHistV.ptrRegular[sensorId];
 830:Generated_Source\PSoC4/CapSense_Control.c ****                 #endif
 831:Generated_Source\PSoC4/CapSense_Control.c **** 
 832:Generated_Source\PSoC4/CapSense_Control.c ****                 result = CapSense_DpProcessCsxSensorRawCountsExt(ptrFlashWdgt, ptrSnsTmp, fltrHistV
 833:Generated_Source\PSoC4/CapSense_Control.c ****                 break;
 834:Generated_Source\PSoC4/CapSense_Control.c ****         #endif /* #if (0u != CapSense_TOTAL_CSX_WIDGETS) */
 835:Generated_Source\PSoC4/CapSense_Control.c **** 
 836:Generated_Source\PSoC4/CapSense_Control.c ****         #if (0u != CapSense_TOTAL_ISX_WIDGETS)
 837:Generated_Source\PSoC4/CapSense_Control.c ****             case CapSense_SENSE_METHOD_ISX_E:
 838:Generated_Source\PSoC4/CapSense_Control.c ****                 if (CapSense_WD_PROXIMITY_E == (CapSense_WD_TYPE_ENUM)ptrFlashWdgt->wdgtType)
 839:Generated_Source\PSoC4/CapSense_Control.c ****                 {
 840:Generated_Source\PSoC4/CapSense_Control.c ****                     #if (0u != CapSense_PROX_RC_FILTER_EN)
 841:Generated_Source\PSoC4/CapSense_Control.c ****                         fltrHistV.ptr = &fltrHistV.ptrProx[sensorId];
 842:Generated_Source\PSoC4/CapSense_Control.c ****                     #endif /* #if (0u != CapSense_PROX_RC_FILTER_EN) */
 843:Generated_Source\PSoC4/CapSense_Control.c ****                 }
 844:Generated_Source\PSoC4/CapSense_Control.c ****                 else
 845:Generated_Source\PSoC4/CapSense_Control.c ****                 {
 846:Generated_Source\PSoC4/CapSense_Control.c ****                     #if (0u != CapSense_REGULAR_RC_FILTER_EN)
 847:Generated_Source\PSoC4/CapSense_Control.c ****                         fltrHistV.ptr = &fltrHistV.ptrRegular[sensorId];
 848:Generated_Source\PSoC4/CapSense_Control.c ****                     #endif /* #if (0u != CapSense_REGULAR_RC_FILTER_EN) */
 849:Generated_Source\PSoC4/CapSense_Control.c ****                 }
 850:Generated_Source\PSoC4/CapSense_Control.c **** 
 851:Generated_Source\PSoC4/CapSense_Control.c ****                 result = CapSense_DpProcessIsxSensorRawCountsExt(ptrFlashWdgt, ptrSnsTmp, fltrHistV
 852:Generated_Source\PSoC4/CapSense_Control.c ****                 break;
 853:Generated_Source\PSoC4/CapSense_Control.c ****         #endif /* #if (0u != CapSense_TOTAL_ISX_WIDGETS) */
 854:Generated_Source\PSoC4/CapSense_Control.c **** 
 855:Generated_Source\PSoC4/CapSense_Control.c ****         default:
 856:Generated_Source\PSoC4/CapSense_Control.c ****             CYASSERT(0u);
ARM GAS  C:\Users\YUANFA~1\AppData\Local\Temp\ccIEyak6.s 			page 27


 857:Generated_Source\PSoC4/CapSense_Control.c ****             break;
 858:Generated_Source\PSoC4/CapSense_Control.c ****         }
 859:Generated_Source\PSoC4/CapSense_Control.c **** 
 860:Generated_Source\PSoC4/CapSense_Control.c ****         #if (CapSense_ENABLE == CapSense_TST_BSLN_DUPLICATION_EN)
 861:Generated_Source\PSoC4/CapSense_Control.c ****             if (CYRET_SUCCESS != result)
 605              		.loc 1 861 0
 606 0030 0028     		cmp	r0, #0
 607 0032 08D0     		beq	.L47
 862:Generated_Source\PSoC4/CapSense_Control.c ****             {
 863:Generated_Source\PSoC4/CapSense_Control.c ****                 CapSense_UpdateTestResultBaselineDuplication(widgetId, sensorId);
 608              		.loc 1 863 0
 609 0034 2900     		movs	r1, r5
 610 0036 2000     		movs	r0, r4
 611              	.LVL80:
 612 0038 FFF7FEFF 		bl	CapSense_UpdateTestResultBaselineDuplication
 613              	.LVL81:
 864:Generated_Source\PSoC4/CapSense_Control.c ****                 result = CYRET_BAD_DATA;
 614              		.loc 1 864 0
 615 003c 0620     		movs	r0, #6
 616 003e 02E0     		b	.L47
 617              	.LVL82:
 618              	.L48:
 785:Generated_Source\PSoC4/CapSense_Control.c ****     CapSense_FLASH_WD_STRUCT const *ptrFlashWdgt;
 619              		.loc 1 785 0
 620 0040 0120     		movs	r0, #1
 621              	.LVL83:
 622 0042 00E0     		b	.L47
 623              	.LVL84:
 624              	.L49:
 625 0044 0120     		movs	r0, #1
 626              	.LVL85:
 627              	.L47:
 865:Generated_Source\PSoC4/CapSense_Control.c ****             }
 866:Generated_Source\PSoC4/CapSense_Control.c ****         #endif /* (CapSense_ENABLE == CapSense_TST_BSLN_DUPLICATION_EN) */
 867:Generated_Source\PSoC4/CapSense_Control.c **** 
 868:Generated_Source\PSoC4/CapSense_Control.c ****     }
 869:Generated_Source\PSoC4/CapSense_Control.c ****     return result;
 870:Generated_Source\PSoC4/CapSense_Control.c **** }
 628              		.loc 1 870 0
 629              		@ sp needed
 630              	.LVL86:
 631              	.LVL87:
 632 0046 70BD     		pop	{r4, r5, r6, pc}
 633              	.L51:
 634              		.align	2
 635              	.L50:
 636 0048 00000000 		.word	CapSense_dsFlash
 637              		.cfi_endproc
 638              	.LFE8:
 639              		.size	CapSense_ProcessSensorExt, .-CapSense_ProcessSensorExt
 640              		.section	.text.CapSense_Sleep,"ax",%progbits
 641              		.align	2
 642              		.global	CapSense_Sleep
 643              		.code	16
 644              		.thumb_func
 645              		.type	CapSense_Sleep, %function
 646              	CapSense_Sleep:
ARM GAS  C:\Users\YUANFA~1\AppData\Local\Temp\ccIEyak6.s 			page 28


 647              	.LFB9:
 871:Generated_Source\PSoC4/CapSense_Control.c **** 
 872:Generated_Source\PSoC4/CapSense_Control.c **** /*******************************************************************************
 873:Generated_Source\PSoC4/CapSense_Control.c **** * Function Name: CapSense_Sleep
 874:Generated_Source\PSoC4/CapSense_Control.c **** ****************************************************************************//**
 875:Generated_Source\PSoC4/CapSense_Control.c **** *
 876:Generated_Source\PSoC4/CapSense_Control.c **** * \brief
 877:Generated_Source\PSoC4/CapSense_Control.c **** *  Prepares the Component for deep sleep.
 878:Generated_Source\PSoC4/CapSense_Control.c **** *
 879:Generated_Source\PSoC4/CapSense_Control.c **** * \details
 880:Generated_Source\PSoC4/CapSense_Control.c **** *  Currently this function is empty and exists as a place for future updates,
 881:Generated_Source\PSoC4/CapSense_Control.c **** *  this function will be used to prepare the Component to enter deep sleep.
 882:Generated_Source\PSoC4/CapSense_Control.c **** *
 883:Generated_Source\PSoC4/CapSense_Control.c **** *******************************************************************************/
 884:Generated_Source\PSoC4/CapSense_Control.c **** void CapSense_Sleep(void)
 885:Generated_Source\PSoC4/CapSense_Control.c **** {
 648              		.loc 1 885 0
 649              		.cfi_startproc
 650              		@ args = 0, pretend = 0, frame = 0
 651              		@ frame_needed = 0, uses_anonymous_args = 0
 652              		@ link register save eliminated.
 886:Generated_Source\PSoC4/CapSense_Control.c **** }
 653              		.loc 1 886 0
 654              		@ sp needed
 655 0000 7047     		bx	lr
 656              		.cfi_endproc
 657              	.LFE9:
 658              		.size	CapSense_Sleep, .-CapSense_Sleep
 659 0002 C046     		.section	.text.CapSense_Wakeup,"ax",%progbits
 660              		.align	2
 661              		.global	CapSense_Wakeup
 662              		.code	16
 663              		.thumb_func
 664              		.type	CapSense_Wakeup, %function
 665              	CapSense_Wakeup:
 666              	.LFB10:
 887:Generated_Source\PSoC4/CapSense_Control.c **** 
 888:Generated_Source\PSoC4/CapSense_Control.c **** 
 889:Generated_Source\PSoC4/CapSense_Control.c **** /*******************************************************************************
 890:Generated_Source\PSoC4/CapSense_Control.c **** * Function Name: CapSense_Wakeup
 891:Generated_Source\PSoC4/CapSense_Control.c **** ****************************************************************************//**
 892:Generated_Source\PSoC4/CapSense_Control.c **** *
 893:Generated_Source\PSoC4/CapSense_Control.c **** * \brief
 894:Generated_Source\PSoC4/CapSense_Control.c **** *  Resumes the Component after deep sleep power mode.
 895:Generated_Source\PSoC4/CapSense_Control.c **** *
 896:Generated_Source\PSoC4/CapSense_Control.c **** * \details
 897:Generated_Source\PSoC4/CapSense_Control.c **** *  Resumes the Component after deep sleep power mode. This function is used to
 898:Generated_Source\PSoC4/CapSense_Control.c **** *  resume the Component after exiting deep sleep.
 899:Generated_Source\PSoC4/CapSense_Control.c **** *
 900:Generated_Source\PSoC4/CapSense_Control.c **** *******************************************************************************/
 901:Generated_Source\PSoC4/CapSense_Control.c **** void CapSense_Wakeup(void)
 902:Generated_Source\PSoC4/CapSense_Control.c **** {
 667              		.loc 1 902 0
 668              		.cfi_startproc
 669              		@ args = 0, pretend = 0, frame = 0
 670              		@ frame_needed = 0, uses_anonymous_args = 0
 671              		@ link register save eliminated.
ARM GAS  C:\Users\YUANFA~1\AppData\Local\Temp\ccIEyak6.s 			page 29


 903:Generated_Source\PSoC4/CapSense_Control.c ****     #if(CapSense_ENABLE == CapSense_CSDV2)
 904:Generated_Source\PSoC4/CapSense_Control.c ****         #if(CapSense_BLOCK_ANALOG_WAKEUP_DELAY_US > 0uL)
 905:Generated_Source\PSoC4/CapSense_Control.c ****             CyDelayUs(CapSense_BLOCK_ANALOG_WAKEUP_DELAY_US);
 906:Generated_Source\PSoC4/CapSense_Control.c ****         #endif /* (CapSense_BLOCK_ANALOG_WAKEUP_DELAY_US > 0uL) */
 907:Generated_Source\PSoC4/CapSense_Control.c ****     #endif /* (CapSense_ENABLE == CapSense_CSDV2) */
 908:Generated_Source\PSoC4/CapSense_Control.c **** }
 672              		.loc 1 908 0
 673              		@ sp needed
 674 0000 7047     		bx	lr
 675              		.cfi_endproc
 676              	.LFE10:
 677              		.size	CapSense_Wakeup, .-CapSense_Wakeup
 678 0002 C046     		.bss
 679              		.set	.LANCHOR0,. + 0
 680              		.type	CapSense_InitVar, %object
 681              		.size	CapSense_InitVar, 1
 682              	CapSense_InitVar:
 683 0000 00       		.space	1
 684              		.text
 685              	.Letext0:
 686              		.file 2 "Generated_Source\\PSoC4\\cytypes.h"
 687              		.file 3 "Generated_Source\\PSoC4\\CapSense_Configuration.h"
 688              		.file 4 "Generated_Source\\PSoC4\\CapSense_Structure.h"
 689              		.file 5 "Generated_Source\\PSoC4\\CapSense_Tuner.h"
 690              		.file 6 "Generated_Source\\PSoC4\\CapSense_Processing.h"
 691              		.file 7 "Generated_Source\\PSoC4\\CapSense_Sensing.h"
 692              		.file 8 "Generated_Source\\PSoC4\\CapSense_Filter.h"
 693              		.file 9 "Generated_Source\\PSoC4\\CapSense_SelfTest.h"