ARM GAS  C:\Users\YUANFA~1\AppData\Local\Temp\ccItJH9a.s 			page 1


   1              		.syntax unified
   2              		.cpu cortex-m0plus
   3              		.fpu softvfp
   4              		.eabi_attribute 20, 1
   5              		.eabi_attribute 21, 1
   6              		.eabi_attribute 23, 3
   7              		.eabi_attribute 24, 1
   8              		.eabi_attribute 25, 1
   9              		.eabi_attribute 26, 1
  10              		.eabi_attribute 30, 1
  11              		.eabi_attribute 34, 0
  12              		.eabi_attribute 18, 4
  13              		.thumb
  14              		.syntax unified
  15              		.file	"CapSense_Structure.c"
  16              		.text
  17              	.Ltext0:
  18              		.cfi_sections	.debug_frame
  19              		.section	.text.DsParseParamId,"ax",%progbits
  20              		.align	2
  21              		.code	16
  22              		.thumb_func
  23              		.type	DsParseParamId, %function
  24              	DsParseParamId:
  25              	.LFB2:
  26              		.file 1 "Generated_Source\\PSoC4\\CapSense_Structure.c"
   1:Generated_Source\PSoC4/CapSense_Structure.c **** /***************************************************************************//**
   2:Generated_Source\PSoC4/CapSense_Structure.c **** * \file CapSense_Structure.c
   3:Generated_Source\PSoC4/CapSense_Structure.c **** * \version 7.0
   4:Generated_Source\PSoC4/CapSense_Structure.c **** *
   5:Generated_Source\PSoC4/CapSense_Structure.c **** * \brief
   6:Generated_Source\PSoC4/CapSense_Structure.c **** *   This file defines the data structure global variables and provides implementation
   7:Generated_Source\PSoC4/CapSense_Structure.c **** *   for the high-level and low-level APIs of the Data Structure module.
   8:Generated_Source\PSoC4/CapSense_Structure.c **** *
   9:Generated_Source\PSoC4/CapSense_Structure.c **** * \see CapSense v7.0 Datasheet
  10:Generated_Source\PSoC4/CapSense_Structure.c **** *
  11:Generated_Source\PSoC4/CapSense_Structure.c **** *//*****************************************************************************
  12:Generated_Source\PSoC4/CapSense_Structure.c **** * Copyright (2016-2019), Cypress Semiconductor Corporation.
  13:Generated_Source\PSoC4/CapSense_Structure.c **** ********************************************************************************
  14:Generated_Source\PSoC4/CapSense_Structure.c **** * This software is owned by Cypress Semiconductor Corporation (Cypress) and is
  15:Generated_Source\PSoC4/CapSense_Structure.c **** * protected by and subject to worldwide patent protection (United States and
  16:Generated_Source\PSoC4/CapSense_Structure.c **** * foreign), United States copyright laws and international treaty provisions.
  17:Generated_Source\PSoC4/CapSense_Structure.c **** * Cypress hereby grants to licensee a personal, non-exclusive, non-transferable
  18:Generated_Source\PSoC4/CapSense_Structure.c **** * license to copy, use, modify, create derivative works of, and compile the
  19:Generated_Source\PSoC4/CapSense_Structure.c **** * Cypress Source Code and derivative works for the sole purpose of creating
  20:Generated_Source\PSoC4/CapSense_Structure.c **** * custom software in support of licensee product to be used only in conjunction
  21:Generated_Source\PSoC4/CapSense_Structure.c **** * with a Cypress integrated circuit as specified in the applicable agreement.
  22:Generated_Source\PSoC4/CapSense_Structure.c **** * Any reproduction, modification, translation, compilation, or representation of
  23:Generated_Source\PSoC4/CapSense_Structure.c **** * this software except as specified above is prohibited without the express
  24:Generated_Source\PSoC4/CapSense_Structure.c **** * written permission of Cypress.
  25:Generated_Source\PSoC4/CapSense_Structure.c **** *
  26:Generated_Source\PSoC4/CapSense_Structure.c **** * Disclaimer: CYPRESS MAKES NO WARRANTY OF ANY KIND, EXPRESS OR IMPLIED, WITH
  27:Generated_Source\PSoC4/CapSense_Structure.c **** * REGARD TO THIS MATERIAL, INCLUDING, BUT NOT LIMITED TO, THE IMPLIED
  28:Generated_Source\PSoC4/CapSense_Structure.c **** * WARRANTIES OF MERCHANTABILITY AND FITNESS FOR A PARTICULAR PURPOSE.
  29:Generated_Source\PSoC4/CapSense_Structure.c **** * Cypress reserves the right to make changes without further notice to the
  30:Generated_Source\PSoC4/CapSense_Structure.c **** * materials described herein. Cypress does not assume any liability arising out
  31:Generated_Source\PSoC4/CapSense_Structure.c **** * of the application or use of any product or circuit described herein. Cypress
ARM GAS  C:\Users\YUANFA~1\AppData\Local\Temp\ccItJH9a.s 			page 2


  32:Generated_Source\PSoC4/CapSense_Structure.c **** * does not authorize its products for use as critical components in life-support
  33:Generated_Source\PSoC4/CapSense_Structure.c **** * systems where a malfunction or failure may reasonably be expected to result in
  34:Generated_Source\PSoC4/CapSense_Structure.c **** * significant injury to the user. The inclusion of Cypress' product in a life-
  35:Generated_Source\PSoC4/CapSense_Structure.c **** * support systems application implies that the manufacturer assumes all risk of
  36:Generated_Source\PSoC4/CapSense_Structure.c **** * such use and in doing so indemnifies Cypress against all charges. Use may be
  37:Generated_Source\PSoC4/CapSense_Structure.c **** * limited by and subject to the applicable Cypress software license agreement.
  38:Generated_Source\PSoC4/CapSense_Structure.c **** *******************************************************************************/
  39:Generated_Source\PSoC4/CapSense_Structure.c **** 
  40:Generated_Source\PSoC4/CapSense_Structure.c **** #include <cytypes.h>
  41:Generated_Source\PSoC4/CapSense_Structure.c **** #include "CyLib.h"
  42:Generated_Source\PSoC4/CapSense_Structure.c **** #include "CapSense_Structure.h"
  43:Generated_Source\PSoC4/CapSense_Structure.c **** #include "CapSense_Configuration.h"
  44:Generated_Source\PSoC4/CapSense_Structure.c **** 
  45:Generated_Source\PSoC4/CapSense_Structure.c **** #if (0u != CapSense_ADC_EN)
  46:Generated_Source\PSoC4/CapSense_Structure.c ****     #include "CapSense_Adc.h"
  47:Generated_Source\PSoC4/CapSense_Structure.c **** #endif /* (0u != CapSense_ADC_EN) */
  48:Generated_Source\PSoC4/CapSense_Structure.c **** 
  49:Generated_Source\PSoC4/CapSense_Structure.c **** #if (CapSense_ENABLE == CapSense_SELF_TEST_EN)
  50:Generated_Source\PSoC4/CapSense_Structure.c ****     #include "CapSense_SelfTest.h"
  51:Generated_Source\PSoC4/CapSense_Structure.c **** #endif
  52:Generated_Source\PSoC4/CapSense_Structure.c **** 
  53:Generated_Source\PSoC4/CapSense_Structure.c **** #if (CapSense_ENABLE == CapSense_CENTROID_5X5_CSD_EN)
  54:Generated_Source\PSoC4/CapSense_Structure.c ****     #include "CapSense_AdvancedCentroid_LL.h"
  55:Generated_Source\PSoC4/CapSense_Structure.c **** #endif
  56:Generated_Source\PSoC4/CapSense_Structure.c **** 
  57:Generated_Source\PSoC4/CapSense_Structure.c **** #if (CapSense_ENABLE == CapSense_GES_GLOBAL_EN)
  58:Generated_Source\PSoC4/CapSense_Structure.c ****     #include "CapSense_Gesture.h"
  59:Generated_Source\PSoC4/CapSense_Structure.c **** #endif /* (CapSense_ENABLE == CapSense_GES_GLOBAL_EN) */
  60:Generated_Source\PSoC4/CapSense_Structure.c **** 
  61:Generated_Source\PSoC4/CapSense_Structure.c **** /*******************************************************************************
  62:Generated_Source\PSoC4/CapSense_Structure.c **** * Defines the RAM Data Structure variables and their init data in flash
  63:Generated_Source\PSoC4/CapSense_Structure.c **** *******************************************************************************/
  64:Generated_Source\PSoC4/CapSense_Structure.c **** /**
  65:Generated_Source\PSoC4/CapSense_Structure.c **** * \cond SECTION_GLOBAL_VARIABLES
  66:Generated_Source\PSoC4/CapSense_Structure.c **** * \addtogroup group_global_variables
  67:Generated_Source\PSoC4/CapSense_Structure.c **** * \{
  68:Generated_Source\PSoC4/CapSense_Structure.c **** */
  69:Generated_Source\PSoC4/CapSense_Structure.c **** 
  70:Generated_Source\PSoC4/CapSense_Structure.c **** /**
  71:Generated_Source\PSoC4/CapSense_Structure.c **** * The variable that contains the CapSense configuration, settings and
  72:Generated_Source\PSoC4/CapSense_Structure.c **** * scanning results. CapSense_dsRam represents RAM Data Structure.
  73:Generated_Source\PSoC4/CapSense_Structure.c **** */
  74:Generated_Source\PSoC4/CapSense_Structure.c **** CapSense_RAM_STRUCT CapSense_dsRam;
  75:Generated_Source\PSoC4/CapSense_Structure.c **** /** \}
  76:Generated_Source\PSoC4/CapSense_Structure.c **** * \endcond */
  77:Generated_Source\PSoC4/CapSense_Structure.c **** 
  78:Generated_Source\PSoC4/CapSense_Structure.c **** /*******************************************************************************
  79:Generated_Source\PSoC4/CapSense_Structure.c **** * Declares Widget's De-bounce Counters
  80:Generated_Source\PSoC4/CapSense_Structure.c **** *******************************************************************************/
  81:Generated_Source\PSoC4/CapSense_Structure.c **** static uint8 CapSense_debounceButton0[CapSense_BUTTON0_NUM_SENSORS];
  82:Generated_Source\PSoC4/CapSense_Structure.c **** static uint8 CapSense_debounceButton1[CapSense_BUTTON1_NUM_SENSORS];
  83:Generated_Source\PSoC4/CapSense_Structure.c **** static uint8 CapSense_debounceButton2[CapSense_BUTTON2_NUM_SENSORS];
  84:Generated_Source\PSoC4/CapSense_Structure.c **** static uint8 CapSense_debounceButton3[CapSense_BUTTON3_NUM_SENSORS];
  85:Generated_Source\PSoC4/CapSense_Structure.c **** static uint8 CapSense_debounceButton4[CapSense_BUTTON4_NUM_SENSORS];
  86:Generated_Source\PSoC4/CapSense_Structure.c **** static uint8 CapSense_debounceButton5[CapSense_BUTTON5_NUM_SENSORS];
  87:Generated_Source\PSoC4/CapSense_Structure.c **** static uint8 CapSense_debounceButton6[CapSense_BUTTON6_NUM_SENSORS];
  88:Generated_Source\PSoC4/CapSense_Structure.c **** static uint8 CapSense_debounceButton7[CapSense_BUTTON7_NUM_SENSORS];
ARM GAS  C:\Users\YUANFA~1\AppData\Local\Temp\ccItJH9a.s 			page 3


  89:Generated_Source\PSoC4/CapSense_Structure.c **** static uint8 CapSense_debounceButton8[CapSense_BUTTON8_NUM_SENSORS];
  90:Generated_Source\PSoC4/CapSense_Structure.c **** static uint8 CapSense_debounceButton9[CapSense_BUTTON9_NUM_SENSORS];
  91:Generated_Source\PSoC4/CapSense_Structure.c **** static uint8 CapSense_debounceButton10[CapSense_BUTTON10_NUM_SENSORS];
  92:Generated_Source\PSoC4/CapSense_Structure.c **** static uint8 CapSense_debounceButton11[CapSense_BUTTON11_NUM_SENSORS];
  93:Generated_Source\PSoC4/CapSense_Structure.c **** static uint8 CapSense_debounceButton12[CapSense_BUTTON12_NUM_SENSORS];
  94:Generated_Source\PSoC4/CapSense_Structure.c **** static uint8 CapSense_debounceButton13[CapSense_BUTTON13_NUM_SENSORS];
  95:Generated_Source\PSoC4/CapSense_Structure.c **** static uint8 CapSense_debounceButton14[CapSense_BUTTON14_NUM_SENSORS];
  96:Generated_Source\PSoC4/CapSense_Structure.c **** static uint8 CapSense_debounceButton15[CapSense_BUTTON15_NUM_SENSORS];
  97:Generated_Source\PSoC4/CapSense_Structure.c **** static uint8 CapSense_debounceButton16[CapSense_BUTTON16_NUM_SENSORS];
  98:Generated_Source\PSoC4/CapSense_Structure.c **** static uint8 CapSense_debounceButton17[CapSense_BUTTON17_NUM_SENSORS];
  99:Generated_Source\PSoC4/CapSense_Structure.c **** static uint8 CapSense_debounceButton18[CapSense_BUTTON18_NUM_SENSORS];
 100:Generated_Source\PSoC4/CapSense_Structure.c **** 
 101:Generated_Source\PSoC4/CapSense_Structure.c **** 
 102:Generated_Source\PSoC4/CapSense_Structure.c **** /*******************************************************************************
 103:Generated_Source\PSoC4/CapSense_Structure.c **** * Defines and initializes the Flash Data Structure
 104:Generated_Source\PSoC4/CapSense_Structure.c **** *******************************************************************************/
 105:Generated_Source\PSoC4/CapSense_Structure.c **** 
 106:Generated_Source\PSoC4/CapSense_Structure.c **** 
 107:Generated_Source\PSoC4/CapSense_Structure.c **** 
 108:Generated_Source\PSoC4/CapSense_Structure.c **** /**
 109:Generated_Source\PSoC4/CapSense_Structure.c **** * \cond SECTION_API_CONSTANTS
 110:Generated_Source\PSoC4/CapSense_Structure.c **** * \addtogroup group_api_constants
 111:Generated_Source\PSoC4/CapSense_Structure.c **** * \{
 112:Generated_Source\PSoC4/CapSense_Structure.c **** */
 113:Generated_Source\PSoC4/CapSense_Structure.c **** /**
 114:Generated_Source\PSoC4/CapSense_Structure.c **** * Constant for the FLASH Data Structure
 115:Generated_Source\PSoC4/CapSense_Structure.c **** */
 116:Generated_Source\PSoC4/CapSense_Structure.c **** const CapSense_FLASH_STRUCT CapSense_dsFlash =
 117:Generated_Source\PSoC4/CapSense_Structure.c **** {
 118:Generated_Source\PSoC4/CapSense_Structure.c ****     /* Flash Widget Initialization Data */
 119:Generated_Source\PSoC4/CapSense_Structure.c ****     {
 120:Generated_Source\PSoC4/CapSense_Structure.c ****         { /* Button0 */
 121:Generated_Source\PSoC4/CapSense_Structure.c ****             &CapSense_ioList[0u],
 122:Generated_Source\PSoC4/CapSense_Structure.c ****             (void *)&CapSense_dsRam.wdgtList.button0,
 123:Generated_Source\PSoC4/CapSense_Structure.c ****             CapSense_dsRam.snsList.button0,
 124:Generated_Source\PSoC4/CapSense_Structure.c ****             (void *)0u,
 125:Generated_Source\PSoC4/CapSense_Structure.c ****             CapSense_debounceButton0,
 126:Generated_Source\PSoC4/CapSense_Structure.c ****             CapSense_BUTTON0_STATIC_CONFIG,
 127:Generated_Source\PSoC4/CapSense_Structure.c ****             CapSense_BUTTON0_NUM_SENSORS,
 128:Generated_Source\PSoC4/CapSense_Structure.c ****             (uint8)CapSense_WD_BUTTON_E,
 129:Generated_Source\PSoC4/CapSense_Structure.c ****             CapSense_BUTTON0_NUM_SENSORS,
 130:Generated_Source\PSoC4/CapSense_Structure.c ****             &CapSense_dsRam.snsCp.button0[0u],
 131:Generated_Source\PSoC4/CapSense_Structure.c ****         },
 132:Generated_Source\PSoC4/CapSense_Structure.c ****         { /* Button1 */
 133:Generated_Source\PSoC4/CapSense_Structure.c ****             &CapSense_ioList[1u],
 134:Generated_Source\PSoC4/CapSense_Structure.c ****             (void *)&CapSense_dsRam.wdgtList.button1,
 135:Generated_Source\PSoC4/CapSense_Structure.c ****             CapSense_dsRam.snsList.button1,
 136:Generated_Source\PSoC4/CapSense_Structure.c ****             (void *)0u,
 137:Generated_Source\PSoC4/CapSense_Structure.c ****             CapSense_debounceButton1,
 138:Generated_Source\PSoC4/CapSense_Structure.c ****             CapSense_BUTTON1_STATIC_CONFIG,
 139:Generated_Source\PSoC4/CapSense_Structure.c ****             CapSense_BUTTON1_NUM_SENSORS,
 140:Generated_Source\PSoC4/CapSense_Structure.c ****             (uint8)CapSense_WD_BUTTON_E,
 141:Generated_Source\PSoC4/CapSense_Structure.c ****             CapSense_BUTTON1_NUM_SENSORS,
 142:Generated_Source\PSoC4/CapSense_Structure.c ****             &CapSense_dsRam.snsCp.button1[0u],
 143:Generated_Source\PSoC4/CapSense_Structure.c ****         },
 144:Generated_Source\PSoC4/CapSense_Structure.c ****         { /* Button2 */
 145:Generated_Source\PSoC4/CapSense_Structure.c ****             &CapSense_ioList[2u],
ARM GAS  C:\Users\YUANFA~1\AppData\Local\Temp\ccItJH9a.s 			page 4


 146:Generated_Source\PSoC4/CapSense_Structure.c ****             (void *)&CapSense_dsRam.wdgtList.button2,
 147:Generated_Source\PSoC4/CapSense_Structure.c ****             CapSense_dsRam.snsList.button2,
 148:Generated_Source\PSoC4/CapSense_Structure.c ****             (void *)0u,
 149:Generated_Source\PSoC4/CapSense_Structure.c ****             CapSense_debounceButton2,
 150:Generated_Source\PSoC4/CapSense_Structure.c ****             CapSense_BUTTON2_STATIC_CONFIG,
 151:Generated_Source\PSoC4/CapSense_Structure.c ****             CapSense_BUTTON2_NUM_SENSORS,
 152:Generated_Source\PSoC4/CapSense_Structure.c ****             (uint8)CapSense_WD_BUTTON_E,
 153:Generated_Source\PSoC4/CapSense_Structure.c ****             CapSense_BUTTON2_NUM_SENSORS,
 154:Generated_Source\PSoC4/CapSense_Structure.c ****             &CapSense_dsRam.snsCp.button2[0u],
 155:Generated_Source\PSoC4/CapSense_Structure.c ****         },
 156:Generated_Source\PSoC4/CapSense_Structure.c ****         { /* Button3 */
 157:Generated_Source\PSoC4/CapSense_Structure.c ****             &CapSense_ioList[3u],
 158:Generated_Source\PSoC4/CapSense_Structure.c ****             (void *)&CapSense_dsRam.wdgtList.button3,
 159:Generated_Source\PSoC4/CapSense_Structure.c ****             CapSense_dsRam.snsList.button3,
 160:Generated_Source\PSoC4/CapSense_Structure.c ****             (void *)0u,
 161:Generated_Source\PSoC4/CapSense_Structure.c ****             CapSense_debounceButton3,
 162:Generated_Source\PSoC4/CapSense_Structure.c ****             CapSense_BUTTON3_STATIC_CONFIG,
 163:Generated_Source\PSoC4/CapSense_Structure.c ****             CapSense_BUTTON3_NUM_SENSORS,
 164:Generated_Source\PSoC4/CapSense_Structure.c ****             (uint8)CapSense_WD_BUTTON_E,
 165:Generated_Source\PSoC4/CapSense_Structure.c ****             CapSense_BUTTON3_NUM_SENSORS,
 166:Generated_Source\PSoC4/CapSense_Structure.c ****             &CapSense_dsRam.snsCp.button3[0u],
 167:Generated_Source\PSoC4/CapSense_Structure.c ****         },
 168:Generated_Source\PSoC4/CapSense_Structure.c ****         { /* Button4 */
 169:Generated_Source\PSoC4/CapSense_Structure.c ****             &CapSense_ioList[4u],
 170:Generated_Source\PSoC4/CapSense_Structure.c ****             (void *)&CapSense_dsRam.wdgtList.button4,
 171:Generated_Source\PSoC4/CapSense_Structure.c ****             CapSense_dsRam.snsList.button4,
 172:Generated_Source\PSoC4/CapSense_Structure.c ****             (void *)0u,
 173:Generated_Source\PSoC4/CapSense_Structure.c ****             CapSense_debounceButton4,
 174:Generated_Source\PSoC4/CapSense_Structure.c ****             CapSense_BUTTON4_STATIC_CONFIG,
 175:Generated_Source\PSoC4/CapSense_Structure.c ****             CapSense_BUTTON4_NUM_SENSORS,
 176:Generated_Source\PSoC4/CapSense_Structure.c ****             (uint8)CapSense_WD_BUTTON_E,
 177:Generated_Source\PSoC4/CapSense_Structure.c ****             CapSense_BUTTON4_NUM_SENSORS,
 178:Generated_Source\PSoC4/CapSense_Structure.c ****             &CapSense_dsRam.snsCp.button4[0u],
 179:Generated_Source\PSoC4/CapSense_Structure.c ****         },
 180:Generated_Source\PSoC4/CapSense_Structure.c ****         { /* Button5 */
 181:Generated_Source\PSoC4/CapSense_Structure.c ****             &CapSense_ioList[5u],
 182:Generated_Source\PSoC4/CapSense_Structure.c ****             (void *)&CapSense_dsRam.wdgtList.button5,
 183:Generated_Source\PSoC4/CapSense_Structure.c ****             CapSense_dsRam.snsList.button5,
 184:Generated_Source\PSoC4/CapSense_Structure.c ****             (void *)0u,
 185:Generated_Source\PSoC4/CapSense_Structure.c ****             CapSense_debounceButton5,
 186:Generated_Source\PSoC4/CapSense_Structure.c ****             CapSense_BUTTON5_STATIC_CONFIG,
 187:Generated_Source\PSoC4/CapSense_Structure.c ****             CapSense_BUTTON5_NUM_SENSORS,
 188:Generated_Source\PSoC4/CapSense_Structure.c ****             (uint8)CapSense_WD_BUTTON_E,
 189:Generated_Source\PSoC4/CapSense_Structure.c ****             CapSense_BUTTON5_NUM_SENSORS,
 190:Generated_Source\PSoC4/CapSense_Structure.c ****             &CapSense_dsRam.snsCp.button5[0u],
 191:Generated_Source\PSoC4/CapSense_Structure.c ****         },
 192:Generated_Source\PSoC4/CapSense_Structure.c ****         { /* Button6 */
 193:Generated_Source\PSoC4/CapSense_Structure.c ****             &CapSense_ioList[6u],
 194:Generated_Source\PSoC4/CapSense_Structure.c ****             (void *)&CapSense_dsRam.wdgtList.button6,
 195:Generated_Source\PSoC4/CapSense_Structure.c ****             CapSense_dsRam.snsList.button6,
 196:Generated_Source\PSoC4/CapSense_Structure.c ****             (void *)0u,
 197:Generated_Source\PSoC4/CapSense_Structure.c ****             CapSense_debounceButton6,
 198:Generated_Source\PSoC4/CapSense_Structure.c ****             CapSense_BUTTON6_STATIC_CONFIG,
 199:Generated_Source\PSoC4/CapSense_Structure.c ****             CapSense_BUTTON6_NUM_SENSORS,
 200:Generated_Source\PSoC4/CapSense_Structure.c ****             (uint8)CapSense_WD_BUTTON_E,
 201:Generated_Source\PSoC4/CapSense_Structure.c ****             CapSense_BUTTON6_NUM_SENSORS,
 202:Generated_Source\PSoC4/CapSense_Structure.c ****             &CapSense_dsRam.snsCp.button6[0u],
ARM GAS  C:\Users\YUANFA~1\AppData\Local\Temp\ccItJH9a.s 			page 5


 203:Generated_Source\PSoC4/CapSense_Structure.c ****         },
 204:Generated_Source\PSoC4/CapSense_Structure.c ****         { /* Button7 */
 205:Generated_Source\PSoC4/CapSense_Structure.c ****             &CapSense_ioList[7u],
 206:Generated_Source\PSoC4/CapSense_Structure.c ****             (void *)&CapSense_dsRam.wdgtList.button7,
 207:Generated_Source\PSoC4/CapSense_Structure.c ****             CapSense_dsRam.snsList.button7,
 208:Generated_Source\PSoC4/CapSense_Structure.c ****             (void *)0u,
 209:Generated_Source\PSoC4/CapSense_Structure.c ****             CapSense_debounceButton7,
 210:Generated_Source\PSoC4/CapSense_Structure.c ****             CapSense_BUTTON7_STATIC_CONFIG,
 211:Generated_Source\PSoC4/CapSense_Structure.c ****             CapSense_BUTTON7_NUM_SENSORS,
 212:Generated_Source\PSoC4/CapSense_Structure.c ****             (uint8)CapSense_WD_BUTTON_E,
 213:Generated_Source\PSoC4/CapSense_Structure.c ****             CapSense_BUTTON7_NUM_SENSORS,
 214:Generated_Source\PSoC4/CapSense_Structure.c ****             &CapSense_dsRam.snsCp.button7[0u],
 215:Generated_Source\PSoC4/CapSense_Structure.c ****         },
 216:Generated_Source\PSoC4/CapSense_Structure.c ****         { /* Button8 */
 217:Generated_Source\PSoC4/CapSense_Structure.c ****             &CapSense_ioList[8u],
 218:Generated_Source\PSoC4/CapSense_Structure.c ****             (void *)&CapSense_dsRam.wdgtList.button8,
 219:Generated_Source\PSoC4/CapSense_Structure.c ****             CapSense_dsRam.snsList.button8,
 220:Generated_Source\PSoC4/CapSense_Structure.c ****             (void *)0u,
 221:Generated_Source\PSoC4/CapSense_Structure.c ****             CapSense_debounceButton8,
 222:Generated_Source\PSoC4/CapSense_Structure.c ****             CapSense_BUTTON8_STATIC_CONFIG,
 223:Generated_Source\PSoC4/CapSense_Structure.c ****             CapSense_BUTTON8_NUM_SENSORS,
 224:Generated_Source\PSoC4/CapSense_Structure.c ****             (uint8)CapSense_WD_BUTTON_E,
 225:Generated_Source\PSoC4/CapSense_Structure.c ****             CapSense_BUTTON8_NUM_SENSORS,
 226:Generated_Source\PSoC4/CapSense_Structure.c ****             &CapSense_dsRam.snsCp.button8[0u],
 227:Generated_Source\PSoC4/CapSense_Structure.c ****         },
 228:Generated_Source\PSoC4/CapSense_Structure.c ****         { /* Button9 */
 229:Generated_Source\PSoC4/CapSense_Structure.c ****             &CapSense_ioList[9u],
 230:Generated_Source\PSoC4/CapSense_Structure.c ****             (void *)&CapSense_dsRam.wdgtList.button9,
 231:Generated_Source\PSoC4/CapSense_Structure.c ****             CapSense_dsRam.snsList.button9,
 232:Generated_Source\PSoC4/CapSense_Structure.c ****             (void *)0u,
 233:Generated_Source\PSoC4/CapSense_Structure.c ****             CapSense_debounceButton9,
 234:Generated_Source\PSoC4/CapSense_Structure.c ****             CapSense_BUTTON9_STATIC_CONFIG,
 235:Generated_Source\PSoC4/CapSense_Structure.c ****             CapSense_BUTTON9_NUM_SENSORS,
 236:Generated_Source\PSoC4/CapSense_Structure.c ****             (uint8)CapSense_WD_BUTTON_E,
 237:Generated_Source\PSoC4/CapSense_Structure.c ****             CapSense_BUTTON9_NUM_SENSORS,
 238:Generated_Source\PSoC4/CapSense_Structure.c ****             &CapSense_dsRam.snsCp.button9[0u],
 239:Generated_Source\PSoC4/CapSense_Structure.c ****         },
 240:Generated_Source\PSoC4/CapSense_Structure.c ****         { /* Button10 */
 241:Generated_Source\PSoC4/CapSense_Structure.c ****             &CapSense_ioList[10u],
 242:Generated_Source\PSoC4/CapSense_Structure.c ****             (void *)&CapSense_dsRam.wdgtList.button10,
 243:Generated_Source\PSoC4/CapSense_Structure.c ****             CapSense_dsRam.snsList.button10,
 244:Generated_Source\PSoC4/CapSense_Structure.c ****             (void *)0u,
 245:Generated_Source\PSoC4/CapSense_Structure.c ****             CapSense_debounceButton10,
 246:Generated_Source\PSoC4/CapSense_Structure.c ****             CapSense_BUTTON10_STATIC_CONFIG,
 247:Generated_Source\PSoC4/CapSense_Structure.c ****             CapSense_BUTTON10_NUM_SENSORS,
 248:Generated_Source\PSoC4/CapSense_Structure.c ****             (uint8)CapSense_WD_BUTTON_E,
 249:Generated_Source\PSoC4/CapSense_Structure.c ****             CapSense_BUTTON10_NUM_SENSORS,
 250:Generated_Source\PSoC4/CapSense_Structure.c ****             &CapSense_dsRam.snsCp.button10[0u],
 251:Generated_Source\PSoC4/CapSense_Structure.c ****         },
 252:Generated_Source\PSoC4/CapSense_Structure.c ****         { /* Button11 */
 253:Generated_Source\PSoC4/CapSense_Structure.c ****             &CapSense_ioList[11u],
 254:Generated_Source\PSoC4/CapSense_Structure.c ****             (void *)&CapSense_dsRam.wdgtList.button11,
 255:Generated_Source\PSoC4/CapSense_Structure.c ****             CapSense_dsRam.snsList.button11,
 256:Generated_Source\PSoC4/CapSense_Structure.c ****             (void *)0u,
 257:Generated_Source\PSoC4/CapSense_Structure.c ****             CapSense_debounceButton11,
 258:Generated_Source\PSoC4/CapSense_Structure.c ****             CapSense_BUTTON11_STATIC_CONFIG,
 259:Generated_Source\PSoC4/CapSense_Structure.c ****             CapSense_BUTTON11_NUM_SENSORS,
ARM GAS  C:\Users\YUANFA~1\AppData\Local\Temp\ccItJH9a.s 			page 6


 260:Generated_Source\PSoC4/CapSense_Structure.c ****             (uint8)CapSense_WD_BUTTON_E,
 261:Generated_Source\PSoC4/CapSense_Structure.c ****             CapSense_BUTTON11_NUM_SENSORS,
 262:Generated_Source\PSoC4/CapSense_Structure.c ****             &CapSense_dsRam.snsCp.button11[0u],
 263:Generated_Source\PSoC4/CapSense_Structure.c ****         },
 264:Generated_Source\PSoC4/CapSense_Structure.c ****         { /* Button12 */
 265:Generated_Source\PSoC4/CapSense_Structure.c ****             &CapSense_ioList[12u],
 266:Generated_Source\PSoC4/CapSense_Structure.c ****             (void *)&CapSense_dsRam.wdgtList.button12,
 267:Generated_Source\PSoC4/CapSense_Structure.c ****             CapSense_dsRam.snsList.button12,
 268:Generated_Source\PSoC4/CapSense_Structure.c ****             (void *)0u,
 269:Generated_Source\PSoC4/CapSense_Structure.c ****             CapSense_debounceButton12,
 270:Generated_Source\PSoC4/CapSense_Structure.c ****             CapSense_BUTTON12_STATIC_CONFIG,
 271:Generated_Source\PSoC4/CapSense_Structure.c ****             CapSense_BUTTON12_NUM_SENSORS,
 272:Generated_Source\PSoC4/CapSense_Structure.c ****             (uint8)CapSense_WD_BUTTON_E,
 273:Generated_Source\PSoC4/CapSense_Structure.c ****             CapSense_BUTTON12_NUM_SENSORS,
 274:Generated_Source\PSoC4/CapSense_Structure.c ****             &CapSense_dsRam.snsCp.button12[0u],
 275:Generated_Source\PSoC4/CapSense_Structure.c ****         },
 276:Generated_Source\PSoC4/CapSense_Structure.c ****         { /* Button13 */
 277:Generated_Source\PSoC4/CapSense_Structure.c ****             &CapSense_ioList[13u],
 278:Generated_Source\PSoC4/CapSense_Structure.c ****             (void *)&CapSense_dsRam.wdgtList.button13,
 279:Generated_Source\PSoC4/CapSense_Structure.c ****             CapSense_dsRam.snsList.button13,
 280:Generated_Source\PSoC4/CapSense_Structure.c ****             (void *)0u,
 281:Generated_Source\PSoC4/CapSense_Structure.c ****             CapSense_debounceButton13,
 282:Generated_Source\PSoC4/CapSense_Structure.c ****             CapSense_BUTTON13_STATIC_CONFIG,
 283:Generated_Source\PSoC4/CapSense_Structure.c ****             CapSense_BUTTON13_NUM_SENSORS,
 284:Generated_Source\PSoC4/CapSense_Structure.c ****             (uint8)CapSense_WD_BUTTON_E,
 285:Generated_Source\PSoC4/CapSense_Structure.c ****             CapSense_BUTTON13_NUM_SENSORS,
 286:Generated_Source\PSoC4/CapSense_Structure.c ****             &CapSense_dsRam.snsCp.button13[0u],
 287:Generated_Source\PSoC4/CapSense_Structure.c ****         },
 288:Generated_Source\PSoC4/CapSense_Structure.c ****         { /* Button14 */
 289:Generated_Source\PSoC4/CapSense_Structure.c ****             &CapSense_ioList[14u],
 290:Generated_Source\PSoC4/CapSense_Structure.c ****             (void *)&CapSense_dsRam.wdgtList.button14,
 291:Generated_Source\PSoC4/CapSense_Structure.c ****             CapSense_dsRam.snsList.button14,
 292:Generated_Source\PSoC4/CapSense_Structure.c ****             (void *)0u,
 293:Generated_Source\PSoC4/CapSense_Structure.c ****             CapSense_debounceButton14,
 294:Generated_Source\PSoC4/CapSense_Structure.c ****             CapSense_BUTTON14_STATIC_CONFIG,
 295:Generated_Source\PSoC4/CapSense_Structure.c ****             CapSense_BUTTON14_NUM_SENSORS,
 296:Generated_Source\PSoC4/CapSense_Structure.c ****             (uint8)CapSense_WD_BUTTON_E,
 297:Generated_Source\PSoC4/CapSense_Structure.c ****             CapSense_BUTTON14_NUM_SENSORS,
 298:Generated_Source\PSoC4/CapSense_Structure.c ****             &CapSense_dsRam.snsCp.button14[0u],
 299:Generated_Source\PSoC4/CapSense_Structure.c ****         },
 300:Generated_Source\PSoC4/CapSense_Structure.c ****         { /* Button15 */
 301:Generated_Source\PSoC4/CapSense_Structure.c ****             &CapSense_ioList[15u],
 302:Generated_Source\PSoC4/CapSense_Structure.c ****             (void *)&CapSense_dsRam.wdgtList.button15,
 303:Generated_Source\PSoC4/CapSense_Structure.c ****             CapSense_dsRam.snsList.button15,
 304:Generated_Source\PSoC4/CapSense_Structure.c ****             (void *)0u,
 305:Generated_Source\PSoC4/CapSense_Structure.c ****             CapSense_debounceButton15,
 306:Generated_Source\PSoC4/CapSense_Structure.c ****             CapSense_BUTTON15_STATIC_CONFIG,
 307:Generated_Source\PSoC4/CapSense_Structure.c ****             CapSense_BUTTON15_NUM_SENSORS,
 308:Generated_Source\PSoC4/CapSense_Structure.c ****             (uint8)CapSense_WD_BUTTON_E,
 309:Generated_Source\PSoC4/CapSense_Structure.c ****             CapSense_BUTTON15_NUM_SENSORS,
 310:Generated_Source\PSoC4/CapSense_Structure.c ****             &CapSense_dsRam.snsCp.button15[0u],
 311:Generated_Source\PSoC4/CapSense_Structure.c ****         },
 312:Generated_Source\PSoC4/CapSense_Structure.c ****         { /* Button16 */
 313:Generated_Source\PSoC4/CapSense_Structure.c ****             &CapSense_ioList[16u],
 314:Generated_Source\PSoC4/CapSense_Structure.c ****             (void *)&CapSense_dsRam.wdgtList.button16,
 315:Generated_Source\PSoC4/CapSense_Structure.c ****             CapSense_dsRam.snsList.button16,
 316:Generated_Source\PSoC4/CapSense_Structure.c ****             (void *)0u,
ARM GAS  C:\Users\YUANFA~1\AppData\Local\Temp\ccItJH9a.s 			page 7


 317:Generated_Source\PSoC4/CapSense_Structure.c ****             CapSense_debounceButton16,
 318:Generated_Source\PSoC4/CapSense_Structure.c ****             CapSense_BUTTON16_STATIC_CONFIG,
 319:Generated_Source\PSoC4/CapSense_Structure.c ****             CapSense_BUTTON16_NUM_SENSORS,
 320:Generated_Source\PSoC4/CapSense_Structure.c ****             (uint8)CapSense_WD_BUTTON_E,
 321:Generated_Source\PSoC4/CapSense_Structure.c ****             CapSense_BUTTON16_NUM_SENSORS,
 322:Generated_Source\PSoC4/CapSense_Structure.c ****             &CapSense_dsRam.snsCp.button16[0u],
 323:Generated_Source\PSoC4/CapSense_Structure.c ****         },
 324:Generated_Source\PSoC4/CapSense_Structure.c ****         { /* Button17 */
 325:Generated_Source\PSoC4/CapSense_Structure.c ****             &CapSense_ioList[17u],
 326:Generated_Source\PSoC4/CapSense_Structure.c ****             (void *)&CapSense_dsRam.wdgtList.button17,
 327:Generated_Source\PSoC4/CapSense_Structure.c ****             CapSense_dsRam.snsList.button17,
 328:Generated_Source\PSoC4/CapSense_Structure.c ****             (void *)0u,
 329:Generated_Source\PSoC4/CapSense_Structure.c ****             CapSense_debounceButton17,
 330:Generated_Source\PSoC4/CapSense_Structure.c ****             CapSense_BUTTON17_STATIC_CONFIG,
 331:Generated_Source\PSoC4/CapSense_Structure.c ****             CapSense_BUTTON17_NUM_SENSORS,
 332:Generated_Source\PSoC4/CapSense_Structure.c ****             (uint8)CapSense_WD_BUTTON_E,
 333:Generated_Source\PSoC4/CapSense_Structure.c ****             CapSense_BUTTON17_NUM_SENSORS,
 334:Generated_Source\PSoC4/CapSense_Structure.c ****             &CapSense_dsRam.snsCp.button17[0u],
 335:Generated_Source\PSoC4/CapSense_Structure.c ****         },
 336:Generated_Source\PSoC4/CapSense_Structure.c ****         { /* Button18 */
 337:Generated_Source\PSoC4/CapSense_Structure.c ****             &CapSense_ioList[18u],
 338:Generated_Source\PSoC4/CapSense_Structure.c ****             (void *)&CapSense_dsRam.wdgtList.button18,
 339:Generated_Source\PSoC4/CapSense_Structure.c ****             CapSense_dsRam.snsList.button18,
 340:Generated_Source\PSoC4/CapSense_Structure.c ****             (void *)0u,
 341:Generated_Source\PSoC4/CapSense_Structure.c ****             CapSense_debounceButton18,
 342:Generated_Source\PSoC4/CapSense_Structure.c ****             CapSense_BUTTON18_STATIC_CONFIG,
 343:Generated_Source\PSoC4/CapSense_Structure.c ****             CapSense_BUTTON18_NUM_SENSORS,
 344:Generated_Source\PSoC4/CapSense_Structure.c ****             (uint8)CapSense_WD_BUTTON_E,
 345:Generated_Source\PSoC4/CapSense_Structure.c ****             CapSense_BUTTON18_NUM_SENSORS,
 346:Generated_Source\PSoC4/CapSense_Structure.c ****             &CapSense_dsRam.snsCp.button18[0u],
 347:Generated_Source\PSoC4/CapSense_Structure.c ****         },
 348:Generated_Source\PSoC4/CapSense_Structure.c ****     },
 349:Generated_Source\PSoC4/CapSense_Structure.c **** };
 350:Generated_Source\PSoC4/CapSense_Structure.c **** 
 351:Generated_Source\PSoC4/CapSense_Structure.c **** /**
 352:Generated_Source\PSoC4/CapSense_Structure.c **** * The array of the pointers to the electrode specific register.
 353:Generated_Source\PSoC4/CapSense_Structure.c **** */
 354:Generated_Source\PSoC4/CapSense_Structure.c **** const CapSense_FLASH_IO_STRUCT CapSense_ioList[CapSense_TOTAL_ELECTRODES] =
 355:Generated_Source\PSoC4/CapSense_Structure.c **** {
 356:Generated_Source\PSoC4/CapSense_Structure.c ****     { /* 0: Button0_Sns0 */
 357:Generated_Source\PSoC4/CapSense_Structure.c ****         (reg32 *)CapSense_Sns__0__HSIOM,
 358:Generated_Source\PSoC4/CapSense_Structure.c ****         (reg32 *)CapSense_Sns__0__PC,
 359:Generated_Source\PSoC4/CapSense_Structure.c ****         (reg32 *)CapSense_Sns__0__PC2,
 360:Generated_Source\PSoC4/CapSense_Structure.c ****         (reg32 *)CapSense_Sns__0__DR,
 361:Generated_Source\PSoC4/CapSense_Structure.c ****         (reg32 *)CapSense_Sns__0__PS,
 362:Generated_Source\PSoC4/CapSense_Structure.c ****         CapSense_Sns__0__HSIOM_MASK,
 363:Generated_Source\PSoC4/CapSense_Structure.c ****         CapSense_Sns__0__MASK,
 364:Generated_Source\PSoC4/CapSense_Structure.c ****         CapSense_Sns__0__HSIOM_SHIFT,
 365:Generated_Source\PSoC4/CapSense_Structure.c ****         (uint8)CapSense_Sns__0__SHIFT,
 366:Generated_Source\PSoC4/CapSense_Structure.c ****         (uint8)CapSense_Sns__0__SHIFT * 3u,
 367:Generated_Source\PSoC4/CapSense_Structure.c ****     },
 368:Generated_Source\PSoC4/CapSense_Structure.c ****     { /* 1: Button1_Sns0 */
 369:Generated_Source\PSoC4/CapSense_Structure.c ****         (reg32 *)CapSense_Sns__1__HSIOM,
 370:Generated_Source\PSoC4/CapSense_Structure.c ****         (reg32 *)CapSense_Sns__1__PC,
 371:Generated_Source\PSoC4/CapSense_Structure.c ****         (reg32 *)CapSense_Sns__1__PC2,
 372:Generated_Source\PSoC4/CapSense_Structure.c ****         (reg32 *)CapSense_Sns__1__DR,
 373:Generated_Source\PSoC4/CapSense_Structure.c ****         (reg32 *)CapSense_Sns__1__PS,
ARM GAS  C:\Users\YUANFA~1\AppData\Local\Temp\ccItJH9a.s 			page 8


 374:Generated_Source\PSoC4/CapSense_Structure.c ****         CapSense_Sns__1__HSIOM_MASK,
 375:Generated_Source\PSoC4/CapSense_Structure.c ****         CapSense_Sns__1__MASK,
 376:Generated_Source\PSoC4/CapSense_Structure.c ****         CapSense_Sns__1__HSIOM_SHIFT,
 377:Generated_Source\PSoC4/CapSense_Structure.c ****         (uint8)CapSense_Sns__1__SHIFT,
 378:Generated_Source\PSoC4/CapSense_Structure.c ****         (uint8)CapSense_Sns__1__SHIFT * 3u,
 379:Generated_Source\PSoC4/CapSense_Structure.c ****     },
 380:Generated_Source\PSoC4/CapSense_Structure.c ****     { /* 2: Button2_Sns0 */
 381:Generated_Source\PSoC4/CapSense_Structure.c ****         (reg32 *)CapSense_Sns__2__HSIOM,
 382:Generated_Source\PSoC4/CapSense_Structure.c ****         (reg32 *)CapSense_Sns__2__PC,
 383:Generated_Source\PSoC4/CapSense_Structure.c ****         (reg32 *)CapSense_Sns__2__PC2,
 384:Generated_Source\PSoC4/CapSense_Structure.c ****         (reg32 *)CapSense_Sns__2__DR,
 385:Generated_Source\PSoC4/CapSense_Structure.c ****         (reg32 *)CapSense_Sns__2__PS,
 386:Generated_Source\PSoC4/CapSense_Structure.c ****         CapSense_Sns__2__HSIOM_MASK,
 387:Generated_Source\PSoC4/CapSense_Structure.c ****         CapSense_Sns__2__MASK,
 388:Generated_Source\PSoC4/CapSense_Structure.c ****         CapSense_Sns__2__HSIOM_SHIFT,
 389:Generated_Source\PSoC4/CapSense_Structure.c ****         (uint8)CapSense_Sns__2__SHIFT,
 390:Generated_Source\PSoC4/CapSense_Structure.c ****         (uint8)CapSense_Sns__2__SHIFT * 3u,
 391:Generated_Source\PSoC4/CapSense_Structure.c ****     },
 392:Generated_Source\PSoC4/CapSense_Structure.c ****     { /* 3: Button3_Sns0 */
 393:Generated_Source\PSoC4/CapSense_Structure.c ****         (reg32 *)CapSense_Sns__3__HSIOM,
 394:Generated_Source\PSoC4/CapSense_Structure.c ****         (reg32 *)CapSense_Sns__3__PC,
 395:Generated_Source\PSoC4/CapSense_Structure.c ****         (reg32 *)CapSense_Sns__3__PC2,
 396:Generated_Source\PSoC4/CapSense_Structure.c ****         (reg32 *)CapSense_Sns__3__DR,
 397:Generated_Source\PSoC4/CapSense_Structure.c ****         (reg32 *)CapSense_Sns__3__PS,
 398:Generated_Source\PSoC4/CapSense_Structure.c ****         CapSense_Sns__3__HSIOM_MASK,
 399:Generated_Source\PSoC4/CapSense_Structure.c ****         CapSense_Sns__3__MASK,
 400:Generated_Source\PSoC4/CapSense_Structure.c ****         CapSense_Sns__3__HSIOM_SHIFT,
 401:Generated_Source\PSoC4/CapSense_Structure.c ****         (uint8)CapSense_Sns__3__SHIFT,
 402:Generated_Source\PSoC4/CapSense_Structure.c ****         (uint8)CapSense_Sns__3__SHIFT * 3u,
 403:Generated_Source\PSoC4/CapSense_Structure.c ****     },
 404:Generated_Source\PSoC4/CapSense_Structure.c ****     { /* 4: Button4_Sns0 */
 405:Generated_Source\PSoC4/CapSense_Structure.c ****         (reg32 *)CapSense_Sns__4__HSIOM,
 406:Generated_Source\PSoC4/CapSense_Structure.c ****         (reg32 *)CapSense_Sns__4__PC,
 407:Generated_Source\PSoC4/CapSense_Structure.c ****         (reg32 *)CapSense_Sns__4__PC2,
 408:Generated_Source\PSoC4/CapSense_Structure.c ****         (reg32 *)CapSense_Sns__4__DR,
 409:Generated_Source\PSoC4/CapSense_Structure.c ****         (reg32 *)CapSense_Sns__4__PS,
 410:Generated_Source\PSoC4/CapSense_Structure.c ****         CapSense_Sns__4__HSIOM_MASK,
 411:Generated_Source\PSoC4/CapSense_Structure.c ****         CapSense_Sns__4__MASK,
 412:Generated_Source\PSoC4/CapSense_Structure.c ****         CapSense_Sns__4__HSIOM_SHIFT,
 413:Generated_Source\PSoC4/CapSense_Structure.c ****         (uint8)CapSense_Sns__4__SHIFT,
 414:Generated_Source\PSoC4/CapSense_Structure.c ****         (uint8)CapSense_Sns__4__SHIFT * 3u,
 415:Generated_Source\PSoC4/CapSense_Structure.c ****     },
 416:Generated_Source\PSoC4/CapSense_Structure.c ****     { /* 5: Button5_Sns0 */
 417:Generated_Source\PSoC4/CapSense_Structure.c ****         (reg32 *)CapSense_Sns__5__HSIOM,
 418:Generated_Source\PSoC4/CapSense_Structure.c ****         (reg32 *)CapSense_Sns__5__PC,
 419:Generated_Source\PSoC4/CapSense_Structure.c ****         (reg32 *)CapSense_Sns__5__PC2,
 420:Generated_Source\PSoC4/CapSense_Structure.c ****         (reg32 *)CapSense_Sns__5__DR,
 421:Generated_Source\PSoC4/CapSense_Structure.c ****         (reg32 *)CapSense_Sns__5__PS,
 422:Generated_Source\PSoC4/CapSense_Structure.c ****         CapSense_Sns__5__HSIOM_MASK,
 423:Generated_Source\PSoC4/CapSense_Structure.c ****         CapSense_Sns__5__MASK,
 424:Generated_Source\PSoC4/CapSense_Structure.c ****         CapSense_Sns__5__HSIOM_SHIFT,
 425:Generated_Source\PSoC4/CapSense_Structure.c ****         (uint8)CapSense_Sns__5__SHIFT,
 426:Generated_Source\PSoC4/CapSense_Structure.c ****         (uint8)CapSense_Sns__5__SHIFT * 3u,
 427:Generated_Source\PSoC4/CapSense_Structure.c ****     },
 428:Generated_Source\PSoC4/CapSense_Structure.c ****     { /* 6: Button6_Sns0 */
 429:Generated_Source\PSoC4/CapSense_Structure.c ****         (reg32 *)CapSense_Sns__6__HSIOM,
 430:Generated_Source\PSoC4/CapSense_Structure.c ****         (reg32 *)CapSense_Sns__6__PC,
ARM GAS  C:\Users\YUANFA~1\AppData\Local\Temp\ccItJH9a.s 			page 9


 431:Generated_Source\PSoC4/CapSense_Structure.c ****         (reg32 *)CapSense_Sns__6__PC2,
 432:Generated_Source\PSoC4/CapSense_Structure.c ****         (reg32 *)CapSense_Sns__6__DR,
 433:Generated_Source\PSoC4/CapSense_Structure.c ****         (reg32 *)CapSense_Sns__6__PS,
 434:Generated_Source\PSoC4/CapSense_Structure.c ****         CapSense_Sns__6__HSIOM_MASK,
 435:Generated_Source\PSoC4/CapSense_Structure.c ****         CapSense_Sns__6__MASK,
 436:Generated_Source\PSoC4/CapSense_Structure.c ****         CapSense_Sns__6__HSIOM_SHIFT,
 437:Generated_Source\PSoC4/CapSense_Structure.c ****         (uint8)CapSense_Sns__6__SHIFT,
 438:Generated_Source\PSoC4/CapSense_Structure.c ****         (uint8)CapSense_Sns__6__SHIFT * 3u,
 439:Generated_Source\PSoC4/CapSense_Structure.c ****     },
 440:Generated_Source\PSoC4/CapSense_Structure.c ****     { /* 7: Button7_Sns0 */
 441:Generated_Source\PSoC4/CapSense_Structure.c ****         (reg32 *)CapSense_Sns__7__HSIOM,
 442:Generated_Source\PSoC4/CapSense_Structure.c ****         (reg32 *)CapSense_Sns__7__PC,
 443:Generated_Source\PSoC4/CapSense_Structure.c ****         (reg32 *)CapSense_Sns__7__PC2,
 444:Generated_Source\PSoC4/CapSense_Structure.c ****         (reg32 *)CapSense_Sns__7__DR,
 445:Generated_Source\PSoC4/CapSense_Structure.c ****         (reg32 *)CapSense_Sns__7__PS,
 446:Generated_Source\PSoC4/CapSense_Structure.c ****         CapSense_Sns__7__HSIOM_MASK,
 447:Generated_Source\PSoC4/CapSense_Structure.c ****         CapSense_Sns__7__MASK,
 448:Generated_Source\PSoC4/CapSense_Structure.c ****         CapSense_Sns__7__HSIOM_SHIFT,
 449:Generated_Source\PSoC4/CapSense_Structure.c ****         (uint8)CapSense_Sns__7__SHIFT,
 450:Generated_Source\PSoC4/CapSense_Structure.c ****         (uint8)CapSense_Sns__7__SHIFT * 3u,
 451:Generated_Source\PSoC4/CapSense_Structure.c ****     },
 452:Generated_Source\PSoC4/CapSense_Structure.c ****     { /* 8: Button8_Sns0 */
 453:Generated_Source\PSoC4/CapSense_Structure.c ****         (reg32 *)CapSense_Sns__8__HSIOM,
 454:Generated_Source\PSoC4/CapSense_Structure.c ****         (reg32 *)CapSense_Sns__8__PC,
 455:Generated_Source\PSoC4/CapSense_Structure.c ****         (reg32 *)CapSense_Sns__8__PC2,
 456:Generated_Source\PSoC4/CapSense_Structure.c ****         (reg32 *)CapSense_Sns__8__DR,
 457:Generated_Source\PSoC4/CapSense_Structure.c ****         (reg32 *)CapSense_Sns__8__PS,
 458:Generated_Source\PSoC4/CapSense_Structure.c ****         CapSense_Sns__8__HSIOM_MASK,
 459:Generated_Source\PSoC4/CapSense_Structure.c ****         CapSense_Sns__8__MASK,
 460:Generated_Source\PSoC4/CapSense_Structure.c ****         CapSense_Sns__8__HSIOM_SHIFT,
 461:Generated_Source\PSoC4/CapSense_Structure.c ****         (uint8)CapSense_Sns__8__SHIFT,
 462:Generated_Source\PSoC4/CapSense_Structure.c ****         (uint8)CapSense_Sns__8__SHIFT * 3u,
 463:Generated_Source\PSoC4/CapSense_Structure.c ****     },
 464:Generated_Source\PSoC4/CapSense_Structure.c ****     { /* 9: Button9_Sns0 */
 465:Generated_Source\PSoC4/CapSense_Structure.c ****         (reg32 *)CapSense_Sns__9__HSIOM,
 466:Generated_Source\PSoC4/CapSense_Structure.c ****         (reg32 *)CapSense_Sns__9__PC,
 467:Generated_Source\PSoC4/CapSense_Structure.c ****         (reg32 *)CapSense_Sns__9__PC2,
 468:Generated_Source\PSoC4/CapSense_Structure.c ****         (reg32 *)CapSense_Sns__9__DR,
 469:Generated_Source\PSoC4/CapSense_Structure.c ****         (reg32 *)CapSense_Sns__9__PS,
 470:Generated_Source\PSoC4/CapSense_Structure.c ****         CapSense_Sns__9__HSIOM_MASK,
 471:Generated_Source\PSoC4/CapSense_Structure.c ****         CapSense_Sns__9__MASK,
 472:Generated_Source\PSoC4/CapSense_Structure.c ****         CapSense_Sns__9__HSIOM_SHIFT,
 473:Generated_Source\PSoC4/CapSense_Structure.c ****         (uint8)CapSense_Sns__9__SHIFT,
 474:Generated_Source\PSoC4/CapSense_Structure.c ****         (uint8)CapSense_Sns__9__SHIFT * 3u,
 475:Generated_Source\PSoC4/CapSense_Structure.c ****     },
 476:Generated_Source\PSoC4/CapSense_Structure.c ****     { /* 10: Button10_Sns0 */
 477:Generated_Source\PSoC4/CapSense_Structure.c ****         (reg32 *)CapSense_Sns__10__HSIOM,
 478:Generated_Source\PSoC4/CapSense_Structure.c ****         (reg32 *)CapSense_Sns__10__PC,
 479:Generated_Source\PSoC4/CapSense_Structure.c ****         (reg32 *)CapSense_Sns__10__PC2,
 480:Generated_Source\PSoC4/CapSense_Structure.c ****         (reg32 *)CapSense_Sns__10__DR,
 481:Generated_Source\PSoC4/CapSense_Structure.c ****         (reg32 *)CapSense_Sns__10__PS,
 482:Generated_Source\PSoC4/CapSense_Structure.c ****         CapSense_Sns__10__HSIOM_MASK,
 483:Generated_Source\PSoC4/CapSense_Structure.c ****         CapSense_Sns__10__MASK,
 484:Generated_Source\PSoC4/CapSense_Structure.c ****         CapSense_Sns__10__HSIOM_SHIFT,
 485:Generated_Source\PSoC4/CapSense_Structure.c ****         (uint8)CapSense_Sns__10__SHIFT,
 486:Generated_Source\PSoC4/CapSense_Structure.c ****         (uint8)CapSense_Sns__10__SHIFT * 3u,
 487:Generated_Source\PSoC4/CapSense_Structure.c ****     },
ARM GAS  C:\Users\YUANFA~1\AppData\Local\Temp\ccItJH9a.s 			page 10


 488:Generated_Source\PSoC4/CapSense_Structure.c ****     { /* 11: Button11_Sns0 */
 489:Generated_Source\PSoC4/CapSense_Structure.c ****         (reg32 *)CapSense_Sns__11__HSIOM,
 490:Generated_Source\PSoC4/CapSense_Structure.c ****         (reg32 *)CapSense_Sns__11__PC,
 491:Generated_Source\PSoC4/CapSense_Structure.c ****         (reg32 *)CapSense_Sns__11__PC2,
 492:Generated_Source\PSoC4/CapSense_Structure.c ****         (reg32 *)CapSense_Sns__11__DR,
 493:Generated_Source\PSoC4/CapSense_Structure.c ****         (reg32 *)CapSense_Sns__11__PS,
 494:Generated_Source\PSoC4/CapSense_Structure.c ****         CapSense_Sns__11__HSIOM_MASK,
 495:Generated_Source\PSoC4/CapSense_Structure.c ****         CapSense_Sns__11__MASK,
 496:Generated_Source\PSoC4/CapSense_Structure.c ****         CapSense_Sns__11__HSIOM_SHIFT,
 497:Generated_Source\PSoC4/CapSense_Structure.c ****         (uint8)CapSense_Sns__11__SHIFT,
 498:Generated_Source\PSoC4/CapSense_Structure.c ****         (uint8)CapSense_Sns__11__SHIFT * 3u,
 499:Generated_Source\PSoC4/CapSense_Structure.c ****     },
 500:Generated_Source\PSoC4/CapSense_Structure.c ****     { /* 12: Button12_Sns0 */
 501:Generated_Source\PSoC4/CapSense_Structure.c ****         (reg32 *)CapSense_Sns__12__HSIOM,
 502:Generated_Source\PSoC4/CapSense_Structure.c ****         (reg32 *)CapSense_Sns__12__PC,
 503:Generated_Source\PSoC4/CapSense_Structure.c ****         (reg32 *)CapSense_Sns__12__PC2,
 504:Generated_Source\PSoC4/CapSense_Structure.c ****         (reg32 *)CapSense_Sns__12__DR,
 505:Generated_Source\PSoC4/CapSense_Structure.c ****         (reg32 *)CapSense_Sns__12__PS,
 506:Generated_Source\PSoC4/CapSense_Structure.c ****         CapSense_Sns__12__HSIOM_MASK,
 507:Generated_Source\PSoC4/CapSense_Structure.c ****         CapSense_Sns__12__MASK,
 508:Generated_Source\PSoC4/CapSense_Structure.c ****         CapSense_Sns__12__HSIOM_SHIFT,
 509:Generated_Source\PSoC4/CapSense_Structure.c ****         (uint8)CapSense_Sns__12__SHIFT,
 510:Generated_Source\PSoC4/CapSense_Structure.c ****         (uint8)CapSense_Sns__12__SHIFT * 3u,
 511:Generated_Source\PSoC4/CapSense_Structure.c ****     },
 512:Generated_Source\PSoC4/CapSense_Structure.c ****     { /* 13: Button13_Sns0 */
 513:Generated_Source\PSoC4/CapSense_Structure.c ****         (reg32 *)CapSense_Sns__13__HSIOM,
 514:Generated_Source\PSoC4/CapSense_Structure.c ****         (reg32 *)CapSense_Sns__13__PC,
 515:Generated_Source\PSoC4/CapSense_Structure.c ****         (reg32 *)CapSense_Sns__13__PC2,
 516:Generated_Source\PSoC4/CapSense_Structure.c ****         (reg32 *)CapSense_Sns__13__DR,
 517:Generated_Source\PSoC4/CapSense_Structure.c ****         (reg32 *)CapSense_Sns__13__PS,
 518:Generated_Source\PSoC4/CapSense_Structure.c ****         CapSense_Sns__13__HSIOM_MASK,
 519:Generated_Source\PSoC4/CapSense_Structure.c ****         CapSense_Sns__13__MASK,
 520:Generated_Source\PSoC4/CapSense_Structure.c ****         CapSense_Sns__13__HSIOM_SHIFT,
 521:Generated_Source\PSoC4/CapSense_Structure.c ****         (uint8)CapSense_Sns__13__SHIFT,
 522:Generated_Source\PSoC4/CapSense_Structure.c ****         (uint8)CapSense_Sns__13__SHIFT * 3u,
 523:Generated_Source\PSoC4/CapSense_Structure.c ****     },
 524:Generated_Source\PSoC4/CapSense_Structure.c ****     { /* 14: Button14_Sns0 */
 525:Generated_Source\PSoC4/CapSense_Structure.c ****         (reg32 *)CapSense_Sns__14__HSIOM,
 526:Generated_Source\PSoC4/CapSense_Structure.c ****         (reg32 *)CapSense_Sns__14__PC,
 527:Generated_Source\PSoC4/CapSense_Structure.c ****         (reg32 *)CapSense_Sns__14__PC2,
 528:Generated_Source\PSoC4/CapSense_Structure.c ****         (reg32 *)CapSense_Sns__14__DR,
 529:Generated_Source\PSoC4/CapSense_Structure.c ****         (reg32 *)CapSense_Sns__14__PS,
 530:Generated_Source\PSoC4/CapSense_Structure.c ****         CapSense_Sns__14__HSIOM_MASK,
 531:Generated_Source\PSoC4/CapSense_Structure.c ****         CapSense_Sns__14__MASK,
 532:Generated_Source\PSoC4/CapSense_Structure.c ****         CapSense_Sns__14__HSIOM_SHIFT,
 533:Generated_Source\PSoC4/CapSense_Structure.c ****         (uint8)CapSense_Sns__14__SHIFT,
 534:Generated_Source\PSoC4/CapSense_Structure.c ****         (uint8)CapSense_Sns__14__SHIFT * 3u,
 535:Generated_Source\PSoC4/CapSense_Structure.c ****     },
 536:Generated_Source\PSoC4/CapSense_Structure.c ****     { /* 15: Button15_Sns0 */
 537:Generated_Source\PSoC4/CapSense_Structure.c ****         (reg32 *)CapSense_Sns__15__HSIOM,
 538:Generated_Source\PSoC4/CapSense_Structure.c ****         (reg32 *)CapSense_Sns__15__PC,
 539:Generated_Source\PSoC4/CapSense_Structure.c ****         (reg32 *)CapSense_Sns__15__PC2,
 540:Generated_Source\PSoC4/CapSense_Structure.c ****         (reg32 *)CapSense_Sns__15__DR,
 541:Generated_Source\PSoC4/CapSense_Structure.c ****         (reg32 *)CapSense_Sns__15__PS,
 542:Generated_Source\PSoC4/CapSense_Structure.c ****         CapSense_Sns__15__HSIOM_MASK,
 543:Generated_Source\PSoC4/CapSense_Structure.c ****         CapSense_Sns__15__MASK,
 544:Generated_Source\PSoC4/CapSense_Structure.c ****         CapSense_Sns__15__HSIOM_SHIFT,
ARM GAS  C:\Users\YUANFA~1\AppData\Local\Temp\ccItJH9a.s 			page 11


 545:Generated_Source\PSoC4/CapSense_Structure.c ****         (uint8)CapSense_Sns__15__SHIFT,
 546:Generated_Source\PSoC4/CapSense_Structure.c ****         (uint8)CapSense_Sns__15__SHIFT * 3u,
 547:Generated_Source\PSoC4/CapSense_Structure.c ****     },
 548:Generated_Source\PSoC4/CapSense_Structure.c ****     { /* 16: Button16_Sns0 */
 549:Generated_Source\PSoC4/CapSense_Structure.c ****         (reg32 *)CapSense_Sns__16__HSIOM,
 550:Generated_Source\PSoC4/CapSense_Structure.c ****         (reg32 *)CapSense_Sns__16__PC,
 551:Generated_Source\PSoC4/CapSense_Structure.c ****         (reg32 *)CapSense_Sns__16__PC2,
 552:Generated_Source\PSoC4/CapSense_Structure.c ****         (reg32 *)CapSense_Sns__16__DR,
 553:Generated_Source\PSoC4/CapSense_Structure.c ****         (reg32 *)CapSense_Sns__16__PS,
 554:Generated_Source\PSoC4/CapSense_Structure.c ****         CapSense_Sns__16__HSIOM_MASK,
 555:Generated_Source\PSoC4/CapSense_Structure.c ****         CapSense_Sns__16__MASK,
 556:Generated_Source\PSoC4/CapSense_Structure.c ****         CapSense_Sns__16__HSIOM_SHIFT,
 557:Generated_Source\PSoC4/CapSense_Structure.c ****         (uint8)CapSense_Sns__16__SHIFT,
 558:Generated_Source\PSoC4/CapSense_Structure.c ****         (uint8)CapSense_Sns__16__SHIFT * 3u,
 559:Generated_Source\PSoC4/CapSense_Structure.c ****     },
 560:Generated_Source\PSoC4/CapSense_Structure.c ****     { /* 17: Button17_Sns0 */
 561:Generated_Source\PSoC4/CapSense_Structure.c ****         (reg32 *)CapSense_Sns__17__HSIOM,
 562:Generated_Source\PSoC4/CapSense_Structure.c ****         (reg32 *)CapSense_Sns__17__PC,
 563:Generated_Source\PSoC4/CapSense_Structure.c ****         (reg32 *)CapSense_Sns__17__PC2,
 564:Generated_Source\PSoC4/CapSense_Structure.c ****         (reg32 *)CapSense_Sns__17__DR,
 565:Generated_Source\PSoC4/CapSense_Structure.c ****         (reg32 *)CapSense_Sns__17__PS,
 566:Generated_Source\PSoC4/CapSense_Structure.c ****         CapSense_Sns__17__HSIOM_MASK,
 567:Generated_Source\PSoC4/CapSense_Structure.c ****         CapSense_Sns__17__MASK,
 568:Generated_Source\PSoC4/CapSense_Structure.c ****         CapSense_Sns__17__HSIOM_SHIFT,
 569:Generated_Source\PSoC4/CapSense_Structure.c ****         (uint8)CapSense_Sns__17__SHIFT,
 570:Generated_Source\PSoC4/CapSense_Structure.c ****         (uint8)CapSense_Sns__17__SHIFT * 3u,
 571:Generated_Source\PSoC4/CapSense_Structure.c ****     },
 572:Generated_Source\PSoC4/CapSense_Structure.c ****     { /* 18: Button18_Sns0 */
 573:Generated_Source\PSoC4/CapSense_Structure.c ****         (reg32 *)CapSense_Sns__18__HSIOM,
 574:Generated_Source\PSoC4/CapSense_Structure.c ****         (reg32 *)CapSense_Sns__18__PC,
 575:Generated_Source\PSoC4/CapSense_Structure.c ****         (reg32 *)CapSense_Sns__18__PC2,
 576:Generated_Source\PSoC4/CapSense_Structure.c ****         (reg32 *)CapSense_Sns__18__DR,
 577:Generated_Source\PSoC4/CapSense_Structure.c ****         (reg32 *)CapSense_Sns__18__PS,
 578:Generated_Source\PSoC4/CapSense_Structure.c ****         CapSense_Sns__18__HSIOM_MASK,
 579:Generated_Source\PSoC4/CapSense_Structure.c ****         CapSense_Sns__18__MASK,
 580:Generated_Source\PSoC4/CapSense_Structure.c ****         CapSense_Sns__18__HSIOM_SHIFT,
 581:Generated_Source\PSoC4/CapSense_Structure.c ****         (uint8)CapSense_Sns__18__SHIFT,
 582:Generated_Source\PSoC4/CapSense_Structure.c ****         (uint8)CapSense_Sns__18__SHIFT * 3u,
 583:Generated_Source\PSoC4/CapSense_Structure.c ****     },
 584:Generated_Source\PSoC4/CapSense_Structure.c **** };
 585:Generated_Source\PSoC4/CapSense_Structure.c **** 
 586:Generated_Source\PSoC4/CapSense_Structure.c **** 
 587:Generated_Source\PSoC4/CapSense_Structure.c **** 
 588:Generated_Source\PSoC4/CapSense_Structure.c **** /** \}
 589:Generated_Source\PSoC4/CapSense_Structure.c **** * \endcond */
 590:Generated_Source\PSoC4/CapSense_Structure.c **** 
 591:Generated_Source\PSoC4/CapSense_Structure.c **** /* Initialization data for RAM widget list */
 592:Generated_Source\PSoC4/CapSense_Structure.c **** const CapSense_RAM_WD_LIST_STRUCT CapSense_ramWidgetInit =
 593:Generated_Source\PSoC4/CapSense_Structure.c **** {
 594:Generated_Source\PSoC4/CapSense_Structure.c ****     { /* Button0 */
 595:Generated_Source\PSoC4/CapSense_Structure.c ****         CapSense_BUTTON0_CRC,
 596:Generated_Source\PSoC4/CapSense_Structure.c ****         CapSense_BUTTON0_RESOLUTION,
 597:Generated_Source\PSoC4/CapSense_Structure.c ****         CapSense_BUTTON0_FINGER_TH,
 598:Generated_Source\PSoC4/CapSense_Structure.c ****         CapSense_BUTTON0_NOISE_TH,
 599:Generated_Source\PSoC4/CapSense_Structure.c ****         CapSense_BUTTON0_NNOISE_TH,
 600:Generated_Source\PSoC4/CapSense_Structure.c ****         CapSense_BUTTON0_HYSTERESIS,
 601:Generated_Source\PSoC4/CapSense_Structure.c ****         CapSense_BUTTON0_ON_DEBOUNCE,
ARM GAS  C:\Users\YUANFA~1\AppData\Local\Temp\ccItJH9a.s 			page 12


 602:Generated_Source\PSoC4/CapSense_Structure.c ****         CapSense_BUTTON0_LOW_BSLN_RST,
 603:Generated_Source\PSoC4/CapSense_Structure.c ****         {
 604:Generated_Source\PSoC4/CapSense_Structure.c ****             CapSense_BUTTON0_IDAC_MOD0,
 605:Generated_Source\PSoC4/CapSense_Structure.c ****         },
 606:Generated_Source\PSoC4/CapSense_Structure.c ****         CapSense_BUTTON0_IDAC_GAIN_INDEX,
 607:Generated_Source\PSoC4/CapSense_Structure.c ****         CapSense_BUTTON0_SNS_CLK,
 608:Generated_Source\PSoC4/CapSense_Structure.c ****         CapSense_BUTTON0_SNS_CLK_SOURCE,
 609:Generated_Source\PSoC4/CapSense_Structure.c ****         CapSense_BUTTON0_FINGER_CAP,
 610:Generated_Source\PSoC4/CapSense_Structure.c ****         CapSense_BUTTON0_SIGPFC,
 611:Generated_Source\PSoC4/CapSense_Structure.c ****     },
 612:Generated_Source\PSoC4/CapSense_Structure.c ****     { /* Button1 */
 613:Generated_Source\PSoC4/CapSense_Structure.c ****         CapSense_BUTTON1_CRC,
 614:Generated_Source\PSoC4/CapSense_Structure.c ****         CapSense_BUTTON1_RESOLUTION,
 615:Generated_Source\PSoC4/CapSense_Structure.c ****         CapSense_BUTTON1_FINGER_TH,
 616:Generated_Source\PSoC4/CapSense_Structure.c ****         CapSense_BUTTON1_NOISE_TH,
 617:Generated_Source\PSoC4/CapSense_Structure.c ****         CapSense_BUTTON1_NNOISE_TH,
 618:Generated_Source\PSoC4/CapSense_Structure.c ****         CapSense_BUTTON1_HYSTERESIS,
 619:Generated_Source\PSoC4/CapSense_Structure.c ****         CapSense_BUTTON1_ON_DEBOUNCE,
 620:Generated_Source\PSoC4/CapSense_Structure.c ****         CapSense_BUTTON1_LOW_BSLN_RST,
 621:Generated_Source\PSoC4/CapSense_Structure.c ****         {
 622:Generated_Source\PSoC4/CapSense_Structure.c ****             CapSense_BUTTON1_IDAC_MOD0,
 623:Generated_Source\PSoC4/CapSense_Structure.c ****         },
 624:Generated_Source\PSoC4/CapSense_Structure.c ****         CapSense_BUTTON1_IDAC_GAIN_INDEX,
 625:Generated_Source\PSoC4/CapSense_Structure.c ****         CapSense_BUTTON1_SNS_CLK,
 626:Generated_Source\PSoC4/CapSense_Structure.c ****         CapSense_BUTTON1_SNS_CLK_SOURCE,
 627:Generated_Source\PSoC4/CapSense_Structure.c ****         CapSense_BUTTON1_FINGER_CAP,
 628:Generated_Source\PSoC4/CapSense_Structure.c ****         CapSense_BUTTON1_SIGPFC,
 629:Generated_Source\PSoC4/CapSense_Structure.c ****     },
 630:Generated_Source\PSoC4/CapSense_Structure.c ****     { /* Button2 */
 631:Generated_Source\PSoC4/CapSense_Structure.c ****         CapSense_BUTTON2_CRC,
 632:Generated_Source\PSoC4/CapSense_Structure.c ****         CapSense_BUTTON2_RESOLUTION,
 633:Generated_Source\PSoC4/CapSense_Structure.c ****         CapSense_BUTTON2_FINGER_TH,
 634:Generated_Source\PSoC4/CapSense_Structure.c ****         CapSense_BUTTON2_NOISE_TH,
 635:Generated_Source\PSoC4/CapSense_Structure.c ****         CapSense_BUTTON2_NNOISE_TH,
 636:Generated_Source\PSoC4/CapSense_Structure.c ****         CapSense_BUTTON2_HYSTERESIS,
 637:Generated_Source\PSoC4/CapSense_Structure.c ****         CapSense_BUTTON2_ON_DEBOUNCE,
 638:Generated_Source\PSoC4/CapSense_Structure.c ****         CapSense_BUTTON2_LOW_BSLN_RST,
 639:Generated_Source\PSoC4/CapSense_Structure.c ****         {
 640:Generated_Source\PSoC4/CapSense_Structure.c ****             CapSense_BUTTON2_IDAC_MOD0,
 641:Generated_Source\PSoC4/CapSense_Structure.c ****         },
 642:Generated_Source\PSoC4/CapSense_Structure.c ****         CapSense_BUTTON2_IDAC_GAIN_INDEX,
 643:Generated_Source\PSoC4/CapSense_Structure.c ****         CapSense_BUTTON2_SNS_CLK,
 644:Generated_Source\PSoC4/CapSense_Structure.c ****         CapSense_BUTTON2_SNS_CLK_SOURCE,
 645:Generated_Source\PSoC4/CapSense_Structure.c ****         CapSense_BUTTON2_FINGER_CAP,
 646:Generated_Source\PSoC4/CapSense_Structure.c ****         CapSense_BUTTON2_SIGPFC,
 647:Generated_Source\PSoC4/CapSense_Structure.c ****     },
 648:Generated_Source\PSoC4/CapSense_Structure.c ****     { /* Button3 */
 649:Generated_Source\PSoC4/CapSense_Structure.c ****         CapSense_BUTTON3_CRC,
 650:Generated_Source\PSoC4/CapSense_Structure.c ****         CapSense_BUTTON3_RESOLUTION,
 651:Generated_Source\PSoC4/CapSense_Structure.c ****         CapSense_BUTTON3_FINGER_TH,
 652:Generated_Source\PSoC4/CapSense_Structure.c ****         CapSense_BUTTON3_NOISE_TH,
 653:Generated_Source\PSoC4/CapSense_Structure.c ****         CapSense_BUTTON3_NNOISE_TH,
 654:Generated_Source\PSoC4/CapSense_Structure.c ****         CapSense_BUTTON3_HYSTERESIS,
 655:Generated_Source\PSoC4/CapSense_Structure.c ****         CapSense_BUTTON3_ON_DEBOUNCE,
 656:Generated_Source\PSoC4/CapSense_Structure.c ****         CapSense_BUTTON3_LOW_BSLN_RST,
 657:Generated_Source\PSoC4/CapSense_Structure.c ****         {
 658:Generated_Source\PSoC4/CapSense_Structure.c ****             CapSense_BUTTON3_IDAC_MOD0,
ARM GAS  C:\Users\YUANFA~1\AppData\Local\Temp\ccItJH9a.s 			page 13


 659:Generated_Source\PSoC4/CapSense_Structure.c ****         },
 660:Generated_Source\PSoC4/CapSense_Structure.c ****         CapSense_BUTTON3_IDAC_GAIN_INDEX,
 661:Generated_Source\PSoC4/CapSense_Structure.c ****         CapSense_BUTTON3_SNS_CLK,
 662:Generated_Source\PSoC4/CapSense_Structure.c ****         CapSense_BUTTON3_SNS_CLK_SOURCE,
 663:Generated_Source\PSoC4/CapSense_Structure.c ****         CapSense_BUTTON3_FINGER_CAP,
 664:Generated_Source\PSoC4/CapSense_Structure.c ****         CapSense_BUTTON3_SIGPFC,
 665:Generated_Source\PSoC4/CapSense_Structure.c ****     },
 666:Generated_Source\PSoC4/CapSense_Structure.c ****     { /* Button4 */
 667:Generated_Source\PSoC4/CapSense_Structure.c ****         CapSense_BUTTON4_CRC,
 668:Generated_Source\PSoC4/CapSense_Structure.c ****         CapSense_BUTTON4_RESOLUTION,
 669:Generated_Source\PSoC4/CapSense_Structure.c ****         CapSense_BUTTON4_FINGER_TH,
 670:Generated_Source\PSoC4/CapSense_Structure.c ****         CapSense_BUTTON4_NOISE_TH,
 671:Generated_Source\PSoC4/CapSense_Structure.c ****         CapSense_BUTTON4_NNOISE_TH,
 672:Generated_Source\PSoC4/CapSense_Structure.c ****         CapSense_BUTTON4_HYSTERESIS,
 673:Generated_Source\PSoC4/CapSense_Structure.c ****         CapSense_BUTTON4_ON_DEBOUNCE,
 674:Generated_Source\PSoC4/CapSense_Structure.c ****         CapSense_BUTTON4_LOW_BSLN_RST,
 675:Generated_Source\PSoC4/CapSense_Structure.c ****         {
 676:Generated_Source\PSoC4/CapSense_Structure.c ****             CapSense_BUTTON4_IDAC_MOD0,
 677:Generated_Source\PSoC4/CapSense_Structure.c ****         },
 678:Generated_Source\PSoC4/CapSense_Structure.c ****         CapSense_BUTTON4_IDAC_GAIN_INDEX,
 679:Generated_Source\PSoC4/CapSense_Structure.c ****         CapSense_BUTTON4_SNS_CLK,
 680:Generated_Source\PSoC4/CapSense_Structure.c ****         CapSense_BUTTON4_SNS_CLK_SOURCE,
 681:Generated_Source\PSoC4/CapSense_Structure.c ****         CapSense_BUTTON4_FINGER_CAP,
 682:Generated_Source\PSoC4/CapSense_Structure.c ****         CapSense_BUTTON4_SIGPFC,
 683:Generated_Source\PSoC4/CapSense_Structure.c ****     },
 684:Generated_Source\PSoC4/CapSense_Structure.c ****     { /* Button5 */
 685:Generated_Source\PSoC4/CapSense_Structure.c ****         CapSense_BUTTON5_CRC,
 686:Generated_Source\PSoC4/CapSense_Structure.c ****         CapSense_BUTTON5_RESOLUTION,
 687:Generated_Source\PSoC4/CapSense_Structure.c ****         CapSense_BUTTON5_FINGER_TH,
 688:Generated_Source\PSoC4/CapSense_Structure.c ****         CapSense_BUTTON5_NOISE_TH,
 689:Generated_Source\PSoC4/CapSense_Structure.c ****         CapSense_BUTTON5_NNOISE_TH,
 690:Generated_Source\PSoC4/CapSense_Structure.c ****         CapSense_BUTTON5_HYSTERESIS,
 691:Generated_Source\PSoC4/CapSense_Structure.c ****         CapSense_BUTTON5_ON_DEBOUNCE,
 692:Generated_Source\PSoC4/CapSense_Structure.c ****         CapSense_BUTTON5_LOW_BSLN_RST,
 693:Generated_Source\PSoC4/CapSense_Structure.c ****         {
 694:Generated_Source\PSoC4/CapSense_Structure.c ****             CapSense_BUTTON5_IDAC_MOD0,
 695:Generated_Source\PSoC4/CapSense_Structure.c ****         },
 696:Generated_Source\PSoC4/CapSense_Structure.c ****         CapSense_BUTTON5_IDAC_GAIN_INDEX,
 697:Generated_Source\PSoC4/CapSense_Structure.c ****         CapSense_BUTTON5_SNS_CLK,
 698:Generated_Source\PSoC4/CapSense_Structure.c ****         CapSense_BUTTON5_SNS_CLK_SOURCE,
 699:Generated_Source\PSoC4/CapSense_Structure.c ****         CapSense_BUTTON5_FINGER_CAP,
 700:Generated_Source\PSoC4/CapSense_Structure.c ****         CapSense_BUTTON5_SIGPFC,
 701:Generated_Source\PSoC4/CapSense_Structure.c ****     },
 702:Generated_Source\PSoC4/CapSense_Structure.c ****     { /* Button6 */
 703:Generated_Source\PSoC4/CapSense_Structure.c ****         CapSense_BUTTON6_CRC,
 704:Generated_Source\PSoC4/CapSense_Structure.c ****         CapSense_BUTTON6_RESOLUTION,
 705:Generated_Source\PSoC4/CapSense_Structure.c ****         CapSense_BUTTON6_FINGER_TH,
 706:Generated_Source\PSoC4/CapSense_Structure.c ****         CapSense_BUTTON6_NOISE_TH,
 707:Generated_Source\PSoC4/CapSense_Structure.c ****         CapSense_BUTTON6_NNOISE_TH,
 708:Generated_Source\PSoC4/CapSense_Structure.c ****         CapSense_BUTTON6_HYSTERESIS,
 709:Generated_Source\PSoC4/CapSense_Structure.c ****         CapSense_BUTTON6_ON_DEBOUNCE,
 710:Generated_Source\PSoC4/CapSense_Structure.c ****         CapSense_BUTTON6_LOW_BSLN_RST,
 711:Generated_Source\PSoC4/CapSense_Structure.c ****         {
 712:Generated_Source\PSoC4/CapSense_Structure.c ****             CapSense_BUTTON6_IDAC_MOD0,
 713:Generated_Source\PSoC4/CapSense_Structure.c ****         },
 714:Generated_Source\PSoC4/CapSense_Structure.c ****         CapSense_BUTTON6_IDAC_GAIN_INDEX,
 715:Generated_Source\PSoC4/CapSense_Structure.c ****         CapSense_BUTTON6_SNS_CLK,
ARM GAS  C:\Users\YUANFA~1\AppData\Local\Temp\ccItJH9a.s 			page 14


 716:Generated_Source\PSoC4/CapSense_Structure.c ****         CapSense_BUTTON6_SNS_CLK_SOURCE,
 717:Generated_Source\PSoC4/CapSense_Structure.c ****         CapSense_BUTTON6_FINGER_CAP,
 718:Generated_Source\PSoC4/CapSense_Structure.c ****         CapSense_BUTTON6_SIGPFC,
 719:Generated_Source\PSoC4/CapSense_Structure.c ****     },
 720:Generated_Source\PSoC4/CapSense_Structure.c ****     { /* Button7 */
 721:Generated_Source\PSoC4/CapSense_Structure.c ****         CapSense_BUTTON7_CRC,
 722:Generated_Source\PSoC4/CapSense_Structure.c ****         CapSense_BUTTON7_RESOLUTION,
 723:Generated_Source\PSoC4/CapSense_Structure.c ****         CapSense_BUTTON7_FINGER_TH,
 724:Generated_Source\PSoC4/CapSense_Structure.c ****         CapSense_BUTTON7_NOISE_TH,
 725:Generated_Source\PSoC4/CapSense_Structure.c ****         CapSense_BUTTON7_NNOISE_TH,
 726:Generated_Source\PSoC4/CapSense_Structure.c ****         CapSense_BUTTON7_HYSTERESIS,
 727:Generated_Source\PSoC4/CapSense_Structure.c ****         CapSense_BUTTON7_ON_DEBOUNCE,
 728:Generated_Source\PSoC4/CapSense_Structure.c ****         CapSense_BUTTON7_LOW_BSLN_RST,
 729:Generated_Source\PSoC4/CapSense_Structure.c ****         {
 730:Generated_Source\PSoC4/CapSense_Structure.c ****             CapSense_BUTTON7_IDAC_MOD0,
 731:Generated_Source\PSoC4/CapSense_Structure.c ****         },
 732:Generated_Source\PSoC4/CapSense_Structure.c ****         CapSense_BUTTON7_IDAC_GAIN_INDEX,
 733:Generated_Source\PSoC4/CapSense_Structure.c ****         CapSense_BUTTON7_SNS_CLK,
 734:Generated_Source\PSoC4/CapSense_Structure.c ****         CapSense_BUTTON7_SNS_CLK_SOURCE,
 735:Generated_Source\PSoC4/CapSense_Structure.c ****         CapSense_BUTTON7_FINGER_CAP,
 736:Generated_Source\PSoC4/CapSense_Structure.c ****         CapSense_BUTTON7_SIGPFC,
 737:Generated_Source\PSoC4/CapSense_Structure.c ****     },
 738:Generated_Source\PSoC4/CapSense_Structure.c ****     { /* Button8 */
 739:Generated_Source\PSoC4/CapSense_Structure.c ****         CapSense_BUTTON8_CRC,
 740:Generated_Source\PSoC4/CapSense_Structure.c ****         CapSense_BUTTON8_RESOLUTION,
 741:Generated_Source\PSoC4/CapSense_Structure.c ****         CapSense_BUTTON8_FINGER_TH,
 742:Generated_Source\PSoC4/CapSense_Structure.c ****         CapSense_BUTTON8_NOISE_TH,
 743:Generated_Source\PSoC4/CapSense_Structure.c ****         CapSense_BUTTON8_NNOISE_TH,
 744:Generated_Source\PSoC4/CapSense_Structure.c ****         CapSense_BUTTON8_HYSTERESIS,
 745:Generated_Source\PSoC4/CapSense_Structure.c ****         CapSense_BUTTON8_ON_DEBOUNCE,
 746:Generated_Source\PSoC4/CapSense_Structure.c ****         CapSense_BUTTON8_LOW_BSLN_RST,
 747:Generated_Source\PSoC4/CapSense_Structure.c ****         {
 748:Generated_Source\PSoC4/CapSense_Structure.c ****             CapSense_BUTTON8_IDAC_MOD0,
 749:Generated_Source\PSoC4/CapSense_Structure.c ****         },
 750:Generated_Source\PSoC4/CapSense_Structure.c ****         CapSense_BUTTON8_IDAC_GAIN_INDEX,
 751:Generated_Source\PSoC4/CapSense_Structure.c ****         CapSense_BUTTON8_SNS_CLK,
 752:Generated_Source\PSoC4/CapSense_Structure.c ****         CapSense_BUTTON8_SNS_CLK_SOURCE,
 753:Generated_Source\PSoC4/CapSense_Structure.c ****         CapSense_BUTTON8_FINGER_CAP,
 754:Generated_Source\PSoC4/CapSense_Structure.c ****         CapSense_BUTTON8_SIGPFC,
 755:Generated_Source\PSoC4/CapSense_Structure.c ****     },
 756:Generated_Source\PSoC4/CapSense_Structure.c ****     { /* Button9 */
 757:Generated_Source\PSoC4/CapSense_Structure.c ****         CapSense_BUTTON9_CRC,
 758:Generated_Source\PSoC4/CapSense_Structure.c ****         CapSense_BUTTON9_RESOLUTION,
 759:Generated_Source\PSoC4/CapSense_Structure.c ****         CapSense_BUTTON9_FINGER_TH,
 760:Generated_Source\PSoC4/CapSense_Structure.c ****         CapSense_BUTTON9_NOISE_TH,
 761:Generated_Source\PSoC4/CapSense_Structure.c ****         CapSense_BUTTON9_NNOISE_TH,
 762:Generated_Source\PSoC4/CapSense_Structure.c ****         CapSense_BUTTON9_HYSTERESIS,
 763:Generated_Source\PSoC4/CapSense_Structure.c ****         CapSense_BUTTON9_ON_DEBOUNCE,
 764:Generated_Source\PSoC4/CapSense_Structure.c ****         CapSense_BUTTON9_LOW_BSLN_RST,
 765:Generated_Source\PSoC4/CapSense_Structure.c ****         {
 766:Generated_Source\PSoC4/CapSense_Structure.c ****             CapSense_BUTTON9_IDAC_MOD0,
 767:Generated_Source\PSoC4/CapSense_Structure.c ****         },
 768:Generated_Source\PSoC4/CapSense_Structure.c ****         CapSense_BUTTON9_IDAC_GAIN_INDEX,
 769:Generated_Source\PSoC4/CapSense_Structure.c ****         CapSense_BUTTON9_SNS_CLK,
 770:Generated_Source\PSoC4/CapSense_Structure.c ****         CapSense_BUTTON9_SNS_CLK_SOURCE,
 771:Generated_Source\PSoC4/CapSense_Structure.c ****         CapSense_BUTTON9_FINGER_CAP,
 772:Generated_Source\PSoC4/CapSense_Structure.c ****         CapSense_BUTTON9_SIGPFC,
ARM GAS  C:\Users\YUANFA~1\AppData\Local\Temp\ccItJH9a.s 			page 15


 773:Generated_Source\PSoC4/CapSense_Structure.c ****     },
 774:Generated_Source\PSoC4/CapSense_Structure.c ****     { /* Button10 */
 775:Generated_Source\PSoC4/CapSense_Structure.c ****         CapSense_BUTTON10_CRC,
 776:Generated_Source\PSoC4/CapSense_Structure.c ****         CapSense_BUTTON10_RESOLUTION,
 777:Generated_Source\PSoC4/CapSense_Structure.c ****         CapSense_BUTTON10_FINGER_TH,
 778:Generated_Source\PSoC4/CapSense_Structure.c ****         CapSense_BUTTON10_NOISE_TH,
 779:Generated_Source\PSoC4/CapSense_Structure.c ****         CapSense_BUTTON10_NNOISE_TH,
 780:Generated_Source\PSoC4/CapSense_Structure.c ****         CapSense_BUTTON10_HYSTERESIS,
 781:Generated_Source\PSoC4/CapSense_Structure.c ****         CapSense_BUTTON10_ON_DEBOUNCE,
 782:Generated_Source\PSoC4/CapSense_Structure.c ****         CapSense_BUTTON10_LOW_BSLN_RST,
 783:Generated_Source\PSoC4/CapSense_Structure.c ****         {
 784:Generated_Source\PSoC4/CapSense_Structure.c ****             CapSense_BUTTON10_IDAC_MOD0,
 785:Generated_Source\PSoC4/CapSense_Structure.c ****         },
 786:Generated_Source\PSoC4/CapSense_Structure.c ****         CapSense_BUTTON10_IDAC_GAIN_INDEX,
 787:Generated_Source\PSoC4/CapSense_Structure.c ****         CapSense_BUTTON10_SNS_CLK,
 788:Generated_Source\PSoC4/CapSense_Structure.c ****         CapSense_BUTTON10_SNS_CLK_SOURCE,
 789:Generated_Source\PSoC4/CapSense_Structure.c ****         CapSense_BUTTON10_FINGER_CAP,
 790:Generated_Source\PSoC4/CapSense_Structure.c ****         CapSense_BUTTON10_SIGPFC,
 791:Generated_Source\PSoC4/CapSense_Structure.c ****     },
 792:Generated_Source\PSoC4/CapSense_Structure.c ****     { /* Button11 */
 793:Generated_Source\PSoC4/CapSense_Structure.c ****         CapSense_BUTTON11_CRC,
 794:Generated_Source\PSoC4/CapSense_Structure.c ****         CapSense_BUTTON11_RESOLUTION,
 795:Generated_Source\PSoC4/CapSense_Structure.c ****         CapSense_BUTTON11_FINGER_TH,
 796:Generated_Source\PSoC4/CapSense_Structure.c ****         CapSense_BUTTON11_NOISE_TH,
 797:Generated_Source\PSoC4/CapSense_Structure.c ****         CapSense_BUTTON11_NNOISE_TH,
 798:Generated_Source\PSoC4/CapSense_Structure.c ****         CapSense_BUTTON11_HYSTERESIS,
 799:Generated_Source\PSoC4/CapSense_Structure.c ****         CapSense_BUTTON11_ON_DEBOUNCE,
 800:Generated_Source\PSoC4/CapSense_Structure.c ****         CapSense_BUTTON11_LOW_BSLN_RST,
 801:Generated_Source\PSoC4/CapSense_Structure.c ****         {
 802:Generated_Source\PSoC4/CapSense_Structure.c ****             CapSense_BUTTON11_IDAC_MOD0,
 803:Generated_Source\PSoC4/CapSense_Structure.c ****         },
 804:Generated_Source\PSoC4/CapSense_Structure.c ****         CapSense_BUTTON11_IDAC_GAIN_INDEX,
 805:Generated_Source\PSoC4/CapSense_Structure.c ****         CapSense_BUTTON11_SNS_CLK,
 806:Generated_Source\PSoC4/CapSense_Structure.c ****         CapSense_BUTTON11_SNS_CLK_SOURCE,
 807:Generated_Source\PSoC4/CapSense_Structure.c ****         CapSense_BUTTON11_FINGER_CAP,
 808:Generated_Source\PSoC4/CapSense_Structure.c ****         CapSense_BUTTON11_SIGPFC,
 809:Generated_Source\PSoC4/CapSense_Structure.c ****     },
 810:Generated_Source\PSoC4/CapSense_Structure.c ****     { /* Button12 */
 811:Generated_Source\PSoC4/CapSense_Structure.c ****         CapSense_BUTTON12_CRC,
 812:Generated_Source\PSoC4/CapSense_Structure.c ****         CapSense_BUTTON12_RESOLUTION,
 813:Generated_Source\PSoC4/CapSense_Structure.c ****         CapSense_BUTTON12_FINGER_TH,
 814:Generated_Source\PSoC4/CapSense_Structure.c ****         CapSense_BUTTON12_NOISE_TH,
 815:Generated_Source\PSoC4/CapSense_Structure.c ****         CapSense_BUTTON12_NNOISE_TH,
 816:Generated_Source\PSoC4/CapSense_Structure.c ****         CapSense_BUTTON12_HYSTERESIS,
 817:Generated_Source\PSoC4/CapSense_Structure.c ****         CapSense_BUTTON12_ON_DEBOUNCE,
 818:Generated_Source\PSoC4/CapSense_Structure.c ****         CapSense_BUTTON12_LOW_BSLN_RST,
 819:Generated_Source\PSoC4/CapSense_Structure.c ****         {
 820:Generated_Source\PSoC4/CapSense_Structure.c ****             CapSense_BUTTON12_IDAC_MOD0,
 821:Generated_Source\PSoC4/CapSense_Structure.c ****         },
 822:Generated_Source\PSoC4/CapSense_Structure.c ****         CapSense_BUTTON12_IDAC_GAIN_INDEX,
 823:Generated_Source\PSoC4/CapSense_Structure.c ****         CapSense_BUTTON12_SNS_CLK,
 824:Generated_Source\PSoC4/CapSense_Structure.c ****         CapSense_BUTTON12_SNS_CLK_SOURCE,
 825:Generated_Source\PSoC4/CapSense_Structure.c ****         CapSense_BUTTON12_FINGER_CAP,
 826:Generated_Source\PSoC4/CapSense_Structure.c ****         CapSense_BUTTON12_SIGPFC,
 827:Generated_Source\PSoC4/CapSense_Structure.c ****     },
 828:Generated_Source\PSoC4/CapSense_Structure.c ****     { /* Button13 */
 829:Generated_Source\PSoC4/CapSense_Structure.c ****         CapSense_BUTTON13_CRC,
ARM GAS  C:\Users\YUANFA~1\AppData\Local\Temp\ccItJH9a.s 			page 16


 830:Generated_Source\PSoC4/CapSense_Structure.c ****         CapSense_BUTTON13_RESOLUTION,
 831:Generated_Source\PSoC4/CapSense_Structure.c ****         CapSense_BUTTON13_FINGER_TH,
 832:Generated_Source\PSoC4/CapSense_Structure.c ****         CapSense_BUTTON13_NOISE_TH,
 833:Generated_Source\PSoC4/CapSense_Structure.c ****         CapSense_BUTTON13_NNOISE_TH,
 834:Generated_Source\PSoC4/CapSense_Structure.c ****         CapSense_BUTTON13_HYSTERESIS,
 835:Generated_Source\PSoC4/CapSense_Structure.c ****         CapSense_BUTTON13_ON_DEBOUNCE,
 836:Generated_Source\PSoC4/CapSense_Structure.c ****         CapSense_BUTTON13_LOW_BSLN_RST,
 837:Generated_Source\PSoC4/CapSense_Structure.c ****         {
 838:Generated_Source\PSoC4/CapSense_Structure.c ****             CapSense_BUTTON13_IDAC_MOD0,
 839:Generated_Source\PSoC4/CapSense_Structure.c ****         },
 840:Generated_Source\PSoC4/CapSense_Structure.c ****         CapSense_BUTTON13_IDAC_GAIN_INDEX,
 841:Generated_Source\PSoC4/CapSense_Structure.c ****         CapSense_BUTTON13_SNS_CLK,
 842:Generated_Source\PSoC4/CapSense_Structure.c ****         CapSense_BUTTON13_SNS_CLK_SOURCE,
 843:Generated_Source\PSoC4/CapSense_Structure.c ****         CapSense_BUTTON13_FINGER_CAP,
 844:Generated_Source\PSoC4/CapSense_Structure.c ****         CapSense_BUTTON13_SIGPFC,
 845:Generated_Source\PSoC4/CapSense_Structure.c ****     },
 846:Generated_Source\PSoC4/CapSense_Structure.c ****     { /* Button14 */
 847:Generated_Source\PSoC4/CapSense_Structure.c ****         CapSense_BUTTON14_CRC,
 848:Generated_Source\PSoC4/CapSense_Structure.c ****         CapSense_BUTTON14_RESOLUTION,
 849:Generated_Source\PSoC4/CapSense_Structure.c ****         CapSense_BUTTON14_FINGER_TH,
 850:Generated_Source\PSoC4/CapSense_Structure.c ****         CapSense_BUTTON14_NOISE_TH,
 851:Generated_Source\PSoC4/CapSense_Structure.c ****         CapSense_BUTTON14_NNOISE_TH,
 852:Generated_Source\PSoC4/CapSense_Structure.c ****         CapSense_BUTTON14_HYSTERESIS,
 853:Generated_Source\PSoC4/CapSense_Structure.c ****         CapSense_BUTTON14_ON_DEBOUNCE,
 854:Generated_Source\PSoC4/CapSense_Structure.c ****         CapSense_BUTTON14_LOW_BSLN_RST,
 855:Generated_Source\PSoC4/CapSense_Structure.c ****         {
 856:Generated_Source\PSoC4/CapSense_Structure.c ****             CapSense_BUTTON14_IDAC_MOD0,
 857:Generated_Source\PSoC4/CapSense_Structure.c ****         },
 858:Generated_Source\PSoC4/CapSense_Structure.c ****         CapSense_BUTTON14_IDAC_GAIN_INDEX,
 859:Generated_Source\PSoC4/CapSense_Structure.c ****         CapSense_BUTTON14_SNS_CLK,
 860:Generated_Source\PSoC4/CapSense_Structure.c ****         CapSense_BUTTON14_SNS_CLK_SOURCE,
 861:Generated_Source\PSoC4/CapSense_Structure.c ****         CapSense_BUTTON14_FINGER_CAP,
 862:Generated_Source\PSoC4/CapSense_Structure.c ****         CapSense_BUTTON14_SIGPFC,
 863:Generated_Source\PSoC4/CapSense_Structure.c ****     },
 864:Generated_Source\PSoC4/CapSense_Structure.c ****     { /* Button15 */
 865:Generated_Source\PSoC4/CapSense_Structure.c ****         CapSense_BUTTON15_CRC,
 866:Generated_Source\PSoC4/CapSense_Structure.c ****         CapSense_BUTTON15_RESOLUTION,
 867:Generated_Source\PSoC4/CapSense_Structure.c ****         CapSense_BUTTON15_FINGER_TH,
 868:Generated_Source\PSoC4/CapSense_Structure.c ****         CapSense_BUTTON15_NOISE_TH,
 869:Generated_Source\PSoC4/CapSense_Structure.c ****         CapSense_BUTTON15_NNOISE_TH,
 870:Generated_Source\PSoC4/CapSense_Structure.c ****         CapSense_BUTTON15_HYSTERESIS,
 871:Generated_Source\PSoC4/CapSense_Structure.c ****         CapSense_BUTTON15_ON_DEBOUNCE,
 872:Generated_Source\PSoC4/CapSense_Structure.c ****         CapSense_BUTTON15_LOW_BSLN_RST,
 873:Generated_Source\PSoC4/CapSense_Structure.c ****         {
 874:Generated_Source\PSoC4/CapSense_Structure.c ****             CapSense_BUTTON15_IDAC_MOD0,
 875:Generated_Source\PSoC4/CapSense_Structure.c ****         },
 876:Generated_Source\PSoC4/CapSense_Structure.c ****         CapSense_BUTTON15_IDAC_GAIN_INDEX,
 877:Generated_Source\PSoC4/CapSense_Structure.c ****         CapSense_BUTTON15_SNS_CLK,
 878:Generated_Source\PSoC4/CapSense_Structure.c ****         CapSense_BUTTON15_SNS_CLK_SOURCE,
 879:Generated_Source\PSoC4/CapSense_Structure.c ****         CapSense_BUTTON15_FINGER_CAP,
 880:Generated_Source\PSoC4/CapSense_Structure.c ****         CapSense_BUTTON15_SIGPFC,
 881:Generated_Source\PSoC4/CapSense_Structure.c ****     },
 882:Generated_Source\PSoC4/CapSense_Structure.c ****     { /* Button16 */
 883:Generated_Source\PSoC4/CapSense_Structure.c ****         CapSense_BUTTON16_CRC,
 884:Generated_Source\PSoC4/CapSense_Structure.c ****         CapSense_BUTTON16_RESOLUTION,
 885:Generated_Source\PSoC4/CapSense_Structure.c ****         CapSense_BUTTON16_FINGER_TH,
 886:Generated_Source\PSoC4/CapSense_Structure.c ****         CapSense_BUTTON16_NOISE_TH,
ARM GAS  C:\Users\YUANFA~1\AppData\Local\Temp\ccItJH9a.s 			page 17


 887:Generated_Source\PSoC4/CapSense_Structure.c ****         CapSense_BUTTON16_NNOISE_TH,
 888:Generated_Source\PSoC4/CapSense_Structure.c ****         CapSense_BUTTON16_HYSTERESIS,
 889:Generated_Source\PSoC4/CapSense_Structure.c ****         CapSense_BUTTON16_ON_DEBOUNCE,
 890:Generated_Source\PSoC4/CapSense_Structure.c ****         CapSense_BUTTON16_LOW_BSLN_RST,
 891:Generated_Source\PSoC4/CapSense_Structure.c ****         {
 892:Generated_Source\PSoC4/CapSense_Structure.c ****             CapSense_BUTTON16_IDAC_MOD0,
 893:Generated_Source\PSoC4/CapSense_Structure.c ****         },
 894:Generated_Source\PSoC4/CapSense_Structure.c ****         CapSense_BUTTON16_IDAC_GAIN_INDEX,
 895:Generated_Source\PSoC4/CapSense_Structure.c ****         CapSense_BUTTON16_SNS_CLK,
 896:Generated_Source\PSoC4/CapSense_Structure.c ****         CapSense_BUTTON16_SNS_CLK_SOURCE,
 897:Generated_Source\PSoC4/CapSense_Structure.c ****         CapSense_BUTTON16_FINGER_CAP,
 898:Generated_Source\PSoC4/CapSense_Structure.c ****         CapSense_BUTTON16_SIGPFC,
 899:Generated_Source\PSoC4/CapSense_Structure.c ****     },
 900:Generated_Source\PSoC4/CapSense_Structure.c ****     { /* Button17 */
 901:Generated_Source\PSoC4/CapSense_Structure.c ****         CapSense_BUTTON17_CRC,
 902:Generated_Source\PSoC4/CapSense_Structure.c ****         CapSense_BUTTON17_RESOLUTION,
 903:Generated_Source\PSoC4/CapSense_Structure.c ****         CapSense_BUTTON17_FINGER_TH,
 904:Generated_Source\PSoC4/CapSense_Structure.c ****         CapSense_BUTTON17_NOISE_TH,
 905:Generated_Source\PSoC4/CapSense_Structure.c ****         CapSense_BUTTON17_NNOISE_TH,
 906:Generated_Source\PSoC4/CapSense_Structure.c ****         CapSense_BUTTON17_HYSTERESIS,
 907:Generated_Source\PSoC4/CapSense_Structure.c ****         CapSense_BUTTON17_ON_DEBOUNCE,
 908:Generated_Source\PSoC4/CapSense_Structure.c ****         CapSense_BUTTON17_LOW_BSLN_RST,
 909:Generated_Source\PSoC4/CapSense_Structure.c ****         {
 910:Generated_Source\PSoC4/CapSense_Structure.c ****             CapSense_BUTTON17_IDAC_MOD0,
 911:Generated_Source\PSoC4/CapSense_Structure.c ****         },
 912:Generated_Source\PSoC4/CapSense_Structure.c ****         CapSense_BUTTON17_IDAC_GAIN_INDEX,
 913:Generated_Source\PSoC4/CapSense_Structure.c ****         CapSense_BUTTON17_SNS_CLK,
 914:Generated_Source\PSoC4/CapSense_Structure.c ****         CapSense_BUTTON17_SNS_CLK_SOURCE,
 915:Generated_Source\PSoC4/CapSense_Structure.c ****         CapSense_BUTTON17_FINGER_CAP,
 916:Generated_Source\PSoC4/CapSense_Structure.c ****         CapSense_BUTTON17_SIGPFC,
 917:Generated_Source\PSoC4/CapSense_Structure.c ****     },
 918:Generated_Source\PSoC4/CapSense_Structure.c ****     { /* Button18 */
 919:Generated_Source\PSoC4/CapSense_Structure.c ****         CapSense_BUTTON18_CRC,
 920:Generated_Source\PSoC4/CapSense_Structure.c ****         CapSense_BUTTON18_RESOLUTION,
 921:Generated_Source\PSoC4/CapSense_Structure.c ****         CapSense_BUTTON18_FINGER_TH,
 922:Generated_Source\PSoC4/CapSense_Structure.c ****         CapSense_BUTTON18_NOISE_TH,
 923:Generated_Source\PSoC4/CapSense_Structure.c ****         CapSense_BUTTON18_NNOISE_TH,
 924:Generated_Source\PSoC4/CapSense_Structure.c ****         CapSense_BUTTON18_HYSTERESIS,
 925:Generated_Source\PSoC4/CapSense_Structure.c ****         CapSense_BUTTON18_ON_DEBOUNCE,
 926:Generated_Source\PSoC4/CapSense_Structure.c ****         CapSense_BUTTON18_LOW_BSLN_RST,
 927:Generated_Source\PSoC4/CapSense_Structure.c ****         {
 928:Generated_Source\PSoC4/CapSense_Structure.c ****             CapSense_BUTTON18_IDAC_MOD0,
 929:Generated_Source\PSoC4/CapSense_Structure.c ****         },
 930:Generated_Source\PSoC4/CapSense_Structure.c ****         CapSense_BUTTON18_IDAC_GAIN_INDEX,
 931:Generated_Source\PSoC4/CapSense_Structure.c ****         CapSense_BUTTON18_SNS_CLK,
 932:Generated_Source\PSoC4/CapSense_Structure.c ****         CapSense_BUTTON18_SNS_CLK_SOURCE,
 933:Generated_Source\PSoC4/CapSense_Structure.c ****         CapSense_BUTTON18_FINGER_CAP,
 934:Generated_Source\PSoC4/CapSense_Structure.c ****         CapSense_BUTTON18_SIGPFC,
 935:Generated_Source\PSoC4/CapSense_Structure.c ****     },
 936:Generated_Source\PSoC4/CapSense_Structure.c **** };
 937:Generated_Source\PSoC4/CapSense_Structure.c **** 
 938:Generated_Source\PSoC4/CapSense_Structure.c **** 
 939:Generated_Source\PSoC4/CapSense_Structure.c **** /* IDAC Initialization Data */
 940:Generated_Source\PSoC4/CapSense_Structure.c **** const uint8 CapSense_ramIdacInit[CapSense_TOTAL_SENSORS] =
 941:Generated_Source\PSoC4/CapSense_Structure.c **** {
 942:Generated_Source\PSoC4/CapSense_Structure.c ****     /* Button0 */
 943:Generated_Source\PSoC4/CapSense_Structure.c ****     CapSense_BUTTON0_SNS0_IDAC_COMP0,
ARM GAS  C:\Users\YUANFA~1\AppData\Local\Temp\ccItJH9a.s 			page 18


 944:Generated_Source\PSoC4/CapSense_Structure.c **** 
 945:Generated_Source\PSoC4/CapSense_Structure.c ****     /* Button1 */
 946:Generated_Source\PSoC4/CapSense_Structure.c ****     CapSense_BUTTON1_SNS0_IDAC_COMP0,
 947:Generated_Source\PSoC4/CapSense_Structure.c **** 
 948:Generated_Source\PSoC4/CapSense_Structure.c ****     /* Button2 */
 949:Generated_Source\PSoC4/CapSense_Structure.c ****     CapSense_BUTTON2_SNS0_IDAC_COMP0,
 950:Generated_Source\PSoC4/CapSense_Structure.c **** 
 951:Generated_Source\PSoC4/CapSense_Structure.c ****     /* Button3 */
 952:Generated_Source\PSoC4/CapSense_Structure.c ****     CapSense_BUTTON3_SNS0_IDAC_COMP0,
 953:Generated_Source\PSoC4/CapSense_Structure.c **** 
 954:Generated_Source\PSoC4/CapSense_Structure.c ****     /* Button4 */
 955:Generated_Source\PSoC4/CapSense_Structure.c ****     CapSense_BUTTON4_SNS0_IDAC_COMP0,
 956:Generated_Source\PSoC4/CapSense_Structure.c **** 
 957:Generated_Source\PSoC4/CapSense_Structure.c ****     /* Button5 */
 958:Generated_Source\PSoC4/CapSense_Structure.c ****     CapSense_BUTTON5_SNS0_IDAC_COMP0,
 959:Generated_Source\PSoC4/CapSense_Structure.c **** 
 960:Generated_Source\PSoC4/CapSense_Structure.c ****     /* Button6 */
 961:Generated_Source\PSoC4/CapSense_Structure.c ****     CapSense_BUTTON6_SNS0_IDAC_COMP0,
 962:Generated_Source\PSoC4/CapSense_Structure.c **** 
 963:Generated_Source\PSoC4/CapSense_Structure.c ****     /* Button7 */
 964:Generated_Source\PSoC4/CapSense_Structure.c ****     CapSense_BUTTON7_SNS0_IDAC_COMP0,
 965:Generated_Source\PSoC4/CapSense_Structure.c **** 
 966:Generated_Source\PSoC4/CapSense_Structure.c ****     /* Button8 */
 967:Generated_Source\PSoC4/CapSense_Structure.c ****     CapSense_BUTTON8_SNS0_IDAC_COMP0,
 968:Generated_Source\PSoC4/CapSense_Structure.c **** 
 969:Generated_Source\PSoC4/CapSense_Structure.c ****     /* Button9 */
 970:Generated_Source\PSoC4/CapSense_Structure.c ****     CapSense_BUTTON9_SNS0_IDAC_COMP0,
 971:Generated_Source\PSoC4/CapSense_Structure.c **** 
 972:Generated_Source\PSoC4/CapSense_Structure.c ****     /* Button10 */
 973:Generated_Source\PSoC4/CapSense_Structure.c ****     CapSense_BUTTON10_SNS0_IDAC_COMP0,
 974:Generated_Source\PSoC4/CapSense_Structure.c **** 
 975:Generated_Source\PSoC4/CapSense_Structure.c ****     /* Button11 */
 976:Generated_Source\PSoC4/CapSense_Structure.c ****     CapSense_BUTTON11_SNS0_IDAC_COMP0,
 977:Generated_Source\PSoC4/CapSense_Structure.c **** 
 978:Generated_Source\PSoC4/CapSense_Structure.c ****     /* Button12 */
 979:Generated_Source\PSoC4/CapSense_Structure.c ****     CapSense_BUTTON12_SNS0_IDAC_COMP0,
 980:Generated_Source\PSoC4/CapSense_Structure.c **** 
 981:Generated_Source\PSoC4/CapSense_Structure.c ****     /* Button13 */
 982:Generated_Source\PSoC4/CapSense_Structure.c ****     CapSense_BUTTON13_SNS0_IDAC_COMP0,
 983:Generated_Source\PSoC4/CapSense_Structure.c **** 
 984:Generated_Source\PSoC4/CapSense_Structure.c ****     /* Button14 */
 985:Generated_Source\PSoC4/CapSense_Structure.c ****     CapSense_BUTTON14_SNS0_IDAC_COMP0,
 986:Generated_Source\PSoC4/CapSense_Structure.c **** 
 987:Generated_Source\PSoC4/CapSense_Structure.c ****     /* Button15 */
 988:Generated_Source\PSoC4/CapSense_Structure.c ****     CapSense_BUTTON15_SNS0_IDAC_COMP0,
 989:Generated_Source\PSoC4/CapSense_Structure.c **** 
 990:Generated_Source\PSoC4/CapSense_Structure.c ****     /* Button16 */
 991:Generated_Source\PSoC4/CapSense_Structure.c ****     CapSense_BUTTON16_SNS0_IDAC_COMP0,
 992:Generated_Source\PSoC4/CapSense_Structure.c **** 
 993:Generated_Source\PSoC4/CapSense_Structure.c ****     /* Button17 */
 994:Generated_Source\PSoC4/CapSense_Structure.c ****     CapSense_BUTTON17_SNS0_IDAC_COMP0,
 995:Generated_Source\PSoC4/CapSense_Structure.c **** 
 996:Generated_Source\PSoC4/CapSense_Structure.c ****     /* Button18 */
 997:Generated_Source\PSoC4/CapSense_Structure.c ****     CapSense_BUTTON18_SNS0_IDAC_COMP0,
 998:Generated_Source\PSoC4/CapSense_Structure.c **** };
 999:Generated_Source\PSoC4/CapSense_Structure.c **** 
1000:Generated_Source\PSoC4/CapSense_Structure.c **** 
ARM GAS  C:\Users\YUANFA~1\AppData\Local\Temp\ccItJH9a.s 			page 19


1001:Generated_Source\PSoC4/CapSense_Structure.c **** 
1002:Generated_Source\PSoC4/CapSense_Structure.c **** 
1003:Generated_Source\PSoC4/CapSense_Structure.c **** 
1004:Generated_Source\PSoC4/CapSense_Structure.c **** /*******************************************************************************
1005:Generated_Source\PSoC4/CapSense_Structure.c **** * Defines internal data types and statements
1006:Generated_Source\PSoC4/CapSense_Structure.c **** *******************************************************************************/
1007:Generated_Source\PSoC4/CapSense_Structure.c **** #define PARAM_TYPE_OFFSET       (30u)
1008:Generated_Source\PSoC4/CapSense_Structure.c **** #define PARAM_TYPE_MASK         (3Lu << PARAM_TYPE_OFFSET)
1009:Generated_Source\PSoC4/CapSense_Structure.c **** #define PARAM_RWBIT_OFFSET      (29u)
1010:Generated_Source\PSoC4/CapSense_Structure.c **** #define PARAM_RWBIT_MASK        (1Lu << PARAM_RWBIT_OFFSET)
1011:Generated_Source\PSoC4/CapSense_Structure.c **** #define PARAM_FBIT_OFFSET       (28u)
1012:Generated_Source\PSoC4/CapSense_Structure.c **** #define PARAM_FBIT_MASK         (1Lu << PARAM_FBIT_OFFSET)
1013:Generated_Source\PSoC4/CapSense_Structure.c **** #define PARAM_UBIT_OFFSET       (23u)
1014:Generated_Source\PSoC4/CapSense_Structure.c **** #define PARAM_UBIT_MASK         (1Lu << PARAM_UBIT_OFFSET)
1015:Generated_Source\PSoC4/CapSense_Structure.c **** #define PARAM_WDID_OFFSET       (16u)
1016:Generated_Source\PSoC4/CapSense_Structure.c **** #define PARAM_WDID_MASK         (0x7FLu << PARAM_WDID_OFFSET)
1017:Generated_Source\PSoC4/CapSense_Structure.c **** #define PARAM_CRC_OFFSET        (24u)
1018:Generated_Source\PSoC4/CapSense_Structure.c **** #define PARAM_CRC_MASK          (0x0FLu << PARAM_CRC_OFFSET)
1019:Generated_Source\PSoC4/CapSense_Structure.c **** 
1020:Generated_Source\PSoC4/CapSense_Structure.c **** /* Defines align masks for uint16 and uint32 */
1021:Generated_Source\PSoC4/CapSense_Structure.c **** #define UINT16_ALIGN_MASK       (1Lu)
1022:Generated_Source\PSoC4/CapSense_Structure.c **** #define UINT32_ALIGN_MASK       (3Lu)
1023:Generated_Source\PSoC4/CapSense_Structure.c **** 
1024:Generated_Source\PSoC4/CapSense_Structure.c **** /* Defines supported parameter types */
1025:Generated_Source\PSoC4/CapSense_Structure.c **** #define DS_PARAM_TYPE_UINT8     (0x01u)
1026:Generated_Source\PSoC4/CapSense_Structure.c **** #define DS_PARAM_TYPE_UINT16    (0x02u)
1027:Generated_Source\PSoC4/CapSense_Structure.c **** #define DS_PARAM_TYPE_UINT32    (0x03u)
1028:Generated_Source\PSoC4/CapSense_Structure.c **** 
1029:Generated_Source\PSoC4/CapSense_Structure.c **** 
1030:Generated_Source\PSoC4/CapSense_Structure.c **** /* Defines PARAM_ID structure */
1031:Generated_Source\PSoC4/CapSense_Structure.c **** typedef struct
1032:Generated_Source\PSoC4/CapSense_Structure.c **** {
1033:Generated_Source\PSoC4/CapSense_Structure.c ****     uint16 offset;      /* parameter offset */
1034:Generated_Source\PSoC4/CapSense_Structure.c ****     uint8  widgetId;    /* widget Id parameter belongs to */
1035:Generated_Source\PSoC4/CapSense_Structure.c ****     uint8  affectsCrc;  /* parameter affects widget CRC */
1036:Generated_Source\PSoC4/CapSense_Structure.c ****     uint8  crc;         /* parameter CRC */
1037:Generated_Source\PSoC4/CapSense_Structure.c ****     uint8  flash;       /* parameter located in FLASH flag */
1038:Generated_Source\PSoC4/CapSense_Structure.c ****     uint8  rw;          /* parameter is read/write flag */
1039:Generated_Source\PSoC4/CapSense_Structure.c ****     uint8  type;        /* parameter type: uint8/uint16/uint32 */
1040:Generated_Source\PSoC4/CapSense_Structure.c **** } PARAM_ID_STRUCT;
1041:Generated_Source\PSoC4/CapSense_Structure.c **** 
1042:Generated_Source\PSoC4/CapSense_Structure.c **** 
1043:Generated_Source\PSoC4/CapSense_Structure.c **** /*******************************************************************************
1044:Generated_Source\PSoC4/CapSense_Structure.c **** * Static Function Prototypes
1045:Generated_Source\PSoC4/CapSense_Structure.c **** *******************************************************************************/
1046:Generated_Source\PSoC4/CapSense_Structure.c **** /**
1047:Generated_Source\PSoC4/CapSense_Structure.c **** * \cond SECTION_C_INTERNAL
1048:Generated_Source\PSoC4/CapSense_Structure.c **** * \addtogroup group_c_internal
1049:Generated_Source\PSoC4/CapSense_Structure.c **** * \{
1050:Generated_Source\PSoC4/CapSense_Structure.c **** */
1051:Generated_Source\PSoC4/CapSense_Structure.c **** 
1052:Generated_Source\PSoC4/CapSense_Structure.c **** 
1053:Generated_Source\PSoC4/CapSense_Structure.c **** /* Ext Cap Mapping Data */
1054:Generated_Source\PSoC4/CapSense_Structure.c **** const uint8 CapSense_extCapMap[CapSense_TST_EXT_CAPS_NUM] =
1055:Generated_Source\PSoC4/CapSense_Structure.c **** {
1056:Generated_Source\PSoC4/CapSense_Structure.c ****     CapSense_TST_CMOD_MAP,
1057:Generated_Source\PSoC4/CapSense_Structure.c **** };
ARM GAS  C:\Users\YUANFA~1\AppData\Local\Temp\ccItJH9a.s 			page 20


1058:Generated_Source\PSoC4/CapSense_Structure.c **** 
1059:Generated_Source\PSoC4/CapSense_Structure.c **** 
1060:Generated_Source\PSoC4/CapSense_Structure.c **** static cystatus DsParseParamId(uint32 paramId, PARAM_ID_STRUCT *pData);
1061:Generated_Source\PSoC4/CapSense_Structure.c **** 
1062:Generated_Source\PSoC4/CapSense_Structure.c **** /** \}
1063:Generated_Source\PSoC4/CapSense_Structure.c **** * \endcond */
1064:Generated_Source\PSoC4/CapSense_Structure.c **** 
1065:Generated_Source\PSoC4/CapSense_Structure.c **** 
1066:Generated_Source\PSoC4/CapSense_Structure.c **** /*******************************************************************************
1067:Generated_Source\PSoC4/CapSense_Structure.c **** * Function Name: CapSense_DsInitialize
1068:Generated_Source\PSoC4/CapSense_Structure.c **** ****************************************************************************//**
1069:Generated_Source\PSoC4/CapSense_Structure.c **** *
1070:Generated_Source\PSoC4/CapSense_Structure.c **** * \brief
1071:Generated_Source\PSoC4/CapSense_Structure.c **** *   This function initializes the Data Structure storage.
1072:Generated_Source\PSoC4/CapSense_Structure.c **** *
1073:Generated_Source\PSoC4/CapSense_Structure.c **** * \details
1074:Generated_Source\PSoC4/CapSense_Structure.c **** *   This function copies the default widget configuration parameters
1075:Generated_Source\PSoC4/CapSense_Structure.c **** *   from the Flash storage into the RAM Data Structure.
1076:Generated_Source\PSoC4/CapSense_Structure.c **** *
1077:Generated_Source\PSoC4/CapSense_Structure.c **** *******************************************************************************/
1078:Generated_Source\PSoC4/CapSense_Structure.c **** void CapSense_DsInitialize(void)
1079:Generated_Source\PSoC4/CapSense_Structure.c **** {
1080:Generated_Source\PSoC4/CapSense_Structure.c ****     #if ((CapSense_ENABLE == CapSense_CSX_EN) || \
1081:Generated_Source\PSoC4/CapSense_Structure.c ****          (CapSense_ENABLE == CapSense_CSD_IDAC_COMP_EN) || \
1082:Generated_Source\PSoC4/CapSense_Structure.c ****         ((CapSense_ENABLE == CapSense_CSX_EN) && \
1083:Generated_Source\PSoC4/CapSense_Structure.c ****          (CapSense_ENABLE == CapSense_CSX_SKIP_OVSMPL_SPECIFIC_NODES)))
1084:Generated_Source\PSoC4/CapSense_Structure.c ****         uint32 snsId;
1085:Generated_Source\PSoC4/CapSense_Structure.c ****         uint32 wdgtId;
1086:Generated_Source\PSoC4/CapSense_Structure.c ****         CapSense_RAM_SNS_STRUCT * ptrSnsTmp;
1087:Generated_Source\PSoC4/CapSense_Structure.c ****         CapSense_FLASH_WD_STRUCT const * ptrFlashWdgt;
1088:Generated_Source\PSoC4/CapSense_Structure.c ****     #endif
1089:Generated_Source\PSoC4/CapSense_Structure.c **** 
1090:Generated_Source\PSoC4/CapSense_Structure.c ****     #if ((CapSense_ENABLE == CapSense_CSX_EN) && \
1091:Generated_Source\PSoC4/CapSense_Structure.c ****          (CapSense_ENABLE == CapSense_CSX_SKIP_OVSMPL_SPECIFIC_NODES))
1092:Generated_Source\PSoC4/CapSense_Structure.c ****         uint16 subConvNumber;
1093:Generated_Source\PSoC4/CapSense_Structure.c ****     #endif
1094:Generated_Source\PSoC4/CapSense_Structure.c **** 
1095:Generated_Source\PSoC4/CapSense_Structure.c ****     #if ((0u != CapSense_CSX_EN) || (0 != CapSense_CSD_IDAC_COMP_EN))
1096:Generated_Source\PSoC4/CapSense_Structure.c ****         uint8 const * ptrIdacInit = CapSense_ramIdacInit;
1097:Generated_Source\PSoC4/CapSense_Structure.c ****     #endif
1098:Generated_Source\PSoC4/CapSense_Structure.c **** 
1099:Generated_Source\PSoC4/CapSense_Structure.c ****     /* Reset RAM data structure content */
1100:Generated_Source\PSoC4/CapSense_Structure.c ****     (void)memset(&CapSense_dsRam, 0, sizeof(CapSense_dsRam));
1101:Generated_Source\PSoC4/CapSense_Structure.c **** 
1102:Generated_Source\PSoC4/CapSense_Structure.c ****     /* Initialize configId, deviceId and hwClock registers */
1103:Generated_Source\PSoC4/CapSense_Structure.c ****     CapSense_dsRam.configId = CapSense_CONFIG_ID;
1104:Generated_Source\PSoC4/CapSense_Structure.c ****     CapSense_dsRam.deviceId = CapSense_DEVICE_ID;
1105:Generated_Source\PSoC4/CapSense_Structure.c ****     CapSense_dsRam.hwClock = CapSense_HW_CLOCK;
1106:Generated_Source\PSoC4/CapSense_Structure.c **** 
1107:Generated_Source\PSoC4/CapSense_Structure.c ****     /* Initialize global RAM data */
1108:Generated_Source\PSoC4/CapSense_Structure.c ****     CapSense_dsRam.csd0Config = CapSense_CSD0_CONFIG;
1109:Generated_Source\PSoC4/CapSense_Structure.c **** 
1110:Generated_Source\PSoC4/CapSense_Structure.c ****     CapSense_dsRam.scanCurrentISC = CapSense_SNS_CONNECTION_UNDEFINED;
1111:Generated_Source\PSoC4/CapSense_Structure.c ****     #if (0u != CapSense_TOTAL_CSD_WIDGETS)
1112:Generated_Source\PSoC4/CapSense_Structure.c ****         CapSense_dsRam.modCsdClk = CapSense_CSD_SCANSPEED_DIVIDER;
1113:Generated_Source\PSoC4/CapSense_Structure.c ****         CapSense_dsRam.scanCsdISC = CapSense_CSD_INACTIVE_SNS_CONNECTION;
1114:Generated_Source\PSoC4/CapSense_Structure.c **** 
ARM GAS  C:\Users\YUANFA~1\AppData\Local\Temp\ccItJH9a.s 			page 21


1115:Generated_Source\PSoC4/CapSense_Structure.c ****         #if (0u != CapSense_CSD_COMMON_SNS_CLK_EN)
1116:Generated_Source\PSoC4/CapSense_Structure.c ****             CapSense_dsRam.snsCsdClk = CapSense_CSD_SNS_CLK_DIVIDER;
1117:Generated_Source\PSoC4/CapSense_Structure.c ****         #endif /* #if (0u != CapSense_CSD_COMMON_SNS_CLK_EN) */
1118:Generated_Source\PSoC4/CapSense_Structure.c ****     #endif /* #if (0u != CapSense_TOTAL_CSD_WIDGETS) */
1119:Generated_Source\PSoC4/CapSense_Structure.c **** 
1120:Generated_Source\PSoC4/CapSense_Structure.c ****     #if (CapSense_ENABLE == CapSense_CSX_EN)
1121:Generated_Source\PSoC4/CapSense_Structure.c ****         CapSense_dsRam.modCsxClk = CapSense_CSX_SCANSPEED_DIVIDER;
1122:Generated_Source\PSoC4/CapSense_Structure.c ****         CapSense_dsRam.scanCsxISC = CapSense_CSX_INACTIVE_SNS_CONNECTION;
1123:Generated_Source\PSoC4/CapSense_Structure.c **** 
1124:Generated_Source\PSoC4/CapSense_Structure.c ****         #if (0u != CapSense_CSX_COMMON_TX_CLK_EN)
1125:Generated_Source\PSoC4/CapSense_Structure.c ****             CapSense_dsRam.snsCsxClk = CapSense_CSX_TX_CLK_DIVIDER;
1126:Generated_Source\PSoC4/CapSense_Structure.c ****         #endif /* #if (0u != CapSense_CSX_COMMON_TX_CLK_EN) */
1127:Generated_Source\PSoC4/CapSense_Structure.c ****     #endif /* #if (CapSense_ENABLE == CapSense_CSX_EN) */
1128:Generated_Source\PSoC4/CapSense_Structure.c **** 
1129:Generated_Source\PSoC4/CapSense_Structure.c ****     #if (CapSense_ENABLE == CapSense_ISX_EN)
1130:Generated_Source\PSoC4/CapSense_Structure.c ****         CapSense_dsRam.modIsxClk = CapSense_ISX_SCANSPEED_DIVIDER;
1131:Generated_Source\PSoC4/CapSense_Structure.c ****     #endif /* #if (0u != CapSense_ISX_EN) */
1132:Generated_Source\PSoC4/CapSense_Structure.c **** 
1133:Generated_Source\PSoC4/CapSense_Structure.c ****     #if (0u != CapSense_SELF_TEST_EN)
1134:Generated_Source\PSoC4/CapSense_Structure.c **** 
1135:Generated_Source\PSoC4/CapSense_Structure.c ****         CapSense_dsRam.glbCrc = CapSense_GLB_CRC;
1136:Generated_Source\PSoC4/CapSense_Structure.c ****         CapSense_dsRam.selfTestConfig.fineInitTime = (uint8)CapSense_TST_FINE_INIT_TIME;
1137:Generated_Source\PSoC4/CapSense_Structure.c ****         CapSense_dsRam.selfTestConfig.startupDelay = CapSense_TST_ANALOG_STARTUP_DELAY_US;
1138:Generated_Source\PSoC4/CapSense_Structure.c **** 
1139:Generated_Source\PSoC4/CapSense_Structure.c ****         #if (0u != CapSense_TST_SNS_SHORT_EN)
1140:Generated_Source\PSoC4/CapSense_Structure.c ****             CapSense_dsRam.selfTestConfig.snsShortTimeUs = CapSense_TST_SNS_SHORT_TIME;
1141:Generated_Source\PSoC4/CapSense_Structure.c ****         #endif
1142:Generated_Source\PSoC4/CapSense_Structure.c **** 
1143:Generated_Source\PSoC4/CapSense_Structure.c ****         #if ((0u != CapSense_TST_SNS_CAP_EN) ||\
1144:Generated_Source\PSoC4/CapSense_Structure.c ****              (0u != CapSense_TST_SH_CAP_EN))
1145:Generated_Source\PSoC4/CapSense_Structure.c ****             CapSense_dsRam.selfTestConfig.snsCapSnsClkDivider = CapSense_TST_SNS_CAP_SNS_CLK_DIVIDE
1146:Generated_Source\PSoC4/CapSense_Structure.c ****             CapSense_dsRam.selfTestConfig.snsCapSnsClkHz = CapSense_TST_SNS_CAP_SNS_CLK_HZ;
1147:Generated_Source\PSoC4/CapSense_Structure.c ****             CapSense_dsRam.selfTestConfig.snsCapResolution = CapSense_TST_SNS_CAP_RESOLUTION;
1148:Generated_Source\PSoC4/CapSense_Structure.c ****             CapSense_dsRam.selfTestConfig.snsCapVrefGain = CapSense_TST_SNS_CAP_VREF_GAIN ;
1149:Generated_Source\PSoC4/CapSense_Structure.c ****             CapSense_dsRam.selfTestConfig.snsCapVrefVoltage = CapSense_TST_SNS_CAP_VREF_MV;
1150:Generated_Source\PSoC4/CapSense_Structure.c ****             CapSense_dsRam.selfTestConfig.snsCapModClkDivider = CapSense_TST_MOD_CLK_DIVIDER ;
1151:Generated_Source\PSoC4/CapSense_Structure.c ****             CapSense_dsRam.selfTestConfig.snsCapModClkKHz = CapSense_TST_MOD_CLK_KHZ ;
1152:Generated_Source\PSoC4/CapSense_Structure.c ****         #endif /* ((0u != CapSense_TST_SNS_CAP_EN) ||
1153:Generated_Source\PSoC4/CapSense_Structure.c ****                    (0u != CapSense_TST_SH_CAP_EN)) */
1154:Generated_Source\PSoC4/CapSense_Structure.c **** 
1155:Generated_Source\PSoC4/CapSense_Structure.c ****         #if (0u != CapSense_TST_SNS_CAP_EN)
1156:Generated_Source\PSoC4/CapSense_Structure.c ****             #if (0u != CapSense_CSD_EN)
1157:Generated_Source\PSoC4/CapSense_Structure.c ****                 CapSense_dsRam.selfTestConfig.bistCsdSnsCapISC = CapSense_SNS_CAP_CSD_INACTIVE_CONN
1158:Generated_Source\PSoC4/CapSense_Structure.c ****             #endif /* (0u != CapSense_CSD_EN) */
1159:Generated_Source\PSoC4/CapSense_Structure.c ****             #if (0u != CapSense_CSX_EN)
1160:Generated_Source\PSoC4/CapSense_Structure.c ****                 CapSense_dsRam.selfTestConfig.bistCsxSnsCapISC = CapSense_SNS_CAP_CSX_INACTIVE_CONN
1161:Generated_Source\PSoC4/CapSense_Structure.c ****             #endif /* (0u != CapSense_CSX_EN) */
1162:Generated_Source\PSoC4/CapSense_Structure.c ****         #endif /* (0u != CapSense_TST_SNS_CAP_EN) */
1163:Generated_Source\PSoC4/CapSense_Structure.c **** 
1164:Generated_Source\PSoC4/CapSense_Structure.c ****         #if (0u != CapSense_TST_SH_CAP_EN)
1165:Generated_Source\PSoC4/CapSense_Structure.c ****             #if ((0u != CapSense_CSD_EN) && (0u != CapSense_CSD_SHIELD_EN))
1166:Generated_Source\PSoC4/CapSense_Structure.c ****                 CapSense_dsRam.selfTestConfig.bistCsdShCapISC = CapSense_SHIELD_CAP_INACTIVE_CONNEC
1167:Generated_Source\PSoC4/CapSense_Structure.c ****             #endif /* ((0u != CapSense_CSD_EN) && (0u != CapSense_CSD_SHIELD_EN)) */
1168:Generated_Source\PSoC4/CapSense_Structure.c ****         #endif /* (0u != CapSense_TST_SH_CAP_EN) */
1169:Generated_Source\PSoC4/CapSense_Structure.c **** 
1170:Generated_Source\PSoC4/CapSense_Structure.c ****         #if (0u != CapSense_TST_EXTERNAL_CAP_EN)
1171:Generated_Source\PSoC4/CapSense_Structure.c ****             CapSense_dsRam.selfTestConfig.extCapVrefGain = CapSense_TST_EXT_CAP_VREF_GAIN;
ARM GAS  C:\Users\YUANFA~1\AppData\Local\Temp\ccItJH9a.s 			page 22


1172:Generated_Source\PSoC4/CapSense_Structure.c ****             CapSense_dsRam.selfTestConfig.extCapVrefVoltage = CapSense_TST_EXT_CAP_VREF_MV;
1173:Generated_Source\PSoC4/CapSense_Structure.c ****         #endif /* #if (0u != CapSense_TST_EXTERNAL_CAP_EN) */
1174:Generated_Source\PSoC4/CapSense_Structure.c **** 
1175:Generated_Source\PSoC4/CapSense_Structure.c ****         #if (0u != CapSense_TST_VDDA_EN)
1176:Generated_Source\PSoC4/CapSense_Structure.c ****             CapSense_dsRam.selfTestConfig.vddaResolution = CapSense_TST_VDDA_RESOLUTION;
1177:Generated_Source\PSoC4/CapSense_Structure.c ****             CapSense_dsRam.selfTestConfig.vddaModClkDivider = CapSense_TST_VDDA_MOD_CLK_DIVIDER;
1178:Generated_Source\PSoC4/CapSense_Structure.c **** 
1179:Generated_Source\PSoC4/CapSense_Structure.c ****             CapSense_dsRam.selfTestConfig.vddaVrefGain = CapSense_TST_VDDA_VREF_GAIN;
1180:Generated_Source\PSoC4/CapSense_Structure.c ****             CapSense_dsRam.selfTestConfig.vddaVrefVoltage = CapSense_TST_VDDA_VREF_MV;
1181:Generated_Source\PSoC4/CapSense_Structure.c ****         #endif /* #if (0u != CapSense_TST_VDDA_EN) */
1182:Generated_Source\PSoC4/CapSense_Structure.c **** 
1183:Generated_Source\PSoC4/CapSense_Structure.c ****     #endif /* #if (0u != CapSense_SELF_TEST_EN) */
1184:Generated_Source\PSoC4/CapSense_Structure.c **** 
1185:Generated_Source\PSoC4/CapSense_Structure.c ****     /* Initialize RAM widget data */
1186:Generated_Source\PSoC4/CapSense_Structure.c ****     CapSense_dsRam.wdgtList = CapSense_ramWidgetInit;
1187:Generated_Source\PSoC4/CapSense_Structure.c **** 
1188:Generated_Source\PSoC4/CapSense_Structure.c ****     /* Initialize Gesture configuration structure */
1189:Generated_Source\PSoC4/CapSense_Structure.c ****     #if ((0u != CapSense_GES_GLOBAL_EN) || (0u != CapSense_BALLISTIC_MULTIPLIER_EN))
1190:Generated_Source\PSoC4/CapSense_Structure.c ****         CapSense_dsRam.timestampInterval = CapSense_TIMESTAMP_INTERVAL;
1191:Generated_Source\PSoC4/CapSense_Structure.c ****     #endif /* ((0u != CapSense_GES_GLOBAL_EN) || (0u != CapSense_BALLISTIC_MULTIPLIER_EN)) */
1192:Generated_Source\PSoC4/CapSense_Structure.c **** 
1193:Generated_Source\PSoC4/CapSense_Structure.c ****     #if (0u != CapSense_GES_GLOBAL_EN)
1194:Generated_Source\PSoC4/CapSense_Structure.c ****         CapSense_dsRam.gestures = CapSense_ramGesturesInit;
1195:Generated_Source\PSoC4/CapSense_Structure.c ****     #endif /* (0u != CapSense_GES_GLOBAL_EN) */
1196:Generated_Source\PSoC4/CapSense_Structure.c **** 
1197:Generated_Source\PSoC4/CapSense_Structure.c ****     #if (0u != CapSense_BALLISTIC_MULTIPLIER_EN)
1198:Generated_Source\PSoC4/CapSense_Structure.c ****         CapSense_dsRam.ballisticConfig = CapSense_ramBallisticInit;
1199:Generated_Source\PSoC4/CapSense_Structure.c ****     #endif /* (0u != CapSense_BALLISTIC_MULTIPLIER_EN) */
1200:Generated_Source\PSoC4/CapSense_Structure.c **** 
1201:Generated_Source\PSoC4/CapSense_Structure.c ****     #if (0u != CapSense_CSX_EN) || (0 != CapSense_CSD_IDAC_COMP_EN)
1202:Generated_Source\PSoC4/CapSense_Structure.c ****         /* Initialize IDAC data */
1203:Generated_Source\PSoC4/CapSense_Structure.c ****         ptrFlashWdgt = CapSense_dsFlash.wdgtArray;
1204:Generated_Source\PSoC4/CapSense_Structure.c **** 
1205:Generated_Source\PSoC4/CapSense_Structure.c ****         for (wdgtId = CapSense_TOTAL_WIDGETS; wdgtId-- > 0u; )
1206:Generated_Source\PSoC4/CapSense_Structure.c ****         {
1207:Generated_Source\PSoC4/CapSense_Structure.c ****             ptrSnsTmp = ptrFlashWdgt->ptr2SnsRam;
1208:Generated_Source\PSoC4/CapSense_Structure.c **** 
1209:Generated_Source\PSoC4/CapSense_Structure.c ****             for (snsId = CapSense_GET_SNS_CNT_BY_PTR(ptrFlashWdgt); snsId-- > 0u;)
1210:Generated_Source\PSoC4/CapSense_Structure.c ****             {
1211:Generated_Source\PSoC4/CapSense_Structure.c ****                 ptrSnsTmp->idacComp[0u] = *ptrIdacInit;
1212:Generated_Source\PSoC4/CapSense_Structure.c ****                 ptrIdacInit++;
1213:Generated_Source\PSoC4/CapSense_Structure.c **** 
1214:Generated_Source\PSoC4/CapSense_Structure.c ****                 #if (0u != CapSense_MULTI_FREQ_SCAN_EN)
1215:Generated_Source\PSoC4/CapSense_Structure.c ****                     ptrSnsTmp->idacComp[1u] = *ptrIdacInit;
1216:Generated_Source\PSoC4/CapSense_Structure.c ****                     ptrIdacInit++;
1217:Generated_Source\PSoC4/CapSense_Structure.c **** 
1218:Generated_Source\PSoC4/CapSense_Structure.c ****                     ptrSnsTmp->idacComp[2u] = *ptrIdacInit;
1219:Generated_Source\PSoC4/CapSense_Structure.c ****                     ptrIdacInit++;
1220:Generated_Source\PSoC4/CapSense_Structure.c ****                 #endif /* #if (0u != CapSense_MULTI_FREQ_SCAN_EN) */
1221:Generated_Source\PSoC4/CapSense_Structure.c **** 
1222:Generated_Source\PSoC4/CapSense_Structure.c ****                 ptrSnsTmp++;
1223:Generated_Source\PSoC4/CapSense_Structure.c ****             }
1224:Generated_Source\PSoC4/CapSense_Structure.c **** 
1225:Generated_Source\PSoC4/CapSense_Structure.c ****             ptrFlashWdgt++; /* Move to next widget */
1226:Generated_Source\PSoC4/CapSense_Structure.c ****         }
1227:Generated_Source\PSoC4/CapSense_Structure.c ****     #endif /*(0u != CapSense_CSX_EN) || (0 != CapSense_CSD_IDAC_COMP_EN)*/
1228:Generated_Source\PSoC4/CapSense_Structure.c **** 
ARM GAS  C:\Users\YUANFA~1\AppData\Local\Temp\ccItJH9a.s 			page 23


1229:Generated_Source\PSoC4/CapSense_Structure.c ****     #if ((CapSense_ENABLE == CapSense_CSX_EN) && \
1230:Generated_Source\PSoC4/CapSense_Structure.c ****          (CapSense_ENABLE == CapSense_CSX_SKIP_OVSMPL_SPECIFIC_NODES))
1231:Generated_Source\PSoC4/CapSense_Structure.c ****         /* Initialize Sub-Conversion Number for each node of each CSX widget */
1232:Generated_Source\PSoC4/CapSense_Structure.c ****         ptrFlashWdgt = CapSense_dsFlash.wdgtArray;
1233:Generated_Source\PSoC4/CapSense_Structure.c ****         for (wdgtId = CapSense_TOTAL_WIDGETS; wdgtId-- > 0u;)
1234:Generated_Source\PSoC4/CapSense_Structure.c ****         {
1235:Generated_Source\PSoC4/CapSense_Structure.c ****             /* Check for widget sense method */
1236:Generated_Source\PSoC4/CapSense_Structure.c ****             if (CapSense_SENSE_METHOD_CSX_E == CapSense_GET_SENSE_METHOD(ptrFlashWdgt))
1237:Generated_Source\PSoC4/CapSense_Structure.c ****             {
1238:Generated_Source\PSoC4/CapSense_Structure.c ****                 /* Take the sub-convesion number of a CSX widget and initialize each node of this w
1239:Generated_Source\PSoC4/CapSense_Structure.c ****                 subConvNumber = ((CapSense_RAM_WD_BASE_STRUCT *)(ptrFlashWdgt->ptr2WdgtRam))->resol
1240:Generated_Source\PSoC4/CapSense_Structure.c ****                 ptrSnsTmp = ptrFlashWdgt->ptr2SnsRam;
1241:Generated_Source\PSoC4/CapSense_Structure.c ****                 for (snsId = CapSense_GET_SNS_CNT_BY_PTR(ptrFlashWdgt); snsId-- > 0u;)
1242:Generated_Source\PSoC4/CapSense_Structure.c ****                 {
1243:Generated_Source\PSoC4/CapSense_Structure.c ****                     ptrSnsTmp->subConvNum = subConvNumber;
1244:Generated_Source\PSoC4/CapSense_Structure.c ****                     ptrSnsTmp++;
1245:Generated_Source\PSoC4/CapSense_Structure.c ****                 }
1246:Generated_Source\PSoC4/CapSense_Structure.c ****             }
1247:Generated_Source\PSoC4/CapSense_Structure.c ****             /* Move to the next widget */
1248:Generated_Source\PSoC4/CapSense_Structure.c ****             ptrFlashWdgt++;
1249:Generated_Source\PSoC4/CapSense_Structure.c ****         }
1250:Generated_Source\PSoC4/CapSense_Structure.c ****     #endif /* ((CapSense_ENABLE == CapSense_CSX_EN) && \
1251:Generated_Source\PSoC4/CapSense_Structure.c ****                (CapSense_ENABLE == CapSense_CSX_SKIP_OVSMPL_SPECIFIC_NODES)) */
1252:Generated_Source\PSoC4/CapSense_Structure.c **** 
1253:Generated_Source\PSoC4/CapSense_Structure.c ****     #if (0u != CapSense_ADC_EN)
1254:Generated_Source\PSoC4/CapSense_Structure.c ****         CapSense_AdcDsInitialize();
1255:Generated_Source\PSoC4/CapSense_Structure.c ****     #endif /* (0u != CapSense_ADC_EN) */
1256:Generated_Source\PSoC4/CapSense_Structure.c **** }
1257:Generated_Source\PSoC4/CapSense_Structure.c **** 
1258:Generated_Source\PSoC4/CapSense_Structure.c **** 
1259:Generated_Source\PSoC4/CapSense_Structure.c **** #if (0u != CapSense_ADC_EN)
1260:Generated_Source\PSoC4/CapSense_Structure.c ****     /*******************************************************************************
1261:Generated_Source\PSoC4/CapSense_Structure.c ****     * Function Name: CapSense_AdcDsInitialize
1262:Generated_Source\PSoC4/CapSense_Structure.c ****     ****************************************************************************//**
1263:Generated_Source\PSoC4/CapSense_Structure.c ****     *
1264:Generated_Source\PSoC4/CapSense_Structure.c ****     * \brief
1265:Generated_Source\PSoC4/CapSense_Structure.c ****     *   Configures the initial Adc datastructure members.
1266:Generated_Source\PSoC4/CapSense_Structure.c ****     *
1267:Generated_Source\PSoC4/CapSense_Structure.c ****     *******************************************************************************/
1268:Generated_Source\PSoC4/CapSense_Structure.c ****     void CapSense_AdcDsInitialize(void)
1269:Generated_Source\PSoC4/CapSense_Structure.c ****     {
1270:Generated_Source\PSoC4/CapSense_Structure.c ****         CapSense_dsRam.adcResolution = CapSense_ADC_RESOLUTION;
1271:Generated_Source\PSoC4/CapSense_Structure.c ****         CapSense_dsRam.adcIdac = (uint8)(CapSense_ADC_IDAC_DEFAULT);
1272:Generated_Source\PSoC4/CapSense_Structure.c ****         CapSense_dsRam.adcActiveCh = CapSense_AdcNO_CHANNEL;
1273:Generated_Source\PSoC4/CapSense_Structure.c ****     }
1274:Generated_Source\PSoC4/CapSense_Structure.c **** #endif /* (0u != CapSense_ADC_EN) */
1275:Generated_Source\PSoC4/CapSense_Structure.c **** 
1276:Generated_Source\PSoC4/CapSense_Structure.c **** 
1277:Generated_Source\PSoC4/CapSense_Structure.c **** /*******************************************************************************
1278:Generated_Source\PSoC4/CapSense_Structure.c **** * Function Name: DsParseParamId
1279:Generated_Source\PSoC4/CapSense_Structure.c **** ****************************************************************************//**
1280:Generated_Source\PSoC4/CapSense_Structure.c **** *
1281:Generated_Source\PSoC4/CapSense_Structure.c **** * \brief
1282:Generated_Source\PSoC4/CapSense_Structure.c **** *   This function parses the parameter ID and checks its correctness.
1283:Generated_Source\PSoC4/CapSense_Structure.c **** *
1284:Generated_Source\PSoC4/CapSense_Structure.c **** * \details
1285:Generated_Source\PSoC4/CapSense_Structure.c **** *   This function checks the parameter CRC if the self-test is enabled,
ARM GAS  C:\Users\YUANFA~1\AppData\Local\Temp\ccItJH9a.s 			page 24


1286:Generated_Source\PSoC4/CapSense_Structure.c **** *   validates the offset value and parameter type.
1287:Generated_Source\PSoC4/CapSense_Structure.c **** *
1288:Generated_Source\PSoC4/CapSense_Structure.c **** * \param paramId The parameter to parse.
1289:Generated_Source\PSoC4/CapSense_Structure.c **** * \param pData   The pointer to the structure that will hold parsed data.
1290:Generated_Source\PSoC4/CapSense_Structure.c **** *
1291:Generated_Source\PSoC4/CapSense_Structure.c **** * \return CYRET_SUCCESS     If the parameter is valid
1292:Generated_Source\PSoC4/CapSense_Structure.c **** *         CYRET_BAD_PARAM   If the parameter is invalid
1293:Generated_Source\PSoC4/CapSense_Structure.c **** *
1294:Generated_Source\PSoC4/CapSense_Structure.c **** *******************************************************************************/
1295:Generated_Source\PSoC4/CapSense_Structure.c **** static cystatus DsParseParamId(uint32 paramId, PARAM_ID_STRUCT *pData)
1296:Generated_Source\PSoC4/CapSense_Structure.c **** {
  27              		.loc 1 1296 0
  28              		.cfi_startproc
  29              		@ args = 0, pretend = 0, frame = 16
  30              		@ frame_needed = 0, uses_anonymous_args = 0
  31              	.LVL0:
  32 0000 F0B5     		push	{r4, r5, r6, r7, lr}
  33              		.cfi_def_cfa_offset 20
  34              		.cfi_offset 4, -20
  35              		.cfi_offset 5, -16
  36              		.cfi_offset 6, -12
  37              		.cfi_offset 7, -8
  38              		.cfi_offset 14, -4
  39 0002 4746     		mov	r7, r8
  40 0004 80B4     		push	{r7}
  41              		.cfi_def_cfa_offset 24
  42              		.cfi_offset 8, -24
  43 0006 84B0     		sub	sp, sp, #16
  44              		.cfi_def_cfa_offset 40
  45 0008 0400     		movs	r4, r0
  46 000a 0E00     		movs	r6, r1
  47              	.LVL1:
1297:Generated_Source\PSoC4/CapSense_Structure.c ****     cystatus result = CYRET_SUCCESS;
1298:Generated_Source\PSoC4/CapSense_Structure.c **** 
1299:Generated_Source\PSoC4/CapSense_Structure.c ****     #if (0u != CapSense_SELF_TEST_EN)
1300:Generated_Source\PSoC4/CapSense_Structure.c ****         const uint8 crcTable[] =
  48              		.loc 1 1300 0
  49 000c 1022     		movs	r2, #16
  50 000e 3449     		ldr	r1, .L22
  51              	.LVL2:
  52 0010 6846     		mov	r0, sp
  53              	.LVL3:
  54 0012 FFF7FEFF 		bl	memcpy
  55              	.LVL4:
1301:Generated_Source\PSoC4/CapSense_Structure.c ****         {
1302:Generated_Source\PSoC4/CapSense_Structure.c ****             0x00u, 0x09u, 0x0Bu, 0x02u, 0x0Fu, 0x06u, 0x04u, 0x0Du,
1303:Generated_Source\PSoC4/CapSense_Structure.c ****             0x07u, 0x0Eu, 0x0Cu, 0x05u, 0x08u, 0x01u, 0x03u, 0x0Au
1304:Generated_Source\PSoC4/CapSense_Structure.c ****         };
1305:Generated_Source\PSoC4/CapSense_Structure.c **** 
1306:Generated_Source\PSoC4/CapSense_Structure.c ****         uint32 i;
1307:Generated_Source\PSoC4/CapSense_Structure.c ****         uint32 actualCrc = 0u;
1308:Generated_Source\PSoC4/CapSense_Structure.c ****         uint32 crcIndex;
1309:Generated_Source\PSoC4/CapSense_Structure.c ****     #endif /* #if (0u != CapSense_SELF_TEST_EN) */
1310:Generated_Source\PSoC4/CapSense_Structure.c **** 
1311:Generated_Source\PSoC4/CapSense_Structure.c ****     /* Extract parameter data */
1312:Generated_Source\PSoC4/CapSense_Structure.c ****     pData->offset     = LO16(paramId);
  56              		.loc 1 1312 0
ARM GAS  C:\Users\YUANFA~1\AppData\Local\Temp\ccItJH9a.s 			page 25


  57 0016 A3B2     		uxth	r3, r4
  58 0018 9C46     		mov	ip, r3
  59 001a 3380     		strh	r3, [r6]
1313:Generated_Source\PSoC4/CapSense_Structure.c ****     pData->affectsCrc = LO8((paramId & PARAM_UBIT_MASK)  >> PARAM_UBIT_OFFSET);
  60              		.loc 1 1313 0
  61 001c E50D     		lsrs	r5, r4, #23
  62 001e 0123     		movs	r3, #1
  63 0020 1D40     		ands	r5, r3
  64 0022 F570     		strb	r5, [r6, #3]
1314:Generated_Source\PSoC4/CapSense_Structure.c ****     pData->widgetId   = LO8((paramId & PARAM_WDID_MASK)  >> PARAM_WDID_OFFSET);
  65              		.loc 1 1314 0
  66 0024 220C     		lsrs	r2, r4, #16
  67 0026 7F27     		movs	r7, #127
  68 0028 1740     		ands	r7, r2
  69 002a B770     		strb	r7, [r6, #2]
1315:Generated_Source\PSoC4/CapSense_Structure.c ****     pData->type       = LO8((paramId & PARAM_TYPE_MASK)  >> PARAM_TYPE_OFFSET);
  70              		.loc 1 1315 0
  71 002c A00F     		lsrs	r0, r4, #30
  72 002e F071     		strb	r0, [r6, #7]
1316:Generated_Source\PSoC4/CapSense_Structure.c ****     pData->flash      = LO8((paramId & PARAM_FBIT_MASK)  >> PARAM_FBIT_OFFSET);
  73              		.loc 1 1316 0
  74 0030 210F     		lsrs	r1, r4, #28
  75 0032 1940     		ands	r1, r3
  76 0034 7171     		strb	r1, [r6, #5]
1317:Generated_Source\PSoC4/CapSense_Structure.c ****     pData->rw         = LO8((paramId & PARAM_RWBIT_MASK) >> PARAM_RWBIT_OFFSET);
  77              		.loc 1 1317 0
  78 0036 620F     		lsrs	r2, r4, #29
  79 0038 1340     		ands	r3, r2
  80 003a 9846     		mov	r8, r3
  81 003c B371     		strb	r3, [r6, #6]
1318:Generated_Source\PSoC4/CapSense_Structure.c ****     pData->crc        = LO8((paramId & PARAM_CRC_MASK)   >> PARAM_CRC_OFFSET);
  82              		.loc 1 1318 0
  83 003e 230E     		lsrs	r3, r4, #24
  84 0040 0F22     		movs	r2, #15
  85 0042 1340     		ands	r3, r2
  86 0044 3371     		strb	r3, [r6, #4]
  87              	.LVL5:
1307:Generated_Source\PSoC4/CapSense_Structure.c ****         uint32 crcIndex;
  88              		.loc 1 1307 0
  89 0046 0026     		movs	r6, #0
  90              	.LVL6:
1319:Generated_Source\PSoC4/CapSense_Structure.c **** 
1320:Generated_Source\PSoC4/CapSense_Structure.c ****     /* Check parameter CRC if self-test is enabled */
1321:Generated_Source\PSoC4/CapSense_Structure.c ****     #if (0u != CapSense_SELF_TEST_EN)
1322:Generated_Source\PSoC4/CapSense_Structure.c **** 
1323:Generated_Source\PSoC4/CapSense_Structure.c ****         /* Calculate CRC for bits 0..24.
1324:Generated_Source\PSoC4/CapSense_Structure.c ****          * The CRC is calculated using nibbles (4-bits).
1325:Generated_Source\PSoC4/CapSense_Structure.c ****          * So for 0..24 bits there are in total 6 nibbles. */
1326:Generated_Source\PSoC4/CapSense_Structure.c ****         for (i = 6u; i > 0u; i--)
  91              		.loc 1 1326 0
  92 0048 093A     		subs	r2, r2, #9
  93 004a 06E0     		b	.L2
  94              	.LVL7:
  95              	.L3:
1327:Generated_Source\PSoC4/CapSense_Structure.c ****         {
1328:Generated_Source\PSoC4/CapSense_Structure.c ****             crcIndex = actualCrc ^ (paramId & 0x0Fu);
  96              		.loc 1 1328 0 discriminator 3
ARM GAS  C:\Users\YUANFA~1\AppData\Local\Temp\ccItJH9a.s 			page 26


  97 004c 0F23     		movs	r3, #15
  98 004e 2340     		ands	r3, r4
  99 0050 7340     		eors	r3, r6
 100              	.LVL8:
1329:Generated_Source\PSoC4/CapSense_Structure.c ****             actualCrc = crcTable[crcIndex];
 101              		.loc 1 1329 0 discriminator 3
 102 0052 6E46     		mov	r6, sp
 103              	.LVL9:
 104 0054 F65C     		ldrb	r6, [r6, r3]
 105              	.LVL10:
1330:Generated_Source\PSoC4/CapSense_Structure.c ****             paramId >>= 4u;
 106              		.loc 1 1330 0 discriminator 3
 107 0056 2409     		lsrs	r4, r4, #4
 108              	.LVL11:
1326:Generated_Source\PSoC4/CapSense_Structure.c ****         {
 109              		.loc 1 1326 0 discriminator 3
 110 0058 013A     		subs	r2, r2, #1
 111              	.LVL12:
 112              	.L2:
1326:Generated_Source\PSoC4/CapSense_Structure.c ****         {
 113              		.loc 1 1326 0 is_stmt 0 discriminator 1
 114 005a 002A     		cmp	r2, #0
 115 005c F6D1     		bne	.L3
1331:Generated_Source\PSoC4/CapSense_Structure.c ****         }
1332:Generated_Source\PSoC4/CapSense_Structure.c **** 
1333:Generated_Source\PSoC4/CapSense_Structure.c ****         /* Add bits 28..32 */
1334:Generated_Source\PSoC4/CapSense_Structure.c ****         crcIndex = actualCrc ^ ((paramId >> 4u) & 0x0Fu);
 116              		.loc 1 1334 0 is_stmt 1
 117 005e 2309     		lsrs	r3, r4, #4
 118 0060 0F32     		adds	r2, r2, #15
 119              	.LVL13:
 120 0062 1340     		ands	r3, r2
 121 0064 7340     		eors	r3, r6
 122              	.LVL14:
1335:Generated_Source\PSoC4/CapSense_Structure.c ****         actualCrc = crcTable[crcIndex];
 123              		.loc 1 1335 0
 124 0066 6E46     		mov	r6, sp
 125              	.LVL15:
 126 0068 F35C     		ldrb	r3, [r6, r3]
 127              	.LVL16:
1336:Generated_Source\PSoC4/CapSense_Structure.c **** 
1337:Generated_Source\PSoC4/CapSense_Structure.c ****         /* Add bits 24..28 (CRC) */
1338:Generated_Source\PSoC4/CapSense_Structure.c ****         crcIndex = actualCrc ^ (paramId & 0x0Fu);
 128              		.loc 1 1338 0
 129 006a 1440     		ands	r4, r2
 130              	.LVL17:
 131 006c 5C40     		eors	r4, r3
 132              	.LVL18:
1339:Generated_Source\PSoC4/CapSense_Structure.c ****         actualCrc = crcTable[crcIndex];
 133              		.loc 1 1339 0
 134 006e 335D     		ldrb	r3, [r6, r4]
 135              	.LVL19:
1340:Generated_Source\PSoC4/CapSense_Structure.c **** 
1341:Generated_Source\PSoC4/CapSense_Structure.c ****         if (0u != actualCrc)
 136              		.loc 1 1341 0
 137 0070 002B     		cmp	r3, #0
 138 0072 00D0     		beq	.L4
ARM GAS  C:\Users\YUANFA~1\AppData\Local\Temp\ccItJH9a.s 			page 27


1342:Generated_Source\PSoC4/CapSense_Structure.c ****         {
1343:Generated_Source\PSoC4/CapSense_Structure.c ****             /* CRC mismatch */
1344:Generated_Source\PSoC4/CapSense_Structure.c ****             result = CYRET_BAD_PARAM;
 139              		.loc 1 1344 0
 140 0074 0123     		movs	r3, #1
 141              	.LVL20:
 142              	.L4:
1345:Generated_Source\PSoC4/CapSense_Structure.c ****         }
1346:Generated_Source\PSoC4/CapSense_Structure.c **** 
1347:Generated_Source\PSoC4/CapSense_Structure.c ****         if ((CYRET_SUCCESS == result) &&
 143              		.loc 1 1347 0
 144 0076 002B     		cmp	r3, #0
 145 0078 04D1     		bne	.L5
 146              		.loc 1 1347 0 is_stmt 0 discriminator 1
 147 007a 002D     		cmp	r5, #0
 148 007c 02D0     		beq	.L5
1348:Generated_Source\PSoC4/CapSense_Structure.c ****             (0u != pData->affectsCrc) && (pData->widgetId >= CapSense_TOTAL_WIDGETS ))
 149              		.loc 1 1348 0 is_stmt 1
 150 007e 122F     		cmp	r7, #18
 151 0080 00D9     		bls	.L5
1349:Generated_Source\PSoC4/CapSense_Structure.c ****         {
1350:Generated_Source\PSoC4/CapSense_Structure.c ****             /* Wrong widgetId for protected parameter */
1351:Generated_Source\PSoC4/CapSense_Structure.c ****             result = CYRET_BAD_PARAM;
 152              		.loc 1 1351 0
 153 0082 0133     		adds	r3, r3, #1
 154              	.LVL21:
 155              	.L5:
1352:Generated_Source\PSoC4/CapSense_Structure.c ****         }
1353:Generated_Source\PSoC4/CapSense_Structure.c **** 
1354:Generated_Source\PSoC4/CapSense_Structure.c ****         /* Check offset value range */
1355:Generated_Source\PSoC4/CapSense_Structure.c ****         if (CYRET_SUCCESS == result)
 156              		.loc 1 1355 0
 157 0084 002B     		cmp	r3, #0
 158 0086 10D1     		bne	.L6
1356:Generated_Source\PSoC4/CapSense_Structure.c ****         {
1357:Generated_Source\PSoC4/CapSense_Structure.c ****             if (0u == pData->flash)
 159              		.loc 1 1357 0
 160 0088 0029     		cmp	r1, #0
 161 008a 03D1     		bne	.L7
1358:Generated_Source\PSoC4/CapSense_Structure.c ****             {
1359:Generated_Source\PSoC4/CapSense_Structure.c ****                 /* Check offset for RAM Data Structure range */
1360:Generated_Source\PSoC4/CapSense_Structure.c ****                 if (pData->offset >= sizeof(CapSense_dsRam))
 162              		.loc 1 1360 0
 163 008c 154A     		ldr	r2, .L22+4
 164              	.LVL22:
 165 008e 9445     		cmp	ip, r2
 166 0090 08D8     		bhi	.L15
 167 0092 0AE0     		b	.L6
 168              	.LVL23:
 169              	.L7:
1361:Generated_Source\PSoC4/CapSense_Structure.c ****                 {
1362:Generated_Source\PSoC4/CapSense_Structure.c ****                     result = CYRET_BAD_PARAM;
1363:Generated_Source\PSoC4/CapSense_Structure.c ****                 }
1364:Generated_Source\PSoC4/CapSense_Structure.c ****             }
1365:Generated_Source\PSoC4/CapSense_Structure.c ****             else
1366:Generated_Source\PSoC4/CapSense_Structure.c ****             {
1367:Generated_Source\PSoC4/CapSense_Structure.c ****                 /* Check offset for Flash Data Structure range */
ARM GAS  C:\Users\YUANFA~1\AppData\Local\Temp\ccItJH9a.s 			page 28


1368:Generated_Source\PSoC4/CapSense_Structure.c ****                 if (pData->offset >= sizeof(CapSense_dsFlash))
 170              		.loc 1 1368 0
 171 0094 144A     		ldr	r2, .L22+8
 172              	.LVL24:
 173 0096 9445     		cmp	ip, r2
 174 0098 00D9     		bls	.L8
1369:Generated_Source\PSoC4/CapSense_Structure.c ****                 {
1370:Generated_Source\PSoC4/CapSense_Structure.c ****                     result = CYRET_BAD_PARAM;
 175              		.loc 1 1370 0
 176 009a 0123     		movs	r3, #1
 177              	.LVL25:
 178              	.L8:
1371:Generated_Source\PSoC4/CapSense_Structure.c ****                 }
1372:Generated_Source\PSoC4/CapSense_Structure.c **** 
1373:Generated_Source\PSoC4/CapSense_Structure.c ****                 /* Check if it is marked as Read Only */
1374:Generated_Source\PSoC4/CapSense_Structure.c ****                 if (0u != pData->rw)
 179              		.loc 1 1374 0
 180 009c 4246     		mov	r2, r8
 181 009e 002A     		cmp	r2, #0
 182 00a0 02D1     		bne	.L17
 183 00a2 02E0     		b	.L6
 184              	.L15:
1362:Generated_Source\PSoC4/CapSense_Structure.c ****                 }
 185              		.loc 1 1362 0
 186 00a4 0123     		movs	r3, #1
 187              	.LVL26:
 188 00a6 00E0     		b	.L6
 189              	.LVL27:
 190              	.L17:
1375:Generated_Source\PSoC4/CapSense_Structure.c ****                 {
1376:Generated_Source\PSoC4/CapSense_Structure.c ****                     result = CYRET_BAD_PARAM;
 191              		.loc 1 1376 0
 192 00a8 0123     		movs	r3, #1
 193              	.LVL28:
 194              	.L6:
1377:Generated_Source\PSoC4/CapSense_Structure.c ****                 }
1378:Generated_Source\PSoC4/CapSense_Structure.c ****             }
1379:Generated_Source\PSoC4/CapSense_Structure.c ****         }
1380:Generated_Source\PSoC4/CapSense_Structure.c ****     #else /* #if (0u != CapSense_SELF_TEST_EN) */
1381:Generated_Source\PSoC4/CapSense_Structure.c ****         /* Check offset value range */
1382:Generated_Source\PSoC4/CapSense_Structure.c ****         if (0u == pData->flash)
1383:Generated_Source\PSoC4/CapSense_Structure.c ****         {
1384:Generated_Source\PSoC4/CapSense_Structure.c ****             /* Check offset for RAM Data Structure range */
1385:Generated_Source\PSoC4/CapSense_Structure.c ****             if (pData->offset >= sizeof(CapSense_dsRam))
1386:Generated_Source\PSoC4/CapSense_Structure.c ****             {
1387:Generated_Source\PSoC4/CapSense_Structure.c ****                 result = CYRET_BAD_PARAM;
1388:Generated_Source\PSoC4/CapSense_Structure.c ****             }
1389:Generated_Source\PSoC4/CapSense_Structure.c ****         }
1390:Generated_Source\PSoC4/CapSense_Structure.c ****         else
1391:Generated_Source\PSoC4/CapSense_Structure.c ****         {
1392:Generated_Source\PSoC4/CapSense_Structure.c ****             /* Check offset for Flash Data Structure range */
1393:Generated_Source\PSoC4/CapSense_Structure.c ****             if (pData->offset >= sizeof(CapSense_dsFlash))
1394:Generated_Source\PSoC4/CapSense_Structure.c ****             {
1395:Generated_Source\PSoC4/CapSense_Structure.c ****                 result = CYRET_BAD_PARAM;
1396:Generated_Source\PSoC4/CapSense_Structure.c ****             }
1397:Generated_Source\PSoC4/CapSense_Structure.c **** 
1398:Generated_Source\PSoC4/CapSense_Structure.c ****             /* Check if it is marked as Read Only */
ARM GAS  C:\Users\YUANFA~1\AppData\Local\Temp\ccItJH9a.s 			page 29


1399:Generated_Source\PSoC4/CapSense_Structure.c ****             if (0u != pData->rw)
1400:Generated_Source\PSoC4/CapSense_Structure.c ****             {
1401:Generated_Source\PSoC4/CapSense_Structure.c ****                 result = CYRET_BAD_PARAM;
1402:Generated_Source\PSoC4/CapSense_Structure.c ****             }
1403:Generated_Source\PSoC4/CapSense_Structure.c ****         }
1404:Generated_Source\PSoC4/CapSense_Structure.c ****     #endif /* #if (0u != CapSense_SELF_TEST_EN) */
1405:Generated_Source\PSoC4/CapSense_Structure.c **** 
1406:Generated_Source\PSoC4/CapSense_Structure.c ****     if (CYRET_SUCCESS == result)
 195              		.loc 1 1406 0
 196 00aa 002B     		cmp	r3, #0
 197 00ac 13D1     		bne	.L9
1407:Generated_Source\PSoC4/CapSense_Structure.c ****     {
1408:Generated_Source\PSoC4/CapSense_Structure.c ****         /* Check parameter type, offset alignment */
1409:Generated_Source\PSoC4/CapSense_Structure.c ****         switch (pData->type)
 198              		.loc 1 1409 0
 199 00ae 0228     		cmp	r0, #2
 200 00b0 04D0     		beq	.L10
 201 00b2 0328     		cmp	r0, #3
 202 00b4 06D0     		beq	.L11
 203 00b6 0128     		cmp	r0, #1
 204 00b8 08D1     		bne	.L21
 205 00ba 0CE0     		b	.L9
 206              	.L10:
1410:Generated_Source\PSoC4/CapSense_Structure.c ****         {
1411:Generated_Source\PSoC4/CapSense_Structure.c ****         case DS_PARAM_TYPE_UINT16:
1412:Generated_Source\PSoC4/CapSense_Structure.c ****             if (0u != (pData->offset & UINT16_ALIGN_MASK))
 207              		.loc 1 1412 0
 208 00bc 6246     		mov	r2, ip
 209 00be D207     		lsls	r2, r2, #31
 210 00c0 06D4     		bmi	.L19
 211 00c2 08E0     		b	.L9
 212              	.L11:
1413:Generated_Source\PSoC4/CapSense_Structure.c ****             {
1414:Generated_Source\PSoC4/CapSense_Structure.c ****                 result = CYRET_BAD_PARAM;
1415:Generated_Source\PSoC4/CapSense_Structure.c ****             }
1416:Generated_Source\PSoC4/CapSense_Structure.c ****             break;
1417:Generated_Source\PSoC4/CapSense_Structure.c **** 
1418:Generated_Source\PSoC4/CapSense_Structure.c ****         case DS_PARAM_TYPE_UINT32:
1419:Generated_Source\PSoC4/CapSense_Structure.c ****             if (0u != (pData->offset & UINT32_ALIGN_MASK))
 213              		.loc 1 1419 0
 214 00c4 6246     		mov	r2, ip
 215 00c6 9207     		lsls	r2, r2, #30
 216 00c8 04D1     		bne	.L20
 217 00ca 04E0     		b	.L9
 218              	.L21:
1420:Generated_Source\PSoC4/CapSense_Structure.c ****             {
1421:Generated_Source\PSoC4/CapSense_Structure.c ****                 result = CYRET_BAD_PARAM;
1422:Generated_Source\PSoC4/CapSense_Structure.c ****             }
1423:Generated_Source\PSoC4/CapSense_Structure.c ****             break;
1424:Generated_Source\PSoC4/CapSense_Structure.c **** 
1425:Generated_Source\PSoC4/CapSense_Structure.c ****         case DS_PARAM_TYPE_UINT8:
1426:Generated_Source\PSoC4/CapSense_Structure.c ****             break;
1427:Generated_Source\PSoC4/CapSense_Structure.c **** 
1428:Generated_Source\PSoC4/CapSense_Structure.c ****         default:
1429:Generated_Source\PSoC4/CapSense_Structure.c ****             result = CYRET_BAD_PARAM;
 219              		.loc 1 1429 0
 220 00cc 0123     		movs	r3, #1
ARM GAS  C:\Users\YUANFA~1\AppData\Local\Temp\ccItJH9a.s 			page 30


 221              	.LVL29:
 222 00ce 02E0     		b	.L9
 223              	.LVL30:
 224              	.L19:
1414:Generated_Source\PSoC4/CapSense_Structure.c ****             }
 225              		.loc 1 1414 0
 226 00d0 0123     		movs	r3, #1
 227              	.LVL31:
 228 00d2 00E0     		b	.L9
 229              	.LVL32:
 230              	.L20:
1421:Generated_Source\PSoC4/CapSense_Structure.c ****             }
 231              		.loc 1 1421 0
 232 00d4 0123     		movs	r3, #1
 233              	.LVL33:
 234              	.L9:
1430:Generated_Source\PSoC4/CapSense_Structure.c ****             break;
1431:Generated_Source\PSoC4/CapSense_Structure.c ****         }
1432:Generated_Source\PSoC4/CapSense_Structure.c ****     }
1433:Generated_Source\PSoC4/CapSense_Structure.c **** 
1434:Generated_Source\PSoC4/CapSense_Structure.c ****     return result;
1435:Generated_Source\PSoC4/CapSense_Structure.c **** }
 235              		.loc 1 1435 0
 236 00d6 1800     		movs	r0, r3
 237 00d8 04B0     		add	sp, sp, #16
 238              	.LVL34:
 239              		@ sp needed
 240              	.LVL35:
 241 00da 04BC     		pop	{r2}
 242 00dc 9046     		mov	r8, r2
 243 00de F0BD     		pop	{r4, r5, r6, r7, pc}
 244              	.L23:
 245              		.align	2
 246              	.L22:
 247 00e0 00000000 		.word	.LANCHOR0
 248 00e4 43030000 		.word	835
 249 00e8 5F020000 		.word	607
 250              		.cfi_endproc
 251              	.LFE2:
 252              		.size	DsParseParamId, .-DsParseParamId
 253              		.section	.text.CapSense_DsInitialize,"ax",%progbits
 254              		.align	2
 255              		.global	CapSense_DsInitialize
 256              		.code	16
 257              		.thumb_func
 258              		.type	CapSense_DsInitialize, %function
 259              	CapSense_DsInitialize:
 260              	.LFB1:
1079:Generated_Source\PSoC4/CapSense_Structure.c ****     #if ((CapSense_ENABLE == CapSense_CSX_EN) || \
 261              		.loc 1 1079 0
 262              		.cfi_startproc
 263              		@ args = 0, pretend = 0, frame = 0
 264              		@ frame_needed = 0, uses_anonymous_args = 0
 265 0000 70B5     		push	{r4, r5, r6, lr}
 266              		.cfi_def_cfa_offset 16
 267              		.cfi_offset 4, -16
 268              		.cfi_offset 5, -12
ARM GAS  C:\Users\YUANFA~1\AppData\Local\Temp\ccItJH9a.s 			page 31


 269              		.cfi_offset 6, -8
 270              		.cfi_offset 14, -4
 271              	.LVL36:
1100:Generated_Source\PSoC4/CapSense_Structure.c **** 
 272              		.loc 1 1100 0
 273 0002 324C     		ldr	r4, .L29
 274 0004 D122     		movs	r2, #209
 275 0006 9200     		lsls	r2, r2, #2
 276 0008 0021     		movs	r1, #0
 277 000a 2000     		movs	r0, r4
 278 000c FFF7FEFF 		bl	memset
 279              	.LVL37:
1103:Generated_Source\PSoC4/CapSense_Structure.c ****     CapSense_dsRam.deviceId = CapSense_DEVICE_ID;
 280              		.loc 1 1103 0
 281 0010 2F4B     		ldr	r3, .L29+4
 282 0012 2380     		strh	r3, [r4]
1104:Generated_Source\PSoC4/CapSense_Structure.c ****     CapSense_dsRam.hwClock = CapSense_HW_CLOCK;
 283              		.loc 1 1104 0
 284 0014 9023     		movs	r3, #144
 285 0016 1B01     		lsls	r3, r3, #4
 286 0018 6380     		strh	r3, [r4, #2]
1105:Generated_Source\PSoC4/CapSense_Structure.c **** 
 287              		.loc 1 1105 0
 288 001a 2E4B     		ldr	r3, .L29+8
 289 001c A380     		strh	r3, [r4, #4]
1108:Generated_Source\PSoC4/CapSense_Structure.c **** 
 290              		.loc 1 1108 0
 291 001e 0A23     		movs	r3, #10
 292 0020 2386     		strh	r3, [r4, #48]
1110:Generated_Source\PSoC4/CapSense_Structure.c ****     #if (0u != CapSense_TOTAL_CSD_WIDGETS)
 293              		.loc 1 1110 0
 294 0022 0322     		movs	r2, #3
 295 0024 2C4B     		ldr	r3, .L29+12
 296 0026 E254     		strb	r2, [r4, r3]
1112:Generated_Source\PSoC4/CapSense_Structure.c ****         CapSense_dsRam.scanCsdISC = CapSense_CSD_INACTIVE_SNS_CONNECTION;
 297              		.loc 1 1112 0
 298 0028 0121     		movs	r1, #1
 299 002a 3223     		movs	r3, #50
 300 002c E154     		strb	r1, [r4, r3]
1135:Generated_Source\PSoC4/CapSense_Structure.c ****         CapSense_dsRam.selfTestConfig.fineInitTime = (uint8)CapSense_TST_FINE_INIT_TIME;
 301              		.loc 1 1135 0
 302 002e 2B4B     		ldr	r3, .L29+16
 303 0030 A386     		strh	r3, [r4, #52]
1136:Generated_Source\PSoC4/CapSense_Structure.c ****         CapSense_dsRam.selfTestConfig.startupDelay = CapSense_TST_ANALOG_STARTUP_DELAY_US;
 304              		.loc 1 1136 0
 305 0032 2B4B     		ldr	r3, .L29+20
 306 0034 0A22     		movs	r2, #10
 307 0036 E254     		strb	r2, [r4, r3]
1137:Generated_Source\PSoC4/CapSense_Structure.c **** 
 308              		.loc 1 1137 0
 309 0038 1722     		movs	r2, #23
 310 003a 2A4B     		ldr	r3, .L29+24
 311 003c E254     		strb	r2, [r4, r3]
1140:Generated_Source\PSoC4/CapSense_Structure.c ****         #endif
 312              		.loc 1 1140 0
 313 003e 153A     		subs	r2, r2, #21
 314 0040 0233     		adds	r3, r3, #2
ARM GAS  C:\Users\YUANFA~1\AppData\Local\Temp\ccItJH9a.s 			page 32


 315 0042 E254     		strb	r2, [r4, r3]
1145:Generated_Source\PSoC4/CapSense_Structure.c ****             CapSense_dsRam.selfTestConfig.snsCapSnsClkHz = CapSense_TST_SNS_CAP_SNS_CLK_HZ;
 316              		.loc 1 1145 0
 317 0044 3E32     		adds	r2, r2, #62
 318 0046 183B     		subs	r3, r3, #24
 319 0048 E252     		strh	r2, [r4, r3]
1146:Generated_Source\PSoC4/CapSense_Structure.c ****             CapSense_dsRam.selfTestConfig.snsCapResolution = CapSense_TST_SNS_CAP_RESOLUTION;
 320              		.loc 1 1146 0
 321 004a 274A     		ldr	r2, .L29+28
 322 004c 043B     		subs	r3, r3, #4
 323 004e E250     		str	r2, [r4, r3]
1147:Generated_Source\PSoC4/CapSense_Structure.c ****             CapSense_dsRam.selfTestConfig.snsCapVrefGain = CapSense_TST_SNS_CAP_VREF_GAIN ;
 324              		.loc 1 1147 0
 325 0050 0C22     		movs	r2, #12
 326 0052 1433     		adds	r3, r3, #20
 327 0054 E254     		strb	r2, [r4, r3]
1148:Generated_Source\PSoC4/CapSense_Structure.c ****             CapSense_dsRam.selfTestConfig.snsCapVrefVoltage = CapSense_TST_SNS_CAP_VREF_MV;
 328              		.loc 1 1148 0
 329 0056 1332     		adds	r2, r2, #19
 330 0058 244B     		ldr	r3, .L29+32
 331 005a E254     		strb	r2, [r4, r3]
1149:Generated_Source\PSoC4/CapSense_Structure.c ****             CapSense_dsRam.selfTestConfig.snsCapModClkDivider = CapSense_TST_MOD_CLK_DIVIDER ;
 332              		.loc 1 1149 0
 333 005c CC33     		adds	r3, r3, #204
 334 005e FF33     		adds	r3, r3, #255
 335 0060 2348     		ldr	r0, .L29+36
 336 0062 2352     		strh	r3, [r4, r0]
1150:Generated_Source\PSoC4/CapSense_Structure.c ****             CapSense_dsRam.selfTestConfig.snsCapModClkKHz = CapSense_TST_MOD_CLK_KHZ ;
 337              		.loc 1 1150 0
 338 0064 0238     		subs	r0, r0, #2
 339 0066 2152     		strh	r1, [r4, r0]
1151:Generated_Source\PSoC4/CapSense_Structure.c ****         #endif /* ((0u != CapSense_TST_SNS_CAP_EN) ||
 340              		.loc 1 1151 0
 341 0068 2248     		ldr	r0, .L29+40
 342 006a 2349     		ldr	r1, .L29+44
 343 006c 6052     		strh	r0, [r4, r1]
1171:Generated_Source\PSoC4/CapSense_Structure.c ****             CapSense_dsRam.selfTestConfig.extCapVrefVoltage = CapSense_TST_EXT_CAP_VREF_MV;
 344              		.loc 1 1171 0
 345 006e 2349     		ldr	r1, .L29+48
 346 0070 6254     		strb	r2, [r4, r1]
1172:Generated_Source\PSoC4/CapSense_Structure.c ****         #endif /* #if (0u != CapSense_TST_EXTERNAL_CAP_EN) */
 347              		.loc 1 1172 0
 348 0072 234A     		ldr	r2, .L29+52
 349 0074 A352     		strh	r3, [r4, r2]
1176:Generated_Source\PSoC4/CapSense_Structure.c ****             CapSense_dsRam.selfTestConfig.vddaModClkDivider = CapSense_TST_VDDA_MOD_CLK_DIVIDER;
 350              		.loc 1 1176 0
 351 0076 234B     		ldr	r3, .L29+56
 352 0078 0A22     		movs	r2, #10
 353 007a E254     		strb	r2, [r4, r3]
1177:Generated_Source\PSoC4/CapSense_Structure.c **** 
 354              		.loc 1 1177 0
 355 007c 023B     		subs	r3, r3, #2
 356 007e 0122     		movs	r2, #1
 357 0080 E254     		strb	r2, [r4, r3]
1179:Generated_Source\PSoC4/CapSense_Structure.c ****             CapSense_dsRam.selfTestConfig.vddaVrefVoltage = CapSense_TST_VDDA_VREF_MV;
 358              		.loc 1 1179 0
 359 0082 1222     		movs	r2, #18
ARM GAS  C:\Users\YUANFA~1\AppData\Local\Temp\ccItJH9a.s 			page 33


 360 0084 204B     		ldr	r3, .L29+60
 361 0086 E254     		strb	r2, [r4, r3]
1180:Generated_Source\PSoC4/CapSense_Structure.c ****         #endif /* #if (0u != CapSense_TST_VDDA_EN) */
 362              		.loc 1 1180 0
 363 0088 204A     		ldr	r2, .L29+64
 364 008a 053B     		subs	r3, r3, #5
 365 008c E252     		strh	r2, [r4, r3]
1186:Generated_Source\PSoC4/CapSense_Structure.c **** 
 366              		.loc 1 1186 0
 367 008e 2000     		movs	r0, r4
 368 0090 3630     		adds	r0, r0, #54
 369 0092 D122     		movs	r2, #209
 370 0094 5200     		lsls	r2, r2, #1
 371 0096 1E49     		ldr	r1, .L29+68
 372 0098 0431     		adds	r1, r1, #4
 373 009a FFF7FEFF 		bl	memcpy
 374              	.LVL38:
1096:Generated_Source\PSoC4/CapSense_Structure.c ****     #endif
 375              		.loc 1 1096 0
 376 009e 1D4C     		ldr	r4, .L29+72
 377 00a0 2100     		movs	r1, r4
 378 00a2 1031     		adds	r1, r1, #16
1203:Generated_Source\PSoC4/CapSense_Structure.c **** 
 379              		.loc 1 1203 0
 380 00a4 2434     		adds	r4, r4, #36
1205:Generated_Source\PSoC4/CapSense_Structure.c ****         {
 381              		.loc 1 1205 0
 382 00a6 1323     		movs	r3, #19
 383 00a8 0CE0     		b	.L25
 384              	.LVL39:
 385              	.L28:
1207:Generated_Source\PSoC4/CapSense_Structure.c **** 
 386              		.loc 1 1207 0
 387 00aa A268     		ldr	r2, [r4, #8]
 388              	.LVL40:
1209:Generated_Source\PSoC4/CapSense_Structure.c ****             {
 389              		.loc 1 1209 0
 390 00ac 238B     		ldrh	r3, [r4, #24]
 391              	.LVL41:
 392 00ae 04E0     		b	.L26
 393              	.LVL42:
 394              	.L27:
1211:Generated_Source\PSoC4/CapSense_Structure.c ****                 ptrIdacInit++;
 395              		.loc 1 1211 0
 396 00b0 0B78     		ldrb	r3, [r1]
 397 00b2 D372     		strb	r3, [r2, #11]
1212:Generated_Source\PSoC4/CapSense_Structure.c **** 
 398              		.loc 1 1212 0
 399 00b4 0131     		adds	r1, r1, #1
 400              	.LVL43:
1222:Generated_Source\PSoC4/CapSense_Structure.c ****             }
 401              		.loc 1 1222 0
 402 00b6 0C32     		adds	r2, r2, #12
 403              	.LVL44:
1209:Generated_Source\PSoC4/CapSense_Structure.c ****             {
 404              		.loc 1 1209 0
 405 00b8 0300     		movs	r3, r0
ARM GAS  C:\Users\YUANFA~1\AppData\Local\Temp\ccItJH9a.s 			page 34


 406              	.LVL45:
 407              	.L26:
1209:Generated_Source\PSoC4/CapSense_Structure.c ****             {
 408              		.loc 1 1209 0 is_stmt 0 discriminator 1
 409 00ba 581E     		subs	r0, r3, #1
 410              	.LVL46:
 411 00bc 002B     		cmp	r3, #0
 412 00be F7D1     		bne	.L27
1225:Generated_Source\PSoC4/CapSense_Structure.c ****         }
 413              		.loc 1 1225 0 is_stmt 1
 414 00c0 2034     		adds	r4, r4, #32
 415              	.LVL47:
1205:Generated_Source\PSoC4/CapSense_Structure.c ****         {
 416              		.loc 1 1205 0
 417 00c2 2B00     		movs	r3, r5
 418              	.LVL48:
 419              	.L25:
1205:Generated_Source\PSoC4/CapSense_Structure.c ****         {
 420              		.loc 1 1205 0 is_stmt 0 discriminator 1
 421 00c4 5D1E     		subs	r5, r3, #1
 422              	.LVL49:
 423 00c6 002B     		cmp	r3, #0
 424 00c8 EFD1     		bne	.L28
1256:Generated_Source\PSoC4/CapSense_Structure.c **** 
 425              		.loc 1 1256 0 is_stmt 1
 426              		@ sp needed
 427              	.LVL50:
 428              	.LVL51:
 429 00ca 70BD     		pop	{r4, r5, r6, pc}
 430              	.L30:
 431              		.align	2
 432              	.L29:
 433 00cc 00000000 		.word	CapSense_dsRam
 434 00d0 5C170000 		.word	5980
 435 00d4 B80B0000 		.word	3000
 436 00d8 43030000 		.word	835
 437 00dc BE84FFFF 		.word	-31554
 438 00e0 EB020000 		.word	747
 439 00e4 EA020000 		.word	746
 440 00e8 D8B80500 		.word	375000
 441 00ec E5020000 		.word	741
 442 00f0 DA020000 		.word	730
 443 00f4 C05D0000 		.word	24000
 444 00f8 D6020000 		.word	726
 445 00fc E9020000 		.word	745
 446 0100 DE020000 		.word	734
 447 0104 E2020000 		.word	738
 448 0108 E1020000 		.word	737
 449 010c E5070000 		.word	2021
 450 0110 80020000 		.word	.LANCHOR1
 451 0114 00000000 		.word	.LANCHOR0
 452              		.cfi_endproc
 453              	.LFE1:
 454              		.size	CapSense_DsInitialize, .-CapSense_DsInitialize
 455              		.section	.text.CapSense_GetParam,"ax",%progbits
 456              		.align	2
 457              		.global	CapSense_GetParam
ARM GAS  C:\Users\YUANFA~1\AppData\Local\Temp\ccItJH9a.s 			page 35


 458              		.code	16
 459              		.thumb_func
 460              		.type	CapSense_GetParam, %function
 461              	CapSense_GetParam:
 462              	.LFB3:
1436:Generated_Source\PSoC4/CapSense_Structure.c **** 
1437:Generated_Source\PSoC4/CapSense_Structure.c **** /*******************************************************************************
1438:Generated_Source\PSoC4/CapSense_Structure.c **** * Function Name: CapSense_GetParam
1439:Generated_Source\PSoC4/CapSense_Structure.c **** ****************************************************************************//**
1440:Generated_Source\PSoC4/CapSense_Structure.c **** *
1441:Generated_Source\PSoC4/CapSense_Structure.c **** * \brief
1442:Generated_Source\PSoC4/CapSense_Structure.c **** *  Gets the specified parameter value from the \ref group_structures.
1443:Generated_Source\PSoC4/CapSense_Structure.c **** *
1444:Generated_Source\PSoC4/CapSense_Structure.c **** * \details
1445:Generated_Source\PSoC4/CapSense_Structure.c **** *  This function gets the value of the specified parameter by the paramId
1446:Generated_Source\PSoC4/CapSense_Structure.c **** *  argument. The paramId for each register is available in the
1447:Generated_Source\PSoC4/CapSense_Structure.c **** *  CapSense RegisterMap header file as
1448:Generated_Source\PSoC4/CapSense_Structure.c **** *  CapSense_<ParameterName>_PARAM_ID. The paramId is a special
1449:Generated_Source\PSoC4/CapSense_Structure.c **** *  enumerated value generated by the customizer. The format of paramId is as
1450:Generated_Source\PSoC4/CapSense_Structure.c **** *  follows:
1451:Generated_Source\PSoC4/CapSense_Structure.c **** *    1. [ byte 3 byte 2 byte 1 byte 0 ]
1452:Generated_Source\PSoC4/CapSense_Structure.c **** *    2. [ TTWFCCCC UIIIIIII MMMMMMMM LLLLLLLL ]
1453:Generated_Source\PSoC4/CapSense_Structure.c **** *    3. T - encodes the parameter type:
1454:Generated_Source\PSoC4/CapSense_Structure.c **** *      - 01b: uint8
1455:Generated_Source\PSoC4/CapSense_Structure.c **** *      - 10b: uint16
1456:Generated_Source\PSoC4/CapSense_Structure.c **** *      - 11b: uint32
1457:Generated_Source\PSoC4/CapSense_Structure.c **** *    4. W - indicates whether the parameter is writable:
1458:Generated_Source\PSoC4/CapSense_Structure.c **** *      - 0: ReadOnly
1459:Generated_Source\PSoC4/CapSense_Structure.c **** *      - 1: Read/Write
1460:Generated_Source\PSoC4/CapSense_Structure.c **** *    5. C - 4 bit CRC (X^3 + 1) of the whole paramId word, the C bits are
1461:Generated_Source\PSoC4/CapSense_Structure.c **** *       filled with 0s when the CRC is calculated.
1462:Generated_Source\PSoC4/CapSense_Structure.c **** *    6. U - indicates if the parameter affects the RAM Widget Object CRC.
1463:Generated_Source\PSoC4/CapSense_Structure.c **** *    7. I - specifies that the widgetId parameter belongs to
1464:Generated_Source\PSoC4/CapSense_Structure.c **** *    8. M,L - the parameter offset MSB and LSB accordingly in:
1465:Generated_Source\PSoC4/CapSense_Structure.c **** *      - Flash Data Structure if W bit is 0.
1466:Generated_Source\PSoC4/CapSense_Structure.c **** *      - RAM Data Structure if W bit is 1.
1467:Generated_Source\PSoC4/CapSense_Structure.c **** *
1468:Generated_Source\PSoC4/CapSense_Structure.c **** *  Refer to the \ref group_structures section for details of the data structure
1469:Generated_Source\PSoC4/CapSense_Structure.c **** *  organization and examples of its register access.
1470:Generated_Source\PSoC4/CapSense_Structure.c **** *
1471:Generated_Source\PSoC4/CapSense_Structure.c **** * \param paramId
1472:Generated_Source\PSoC4/CapSense_Structure.c **** *  Specifies the ID of parameter to get its value.
1473:Generated_Source\PSoC4/CapSense_Structure.c **** *  A macro for the parameter ID can be found in the CapSense RegisterMap header
1474:Generated_Source\PSoC4/CapSense_Structure.c **** *  file defined as CapSense_<ParameterName>_PARAM_ID.
1475:Generated_Source\PSoC4/CapSense_Structure.c **** *
1476:Generated_Source\PSoC4/CapSense_Structure.c **** * \param value
1477:Generated_Source\PSoC4/CapSense_Structure.c **** *  The pointer to a variable to be updated with the obtained value.
1478:Generated_Source\PSoC4/CapSense_Structure.c **** *
1479:Generated_Source\PSoC4/CapSense_Structure.c **** * \return
1480:Generated_Source\PSoC4/CapSense_Structure.c **** *  Returns the status of the operation:
1481:Generated_Source\PSoC4/CapSense_Structure.c **** *    - CYRET_SUCCESS - The operation is successfully completed.
1482:Generated_Source\PSoC4/CapSense_Structure.c **** *    - CYRET_BAD_PARAM - The input parameter is invalid.
1483:Generated_Source\PSoC4/CapSense_Structure.c **** *
1484:Generated_Source\PSoC4/CapSense_Structure.c **** *******************************************************************************/
1485:Generated_Source\PSoC4/CapSense_Structure.c **** cystatus CapSense_GetParam(uint32 paramId, uint32 *value)
1486:Generated_Source\PSoC4/CapSense_Structure.c **** {
 463              		.loc 1 1486 0
ARM GAS  C:\Users\YUANFA~1\AppData\Local\Temp\ccItJH9a.s 			page 36


 464              		.cfi_startproc
 465              		@ args = 0, pretend = 0, frame = 8
 466              		@ frame_needed = 0, uses_anonymous_args = 0
 467              	.LVL52:
 468 0000 30B5     		push	{r4, r5, lr}
 469              		.cfi_def_cfa_offset 12
 470              		.cfi_offset 4, -12
 471              		.cfi_offset 5, -8
 472              		.cfi_offset 14, -4
 473 0002 83B0     		sub	sp, sp, #12
 474              		.cfi_def_cfa_offset 24
 475 0004 0D00     		movs	r5, r1
1487:Generated_Source\PSoC4/CapSense_Structure.c ****     PARAM_ID_STRUCT pData;
1488:Generated_Source\PSoC4/CapSense_Structure.c ****     cystatus result;
1489:Generated_Source\PSoC4/CapSense_Structure.c **** 
1490:Generated_Source\PSoC4/CapSense_Structure.c ****     union
1491:Generated_Source\PSoC4/CapSense_Structure.c ****     {
1492:Generated_Source\PSoC4/CapSense_Structure.c ****         volatile void   const * ptr;
1493:Generated_Source\PSoC4/CapSense_Structure.c ****         volatile uint8  const * ptrUint8;
1494:Generated_Source\PSoC4/CapSense_Structure.c ****         volatile uint16 const * ptrUint16;
1495:Generated_Source\PSoC4/CapSense_Structure.c ****         volatile uint32 const * ptrUint32;
1496:Generated_Source\PSoC4/CapSense_Structure.c ****     } ptrData;
1497:Generated_Source\PSoC4/CapSense_Structure.c **** 
1498:Generated_Source\PSoC4/CapSense_Structure.c ****     result = DsParseParamId(paramId, &pData);
 476              		.loc 1 1498 0
 477 0006 6946     		mov	r1, sp
 478              	.LVL53:
 479 0008 FFF7FEFF 		bl	DsParseParamId
 480              	.LVL54:
 481 000c 041E     		subs	r4, r0, #0
 482              	.LVL55:
1499:Generated_Source\PSoC4/CapSense_Structure.c **** 
1500:Generated_Source\PSoC4/CapSense_Structure.c ****     /* Parse and validate paramId */
1501:Generated_Source\PSoC4/CapSense_Structure.c ****     if (CYRET_SUCCESS == result)
 483              		.loc 1 1501 0
 484 000e 1FD1     		bne	.L32
1502:Generated_Source\PSoC4/CapSense_Structure.c ****     {
1503:Generated_Source\PSoC4/CapSense_Structure.c ****         /* Get base address of parameter */
1504:Generated_Source\PSoC4/CapSense_Structure.c ****         if (0u == pData.flash)
 485              		.loc 1 1504 0
 486 0010 6B46     		mov	r3, sp
 487 0012 5B79     		ldrb	r3, [r3, #5]
 488 0014 002B     		cmp	r3, #0
 489 0016 01D1     		bne	.L33
1505:Generated_Source\PSoC4/CapSense_Structure.c ****         {
1506:Generated_Source\PSoC4/CapSense_Structure.c ****             ptrData.ptr = &CapSense_dsRam;
 490              		.loc 1 1506 0
 491 0018 0F4A     		ldr	r2, .L38
 492              	.LVL56:
 493 001a 02E0     		b	.L34
 494              	.L33:
1507:Generated_Source\PSoC4/CapSense_Structure.c ****         }
1508:Generated_Source\PSoC4/CapSense_Structure.c ****         else
1509:Generated_Source\PSoC4/CapSense_Structure.c ****         {
1510:Generated_Source\PSoC4/CapSense_Structure.c ****             ptrData.ptr = &CapSense_dsFlash;
 495              		.loc 1 1510 0
 496 001c 0F4B     		ldr	r3, .L38+4
ARM GAS  C:\Users\YUANFA~1\AppData\Local\Temp\ccItJH9a.s 			page 37


 497 001e 2433     		adds	r3, r3, #36
 498 0020 1A00     		movs	r2, r3
 499              	.L34:
1511:Generated_Source\PSoC4/CapSense_Structure.c ****         }
1512:Generated_Source\PSoC4/CapSense_Structure.c **** 
1513:Generated_Source\PSoC4/CapSense_Structure.c ****         /* Add offset to base address */
1514:Generated_Source\PSoC4/CapSense_Structure.c ****         ptrData.ptrUint8 += pData.offset;
 500              		.loc 1 1514 0
 501 0022 6B46     		mov	r3, sp
 502 0024 1B88     		ldrh	r3, [r3]
 503              	.LVL57:
 504 0026 D318     		adds	r3, r2, r3
1515:Generated_Source\PSoC4/CapSense_Structure.c **** 
1516:Generated_Source\PSoC4/CapSense_Structure.c ****         /* Read data */
1517:Generated_Source\PSoC4/CapSense_Structure.c ****         if (DS_PARAM_TYPE_UINT8 == pData.type)
 505              		.loc 1 1517 0
 506 0028 6A46     		mov	r2, sp
 507              	.LVL58:
 508 002a D279     		ldrb	r2, [r2, #7]
 509 002c 012A     		cmp	r2, #1
 510 002e 02D1     		bne	.L35
1518:Generated_Source\PSoC4/CapSense_Structure.c ****         {
1519:Generated_Source\PSoC4/CapSense_Structure.c ****             *value = (uint32) (*ptrData.ptrUint8);
 511              		.loc 1 1519 0
 512 0030 1B78     		ldrb	r3, [r3]
 513 0032 2B60     		str	r3, [r5]
 514 0034 0CE0     		b	.L32
 515              	.L35:
1520:Generated_Source\PSoC4/CapSense_Structure.c ****         }
1521:Generated_Source\PSoC4/CapSense_Structure.c ****         else if (DS_PARAM_TYPE_UINT16 == pData.type)
 516              		.loc 1 1521 0
 517 0036 022A     		cmp	r2, #2
 518 0038 02D1     		bne	.L36
1522:Generated_Source\PSoC4/CapSense_Structure.c ****         {
1523:Generated_Source\PSoC4/CapSense_Structure.c ****             *value = (uint32) (*ptrData.ptrUint16);
 519              		.loc 1 1523 0
 520 003a 1B88     		ldrh	r3, [r3]
 521 003c 2B60     		str	r3, [r5]
 522 003e 07E0     		b	.L32
 523              	.L36:
1524:Generated_Source\PSoC4/CapSense_Structure.c ****         }
1525:Generated_Source\PSoC4/CapSense_Structure.c ****         else if (DS_PARAM_TYPE_UINT32 == pData.type)
 524              		.loc 1 1525 0
 525 0040 032A     		cmp	r2, #3
 526 0042 02D1     		bne	.L37
1526:Generated_Source\PSoC4/CapSense_Structure.c ****         {
1527:Generated_Source\PSoC4/CapSense_Structure.c ****             *value = *ptrData.ptrUint32;
 527              		.loc 1 1527 0
 528 0044 1B68     		ldr	r3, [r3]
 529 0046 2B60     		str	r3, [r5]
 530 0048 02E0     		b	.L32
 531              	.L37:
1528:Generated_Source\PSoC4/CapSense_Structure.c ****         }
1529:Generated_Source\PSoC4/CapSense_Structure.c ****         else
1530:Generated_Source\PSoC4/CapSense_Structure.c ****         {
1531:Generated_Source\PSoC4/CapSense_Structure.c ****             /* Parameter comes here already validated. */
1532:Generated_Source\PSoC4/CapSense_Structure.c ****             CYASSERT(0u);
ARM GAS  C:\Users\YUANFA~1\AppData\Local\Temp\ccItJH9a.s 			page 38


 532              		.loc 1 1532 0 discriminator 1
 533 004a 0020     		movs	r0, #0
 534              	.LVL59:
 535 004c FFF7FEFF 		bl	CyHalt
 536              	.LVL60:
 537              	.L32:
1533:Generated_Source\PSoC4/CapSense_Structure.c ****         }
1534:Generated_Source\PSoC4/CapSense_Structure.c ****     }
1535:Generated_Source\PSoC4/CapSense_Structure.c **** 
1536:Generated_Source\PSoC4/CapSense_Structure.c ****     return result;
1537:Generated_Source\PSoC4/CapSense_Structure.c **** }
 538              		.loc 1 1537 0
 539 0050 2000     		movs	r0, r4
 540 0052 03B0     		add	sp, sp, #12
 541              		@ sp needed
 542              	.LVL61:
 543              	.LVL62:
 544 0054 30BD     		pop	{r4, r5, pc}
 545              	.L39:
 546 0056 C046     		.align	2
 547              	.L38:
 548 0058 00000000 		.word	CapSense_dsRam
 549 005c 00000000 		.word	.LANCHOR0
 550              		.cfi_endproc
 551              	.LFE3:
 552              		.size	CapSense_GetParam, .-CapSense_GetParam
 553              		.section	.text.CapSense_SetParam,"ax",%progbits
 554              		.align	2
 555              		.global	CapSense_SetParam
 556              		.code	16
 557              		.thumb_func
 558              		.type	CapSense_SetParam, %function
 559              	CapSense_SetParam:
 560              	.LFB4:
1538:Generated_Source\PSoC4/CapSense_Structure.c **** 
1539:Generated_Source\PSoC4/CapSense_Structure.c **** 
1540:Generated_Source\PSoC4/CapSense_Structure.c **** /*******************************************************************************
1541:Generated_Source\PSoC4/CapSense_Structure.c **** * Function Name: CapSense_SetParam
1542:Generated_Source\PSoC4/CapSense_Structure.c **** ****************************************************************************//**
1543:Generated_Source\PSoC4/CapSense_Structure.c **** *
1544:Generated_Source\PSoC4/CapSense_Structure.c **** * \brief
1545:Generated_Source\PSoC4/CapSense_Structure.c **** *  Sets a new value for the specified parameter in the \ref group_structures.
1546:Generated_Source\PSoC4/CapSense_Structure.c **** *
1547:Generated_Source\PSoC4/CapSense_Structure.c **** * \details
1548:Generated_Source\PSoC4/CapSense_Structure.c **** *  This function sets the value of the specified parameter by the paramId
1549:Generated_Source\PSoC4/CapSense_Structure.c **** *  argument. The paramId for each register is available in the
1550:Generated_Source\PSoC4/CapSense_Structure.c **** *  CapSense RegisterMap header file as
1551:Generated_Source\PSoC4/CapSense_Structure.c **** *  CapSense_<ParameterName>_PARAM_ID. The paramId is a special
1552:Generated_Source\PSoC4/CapSense_Structure.c **** *  enumerated value generated by the customizer. The format of paramId is as
1553:Generated_Source\PSoC4/CapSense_Structure.c **** *  follows:
1554:Generated_Source\PSoC4/CapSense_Structure.c **** *    1. [ byte 3 byte 2 byte 1 byte 0 ]
1555:Generated_Source\PSoC4/CapSense_Structure.c **** *    2. [ TTWFCCCC UIIIIIII MMMMMMMM LLLLLLLL ]
1556:Generated_Source\PSoC4/CapSense_Structure.c **** *    3. T - encodes the parameter type:
1557:Generated_Source\PSoC4/CapSense_Structure.c **** *      - 01b: uint8
1558:Generated_Source\PSoC4/CapSense_Structure.c **** *      - 10b: uint16
1559:Generated_Source\PSoC4/CapSense_Structure.c **** *      - 11b: uint32
1560:Generated_Source\PSoC4/CapSense_Structure.c **** *    4. W - indicates whether the parameter is writable:
ARM GAS  C:\Users\YUANFA~1\AppData\Local\Temp\ccItJH9a.s 			page 39


1561:Generated_Source\PSoC4/CapSense_Structure.c **** *      - 0: ReadOnly
1562:Generated_Source\PSoC4/CapSense_Structure.c **** *      - 1: Read/Write
1563:Generated_Source\PSoC4/CapSense_Structure.c **** *    5. C - 4 bit CRC (X^3 + 1) of the whole paramId word, the C bits are
1564:Generated_Source\PSoC4/CapSense_Structure.c **** *       filled with 0s when the CRC is calculated.
1565:Generated_Source\PSoC4/CapSense_Structure.c **** *    6. U - indicates if the parameter affects the RAM Widget Object CRC.
1566:Generated_Source\PSoC4/CapSense_Structure.c **** *    7. I - specifies that the widgetId parameter belongs to
1567:Generated_Source\PSoC4/CapSense_Structure.c **** *    8. M,L - the parameter offset MSB and LSB accordingly in:
1568:Generated_Source\PSoC4/CapSense_Structure.c **** *      - Flash Data Structure if W bit is 0.
1569:Generated_Source\PSoC4/CapSense_Structure.c **** *      - RAM Data Structure if W bit is 1.
1570:Generated_Source\PSoC4/CapSense_Structure.c **** *
1571:Generated_Source\PSoC4/CapSense_Structure.c **** *  Refer to the \ref group_structures section for details of the data structure
1572:Generated_Source\PSoC4/CapSense_Structure.c **** *  organization and examples of its register access.
1573:Generated_Source\PSoC4/CapSense_Structure.c **** *
1574:Generated_Source\PSoC4/CapSense_Structure.c **** *  This function writes specified value into the desired register without
1575:Generated_Source\PSoC4/CapSense_Structure.c **** *  other registers update. It is application layer responsibility to keep all
1576:Generated_Source\PSoC4/CapSense_Structure.c **** *  the data structure registers aligned. Repeated call of
1577:Generated_Source\PSoC4/CapSense_Structure.c **** *  CapSense_Start() function helps aligning dependent register values.
1578:Generated_Source\PSoC4/CapSense_Structure.c **** *
1579:Generated_Source\PSoC4/CapSense_Structure.c **** * \param paramId
1580:Generated_Source\PSoC4/CapSense_Structure.c **** *  Specifies the ID of parameter to set its value.
1581:Generated_Source\PSoC4/CapSense_Structure.c **** *  A macro for the parameter ID can be found in the CapSense RegisterMap header
1582:Generated_Source\PSoC4/CapSense_Structure.c **** *  file defined as CapSense_<ParameterName>_PARAM_ID.
1583:Generated_Source\PSoC4/CapSense_Structure.c **** 
1584:Generated_Source\PSoC4/CapSense_Structure.c **** * \param value
1585:Generated_Source\PSoC4/CapSense_Structure.c **** *  Specifies the new parameter's value.
1586:Generated_Source\PSoC4/CapSense_Structure.c **** *
1587:Generated_Source\PSoC4/CapSense_Structure.c **** * \return
1588:Generated_Source\PSoC4/CapSense_Structure.c **** *  Returns the status of the operation:
1589:Generated_Source\PSoC4/CapSense_Structure.c **** *    - CYRET_SUCCESS - The operation is successfully completed.
1590:Generated_Source\PSoC4/CapSense_Structure.c **** *    - CYRET_BAD_PARAM - The input parameter is invalid.
1591:Generated_Source\PSoC4/CapSense_Structure.c **** *
1592:Generated_Source\PSoC4/CapSense_Structure.c **** *******************************************************************************/
1593:Generated_Source\PSoC4/CapSense_Structure.c **** cystatus CapSense_SetParam(uint32 paramId, uint32 value)
1594:Generated_Source\PSoC4/CapSense_Structure.c **** {
 561              		.loc 1 1594 0
 562              		.cfi_startproc
 563              		@ args = 0, pretend = 0, frame = 8
 564              		@ frame_needed = 0, uses_anonymous_args = 0
 565              	.LVL63:
 566 0000 70B5     		push	{r4, r5, r6, lr}
 567              		.cfi_def_cfa_offset 16
 568              		.cfi_offset 4, -16
 569              		.cfi_offset 5, -12
 570              		.cfi_offset 6, -8
 571              		.cfi_offset 14, -4
 572 0002 82B0     		sub	sp, sp, #8
 573              		.cfi_def_cfa_offset 24
 574 0004 0E00     		movs	r6, r1
1595:Generated_Source\PSoC4/CapSense_Structure.c ****     cystatus result;
1596:Generated_Source\PSoC4/CapSense_Structure.c ****     PARAM_ID_STRUCT pData;
1597:Generated_Source\PSoC4/CapSense_Structure.c **** 
1598:Generated_Source\PSoC4/CapSense_Structure.c ****     union
1599:Generated_Source\PSoC4/CapSense_Structure.c ****     {
1600:Generated_Source\PSoC4/CapSense_Structure.c ****         volatile void   * ptr;
1601:Generated_Source\PSoC4/CapSense_Structure.c ****         volatile uint8  * ptrUint8;
1602:Generated_Source\PSoC4/CapSense_Structure.c ****         volatile uint16 * ptrUint16;
1603:Generated_Source\PSoC4/CapSense_Structure.c ****         volatile uint32 * ptrUint32;
ARM GAS  C:\Users\YUANFA~1\AppData\Local\Temp\ccItJH9a.s 			page 40


1604:Generated_Source\PSoC4/CapSense_Structure.c ****     } ptrData;
1605:Generated_Source\PSoC4/CapSense_Structure.c **** 
1606:Generated_Source\PSoC4/CapSense_Structure.c ****     result = DsParseParamId(paramId, &pData);
 575              		.loc 1 1606 0
 576 0006 6946     		mov	r1, sp
 577              	.LVL64:
 578 0008 FFF7FEFF 		bl	DsParseParamId
 579              	.LVL65:
 580 000c 041E     		subs	r4, r0, #0
 581              	.LVL66:
1607:Generated_Source\PSoC4/CapSense_Structure.c **** 
1608:Generated_Source\PSoC4/CapSense_Structure.c ****     /* verify if parameter is writable */
1609:Generated_Source\PSoC4/CapSense_Structure.c ****     if (CYRET_SUCCESS == result)
 582              		.loc 1 1609 0
 583 000e 04D1     		bne	.L41
1610:Generated_Source\PSoC4/CapSense_Structure.c ****     {
1611:Generated_Source\PSoC4/CapSense_Structure.c ****         if (0u == pData.rw)
 584              		.loc 1 1611 0
 585 0010 6B46     		mov	r3, sp
 586 0012 9B79     		ldrb	r3, [r3, #6]
 587 0014 002B     		cmp	r3, #0
 588 0016 00D1     		bne	.L41
1612:Generated_Source\PSoC4/CapSense_Structure.c ****         {
1613:Generated_Source\PSoC4/CapSense_Structure.c ****             result = CYRET_BAD_PARAM;
 589              		.loc 1 1613 0
 590 0018 0134     		adds	r4, r4, #1
 591              	.L41:
 592              	.LVL67:
1614:Generated_Source\PSoC4/CapSense_Structure.c ****         }
1615:Generated_Source\PSoC4/CapSense_Structure.c ****     }
1616:Generated_Source\PSoC4/CapSense_Structure.c **** 
1617:Generated_Source\PSoC4/CapSense_Structure.c ****     /* Parse and validate paramId */
1618:Generated_Source\PSoC4/CapSense_Structure.c ****     if (CYRET_SUCCESS == result)
 593              		.loc 1 1618 0
 594 001a 002C     		cmp	r4, #0
 595 001c 27D1     		bne	.L42
1619:Generated_Source\PSoC4/CapSense_Structure.c ****     {
1620:Generated_Source\PSoC4/CapSense_Structure.c ****         /* Get base address of parameter */
1621:Generated_Source\PSoC4/CapSense_Structure.c ****         ptrData.ptr = &CapSense_dsRam;
1622:Generated_Source\PSoC4/CapSense_Structure.c **** 
1623:Generated_Source\PSoC4/CapSense_Structure.c ****         /* Add offset to base address */
1624:Generated_Source\PSoC4/CapSense_Structure.c ****         ptrData.ptrUint8 += pData.offset;
 596              		.loc 1 1624 0
 597 001e 6B46     		mov	r3, sp
 598 0020 1D88     		ldrh	r5, [r3]
 599 0022 144B     		ldr	r3, .L49
 600 0024 ED18     		adds	r5, r5, r3
1625:Generated_Source\PSoC4/CapSense_Structure.c **** 
1626:Generated_Source\PSoC4/CapSense_Structure.c ****         /* Write data */
1627:Generated_Source\PSoC4/CapSense_Structure.c ****         if (DS_PARAM_TYPE_UINT8 == pData.type)
 601              		.loc 1 1627 0
 602 0026 6B46     		mov	r3, sp
 603 0028 DB79     		ldrb	r3, [r3, #7]
 604 002a 012B     		cmp	r3, #1
 605 002c 02D1     		bne	.L43
1628:Generated_Source\PSoC4/CapSense_Structure.c ****         {
1629:Generated_Source\PSoC4/CapSense_Structure.c ****             *ptrData.ptrUint8 = LO8(value);
ARM GAS  C:\Users\YUANFA~1\AppData\Local\Temp\ccItJH9a.s 			page 41


 606              		.loc 1 1629 0
 607 002e F6B2     		uxtb	r6, r6
 608              	.LVL68:
 609 0030 2E70     		strb	r6, [r5]
 610 0032 0BE0     		b	.L44
 611              	.LVL69:
 612              	.L43:
1630:Generated_Source\PSoC4/CapSense_Structure.c ****         }
1631:Generated_Source\PSoC4/CapSense_Structure.c ****         else if (DS_PARAM_TYPE_UINT16 == pData.type)
 613              		.loc 1 1631 0
 614 0034 022B     		cmp	r3, #2
 615 0036 02D1     		bne	.L45
1632:Generated_Source\PSoC4/CapSense_Structure.c ****         {
1633:Generated_Source\PSoC4/CapSense_Structure.c ****             *ptrData.ptrUint16 = LO16(value);
 616              		.loc 1 1633 0
 617 0038 B6B2     		uxth	r6, r6
 618              	.LVL70:
 619 003a 2E80     		strh	r6, [r5]
 620 003c 06E0     		b	.L44
 621              	.LVL71:
 622              	.L45:
1634:Generated_Source\PSoC4/CapSense_Structure.c ****         }
1635:Generated_Source\PSoC4/CapSense_Structure.c ****         else if (DS_PARAM_TYPE_UINT32 == pData.type)
 623              		.loc 1 1635 0
 624 003e 032B     		cmp	r3, #3
 625 0040 01D1     		bne	.L46
1636:Generated_Source\PSoC4/CapSense_Structure.c ****         {
1637:Generated_Source\PSoC4/CapSense_Structure.c ****             *ptrData.ptrUint32 = value;
 626              		.loc 1 1637 0
 627 0042 2E60     		str	r6, [r5]
 628 0044 02E0     		b	.L44
 629              	.L46:
1638:Generated_Source\PSoC4/CapSense_Structure.c ****         }
1639:Generated_Source\PSoC4/CapSense_Structure.c ****         else
1640:Generated_Source\PSoC4/CapSense_Structure.c ****         {
1641:Generated_Source\PSoC4/CapSense_Structure.c ****             /* Parameter comes here already validated. */
1642:Generated_Source\PSoC4/CapSense_Structure.c ****             CYASSERT(0u);
 630              		.loc 1 1642 0 discriminator 1
 631 0046 0020     		movs	r0, #0
 632 0048 FFF7FEFF 		bl	CyHalt
 633              	.LVL72:
 634              	.L44:
1643:Generated_Source\PSoC4/CapSense_Structure.c ****         }
1644:Generated_Source\PSoC4/CapSense_Structure.c **** 
1645:Generated_Source\PSoC4/CapSense_Structure.c ****         #if (CapSense_ENABLE == (CapSense_TST_WDGT_CRC_EN || CapSense_TST_GLOBAL_CRC_EN))
1646:Generated_Source\PSoC4/CapSense_Structure.c ****             /* Update widget or global CRC if self-test is enabled and parameter affects it */
1647:Generated_Source\PSoC4/CapSense_Structure.c ****             if (0u != pData.affectsCrc)
 635              		.loc 1 1647 0
 636 004c 6B46     		mov	r3, sp
 637 004e DB78     		ldrb	r3, [r3, #3]
 638 0050 002B     		cmp	r3, #0
 639 0052 0CD0     		beq	.L42
1648:Generated_Source\PSoC4/CapSense_Structure.c ****             {
1649:Generated_Source\PSoC4/CapSense_Structure.c ****                 if ((ptrData.ptrUint16 >= &CapSense_dsRam.csd0Config) &&
 640              		.loc 1 1649 0
 641 0054 084B     		ldr	r3, .L49+4
 642 0056 9D42     		cmp	r5, r3
ARM GAS  C:\Users\YUANFA~1\AppData\Local\Temp\ccItJH9a.s 			page 42


 643 0058 05D3     		bcc	.L47
 644              		.loc 1 1649 0 is_stmt 0 discriminator 1
 645 005a 084B     		ldr	r3, .L49+8
 646 005c 9D42     		cmp	r5, r3
 647 005e 02D2     		bcs	.L47
1650:Generated_Source\PSoC4/CapSense_Structure.c ****                     (ptrData.ptrUint16 <  &CapSense_dsRam.glbCrc))
1651:Generated_Source\PSoC4/CapSense_Structure.c ****                 {
1652:Generated_Source\PSoC4/CapSense_Structure.c **** 
1653:Generated_Source\PSoC4/CapSense_Structure.c ****                     #if (CapSense_ENABLE == CapSense_TST_GLOBAL_CRC_EN)
1654:Generated_Source\PSoC4/CapSense_Structure.c ****                         CapSense_DsUpdateGlobalCrc();
 648              		.loc 1 1654 0 is_stmt 1
 649 0060 FFF7FEFF 		bl	CapSense_DsUpdateGlobalCrc
 650              	.LVL73:
 651 0064 03E0     		b	.L42
 652              	.L47:
1655:Generated_Source\PSoC4/CapSense_Structure.c ****                     #endif /* (CapSense_ENABLE == CapSense_TST_GLOBAL_CRC_EN) */
1656:Generated_Source\PSoC4/CapSense_Structure.c **** 
1657:Generated_Source\PSoC4/CapSense_Structure.c ****                 }
1658:Generated_Source\PSoC4/CapSense_Structure.c ****                 else
1659:Generated_Source\PSoC4/CapSense_Structure.c ****                 {
1660:Generated_Source\PSoC4/CapSense_Structure.c ****                     #if (CapSense_ENABLE == CapSense_TST_WDGT_CRC_EN)
1661:Generated_Source\PSoC4/CapSense_Structure.c ****                         CapSense_DsUpdateWidgetCrc((uint32)pData.widgetId);
 653              		.loc 1 1661 0
 654 0066 6B46     		mov	r3, sp
 655 0068 9878     		ldrb	r0, [r3, #2]
 656 006a FFF7FEFF 		bl	CapSense_DsUpdateWidgetCrc
 657              	.LVL74:
 658              	.L42:
1662:Generated_Source\PSoC4/CapSense_Structure.c ****                     #endif /* (CapSense_ENABLE == CapSense_TST_WDGT_CRC_EN) */
1663:Generated_Source\PSoC4/CapSense_Structure.c ****                 }
1664:Generated_Source\PSoC4/CapSense_Structure.c ****             }
1665:Generated_Source\PSoC4/CapSense_Structure.c ****         #endif /* (CapSense_ENABLE == (CapSense_TST_WDGT_CRC_EN || CapSense_TST_GLOBAL_CRC_EN)) */
1666:Generated_Source\PSoC4/CapSense_Structure.c ****     }
1667:Generated_Source\PSoC4/CapSense_Structure.c **** 
1668:Generated_Source\PSoC4/CapSense_Structure.c ****     return result;
1669:Generated_Source\PSoC4/CapSense_Structure.c **** }
 659              		.loc 1 1669 0
 660 006e 2000     		movs	r0, r4
 661 0070 02B0     		add	sp, sp, #8
 662              		@ sp needed
 663              	.LVL75:
 664 0072 70BD     		pop	{r4, r5, r6, pc}
 665              	.L50:
 666              		.align	2
 667              	.L49:
 668 0074 00000000 		.word	CapSense_dsRam
 669 0078 30000000 		.word	CapSense_dsRam+48
 670 007c 34000000 		.word	CapSense_dsRam+52
 671              		.cfi_endproc
 672              	.LFE4:
 673              		.size	CapSense_SetParam, .-CapSense_SetParam
 674              		.section	.text.CapSense_IsAnyWidgetActive,"ax",%progbits
 675              		.align	2
 676              		.global	CapSense_IsAnyWidgetActive
 677              		.code	16
 678              		.thumb_func
 679              		.type	CapSense_IsAnyWidgetActive, %function
ARM GAS  C:\Users\YUANFA~1\AppData\Local\Temp\ccItJH9a.s 			page 43


 680              	CapSense_IsAnyWidgetActive:
 681              	.LFB5:
1670:Generated_Source\PSoC4/CapSense_Structure.c **** 
1671:Generated_Source\PSoC4/CapSense_Structure.c **** /*******************************************************************************
1672:Generated_Source\PSoC4/CapSense_Structure.c **** * Function Name: CapSense_IsAnyWidgetActive
1673:Generated_Source\PSoC4/CapSense_Structure.c **** ****************************************************************************//**
1674:Generated_Source\PSoC4/CapSense_Structure.c **** *
1675:Generated_Source\PSoC4/CapSense_Structure.c **** * \brief
1676:Generated_Source\PSoC4/CapSense_Structure.c **** *  Reports if any widget has detected a touch.
1677:Generated_Source\PSoC4/CapSense_Structure.c **** *
1678:Generated_Source\PSoC4/CapSense_Structure.c **** * \details
1679:Generated_Source\PSoC4/CapSense_Structure.c **** *  This function reports if any widget has detected a touch or not by extracting
1680:Generated_Source\PSoC4/CapSense_Structure.c **** *  information from the wdgtStatus registers
1681:Generated_Source\PSoC4/CapSense_Structure.c **** *  (CapSense_WDGT_STATUS<X>_VALUE). This function does not process a
1682:Generated_Source\PSoC4/CapSense_Structure.c **** *  widget but extracts processed results from the \ref group_structures.
1683:Generated_Source\PSoC4/CapSense_Structure.c **** *
1684:Generated_Source\PSoC4/CapSense_Structure.c **** * \return
1685:Generated_Source\PSoC4/CapSense_Structure.c **** *   Returns the touch detection status of all the widgets:
1686:Generated_Source\PSoC4/CapSense_Structure.c **** *     - Zero - No touch is detected in all the widgets or sensors.
1687:Generated_Source\PSoC4/CapSense_Structure.c **** *     - Non-zero - At least one widget or sensor detected a touch.
1688:Generated_Source\PSoC4/CapSense_Structure.c **** *
1689:Generated_Source\PSoC4/CapSense_Structure.c **** *******************************************************************************/
1690:Generated_Source\PSoC4/CapSense_Structure.c **** uint32 CapSense_IsAnyWidgetActive(void)
1691:Generated_Source\PSoC4/CapSense_Structure.c **** {
 682              		.loc 1 1691 0
 683              		.cfi_startproc
 684              		@ args = 0, pretend = 0, frame = 0
 685              		@ frame_needed = 0, uses_anonymous_args = 0
 686              		@ link register save eliminated.
 687              	.LVL76:
1692:Generated_Source\PSoC4/CapSense_Structure.c ****     uint32 result = 0Lu;
1693:Generated_Source\PSoC4/CapSense_Structure.c ****     uint32 wdWord;
1694:Generated_Source\PSoC4/CapSense_Structure.c **** 
1695:Generated_Source\PSoC4/CapSense_Structure.c ****     for (wdWord = CapSense_WDGT_STATUS_WORDS; wdWord-- > 0u;)
 688              		.loc 1 1695 0
 689 0000 0123     		movs	r3, #1
1692:Generated_Source\PSoC4/CapSense_Structure.c ****     uint32 result = 0Lu;
 690              		.loc 1 1692 0
 691 0002 0020     		movs	r0, #0
 692              		.loc 1 1695 0
 693 0004 05E0     		b	.L52
 694              	.LVL77:
 695              	.L53:
1696:Generated_Source\PSoC4/CapSense_Structure.c ****     {
1697:Generated_Source\PSoC4/CapSense_Structure.c ****         result |= CapSense_dsRam.wdgtStatus[wdWord];
 696              		.loc 1 1697 0
 697 0006 931D     		adds	r3, r2, #6
 698 0008 9B00     		lsls	r3, r3, #2
 699 000a 0449     		ldr	r1, .L54
 700 000c 5B58     		ldr	r3, [r3, r1]
 701 000e 1843     		orrs	r0, r3
 702              	.LVL78:
1695:Generated_Source\PSoC4/CapSense_Structure.c ****     {
 703              		.loc 1 1695 0
 704 0010 1300     		movs	r3, r2
 705              	.LVL79:
 706              	.L52:
ARM GAS  C:\Users\YUANFA~1\AppData\Local\Temp\ccItJH9a.s 			page 44


1695:Generated_Source\PSoC4/CapSense_Structure.c ****     {
 707              		.loc 1 1695 0 is_stmt 0 discriminator 1
 708 0012 5A1E     		subs	r2, r3, #1
 709              	.LVL80:
 710 0014 002B     		cmp	r3, #0
 711 0016 F6D1     		bne	.L53
1698:Generated_Source\PSoC4/CapSense_Structure.c ****     }
1699:Generated_Source\PSoC4/CapSense_Structure.c **** 
1700:Generated_Source\PSoC4/CapSense_Structure.c ****     return result;
1701:Generated_Source\PSoC4/CapSense_Structure.c **** }
 712              		.loc 1 1701 0 is_stmt 1
 713              		@ sp needed
 714 0018 7047     		bx	lr
 715              	.L55:
 716 001a C046     		.align	2
 717              	.L54:
 718 001c 00000000 		.word	CapSense_dsRam
 719              		.cfi_endproc
 720              	.LFE5:
 721              		.size	CapSense_IsAnyWidgetActive, .-CapSense_IsAnyWidgetActive
 722              		.section	.text.CapSense_IsWidgetActive,"ax",%progbits
 723              		.align	2
 724              		.global	CapSense_IsWidgetActive
 725              		.code	16
 726              		.thumb_func
 727              		.type	CapSense_IsWidgetActive, %function
 728              	CapSense_IsWidgetActive:
 729              	.LFB6:
1702:Generated_Source\PSoC4/CapSense_Structure.c **** 
1703:Generated_Source\PSoC4/CapSense_Structure.c **** 
1704:Generated_Source\PSoC4/CapSense_Structure.c **** /*******************************************************************************
1705:Generated_Source\PSoC4/CapSense_Structure.c **** * Function Name: CapSense_IsWidgetActive
1706:Generated_Source\PSoC4/CapSense_Structure.c **** ****************************************************************************//**
1707:Generated_Source\PSoC4/CapSense_Structure.c **** *
1708:Generated_Source\PSoC4/CapSense_Structure.c **** * \brief
1709:Generated_Source\PSoC4/CapSense_Structure.c **** *  Reports if the specified widget detects a touch on any of its sensors.
1710:Generated_Source\PSoC4/CapSense_Structure.c **** *
1711:Generated_Source\PSoC4/CapSense_Structure.c **** * \details
1712:Generated_Source\PSoC4/CapSense_Structure.c **** *  This function reports if the specified widget has detected a touch or not by
1713:Generated_Source\PSoC4/CapSense_Structure.c **** *  extracting information from the wdgtStatus registers
1714:Generated_Source\PSoC4/CapSense_Structure.c **** *  (CapSense_WDGT_STATUS<X>_VALUE). This function does not process the
1715:Generated_Source\PSoC4/CapSense_Structure.c **** *  widget but extracts processed results from the \ref group_structures.
1716:Generated_Source\PSoC4/CapSense_Structure.c **** *
1717:Generated_Source\PSoC4/CapSense_Structure.c **** * \param widgetId
1718:Generated_Source\PSoC4/CapSense_Structure.c **** *  Specifies the ID number of the widget to get its status.
1719:Generated_Source\PSoC4/CapSense_Structure.c **** *  A macro for the widget ID can be found in the CapSense Configuration header
1720:Generated_Source\PSoC4/CapSense_Structure.c **** *  file defined as CapSense_<WidgetName>_WDGT_ID.
1721:Generated_Source\PSoC4/CapSense_Structure.c **** *
1722:Generated_Source\PSoC4/CapSense_Structure.c **** * \return
1723:Generated_Source\PSoC4/CapSense_Structure.c **** *  Returns the touch detection status of the specified widgets:
1724:Generated_Source\PSoC4/CapSense_Structure.c **** *    - Zero - No touch is detected in the specified widget or a wrong widgetId
1725:Generated_Source\PSoC4/CapSense_Structure.c **** *      is specified.
1726:Generated_Source\PSoC4/CapSense_Structure.c **** *    - Non-zero if at least one sensor of the specified widget is active, i.e.
1727:Generated_Source\PSoC4/CapSense_Structure.c **** *      a touch is detected.
1728:Generated_Source\PSoC4/CapSense_Structure.c **** *
1729:Generated_Source\PSoC4/CapSense_Structure.c **** *******************************************************************************/
1730:Generated_Source\PSoC4/CapSense_Structure.c **** uint32 CapSense_IsWidgetActive(uint32 widgetId)
ARM GAS  C:\Users\YUANFA~1\AppData\Local\Temp\ccItJH9a.s 			page 45


1731:Generated_Source\PSoC4/CapSense_Structure.c **** {
 730              		.loc 1 1731 0
 731              		.cfi_startproc
 732              		@ args = 0, pretend = 0, frame = 0
 733              		@ frame_needed = 0, uses_anonymous_args = 0
 734              		@ link register save eliminated.
 735              	.LVL81:
1732:Generated_Source\PSoC4/CapSense_Structure.c ****     uint32 result = 0Lu;
1733:Generated_Source\PSoC4/CapSense_Structure.c **** 
1734:Generated_Source\PSoC4/CapSense_Structure.c ****     if (widgetId < CapSense_TOTAL_WIDGETS)
 736              		.loc 1 1734 0
 737 0000 1228     		cmp	r0, #18
 738 0002 0AD8     		bhi	.L58
1735:Generated_Source\PSoC4/CapSense_Structure.c ****     {
1736:Generated_Source\PSoC4/CapSense_Structure.c ****         result = CapSense_GET_WIDGET_ACTIVE_STATUS(widgetId);
 739              		.loc 1 1736 0
 740 0004 1F23     		movs	r3, #31
 741 0006 0340     		ands	r3, r0
 742 0008 0122     		movs	r2, #1
 743 000a 9A40     		lsls	r2, r2, r3
 744 000c 4309     		lsrs	r3, r0, #5
 745 000e 0633     		adds	r3, r3, #6
 746 0010 9B00     		lsls	r3, r3, #2
 747 0012 0349     		ldr	r1, .L59
 748 0014 5858     		ldr	r0, [r3, r1]
 749              	.LVL82:
 750 0016 1040     		ands	r0, r2
 751              	.LVL83:
 752 0018 00E0     		b	.L57
 753              	.LVL84:
 754              	.L58:
1732:Generated_Source\PSoC4/CapSense_Structure.c ****     uint32 result = 0Lu;
 755              		.loc 1 1732 0
 756 001a 0020     		movs	r0, #0
 757              	.LVL85:
 758              	.L57:
1737:Generated_Source\PSoC4/CapSense_Structure.c ****     }
1738:Generated_Source\PSoC4/CapSense_Structure.c ****     return result;
1739:Generated_Source\PSoC4/CapSense_Structure.c **** }
 759              		.loc 1 1739 0
 760              		@ sp needed
 761 001c 7047     		bx	lr
 762              	.L60:
 763 001e C046     		.align	2
 764              	.L59:
 765 0020 00000000 		.word	CapSense_dsRam
 766              		.cfi_endproc
 767              	.LFE6:
 768              		.size	CapSense_IsWidgetActive, .-CapSense_IsWidgetActive
 769              		.section	.text.CapSense_IsSensorActive,"ax",%progbits
 770              		.align	2
 771              		.global	CapSense_IsSensorActive
 772              		.code	16
 773              		.thumb_func
 774              		.type	CapSense_IsSensorActive, %function
 775              	CapSense_IsSensorActive:
 776              	.LFB7:
ARM GAS  C:\Users\YUANFA~1\AppData\Local\Temp\ccItJH9a.s 			page 46


1740:Generated_Source\PSoC4/CapSense_Structure.c **** 
1741:Generated_Source\PSoC4/CapSense_Structure.c **** 
1742:Generated_Source\PSoC4/CapSense_Structure.c **** /*******************************************************************************
1743:Generated_Source\PSoC4/CapSense_Structure.c **** * Function Name: CapSense_IsSensorActive
1744:Generated_Source\PSoC4/CapSense_Structure.c **** ****************************************************************************//**
1745:Generated_Source\PSoC4/CapSense_Structure.c **** *
1746:Generated_Source\PSoC4/CapSense_Structure.c **** * \brief
1747:Generated_Source\PSoC4/CapSense_Structure.c **** *  Reports if the specified sensor in the widget detects a touch.
1748:Generated_Source\PSoC4/CapSense_Structure.c **** *
1749:Generated_Source\PSoC4/CapSense_Structure.c **** * \details
1750:Generated_Source\PSoC4/CapSense_Structure.c **** *  This function reports if the specified sensor in the widget has detected a
1751:Generated_Source\PSoC4/CapSense_Structure.c **** *  touch or not by extracting information from the wdgtStatus registers
1752:Generated_Source\PSoC4/CapSense_Structure.c **** *  (CapSense_WDGT_STATUS<X>_VALUE). This function does not process the
1753:Generated_Source\PSoC4/CapSense_Structure.c **** *  widget or sensor but extracts processed results from the \ref group_structures.
1754:Generated_Source\PSoC4/CapSense_Structure.c **** *
1755:Generated_Source\PSoC4/CapSense_Structure.c **** *  For proximity sensors, this function returns the proximity detection status. To
1756:Generated_Source\PSoC4/CapSense_Structure.c **** *  get the finger touch status of proximity sensors, use the
1757:Generated_Source\PSoC4/CapSense_Structure.c **** *  CapSense_IsProximitySensorActive() function.
1758:Generated_Source\PSoC4/CapSense_Structure.c **** *
1759:Generated_Source\PSoC4/CapSense_Structure.c **** * \param widgetId
1760:Generated_Source\PSoC4/CapSense_Structure.c **** *  Specifies the ID number of the widget.
1761:Generated_Source\PSoC4/CapSense_Structure.c **** *  A macro for the widget ID can be found in the CapSense Configuration header
1762:Generated_Source\PSoC4/CapSense_Structure.c **** *  file defined as CapSense_<WidgetName>_WDGT_ID.
1763:Generated_Source\PSoC4/CapSense_Structure.c **** 
1764:Generated_Source\PSoC4/CapSense_Structure.c **** * \param sensorId
1765:Generated_Source\PSoC4/CapSense_Structure.c **** *  Specifies the ID number of the sensor within the widget to get its touch
1766:Generated_Source\PSoC4/CapSense_Structure.c **** *  detection status.
1767:Generated_Source\PSoC4/CapSense_Structure.c **** *  A macro for the sensor ID within the specified widget can be found in the
1768:Generated_Source\PSoC4/CapSense_Structure.c **** *  CapSense Configuration header file defined as
1769:Generated_Source\PSoC4/CapSense_Structure.c **** *  CapSense_<WidgetName>_SNS<SensorNumber>_ID.
1770:Generated_Source\PSoC4/CapSense_Structure.c **** *
1771:Generated_Source\PSoC4/CapSense_Structure.c **** * \return
1772:Generated_Source\PSoC4/CapSense_Structure.c **** *  Returns the touch detection status of the specified sensor / widget:
1773:Generated_Source\PSoC4/CapSense_Structure.c **** *    - Zero if no touch is detected in the specified sensor / widget or a wrong
1774:Generated_Source\PSoC4/CapSense_Structure.c **** *      widget ID / sensor ID is specified.
1775:Generated_Source\PSoC4/CapSense_Structure.c **** *    - Non-zero if the specified sensor is active i.e. touch is detected. If the
1776:Generated_Source\PSoC4/CapSense_Structure.c **** *      specific sensor belongs to a proximity widget, the proximity detection
1777:Generated_Source\PSoC4/CapSense_Structure.c **** *      status is returned.
1778:Generated_Source\PSoC4/CapSense_Structure.c **** *
1779:Generated_Source\PSoC4/CapSense_Structure.c **** *******************************************************************************/
1780:Generated_Source\PSoC4/CapSense_Structure.c **** uint32 CapSense_IsSensorActive(uint32 widgetId, uint32 sensorId)
1781:Generated_Source\PSoC4/CapSense_Structure.c **** {
 777              		.loc 1 1781 0
 778              		.cfi_startproc
 779              		@ args = 0, pretend = 0, frame = 0
 780              		@ frame_needed = 0, uses_anonymous_args = 0
 781              		@ link register save eliminated.
 782              	.LVL86:
1782:Generated_Source\PSoC4/CapSense_Structure.c ****     uint32 result = 0Lu;
1783:Generated_Source\PSoC4/CapSense_Structure.c **** 
1784:Generated_Source\PSoC4/CapSense_Structure.c ****     if ((widgetId < CapSense_TOTAL_WIDGETS) &&
 783              		.loc 1 1784 0
 784 0000 1228     		cmp	r0, #18
 785 0002 0CD8     		bhi	.L63
1785:Generated_Source\PSoC4/CapSense_Structure.c ****         (sensorId < CapSense_GET_SENSOR_COUNT(widgetId)))
 786              		.loc 1 1785 0 discriminator 1
 787 0004 4301     		lsls	r3, r0, #5
ARM GAS  C:\Users\YUANFA~1\AppData\Local\Temp\ccItJH9a.s 			page 47


 788 0006 084A     		ldr	r2, .L65
 789 0008 D318     		adds	r3, r2, r3
 790 000a 9B8F     		ldrh	r3, [r3, #60]
1784:Generated_Source\PSoC4/CapSense_Structure.c ****         (sensorId < CapSense_GET_SENSOR_COUNT(widgetId)))
 791              		.loc 1 1784 0 discriminator 1
 792 000c 8B42     		cmp	r3, r1
 793 000e 08D9     		bls	.L64
1786:Generated_Source\PSoC4/CapSense_Structure.c ****     {
1787:Generated_Source\PSoC4/CapSense_Structure.c ****         #if (CapSense_ENABLE == CapSense_PROXIMITY_WIDGET_EN)
1788:Generated_Source\PSoC4/CapSense_Structure.c ****             if (CapSense_WD_PROXIMITY_E ==
1789:Generated_Source\PSoC4/CapSense_Structure.c ****                 (CapSense_WD_TYPE_ENUM)CapSense_dsFlash.wdgtArray[widgetId].wdgtType)
1790:Generated_Source\PSoC4/CapSense_Structure.c ****             {
1791:Generated_Source\PSoC4/CapSense_Structure.c ****                 sensorId = CapSense_PROX_STS_OFFSET(sensorId);
1792:Generated_Source\PSoC4/CapSense_Structure.c ****             }
1793:Generated_Source\PSoC4/CapSense_Structure.c ****         #endif /* (CapSense_ENABLE != CapSense_PROXIMITY_WIDGET_EN) */
1794:Generated_Source\PSoC4/CapSense_Structure.c ****         result = CapSense_dsRam.snsStatus[widgetId] & (1Lu << sensorId);
 794              		.loc 1 1794 0
 795 0010 064B     		ldr	r3, .L65+4
 796 0012 1818     		adds	r0, r3, r0
 797              	.LVL87:
 798 0014 037F     		ldrb	r3, [r0, #28]
 799 0016 0120     		movs	r0, #1
 800 0018 8840     		lsls	r0, r0, r1
 801 001a 1840     		ands	r0, r3
 802              	.LVL88:
 803 001c 02E0     		b	.L62
 804              	.LVL89:
 805              	.L63:
1782:Generated_Source\PSoC4/CapSense_Structure.c **** 
 806              		.loc 1 1782 0
 807 001e 0020     		movs	r0, #0
 808              	.LVL90:
 809 0020 00E0     		b	.L62
 810              	.LVL91:
 811              	.L64:
 812 0022 0020     		movs	r0, #0
 813              	.LVL92:
 814              	.L62:
1795:Generated_Source\PSoC4/CapSense_Structure.c ****     }
1796:Generated_Source\PSoC4/CapSense_Structure.c **** 
1797:Generated_Source\PSoC4/CapSense_Structure.c ****     return result;
1798:Generated_Source\PSoC4/CapSense_Structure.c **** }
 815              		.loc 1 1798 0
 816              		@ sp needed
 817 0024 7047     		bx	lr
 818              	.L66:
 819 0026 C046     		.align	2
 820              	.L65:
 821 0028 00000000 		.word	.LANCHOR0
 822 002c 00000000 		.word	CapSense_dsRam
 823              		.cfi_endproc
 824              	.LFE7:
 825              		.size	CapSense_IsSensorActive, .-CapSense_IsSensorActive
 826              		.global	CapSense_extCapMap
 827              		.global	CapSense_ramIdacInit
 828              		.global	CapSense_ramWidgetInit
 829              		.global	CapSense_ioList
ARM GAS  C:\Users\YUANFA~1\AppData\Local\Temp\ccItJH9a.s 			page 48


 830              		.global	CapSense_dsFlash
 831              		.comm	CapSense_dsRam,836,4
 832              		.section	.rodata
 833              		.align	2
 834              		.set	.LANCHOR0,. + 0
 835              		.set	.LANCHOR1,. + 640
 836              	.LC0:
 837 0000 00       		.byte	0
 838 0001 09       		.byte	9
 839 0002 0B       		.byte	11
 840 0003 02       		.byte	2
 841 0004 0F       		.byte	15
 842 0005 06       		.byte	6
 843 0006 04       		.byte	4
 844 0007 0D       		.byte	13
 845 0008 07       		.byte	7
 846 0009 0E       		.byte	14
 847 000a 0C       		.byte	12
 848 000b 05       		.byte	5
 849 000c 08       		.byte	8
 850 000d 01       		.byte	1
 851 000e 03       		.byte	3
 852 000f 0A       		.byte	10
 853              		.type	CapSense_ramIdacInit, %object
 854              		.size	CapSense_ramIdacInit, 19
 855              	CapSense_ramIdacInit:
 856 0010 20       		.byte	32
 857 0011 20       		.byte	32
 858 0012 20       		.byte	32
 859 0013 20       		.byte	32
 860 0014 20       		.byte	32
 861 0015 20       		.byte	32
 862 0016 20       		.byte	32
 863 0017 20       		.byte	32
 864 0018 20       		.byte	32
 865 0019 20       		.byte	32
 866 001a 20       		.byte	32
 867 001b 20       		.byte	32
 868 001c 20       		.byte	32
 869 001d 20       		.byte	32
 870 001e 20       		.byte	32
 871 001f 20       		.byte	32
 872 0020 20       		.byte	32
 873 0021 20       		.byte	32
 874 0022 20       		.byte	32
 875 0023 00       		.space	1
 876              		.type	CapSense_dsFlash, %object
 877              		.size	CapSense_dsFlash, 608
 878              	CapSense_dsFlash:
 879 0024 00000000 		.word	CapSense_ioList
 880 0028 36000000 		.word	CapSense_dsRam+54
 881 002c D8010000 		.word	CapSense_dsRam+472
 882 0030 00000000 		.word	0
 883 0034 48000000 		.word	CapSense_debounceButton0
 884 0038 01280000 		.word	10241
 885 003c 0100     		.short	1
 886 003e 01       		.byte	1
ARM GAS  C:\Users\YUANFA~1\AppData\Local\Temp\ccItJH9a.s 			page 49


 887 003f 01       		.byte	1
 888 0040 F0020000 		.word	CapSense_dsRam+752
 889 0044 20000000 		.word	CapSense_ioList+32
 890 0048 4C000000 		.word	CapSense_dsRam+76
 891 004c E4010000 		.word	CapSense_dsRam+484
 892 0050 00000000 		.word	0
 893 0054 44000000 		.word	CapSense_debounceButton1
 894 0058 01280000 		.word	10241
 895 005c 0100     		.short	1
 896 005e 01       		.byte	1
 897 005f 01       		.byte	1
 898 0060 F4020000 		.word	CapSense_dsRam+756
 899 0064 40000000 		.word	CapSense_ioList+64
 900 0068 62000000 		.word	CapSense_dsRam+98
 901 006c F0010000 		.word	CapSense_dsRam+496
 902 0070 00000000 		.word	0
 903 0074 40000000 		.word	CapSense_debounceButton2
 904 0078 01280000 		.word	10241
 905 007c 0100     		.short	1
 906 007e 01       		.byte	1
 907 007f 01       		.byte	1
 908 0080 F8020000 		.word	CapSense_dsRam+760
 909 0084 60000000 		.word	CapSense_ioList+96
 910 0088 78000000 		.word	CapSense_dsRam+120
 911 008c FC010000 		.word	CapSense_dsRam+508
 912 0090 00000000 		.word	0
 913 0094 3C000000 		.word	CapSense_debounceButton3
 914 0098 01280000 		.word	10241
 915 009c 0100     		.short	1
 916 009e 01       		.byte	1
 917 009f 01       		.byte	1
 918 00a0 FC020000 		.word	CapSense_dsRam+764
 919 00a4 80000000 		.word	CapSense_ioList+128
 920 00a8 8E000000 		.word	CapSense_dsRam+142
 921 00ac 08020000 		.word	CapSense_dsRam+520
 922 00b0 00000000 		.word	0
 923 00b4 38000000 		.word	CapSense_debounceButton4
 924 00b8 01280000 		.word	10241
 925 00bc 0100     		.short	1
 926 00be 01       		.byte	1
 927 00bf 01       		.byte	1
 928 00c0 00030000 		.word	CapSense_dsRam+768
 929 00c4 A0000000 		.word	CapSense_ioList+160
 930 00c8 A4000000 		.word	CapSense_dsRam+164
 931 00cc 14020000 		.word	CapSense_dsRam+532
 932 00d0 00000000 		.word	0
 933 00d4 34000000 		.word	CapSense_debounceButton5
 934 00d8 01280000 		.word	10241
 935 00dc 0100     		.short	1
 936 00de 01       		.byte	1
 937 00df 01       		.byte	1
 938 00e0 04030000 		.word	CapSense_dsRam+772
 939 00e4 C0000000 		.word	CapSense_ioList+192
 940 00e8 BA000000 		.word	CapSense_dsRam+186
 941 00ec 20020000 		.word	CapSense_dsRam+544
 942 00f0 00000000 		.word	0
 943 00f4 30000000 		.word	CapSense_debounceButton6
ARM GAS  C:\Users\YUANFA~1\AppData\Local\Temp\ccItJH9a.s 			page 50


 944 00f8 01280000 		.word	10241
 945 00fc 0100     		.short	1
 946 00fe 01       		.byte	1
 947 00ff 01       		.byte	1
 948 0100 08030000 		.word	CapSense_dsRam+776
 949 0104 E0000000 		.word	CapSense_ioList+224
 950 0108 D0000000 		.word	CapSense_dsRam+208
 951 010c 2C020000 		.word	CapSense_dsRam+556
 952 0110 00000000 		.word	0
 953 0114 2C000000 		.word	CapSense_debounceButton7
 954 0118 01280000 		.word	10241
 955 011c 0100     		.short	1
 956 011e 01       		.byte	1
 957 011f 01       		.byte	1
 958 0120 0C030000 		.word	CapSense_dsRam+780
 959 0124 00010000 		.word	CapSense_ioList+256
 960 0128 E6000000 		.word	CapSense_dsRam+230
 961 012c 38020000 		.word	CapSense_dsRam+568
 962 0130 00000000 		.word	0
 963 0134 28000000 		.word	CapSense_debounceButton8
 964 0138 01280000 		.word	10241
 965 013c 0100     		.short	1
 966 013e 01       		.byte	1
 967 013f 01       		.byte	1
 968 0140 10030000 		.word	CapSense_dsRam+784
 969 0144 20010000 		.word	CapSense_ioList+288
 970 0148 FC000000 		.word	CapSense_dsRam+252
 971 014c 44020000 		.word	CapSense_dsRam+580
 972 0150 00000000 		.word	0
 973 0154 24000000 		.word	CapSense_debounceButton9
 974 0158 01280000 		.word	10241
 975 015c 0100     		.short	1
 976 015e 01       		.byte	1
 977 015f 01       		.byte	1
 978 0160 14030000 		.word	CapSense_dsRam+788
 979 0164 40010000 		.word	CapSense_ioList+320
 980 0168 12010000 		.word	CapSense_dsRam+274
 981 016c 50020000 		.word	CapSense_dsRam+592
 982 0170 00000000 		.word	0
 983 0174 20000000 		.word	CapSense_debounceButton10
 984 0178 01280000 		.word	10241
 985 017c 0100     		.short	1
 986 017e 01       		.byte	1
 987 017f 01       		.byte	1
 988 0180 18030000 		.word	CapSense_dsRam+792
 989 0184 60010000 		.word	CapSense_ioList+352
 990 0188 28010000 		.word	CapSense_dsRam+296
 991 018c 5C020000 		.word	CapSense_dsRam+604
 992 0190 00000000 		.word	0
 993 0194 1C000000 		.word	CapSense_debounceButton11
 994 0198 01280000 		.word	10241
 995 019c 0100     		.short	1
 996 019e 01       		.byte	1
 997 019f 01       		.byte	1
 998 01a0 1C030000 		.word	CapSense_dsRam+796
 999 01a4 80010000 		.word	CapSense_ioList+384
 1000 01a8 3E010000 		.word	CapSense_dsRam+318
ARM GAS  C:\Users\YUANFA~1\AppData\Local\Temp\ccItJH9a.s 			page 51


 1001 01ac 68020000 		.word	CapSense_dsRam+616
 1002 01b0 00000000 		.word	0
 1003 01b4 18000000 		.word	CapSense_debounceButton12
 1004 01b8 01280000 		.word	10241
 1005 01bc 0100     		.short	1
 1006 01be 01       		.byte	1
 1007 01bf 01       		.byte	1
 1008 01c0 20030000 		.word	CapSense_dsRam+800
 1009 01c4 A0010000 		.word	CapSense_ioList+416
 1010 01c8 54010000 		.word	CapSense_dsRam+340
 1011 01cc 74020000 		.word	CapSense_dsRam+628
 1012 01d0 00000000 		.word	0
 1013 01d4 14000000 		.word	CapSense_debounceButton13
 1014 01d8 01280000 		.word	10241
 1015 01dc 0100     		.short	1
 1016 01de 01       		.byte	1
 1017 01df 01       		.byte	1
 1018 01e0 24030000 		.word	CapSense_dsRam+804
 1019 01e4 C0010000 		.word	CapSense_ioList+448
 1020 01e8 6A010000 		.word	CapSense_dsRam+362
 1021 01ec 80020000 		.word	CapSense_dsRam+640
 1022 01f0 00000000 		.word	0
 1023 01f4 10000000 		.word	CapSense_debounceButton14
 1024 01f8 01280000 		.word	10241
 1025 01fc 0100     		.short	1
 1026 01fe 01       		.byte	1
 1027 01ff 01       		.byte	1
 1028 0200 28030000 		.word	CapSense_dsRam+808
 1029 0204 E0010000 		.word	CapSense_ioList+480
 1030 0208 80010000 		.word	CapSense_dsRam+384
 1031 020c 8C020000 		.word	CapSense_dsRam+652
 1032 0210 00000000 		.word	0
 1033 0214 0C000000 		.word	CapSense_debounceButton15
 1034 0218 01280000 		.word	10241
 1035 021c 0100     		.short	1
 1036 021e 01       		.byte	1
 1037 021f 01       		.byte	1
 1038 0220 2C030000 		.word	CapSense_dsRam+812
 1039 0224 00020000 		.word	CapSense_ioList+512
 1040 0228 96010000 		.word	CapSense_dsRam+406
 1041 022c 98020000 		.word	CapSense_dsRam+664
 1042 0230 00000000 		.word	0
 1043 0234 08000000 		.word	CapSense_debounceButton16
 1044 0238 01280000 		.word	10241
 1045 023c 0100     		.short	1
 1046 023e 01       		.byte	1
 1047 023f 01       		.byte	1
 1048 0240 30030000 		.word	CapSense_dsRam+816
 1049 0244 20020000 		.word	CapSense_ioList+544
 1050 0248 AC010000 		.word	CapSense_dsRam+428
 1051 024c A4020000 		.word	CapSense_dsRam+676
 1052 0250 00000000 		.word	0
 1053 0254 04000000 		.word	CapSense_debounceButton17
 1054 0258 01280000 		.word	10241
 1055 025c 0100     		.short	1
 1056 025e 01       		.byte	1
 1057 025f 01       		.byte	1
ARM GAS  C:\Users\YUANFA~1\AppData\Local\Temp\ccItJH9a.s 			page 52


 1058 0260 34030000 		.word	CapSense_dsRam+820
 1059 0264 40020000 		.word	CapSense_ioList+576
 1060 0268 C2010000 		.word	CapSense_dsRam+450
 1061 026c B0020000 		.word	CapSense_dsRam+688
 1062 0270 00000000 		.word	0
 1063 0274 00000000 		.word	CapSense_debounceButton18
 1064 0278 01280000 		.word	10241
 1065 027c 0100     		.short	1
 1066 027e 01       		.byte	1
 1067 027f 01       		.byte	1
 1068 0280 38030000 		.word	CapSense_dsRam+824
 1069              		.type	CapSense_ramWidgetInit, %object
 1070              		.size	CapSense_ramWidgetInit, 418
 1071              	CapSense_ramWidgetInit:
 1072 0284 3450     		.short	20532
 1073 0286 0C00     		.short	12
 1074 0288 6400     		.short	100
 1075 028a 28       		.byte	40
 1076 028b 28       		.byte	40
 1077 028c 0A       		.byte	10
 1078 028d 03       		.byte	3
 1079 028e 1E       		.byte	30
 1080 028f 20       		.byte	32
 1081 0290 05       		.byte	5
 1082 0291 00       		.space	1
 1083 0292 0400     		.short	4
 1084 0294 00       		.byte	0
 1085 0295 00       		.space	1
 1086 0296 A000     		.short	160
 1087 0298 0000     		.short	0
 1088 029a 3450     		.short	20532
 1089 029c 0C00     		.short	12
 1090 029e 6400     		.short	100
 1091 02a0 28       		.byte	40
 1092 02a1 28       		.byte	40
 1093 02a2 0A       		.byte	10
 1094 02a3 03       		.byte	3
 1095 02a4 1E       		.byte	30
 1096 02a5 20       		.byte	32
 1097 02a6 05       		.byte	5
 1098 02a7 00       		.space	1
 1099 02a8 0400     		.short	4
 1100 02aa 00       		.byte	0
 1101 02ab 00       		.space	1
 1102 02ac A000     		.short	160
 1103 02ae 0000     		.short	0
 1104 02b0 3450     		.short	20532
 1105 02b2 0C00     		.short	12
 1106 02b4 6400     		.short	100
 1107 02b6 28       		.byte	40
 1108 02b7 28       		.byte	40
 1109 02b8 0A       		.byte	10
 1110 02b9 03       		.byte	3
 1111 02ba 1E       		.byte	30
 1112 02bb 20       		.byte	32
 1113 02bc 05       		.byte	5
 1114 02bd 00       		.space	1
ARM GAS  C:\Users\YUANFA~1\AppData\Local\Temp\ccItJH9a.s 			page 53


 1115 02be 0400     		.short	4
 1116 02c0 00       		.byte	0
 1117 02c1 00       		.space	1
 1118 02c2 A000     		.short	160
 1119 02c4 0000     		.short	0
 1120 02c6 3450     		.short	20532
 1121 02c8 0C00     		.short	12
 1122 02ca 6400     		.short	100
 1123 02cc 28       		.byte	40
 1124 02cd 28       		.byte	40
 1125 02ce 0A       		.byte	10
 1126 02cf 03       		.byte	3
 1127 02d0 1E       		.byte	30
 1128 02d1 20       		.byte	32
 1129 02d2 05       		.byte	5
 1130 02d3 00       		.space	1
 1131 02d4 0400     		.short	4
 1132 02d6 00       		.byte	0
 1133 02d7 00       		.space	1
 1134 02d8 A000     		.short	160
 1135 02da 0000     		.short	0
 1136 02dc 3450     		.short	20532
 1137 02de 0C00     		.short	12
 1138 02e0 6400     		.short	100
 1139 02e2 28       		.byte	40
 1140 02e3 28       		.byte	40
 1141 02e4 0A       		.byte	10
 1142 02e5 03       		.byte	3
 1143 02e6 1E       		.byte	30
 1144 02e7 20       		.byte	32
 1145 02e8 05       		.byte	5
 1146 02e9 00       		.space	1
 1147 02ea 0400     		.short	4
 1148 02ec 00       		.byte	0
 1149 02ed 00       		.space	1
 1150 02ee A000     		.short	160
 1151 02f0 0000     		.short	0
 1152 02f2 3450     		.short	20532
 1153 02f4 0C00     		.short	12
 1154 02f6 6400     		.short	100
 1155 02f8 28       		.byte	40
 1156 02f9 28       		.byte	40
 1157 02fa 0A       		.byte	10
 1158 02fb 03       		.byte	3
 1159 02fc 1E       		.byte	30
 1160 02fd 20       		.byte	32
 1161 02fe 05       		.byte	5
 1162 02ff 00       		.space	1
 1163 0300 0400     		.short	4
 1164 0302 00       		.byte	0
 1165 0303 00       		.space	1
 1166 0304 A000     		.short	160
 1167 0306 0000     		.short	0
 1168 0308 3450     		.short	20532
 1169 030a 0C00     		.short	12
 1170 030c 6400     		.short	100
 1171 030e 28       		.byte	40
ARM GAS  C:\Users\YUANFA~1\AppData\Local\Temp\ccItJH9a.s 			page 54


 1172 030f 28       		.byte	40
 1173 0310 0A       		.byte	10
 1174 0311 03       		.byte	3
 1175 0312 1E       		.byte	30
 1176 0313 20       		.byte	32
 1177 0314 05       		.byte	5
 1178 0315 00       		.space	1
 1179 0316 0400     		.short	4
 1180 0318 00       		.byte	0
 1181 0319 00       		.space	1
 1182 031a A000     		.short	160
 1183 031c 0000     		.short	0
 1184 031e 3450     		.short	20532
 1185 0320 0C00     		.short	12
 1186 0322 6400     		.short	100
 1187 0324 28       		.byte	40
 1188 0325 28       		.byte	40
 1189 0326 0A       		.byte	10
 1190 0327 03       		.byte	3
 1191 0328 1E       		.byte	30
 1192 0329 20       		.byte	32
 1193 032a 05       		.byte	5
 1194 032b 00       		.space	1
 1195 032c 0400     		.short	4
 1196 032e 00       		.byte	0
 1197 032f 00       		.space	1
 1198 0330 A000     		.short	160
 1199 0332 0000     		.short	0
 1200 0334 3450     		.short	20532
 1201 0336 0C00     		.short	12
 1202 0338 6400     		.short	100
 1203 033a 28       		.byte	40
 1204 033b 28       		.byte	40
 1205 033c 0A       		.byte	10
 1206 033d 03       		.byte	3
 1207 033e 1E       		.byte	30
 1208 033f 20       		.byte	32
 1209 0340 05       		.byte	5
 1210 0341 00       		.space	1
 1211 0342 0400     		.short	4
 1212 0344 00       		.byte	0
 1213 0345 00       		.space	1
 1214 0346 A000     		.short	160
 1215 0348 0000     		.short	0
 1216 034a 3450     		.short	20532
 1217 034c 0C00     		.short	12
 1218 034e 6400     		.short	100
 1219 0350 28       		.byte	40
 1220 0351 28       		.byte	40
 1221 0352 0A       		.byte	10
 1222 0353 03       		.byte	3
 1223 0354 1E       		.byte	30
 1224 0355 20       		.byte	32
 1225 0356 05       		.byte	5
 1226 0357 00       		.space	1
 1227 0358 0400     		.short	4
 1228 035a 00       		.byte	0
ARM GAS  C:\Users\YUANFA~1\AppData\Local\Temp\ccItJH9a.s 			page 55


 1229 035b 00       		.space	1
 1230 035c A000     		.short	160
 1231 035e 0000     		.short	0
 1232 0360 3450     		.short	20532
 1233 0362 0C00     		.short	12
 1234 0364 6400     		.short	100
 1235 0366 28       		.byte	40
 1236 0367 28       		.byte	40
 1237 0368 0A       		.byte	10
 1238 0369 03       		.byte	3
 1239 036a 1E       		.byte	30
 1240 036b 20       		.byte	32
 1241 036c 05       		.byte	5
 1242 036d 00       		.space	1
 1243 036e 0400     		.short	4
 1244 0370 00       		.byte	0
 1245 0371 00       		.space	1
 1246 0372 A000     		.short	160
 1247 0374 0000     		.short	0
 1248 0376 3450     		.short	20532
 1249 0378 0C00     		.short	12
 1250 037a 6400     		.short	100
 1251 037c 28       		.byte	40
 1252 037d 28       		.byte	40
 1253 037e 0A       		.byte	10
 1254 037f 03       		.byte	3
 1255 0380 1E       		.byte	30
 1256 0381 20       		.byte	32
 1257 0382 05       		.byte	5
 1258 0383 00       		.space	1
 1259 0384 0400     		.short	4
 1260 0386 00       		.byte	0
 1261 0387 00       		.space	1
 1262 0388 A000     		.short	160
 1263 038a 0000     		.short	0
 1264 038c 3450     		.short	20532
 1265 038e 0C00     		.short	12
 1266 0390 6400     		.short	100
 1267 0392 28       		.byte	40
 1268 0393 28       		.byte	40
 1269 0394 0A       		.byte	10
 1270 0395 03       		.byte	3
 1271 0396 1E       		.byte	30
 1272 0397 20       		.byte	32
 1273 0398 05       		.byte	5
 1274 0399 00       		.space	1
 1275 039a 0400     		.short	4
 1276 039c 00       		.byte	0
 1277 039d 00       		.space	1
 1278 039e A000     		.short	160
 1279 03a0 0000     		.short	0
 1280 03a2 3450     		.short	20532
 1281 03a4 0C00     		.short	12
 1282 03a6 6400     		.short	100
 1283 03a8 28       		.byte	40
 1284 03a9 28       		.byte	40
 1285 03aa 0A       		.byte	10
ARM GAS  C:\Users\YUANFA~1\AppData\Local\Temp\ccItJH9a.s 			page 56


 1286 03ab 03       		.byte	3
 1287 03ac 1E       		.byte	30
 1288 03ad 20       		.byte	32
 1289 03ae 05       		.byte	5
 1290 03af 00       		.space	1
 1291 03b0 0400     		.short	4
 1292 03b2 00       		.byte	0
 1293 03b3 00       		.space	1
 1294 03b4 A000     		.short	160
 1295 03b6 0000     		.short	0
 1296 03b8 3450     		.short	20532
 1297 03ba 0C00     		.short	12
 1298 03bc 6400     		.short	100
 1299 03be 28       		.byte	40
 1300 03bf 28       		.byte	40
 1301 03c0 0A       		.byte	10
 1302 03c1 03       		.byte	3
 1303 03c2 1E       		.byte	30
 1304 03c3 20       		.byte	32
 1305 03c4 05       		.byte	5
 1306 03c5 00       		.space	1
 1307 03c6 0400     		.short	4
 1308 03c8 00       		.byte	0
 1309 03c9 00       		.space	1
 1310 03ca A000     		.short	160
 1311 03cc 0000     		.short	0
 1312 03ce 3450     		.short	20532
 1313 03d0 0C00     		.short	12
 1314 03d2 6400     		.short	100
 1315 03d4 28       		.byte	40
 1316 03d5 28       		.byte	40
 1317 03d6 0A       		.byte	10
 1318 03d7 03       		.byte	3
 1319 03d8 1E       		.byte	30
 1320 03d9 20       		.byte	32
 1321 03da 05       		.byte	5
 1322 03db 00       		.space	1
 1323 03dc 0400     		.short	4
 1324 03de 00       		.byte	0
 1325 03df 00       		.space	1
 1326 03e0 A000     		.short	160
 1327 03e2 0000     		.short	0
 1328 03e4 3450     		.short	20532
 1329 03e6 0C00     		.short	12
 1330 03e8 6400     		.short	100
 1331 03ea 28       		.byte	40
 1332 03eb 28       		.byte	40
 1333 03ec 0A       		.byte	10
 1334 03ed 03       		.byte	3
 1335 03ee 1E       		.byte	30
 1336 03ef 20       		.byte	32
 1337 03f0 05       		.byte	5
 1338 03f1 00       		.space	1
 1339 03f2 0400     		.short	4
 1340 03f4 00       		.byte	0
 1341 03f5 00       		.space	1
 1342 03f6 A000     		.short	160
ARM GAS  C:\Users\YUANFA~1\AppData\Local\Temp\ccItJH9a.s 			page 57


 1343 03f8 0000     		.short	0
 1344 03fa 3450     		.short	20532
 1345 03fc 0C00     		.short	12
 1346 03fe 6400     		.short	100
 1347 0400 28       		.byte	40
 1348 0401 28       		.byte	40
 1349 0402 0A       		.byte	10
 1350 0403 03       		.byte	3
 1351 0404 1E       		.byte	30
 1352 0405 20       		.byte	32
 1353 0406 05       		.byte	5
 1354 0407 00       		.space	1
 1355 0408 0400     		.short	4
 1356 040a 00       		.byte	0
 1357 040b 00       		.space	1
 1358 040c A000     		.short	160
 1359 040e 0000     		.short	0
 1360 0410 3450     		.short	20532
 1361 0412 0C00     		.short	12
 1362 0414 6400     		.short	100
 1363 0416 28       		.byte	40
 1364 0417 28       		.byte	40
 1365 0418 0A       		.byte	10
 1366 0419 03       		.byte	3
 1367 041a 1E       		.byte	30
 1368 041b 20       		.byte	32
 1369 041c 05       		.byte	5
 1370 041d 00       		.space	1
 1371 041e 0400     		.short	4
 1372 0420 00       		.byte	0
 1373 0421 00       		.space	1
 1374 0422 A000     		.short	160
 1375 0424 0000     		.short	0
 1376 0426 0000     		.space	2
 1377              		.type	CapSense_extCapMap, %object
 1378              		.size	CapSense_extCapMap, 1
 1379              	CapSense_extCapMap:
 1380 0428 00       		.space	1
 1381 0429 000000   		.space	3
 1382              		.type	CapSense_ioList, %object
 1383              		.size	CapSense_ioList, 608
 1384              	CapSense_ioList:
 1385 042c 00020240 		.word	1073873408
 1386 0430 08020440 		.word	1074004488
 1387 0434 18020440 		.word	1074004504
 1388 0438 00020440 		.word	1074004480
 1389 043c 04020440 		.word	1074004484
 1390 0440 000F0000 		.word	3840
 1391 0444 04000000 		.word	4
 1392 0448 08       		.byte	8
 1393 0449 02       		.byte	2
 1394 044a 06       		.byte	6
 1395 044b 00       		.space	1
 1396 044c 00020240 		.word	1073873408
 1397 0450 08020440 		.word	1074004488
 1398 0454 18020440 		.word	1074004504
 1399 0458 00020440 		.word	1074004480
ARM GAS  C:\Users\YUANFA~1\AppData\Local\Temp\ccItJH9a.s 			page 58


 1400 045c 04020440 		.word	1074004484
 1401 0460 F0000000 		.word	240
 1402 0464 02000000 		.word	2
 1403 0468 04       		.byte	4
 1404 0469 01       		.byte	1
 1405 046a 03       		.byte	3
 1406 046b 00       		.space	1
 1407 046c 00020240 		.word	1073873408
 1408 0470 08020440 		.word	1074004488
 1409 0474 18020440 		.word	1074004504
 1410 0478 00020440 		.word	1074004480
 1411 047c 04020440 		.word	1074004484
 1412 0480 0F000000 		.word	15
 1413 0484 01000000 		.word	1
 1414 0488 00       		.byte	0
 1415 0489 00       		.byte	0
 1416 048a 00       		.byte	0
 1417 048b 00       		.space	1
 1418 048c 00010240 		.word	1073873152
 1419 0490 08010440 		.word	1074004232
 1420 0494 18010440 		.word	1074004248
 1421 0498 00010440 		.word	1074004224
 1422 049c 04010440 		.word	1074004228
 1423 04a0 0000000F 		.word	251658240
 1424 04a4 40000000 		.word	64
 1425 04a8 18       		.byte	24
 1426 04a9 06       		.byte	6
 1427 04aa 12       		.byte	18
 1428 04ab 00       		.space	1
 1429 04ac 00010240 		.word	1073873152
 1430 04b0 08010440 		.word	1074004232
 1431 04b4 18010440 		.word	1074004248
 1432 04b8 00010440 		.word	1074004224
 1433 04bc 04010440 		.word	1074004228
 1434 04c0 0000F000 		.word	15728640
 1435 04c4 20000000 		.word	32
 1436 04c8 14       		.byte	20
 1437 04c9 05       		.byte	5
 1438 04ca 0F       		.byte	15
 1439 04cb 00       		.space	1
 1440 04cc 00010240 		.word	1073873152
 1441 04d0 08010440 		.word	1074004232
 1442 04d4 18010440 		.word	1074004248
 1443 04d8 00010440 		.word	1074004224
 1444 04dc 04010440 		.word	1074004228
 1445 04e0 00000F00 		.word	983040
 1446 04e4 10000000 		.word	16
 1447 04e8 10       		.byte	16
 1448 04e9 04       		.byte	4
 1449 04ea 0C       		.byte	12
 1450 04eb 00       		.space	1
 1451 04ec 00010240 		.word	1073873152
 1452 04f0 08010440 		.word	1074004232
 1453 04f4 18010440 		.word	1074004248
 1454 04f8 00010440 		.word	1074004224
 1455 04fc 04010440 		.word	1074004228
 1456 0500 000F0000 		.word	3840
ARM GAS  C:\Users\YUANFA~1\AppData\Local\Temp\ccItJH9a.s 			page 59


 1457 0504 04000000 		.word	4
 1458 0508 08       		.byte	8
 1459 0509 02       		.byte	2
 1460 050a 06       		.byte	6
 1461 050b 00       		.space	1
 1462 050c 00010240 		.word	1073873152
 1463 0510 08010440 		.word	1074004232
 1464 0514 18010440 		.word	1074004248
 1465 0518 00010440 		.word	1074004224
 1466 051c 04010440 		.word	1074004228
 1467 0520 F0000000 		.word	240
 1468 0524 02000000 		.word	2
 1469 0528 04       		.byte	4
 1470 0529 01       		.byte	1
 1471 052a 03       		.byte	3
 1472 052b 00       		.space	1
 1473 052c 00010240 		.word	1073873152
 1474 0530 08010440 		.word	1074004232
 1475 0534 18010440 		.word	1074004248
 1476 0538 00010440 		.word	1074004224
 1477 053c 04010440 		.word	1074004228
 1478 0540 0F000000 		.word	15
 1479 0544 01000000 		.word	1
 1480 0548 00       		.byte	0
 1481 0549 00       		.byte	0
 1482 054a 00       		.byte	0
 1483 054b 00       		.space	1
 1484 054c 00040240 		.word	1073873920
 1485 0550 08040440 		.word	1074005000
 1486 0554 18040440 		.word	1074005016
 1487 0558 00040440 		.word	1074004992
 1488 055c 04040440 		.word	1074004996
 1489 0560 00000F00 		.word	983040
 1490 0564 10000000 		.word	16
 1491 0568 10       		.byte	16
 1492 0569 04       		.byte	4
 1493 056a 0C       		.byte	12
 1494 056b 00       		.space	1
 1495 056c 00040240 		.word	1073873920
 1496 0570 08040440 		.word	1074005000
 1497 0574 18040440 		.word	1074005016
 1498 0578 00040440 		.word	1074004992
 1499 057c 04040440 		.word	1074004996
 1500 0580 0000F000 		.word	15728640
 1501 0584 20000000 		.word	32
 1502 0588 14       		.byte	20
 1503 0589 05       		.byte	5
 1504 058a 0F       		.byte	15
 1505 058b 00       		.space	1
 1506 058c 00040240 		.word	1073873920
 1507 0590 08040440 		.word	1074005000
 1508 0594 18040440 		.word	1074005016
 1509 0598 00040440 		.word	1074004992
 1510 059c 04040440 		.word	1074004996
 1511 05a0 0000000F 		.word	251658240
 1512 05a4 40000000 		.word	64
 1513 05a8 18       		.byte	24
ARM GAS  C:\Users\YUANFA~1\AppData\Local\Temp\ccItJH9a.s 			page 60


 1514 05a9 06       		.byte	6
 1515 05aa 12       		.byte	18
 1516 05ab 00       		.space	1
 1517 05ac 00040240 		.word	1073873920
 1518 05b0 08040440 		.word	1074005000
 1519 05b4 18040440 		.word	1074005016
 1520 05b8 00040440 		.word	1074004992
 1521 05bc 04040440 		.word	1074004996
 1522 05c0 000000F0 		.word	-268435456
 1523 05c4 80000000 		.word	128
 1524 05c8 1C       		.byte	28
 1525 05c9 07       		.byte	7
 1526 05ca 15       		.byte	21
 1527 05cb 00       		.space	1
 1528 05cc 00050240 		.word	1073874176
 1529 05d0 08050440 		.word	1074005256
 1530 05d4 18050440 		.word	1074005272
 1531 05d8 00050440 		.word	1074005248
 1532 05dc 04050440 		.word	1074005252
 1533 05e0 0000000F 		.word	251658240
 1534 05e4 40000000 		.word	64
 1535 05e8 18       		.byte	24
 1536 05e9 06       		.byte	6
 1537 05ea 12       		.byte	18
 1538 05eb 00       		.space	1
 1539 05ec 00050240 		.word	1073874176
 1540 05f0 08050440 		.word	1074005256
 1541 05f4 18050440 		.word	1074005272
 1542 05f8 00050440 		.word	1074005248
 1543 05fc 04050440 		.word	1074005252
 1544 0600 000000F0 		.word	-268435456
 1545 0604 80000000 		.word	128
 1546 0608 1C       		.byte	28
 1547 0609 07       		.byte	7
 1548 060a 15       		.byte	21
 1549 060b 00       		.space	1
 1550 060c 00020240 		.word	1073873408
 1551 0610 08020440 		.word	1074004488
 1552 0614 18020440 		.word	1074004504
 1553 0618 00020440 		.word	1074004480
 1554 061c 04020440 		.word	1074004484
 1555 0620 0000F000 		.word	15728640
 1556 0624 20000000 		.word	32
 1557 0628 14       		.byte	20
 1558 0629 05       		.byte	5
 1559 062a 0F       		.byte	15
 1560 062b 00       		.space	1
 1561 062c 00020240 		.word	1073873408
 1562 0630 08020440 		.word	1074004488
 1563 0634 18020440 		.word	1074004504
 1564 0638 00020440 		.word	1074004480
 1565 063c 04020440 		.word	1074004484
 1566 0640 0000000F 		.word	251658240
 1567 0644 40000000 		.word	64
 1568 0648 18       		.byte	24
 1569 0649 06       		.byte	6
 1570 064a 12       		.byte	18
ARM GAS  C:\Users\YUANFA~1\AppData\Local\Temp\ccItJH9a.s 			page 61


 1571 064b 00       		.space	1
 1572 064c 00020240 		.word	1073873408
 1573 0650 08020440 		.word	1074004488
 1574 0654 18020440 		.word	1074004504
 1575 0658 00020440 		.word	1074004480
 1576 065c 04020440 		.word	1074004484
 1577 0660 000000F0 		.word	-268435456
 1578 0664 80000000 		.word	128
 1579 0668 1C       		.byte	28
 1580 0669 07       		.byte	7
 1581 066a 15       		.byte	21
 1582 066b 00       		.space	1
 1583 066c 00060240 		.word	1073874432
 1584 0670 08060440 		.word	1074005512
 1585 0674 18060440 		.word	1074005528
 1586 0678 00060440 		.word	1074005504
 1587 067c 04060440 		.word	1074005508
 1588 0680 00000F00 		.word	983040
 1589 0684 10000000 		.word	16
 1590 0688 10       		.byte	16
 1591 0689 04       		.byte	4
 1592 068a 0C       		.byte	12
 1593 068b 00       		.space	1
 1594              		.bss
 1595              		.align	2
 1596              		.type	CapSense_debounceButton18, %object
 1597              		.size	CapSense_debounceButton18, 1
 1598              	CapSense_debounceButton18:
 1599 0000 00       		.space	1
 1600 0001 000000   		.space	3
 1601              		.type	CapSense_debounceButton17, %object
 1602              		.size	CapSense_debounceButton17, 1
 1603              	CapSense_debounceButton17:
 1604 0004 00       		.space	1
 1605 0005 000000   		.space	3
 1606              		.type	CapSense_debounceButton16, %object
 1607              		.size	CapSense_debounceButton16, 1
 1608              	CapSense_debounceButton16:
 1609 0008 00       		.space	1
 1610 0009 000000   		.space	3
 1611              		.type	CapSense_debounceButton15, %object
 1612              		.size	CapSense_debounceButton15, 1
 1613              	CapSense_debounceButton15:
 1614 000c 00       		.space	1
 1615 000d 000000   		.space	3
 1616              		.type	CapSense_debounceButton14, %object
 1617              		.size	CapSense_debounceButton14, 1
 1618              	CapSense_debounceButton14:
 1619 0010 00       		.space	1
 1620 0011 000000   		.space	3
 1621              		.type	CapSense_debounceButton13, %object
 1622              		.size	CapSense_debounceButton13, 1
 1623              	CapSense_debounceButton13:
 1624 0014 00       		.space	1
 1625 0015 000000   		.space	3
 1626              		.type	CapSense_debounceButton12, %object
 1627              		.size	CapSense_debounceButton12, 1
ARM GAS  C:\Users\YUANFA~1\AppData\Local\Temp\ccItJH9a.s 			page 62


 1628              	CapSense_debounceButton12:
 1629 0018 00       		.space	1
 1630 0019 000000   		.space	3
 1631              		.type	CapSense_debounceButton11, %object
 1632              		.size	CapSense_debounceButton11, 1
 1633              	CapSense_debounceButton11:
 1634 001c 00       		.space	1
 1635 001d 000000   		.space	3
 1636              		.type	CapSense_debounceButton10, %object
 1637              		.size	CapSense_debounceButton10, 1
 1638              	CapSense_debounceButton10:
 1639 0020 00       		.space	1
 1640 0021 000000   		.space	3
 1641              		.type	CapSense_debounceButton9, %object
 1642              		.size	CapSense_debounceButton9, 1
 1643              	CapSense_debounceButton9:
 1644 0024 00       		.space	1
 1645 0025 000000   		.space	3
 1646              		.type	CapSense_debounceButton8, %object
 1647              		.size	CapSense_debounceButton8, 1
 1648              	CapSense_debounceButton8:
 1649 0028 00       		.space	1
 1650 0029 000000   		.space	3
 1651              		.type	CapSense_debounceButton7, %object
 1652              		.size	CapSense_debounceButton7, 1
 1653              	CapSense_debounceButton7:
 1654 002c 00       		.space	1
 1655 002d 000000   		.space	3
 1656              		.type	CapSense_debounceButton6, %object
 1657              		.size	CapSense_debounceButton6, 1
 1658              	CapSense_debounceButton6:
 1659 0030 00       		.space	1
 1660 0031 000000   		.space	3
 1661              		.type	CapSense_debounceButton5, %object
 1662              		.size	CapSense_debounceButton5, 1
 1663              	CapSense_debounceButton5:
 1664 0034 00       		.space	1
 1665 0035 000000   		.space	3
 1666              		.type	CapSense_debounceButton4, %object
 1667              		.size	CapSense_debounceButton4, 1
 1668              	CapSense_debounceButton4:
 1669 0038 00       		.space	1
 1670 0039 000000   		.space	3
 1671              		.type	CapSense_debounceButton3, %object
 1672              		.size	CapSense_debounceButton3, 1
 1673              	CapSense_debounceButton3:
 1674 003c 00       		.space	1
 1675 003d 000000   		.space	3
 1676              		.type	CapSense_debounceButton2, %object
 1677              		.size	CapSense_debounceButton2, 1
 1678              	CapSense_debounceButton2:
 1679 0040 00       		.space	1
 1680 0041 000000   		.space	3
 1681              		.type	CapSense_debounceButton1, %object
 1682              		.size	CapSense_debounceButton1, 1
 1683              	CapSense_debounceButton1:
 1684 0044 00       		.space	1
ARM GAS  C:\Users\YUANFA~1\AppData\Local\Temp\ccItJH9a.s 			page 63


 1685 0045 000000   		.space	3
 1686              		.type	CapSense_debounceButton0, %object
 1687              		.size	CapSense_debounceButton0, 1
 1688              	CapSense_debounceButton0:
 1689 0048 00       		.space	1
 1690              		.text
 1691              	.Letext0:
 1692              		.file 2 "Generated_Source\\PSoC4/cytypes.h"
 1693              		.file 3 "Generated_Source\\PSoC4\\CapSense_Configuration.h"
 1694              		.file 4 "Generated_Source\\PSoC4\\CapSense_Structure.h"
 1695              		.file 5 "Generated_Source\\PSoC4\\CyLib.h"
 1696              		.file 6 "Generated_Source\\PSoC4\\CapSense_SelfTest.h"
 1697              		.section	.debug_info,"",%progbits
 1698              	.Ldebug_info0:
 1699 0000 6E110000 		.4byte	0x116e
 1700 0004 0400     		.2byte	0x4
 1701 0006 00000000 		.4byte	.Ldebug_abbrev0
 1702 000a 04       		.byte	0x4
 1703 000b 01       		.uleb128 0x1
 1704 000c 50020000 		.4byte	.LASF211
 1705 0010 0C       		.byte	0xc
 1706 0011 97010000 		.4byte	.LASF212
 1707 0015 810B0000 		.4byte	.LASF213
 1708 0019 00000000 		.4byte	.Ldebug_ranges0+0
 1709 001d 00000000 		.4byte	0
 1710 0021 00000000 		.4byte	.Ldebug_line0
 1711 0025 02       		.uleb128 0x2
 1712 0026 01       		.byte	0x1
 1713 0027 06       		.byte	0x6
 1714 0028 010C0000 		.4byte	.LASF0
 1715 002c 02       		.uleb128 0x2
 1716 002d 01       		.byte	0x1
 1717 002e 08       		.byte	0x8
 1718 002f 010B0000 		.4byte	.LASF1
 1719 0033 02       		.uleb128 0x2
 1720 0034 02       		.byte	0x2
 1721 0035 05       		.byte	0x5
 1722 0036 18090000 		.4byte	.LASF2
 1723 003a 02       		.uleb128 0x2
 1724 003b 02       		.byte	0x2
 1725 003c 07       		.byte	0x7
 1726 003d 120C0000 		.4byte	.LASF3
 1727 0041 02       		.uleb128 0x2
 1728 0042 04       		.byte	0x4
 1729 0043 05       		.byte	0x5
 1730 0044 36090000 		.4byte	.LASF4
 1731 0048 02       		.uleb128 0x2
 1732 0049 04       		.byte	0x4
 1733 004a 07       		.byte	0x7
 1734 004b 620A0000 		.4byte	.LASF5
 1735 004f 02       		.uleb128 0x2
 1736 0050 08       		.byte	0x8
 1737 0051 05       		.byte	0x5
 1738 0052 55060000 		.4byte	.LASF6
 1739 0056 02       		.uleb128 0x2
 1740 0057 08       		.byte	0x8
 1741 0058 07       		.byte	0x7
ARM GAS  C:\Users\YUANFA~1\AppData\Local\Temp\ccItJH9a.s 			page 64


 1742 0059 F1020000 		.4byte	.LASF7
 1743 005d 03       		.uleb128 0x3
 1744 005e 04       		.byte	0x4
 1745 005f 05       		.byte	0x5
 1746 0060 696E7400 		.ascii	"int\000"
 1747 0064 02       		.uleb128 0x2
 1748 0065 04       		.byte	0x4
 1749 0066 07       		.byte	0x7
 1750 0067 F1000000 		.4byte	.LASF8
 1751 006b 04       		.uleb128 0x4
 1752 006c 5B0C0000 		.4byte	.LASF9
 1753 0070 02       		.byte	0x2
 1754 0071 FB01     		.2byte	0x1fb
 1755 0073 2C000000 		.4byte	0x2c
 1756 0077 04       		.uleb128 0x4
 1757 0078 C7050000 		.4byte	.LASF10
 1758 007c 02       		.byte	0x2
 1759 007d FC01     		.2byte	0x1fc
 1760 007f 3A000000 		.4byte	0x3a
 1761 0083 04       		.uleb128 0x4
 1762 0084 C8070000 		.4byte	.LASF11
 1763 0088 02       		.byte	0x2
 1764 0089 FD01     		.2byte	0x1fd
 1765 008b 48000000 		.4byte	0x48
 1766 008f 02       		.uleb128 0x2
 1767 0090 04       		.byte	0x4
 1768 0091 04       		.byte	0x4
 1769 0092 3A020000 		.4byte	.LASF12
 1770 0096 02       		.uleb128 0x2
 1771 0097 08       		.byte	0x8
 1772 0098 04       		.byte	0x4
 1773 0099 610C0000 		.4byte	.LASF13
 1774 009d 02       		.uleb128 0x2
 1775 009e 01       		.byte	0x1
 1776 009f 08       		.byte	0x8
 1777 00a0 9F040000 		.4byte	.LASF14
 1778 00a4 04       		.uleb128 0x4
 1779 00a5 F30A0000 		.4byte	.LASF15
 1780 00a9 02       		.byte	0x2
 1781 00aa 9D02     		.2byte	0x29d
 1782 00ac 48000000 		.4byte	0x48
 1783 00b0 05       		.uleb128 0x5
 1784 00b1 6B000000 		.4byte	0x6b
 1785 00b5 05       		.uleb128 0x5
 1786 00b6 77000000 		.4byte	0x77
 1787 00ba 04       		.uleb128 0x4
 1788 00bb 9A080000 		.4byte	.LASF16
 1789 00bf 02       		.byte	0x2
 1790 00c0 A702     		.2byte	0x2a7
 1791 00c2 C6000000 		.4byte	0xc6
 1792 00c6 05       		.uleb128 0x5
 1793 00c7 83000000 		.4byte	0x83
 1794 00cb 02       		.uleb128 0x2
 1795 00cc 08       		.byte	0x8
 1796 00cd 04       		.byte	0x4
 1797 00ce 57080000 		.4byte	.LASF17
 1798 00d2 02       		.uleb128 0x2
ARM GAS  C:\Users\YUANFA~1\AppData\Local\Temp\ccItJH9a.s 			page 65


 1799 00d3 04       		.byte	0x4
 1800 00d4 07       		.byte	0x7
 1801 00d5 510A0000 		.4byte	.LASF18
 1802 00d9 06       		.uleb128 0x6
 1803 00da 04       		.byte	0x4
 1804 00db 04       		.uleb128 0x4
 1805 00dc 610B0000 		.4byte	.LASF19
 1806 00e0 03       		.byte	0x3
 1807 00e1 6601     		.2byte	0x166
 1808 00e3 77000000 		.4byte	0x77
 1809 00e7 04       		.uleb128 0x4
 1810 00e8 F6050000 		.4byte	.LASF20
 1811 00ec 03       		.byte	0x3
 1812 00ed 6A01     		.2byte	0x16a
 1813 00ef 6B000000 		.4byte	0x6b
 1814 00f3 07       		.uleb128 0x7
 1815 00f4 01       		.byte	0x1
 1816 00f5 2C000000 		.4byte	0x2c
 1817 00f9 04       		.byte	0x4
 1818 00fa 61       		.byte	0x61
 1819 00fb 2A010000 		.4byte	0x12a
 1820 00ff 08       		.uleb128 0x8
 1821 0100 BF090000 		.4byte	.LASF21
 1822 0104 01       		.byte	0x1
 1823 0105 08       		.uleb128 0x8
 1824 0106 E4070000 		.4byte	.LASF22
 1825 010a 02       		.byte	0x2
 1826 010b 08       		.uleb128 0x8
 1827 010c EF030000 		.4byte	.LASF23
 1828 0110 03       		.byte	0x3
 1829 0111 08       		.uleb128 0x8
 1830 0112 08030000 		.4byte	.LASF24
 1831 0116 04       		.byte	0x4
 1832 0117 08       		.uleb128 0x8
 1833 0118 CE010000 		.4byte	.LASF25
 1834 011c 05       		.byte	0x5
 1835 011d 08       		.uleb128 0x8
 1836 011e 3F000000 		.4byte	.LASF26
 1837 0122 06       		.byte	0x6
 1838 0123 08       		.uleb128 0x8
 1839 0124 F1080000 		.4byte	.LASF27
 1840 0128 07       		.byte	0x7
 1841 0129 00       		.byte	0
 1842 012a 09       		.uleb128 0x9
 1843 012b 6B000000 		.4byte	0x6b
 1844 012f 3A010000 		.4byte	0x13a
 1845 0133 0A       		.uleb128 0xa
 1846 0134 D2000000 		.4byte	0xd2
 1847 0138 00       		.byte	0
 1848 0139 00       		.byte	0
 1849 013a 0B       		.uleb128 0xb
 1850 013b 16       		.byte	0x16
 1851 013c 04       		.byte	0x4
 1852 013d 0301     		.2byte	0x103
 1853 013f FA010000 		.4byte	0x1fa
 1854 0143 0C       		.uleb128 0xc
 1855 0144 63726300 		.ascii	"crc\000"
ARM GAS  C:\Users\YUANFA~1\AppData\Local\Temp\ccItJH9a.s 			page 66


 1856 0148 04       		.byte	0x4
 1857 0149 0801     		.2byte	0x108
 1858 014b 77000000 		.4byte	0x77
 1859 014f 00       		.byte	0
 1860 0150 0D       		.uleb128 0xd
 1861 0151 E4050000 		.4byte	.LASF28
 1862 0155 04       		.byte	0x4
 1863 0156 0D01     		.2byte	0x10d
 1864 0158 77000000 		.4byte	0x77
 1865 015c 02       		.byte	0x2
 1866 015d 0D       		.uleb128 0xd
 1867 015e C40A0000 		.4byte	.LASF29
 1868 0162 04       		.byte	0x4
 1869 0163 1201     		.2byte	0x112
 1870 0165 DB000000 		.4byte	0xdb
 1871 0169 04       		.byte	0x4
 1872 016a 0D       		.uleb128 0xd
 1873 016b 97040000 		.4byte	.LASF30
 1874 016f 04       		.byte	0x4
 1875 0170 1701     		.2byte	0x117
 1876 0172 6B000000 		.4byte	0x6b
 1877 0176 06       		.byte	0x6
 1878 0177 0D       		.uleb128 0xd
 1879 0178 AB070000 		.4byte	.LASF31
 1880 017c 04       		.byte	0x4
 1881 017d 1C01     		.2byte	0x11c
 1882 017f 6B000000 		.4byte	0x6b
 1883 0183 07       		.byte	0x7
 1884 0184 0D       		.uleb128 0xd
 1885 0185 E4030000 		.4byte	.LASF32
 1886 0189 04       		.byte	0x4
 1887 018a 2201     		.2byte	0x122
 1888 018c 6B000000 		.4byte	0x6b
 1889 0190 08       		.byte	0x8
 1890 0191 0D       		.uleb128 0xd
 1891 0192 18070000 		.4byte	.LASF33
 1892 0196 04       		.byte	0x4
 1893 0197 2801     		.2byte	0x128
 1894 0199 6B000000 		.4byte	0x6b
 1895 019d 09       		.byte	0x9
 1896 019e 0D       		.uleb128 0xd
 1897 019f 37040000 		.4byte	.LASF34
 1898 01a3 04       		.byte	0x4
 1899 01a4 2F01     		.2byte	0x12f
 1900 01a6 E7000000 		.4byte	0xe7
 1901 01aa 0A       		.byte	0xa
 1902 01ab 0D       		.uleb128 0xd
 1903 01ac A00A0000 		.4byte	.LASF35
 1904 01b0 04       		.byte	0x4
 1905 01b1 3601     		.2byte	0x136
 1906 01b3 2A010000 		.4byte	0x12a
 1907 01b7 0B       		.byte	0xb
 1908 01b8 0D       		.uleb128 0xd
 1909 01b9 1A020000 		.4byte	.LASF36
 1910 01bd 04       		.byte	0x4
 1911 01be 3B01     		.2byte	0x13b
 1912 01c0 6B000000 		.4byte	0x6b
ARM GAS  C:\Users\YUANFA~1\AppData\Local\Temp\ccItJH9a.s 			page 67


 1913 01c4 0C       		.byte	0xc
 1914 01c5 0D       		.uleb128 0xd
 1915 01c6 D90B0000 		.4byte	.LASF37
 1916 01ca 04       		.byte	0x4
 1917 01cb 4301     		.2byte	0x143
 1918 01cd 77000000 		.4byte	0x77
 1919 01d1 0E       		.byte	0xe
 1920 01d2 0D       		.uleb128 0xd
 1921 01d3 0B090000 		.4byte	.LASF38
 1922 01d7 04       		.byte	0x4
 1923 01d8 4801     		.2byte	0x148
 1924 01da 6B000000 		.4byte	0x6b
 1925 01de 10       		.byte	0x10
 1926 01df 0D       		.uleb128 0xd
 1927 01e0 300A0000 		.4byte	.LASF39
 1928 01e4 04       		.byte	0x4
 1929 01e5 4E01     		.2byte	0x14e
 1930 01e7 77000000 		.4byte	0x77
 1931 01eb 12       		.byte	0x12
 1932 01ec 0D       		.uleb128 0xd
 1933 01ed D7030000 		.4byte	.LASF40
 1934 01f1 04       		.byte	0x4
 1935 01f2 5301     		.2byte	0x153
 1936 01f4 77000000 		.4byte	0x77
 1937 01f8 14       		.byte	0x14
 1938 01f9 00       		.byte	0
 1939 01fa 04       		.uleb128 0x4
 1940 01fb D50A0000 		.4byte	.LASF41
 1941 01ff 04       		.byte	0x4
 1942 0200 5401     		.2byte	0x154
 1943 0202 3A010000 		.4byte	0x13a
 1944 0206 0E       		.uleb128 0xe
 1945 0207 A201     		.2byte	0x1a2
 1946 0209 04       		.byte	0x4
 1947 020a 5A01     		.2byte	0x15a
 1948 020c 0F030000 		.4byte	0x30f
 1949 0210 0D       		.uleb128 0xd
 1950 0211 8F090000 		.4byte	.LASF42
 1951 0215 04       		.byte	0x4
 1952 0216 5F01     		.2byte	0x15f
 1953 0218 FA010000 		.4byte	0x1fa
 1954 021c 00       		.byte	0
 1955 021d 0D       		.uleb128 0xd
 1956 021e 97090000 		.4byte	.LASF43
 1957 0222 04       		.byte	0x4
 1958 0223 6401     		.2byte	0x164
 1959 0225 FA010000 		.4byte	0x1fa
 1960 0229 16       		.byte	0x16
 1961 022a 0D       		.uleb128 0xd
 1962 022b 9F090000 		.4byte	.LASF44
 1963 022f 04       		.byte	0x4
 1964 0230 6901     		.2byte	0x169
 1965 0232 FA010000 		.4byte	0x1fa
 1966 0236 2C       		.byte	0x2c
 1967 0237 0D       		.uleb128 0xd
 1968 0238 A7090000 		.4byte	.LASF45
 1969 023c 04       		.byte	0x4
ARM GAS  C:\Users\YUANFA~1\AppData\Local\Temp\ccItJH9a.s 			page 68


 1970 023d 6E01     		.2byte	0x16e
 1971 023f FA010000 		.4byte	0x1fa
 1972 0243 42       		.byte	0x42
 1973 0244 0D       		.uleb128 0xd
 1974 0245 AF090000 		.4byte	.LASF46
 1975 0249 04       		.byte	0x4
 1976 024a 7301     		.2byte	0x173
 1977 024c FA010000 		.4byte	0x1fa
 1978 0250 58       		.byte	0x58
 1979 0251 0D       		.uleb128 0xd
 1980 0252 B7090000 		.4byte	.LASF47
 1981 0256 04       		.byte	0x4
 1982 0257 7801     		.2byte	0x178
 1983 0259 FA010000 		.4byte	0x1fa
 1984 025d 6E       		.byte	0x6e
 1985 025e 0D       		.uleb128 0xd
 1986 025f 4D070000 		.4byte	.LASF48
 1987 0263 04       		.byte	0x4
 1988 0264 7D01     		.2byte	0x17d
 1989 0266 FA010000 		.4byte	0x1fa
 1990 026a 84       		.byte	0x84
 1991 026b 0D       		.uleb128 0xd
 1992 026c D4090000 		.4byte	.LASF49
 1993 0270 04       		.byte	0x4
 1994 0271 8201     		.2byte	0x182
 1995 0273 FA010000 		.4byte	0x1fa
 1996 0277 9A       		.byte	0x9a
 1997 0278 0D       		.uleb128 0xd
 1998 0279 DC090000 		.4byte	.LASF50
 1999 027d 04       		.byte	0x4
 2000 027e 8701     		.2byte	0x187
 2001 0280 FA010000 		.4byte	0x1fa
 2002 0284 B0       		.byte	0xb0
 2003 0285 0D       		.uleb128 0xd
 2004 0286 E4090000 		.4byte	.LASF51
 2005 028a 04       		.byte	0x4
 2006 028b 8C01     		.2byte	0x18c
 2007 028d FA010000 		.4byte	0x1fa
 2008 0291 C6       		.byte	0xc6
 2009 0292 0D       		.uleb128 0xd
 2010 0293 B40C0000 		.4byte	.LASF52
 2011 0297 04       		.byte	0x4
 2012 0298 9101     		.2byte	0x191
 2013 029a FA010000 		.4byte	0x1fa
 2014 029e DC       		.byte	0xdc
 2015 029f 0D       		.uleb128 0xd
 2016 02a0 BD0C0000 		.4byte	.LASF53
 2017 02a4 04       		.byte	0x4
 2018 02a5 9601     		.2byte	0x196
 2019 02a7 FA010000 		.4byte	0x1fa
 2020 02ab F2       		.byte	0xf2
 2021 02ac 0F       		.uleb128 0xf
 2022 02ad 00000000 		.4byte	.LASF54
 2023 02b1 04       		.byte	0x4
 2024 02b2 9B01     		.2byte	0x19b
 2025 02b4 FA010000 		.4byte	0x1fa
 2026 02b8 0801     		.2byte	0x108
ARM GAS  C:\Users\YUANFA~1\AppData\Local\Temp\ccItJH9a.s 			page 69


 2027 02ba 0F       		.uleb128 0xf
 2028 02bb 09000000 		.4byte	.LASF55
 2029 02bf 04       		.byte	0x4
 2030 02c0 A001     		.2byte	0x1a0
 2031 02c2 FA010000 		.4byte	0x1fa
 2032 02c6 1E01     		.2byte	0x11e
 2033 02c8 0F       		.uleb128 0xf
 2034 02c9 12000000 		.4byte	.LASF56
 2035 02cd 04       		.byte	0x4
 2036 02ce A501     		.2byte	0x1a5
 2037 02d0 FA010000 		.4byte	0x1fa
 2038 02d4 3401     		.2byte	0x134
 2039 02d6 0F       		.uleb128 0xf
 2040 02d7 1B000000 		.4byte	.LASF57
 2041 02db 04       		.byte	0x4
 2042 02dc AA01     		.2byte	0x1aa
 2043 02de FA010000 		.4byte	0x1fa
 2044 02e2 4A01     		.2byte	0x14a
 2045 02e4 0F       		.uleb128 0xf
 2046 02e5 24000000 		.4byte	.LASF58
 2047 02e9 04       		.byte	0x4
 2048 02ea AF01     		.2byte	0x1af
 2049 02ec FA010000 		.4byte	0x1fa
 2050 02f0 6001     		.2byte	0x160
 2051 02f2 0F       		.uleb128 0xf
 2052 02f3 2D000000 		.4byte	.LASF59
 2053 02f7 04       		.byte	0x4
 2054 02f8 B401     		.2byte	0x1b4
 2055 02fa FA010000 		.4byte	0x1fa
 2056 02fe 7601     		.2byte	0x176
 2057 0300 0F       		.uleb128 0xf
 2058 0301 36000000 		.4byte	.LASF60
 2059 0305 04       		.byte	0x4
 2060 0306 B901     		.2byte	0x1b9
 2061 0308 FA010000 		.4byte	0x1fa
 2062 030c 8C01     		.2byte	0x18c
 2063 030e 00       		.byte	0
 2064 030f 04       		.uleb128 0x4
 2065 0310 E5010000 		.4byte	.LASF61
 2066 0314 04       		.byte	0x4
 2067 0315 BA01     		.2byte	0x1ba
 2068 0317 06020000 		.4byte	0x206
 2069 031b 0B       		.uleb128 0xb
 2070 031c 0C       		.byte	0xc
 2071 031d 04       		.byte	0x4
 2072 031e C001     		.2byte	0x1c0
 2073 0320 80030000 		.4byte	0x380
 2074 0324 0C       		.uleb128 0xc
 2075 0325 72617700 		.ascii	"raw\000"
 2076 0329 04       		.byte	0x4
 2077 032a C501     		.2byte	0x1c5
 2078 032c 80030000 		.4byte	0x380
 2079 0330 00       		.byte	0
 2080 0331 0D       		.uleb128 0xd
 2081 0332 0D0C0000 		.4byte	.LASF62
 2082 0336 04       		.byte	0x4
 2083 0337 CA01     		.2byte	0x1ca
ARM GAS  C:\Users\YUANFA~1\AppData\Local\Temp\ccItJH9a.s 			page 70


 2084 0339 80030000 		.4byte	0x380
 2085 033d 02       		.byte	0x2
 2086 033e 0D       		.uleb128 0xd
 2087 033f 790B0000 		.4byte	.LASF63
 2088 0343 04       		.byte	0x4
 2089 0344 CF01     		.2byte	0x1cf
 2090 0346 80030000 		.4byte	0x380
 2091 034a 04       		.byte	0x4
 2092 034b 0D       		.uleb128 0xd
 2093 034c CD0A0000 		.4byte	.LASF64
 2094 0350 04       		.byte	0x4
 2095 0351 D501     		.2byte	0x1d5
 2096 0353 2A010000 		.4byte	0x12a
 2097 0357 06       		.byte	0x6
 2098 0358 0D       		.uleb128 0xd
 2099 0359 60090000 		.4byte	.LASF65
 2100 035d 04       		.byte	0x4
 2101 035e DA01     		.2byte	0x1da
 2102 0360 DB000000 		.4byte	0xdb
 2103 0364 08       		.byte	0x8
 2104 0365 0D       		.uleb128 0xd
 2105 0366 680C0000 		.4byte	.LASF66
 2106 036a 04       		.byte	0x4
 2107 036b DF01     		.2byte	0x1df
 2108 036d 90030000 		.4byte	0x390
 2109 0371 0A       		.byte	0xa
 2110 0372 0D       		.uleb128 0xd
 2111 0373 1B060000 		.4byte	.LASF67
 2112 0377 04       		.byte	0x4
 2113 0378 E401     		.2byte	0x1e4
 2114 037a 2A010000 		.4byte	0x12a
 2115 037e 0B       		.byte	0xb
 2116 037f 00       		.byte	0
 2117 0380 09       		.uleb128 0x9
 2118 0381 77000000 		.4byte	0x77
 2119 0385 90030000 		.4byte	0x390
 2120 0389 0A       		.uleb128 0xa
 2121 038a D2000000 		.4byte	0xd2
 2122 038e 00       		.byte	0
 2123 038f 00       		.byte	0
 2124 0390 09       		.uleb128 0x9
 2125 0391 E7000000 		.4byte	0xe7
 2126 0395 A0030000 		.4byte	0x3a0
 2127 0399 0A       		.uleb128 0xa
 2128 039a D2000000 		.4byte	0xd2
 2129 039e 00       		.byte	0
 2130 039f 00       		.byte	0
 2131 03a0 04       		.uleb128 0x4
 2132 03a1 AC030000 		.4byte	.LASF68
 2133 03a5 04       		.byte	0x4
 2134 03a6 E501     		.2byte	0x1e5
 2135 03a8 1B030000 		.4byte	0x31b
 2136 03ac 0B       		.uleb128 0xb
 2137 03ad E4       		.byte	0xe4
 2138 03ae 04       		.byte	0x4
 2139 03af EB01     		.2byte	0x1eb
 2140 03b1 AD040000 		.4byte	0x4ad
ARM GAS  C:\Users\YUANFA~1\AppData\Local\Temp\ccItJH9a.s 			page 71


 2141 03b5 0D       		.uleb128 0xd
 2142 03b6 8F090000 		.4byte	.LASF42
 2143 03ba 04       		.byte	0x4
 2144 03bb F001     		.2byte	0x1f0
 2145 03bd AD040000 		.4byte	0x4ad
 2146 03c1 00       		.byte	0
 2147 03c2 0D       		.uleb128 0xd
 2148 03c3 97090000 		.4byte	.LASF43
 2149 03c7 04       		.byte	0x4
 2150 03c8 F501     		.2byte	0x1f5
 2151 03ca AD040000 		.4byte	0x4ad
 2152 03ce 0C       		.byte	0xc
 2153 03cf 0D       		.uleb128 0xd
 2154 03d0 9F090000 		.4byte	.LASF44
 2155 03d4 04       		.byte	0x4
 2156 03d5 FA01     		.2byte	0x1fa
 2157 03d7 AD040000 		.4byte	0x4ad
 2158 03db 18       		.byte	0x18
 2159 03dc 0D       		.uleb128 0xd
 2160 03dd A7090000 		.4byte	.LASF45
 2161 03e1 04       		.byte	0x4
 2162 03e2 FF01     		.2byte	0x1ff
 2163 03e4 AD040000 		.4byte	0x4ad
 2164 03e8 24       		.byte	0x24
 2165 03e9 0D       		.uleb128 0xd
 2166 03ea AF090000 		.4byte	.LASF46
 2167 03ee 04       		.byte	0x4
 2168 03ef 0402     		.2byte	0x204
 2169 03f1 AD040000 		.4byte	0x4ad
 2170 03f5 30       		.byte	0x30
 2171 03f6 0D       		.uleb128 0xd
 2172 03f7 B7090000 		.4byte	.LASF47
 2173 03fb 04       		.byte	0x4
 2174 03fc 0902     		.2byte	0x209
 2175 03fe AD040000 		.4byte	0x4ad
 2176 0402 3C       		.byte	0x3c
 2177 0403 0D       		.uleb128 0xd
 2178 0404 4D070000 		.4byte	.LASF48
 2179 0408 04       		.byte	0x4
 2180 0409 0E02     		.2byte	0x20e
 2181 040b AD040000 		.4byte	0x4ad
 2182 040f 48       		.byte	0x48
 2183 0410 0D       		.uleb128 0xd
 2184 0411 D4090000 		.4byte	.LASF49
 2185 0415 04       		.byte	0x4
 2186 0416 1302     		.2byte	0x213
 2187 0418 AD040000 		.4byte	0x4ad
 2188 041c 54       		.byte	0x54
 2189 041d 0D       		.uleb128 0xd
 2190 041e DC090000 		.4byte	.LASF50
 2191 0422 04       		.byte	0x4
 2192 0423 1802     		.2byte	0x218
 2193 0425 AD040000 		.4byte	0x4ad
 2194 0429 60       		.byte	0x60
 2195 042a 0D       		.uleb128 0xd
 2196 042b E4090000 		.4byte	.LASF51
 2197 042f 04       		.byte	0x4
ARM GAS  C:\Users\YUANFA~1\AppData\Local\Temp\ccItJH9a.s 			page 72


 2198 0430 1D02     		.2byte	0x21d
 2199 0432 AD040000 		.4byte	0x4ad
 2200 0436 6C       		.byte	0x6c
 2201 0437 0D       		.uleb128 0xd
 2202 0438 B40C0000 		.4byte	.LASF52
 2203 043c 04       		.byte	0x4
 2204 043d 2202     		.2byte	0x222
 2205 043f AD040000 		.4byte	0x4ad
 2206 0443 78       		.byte	0x78
 2207 0444 0D       		.uleb128 0xd
 2208 0445 BD0C0000 		.4byte	.LASF53
 2209 0449 04       		.byte	0x4
 2210 044a 2702     		.2byte	0x227
 2211 044c AD040000 		.4byte	0x4ad
 2212 0450 84       		.byte	0x84
 2213 0451 0D       		.uleb128 0xd
 2214 0452 00000000 		.4byte	.LASF54
 2215 0456 04       		.byte	0x4
 2216 0457 2C02     		.2byte	0x22c
 2217 0459 AD040000 		.4byte	0x4ad
 2218 045d 90       		.byte	0x90
 2219 045e 0D       		.uleb128 0xd
 2220 045f 09000000 		.4byte	.LASF55
 2221 0463 04       		.byte	0x4
 2222 0464 3102     		.2byte	0x231
 2223 0466 AD040000 		.4byte	0x4ad
 2224 046a 9C       		.byte	0x9c
 2225 046b 0D       		.uleb128 0xd
 2226 046c 12000000 		.4byte	.LASF56
 2227 0470 04       		.byte	0x4
 2228 0471 3602     		.2byte	0x236
 2229 0473 AD040000 		.4byte	0x4ad
 2230 0477 A8       		.byte	0xa8
 2231 0478 0D       		.uleb128 0xd
 2232 0479 1B000000 		.4byte	.LASF57
 2233 047d 04       		.byte	0x4
 2234 047e 3B02     		.2byte	0x23b
 2235 0480 AD040000 		.4byte	0x4ad
 2236 0484 B4       		.byte	0xb4
 2237 0485 0D       		.uleb128 0xd
 2238 0486 24000000 		.4byte	.LASF58
 2239 048a 04       		.byte	0x4
 2240 048b 4002     		.2byte	0x240
 2241 048d AD040000 		.4byte	0x4ad
 2242 0491 C0       		.byte	0xc0
 2243 0492 0D       		.uleb128 0xd
 2244 0493 2D000000 		.4byte	.LASF59
 2245 0497 04       		.byte	0x4
 2246 0498 4502     		.2byte	0x245
 2247 049a AD040000 		.4byte	0x4ad
 2248 049e CC       		.byte	0xcc
 2249 049f 0D       		.uleb128 0xd
 2250 04a0 36000000 		.4byte	.LASF60
 2251 04a4 04       		.byte	0x4
 2252 04a5 4A02     		.2byte	0x24a
 2253 04a7 AD040000 		.4byte	0x4ad
 2254 04ab D8       		.byte	0xd8
ARM GAS  C:\Users\YUANFA~1\AppData\Local\Temp\ccItJH9a.s 			page 73


 2255 04ac 00       		.byte	0
 2256 04ad 09       		.uleb128 0x9
 2257 04ae A0030000 		.4byte	0x3a0
 2258 04b2 BD040000 		.4byte	0x4bd
 2259 04b6 0A       		.uleb128 0xa
 2260 04b7 D2000000 		.4byte	0xd2
 2261 04bb 00       		.byte	0
 2262 04bc 00       		.byte	0
 2263 04bd 04       		.uleb128 0x4
 2264 04be 880C0000 		.4byte	.LASF69
 2265 04c2 04       		.byte	0x4
 2266 04c3 4B02     		.2byte	0x24b
 2267 04c5 AC030000 		.4byte	0x3ac
 2268 04c9 0B       		.uleb128 0xb
 2269 04ca 14       		.byte	0x14
 2270 04cb 04       		.byte	0x4
 2271 04cc 5102     		.2byte	0x251
 2272 04ce 6F050000 		.4byte	0x56f
 2273 04d2 0D       		.uleb128 0xd
 2274 04d3 52040000 		.4byte	.LASF70
 2275 04d7 04       		.byte	0x4
 2276 04d8 5602     		.2byte	0x256
 2277 04da 83000000 		.4byte	0x83
 2278 04de 00       		.byte	0
 2279 04df 0D       		.uleb128 0xd
 2280 04e0 180A0000 		.4byte	.LASF71
 2281 04e4 04       		.byte	0x4
 2282 04e5 5B02     		.2byte	0x25b
 2283 04e7 80030000 		.4byte	0x380
 2284 04eb 04       		.byte	0x4
 2285 04ec 0D       		.uleb128 0xd
 2286 04ed 450A0000 		.4byte	.LASF72
 2287 04f1 04       		.byte	0x4
 2288 04f2 6002     		.2byte	0x260
 2289 04f4 77000000 		.4byte	0x77
 2290 04f8 06       		.byte	0x6
 2291 04f9 0D       		.uleb128 0xd
 2292 04fa BC050000 		.4byte	.LASF73
 2293 04fe 04       		.byte	0x4
 2294 04ff 6502     		.2byte	0x265
 2295 0501 77000000 		.4byte	0x77
 2296 0505 08       		.byte	0x8
 2297 0506 0D       		.uleb128 0xd
 2298 0507 A80A0000 		.4byte	.LASF74
 2299 050b 04       		.byte	0x4
 2300 050c 6B02     		.2byte	0x26b
 2301 050e 77000000 		.4byte	0x77
 2302 0512 0A       		.byte	0xa
 2303 0513 0D       		.uleb128 0xd
 2304 0514 8D040000 		.4byte	.LASF75
 2305 0518 04       		.byte	0x4
 2306 0519 7102     		.2byte	0x271
 2307 051b 6B000000 		.4byte	0x6b
 2308 051f 0C       		.byte	0xc
 2309 0520 0D       		.uleb128 0xd
 2310 0521 F6090000 		.4byte	.LASF76
 2311 0525 04       		.byte	0x4
ARM GAS  C:\Users\YUANFA~1\AppData\Local\Temp\ccItJH9a.s 			page 74


 2312 0526 7602     		.2byte	0x276
 2313 0528 6B000000 		.4byte	0x6b
 2314 052c 0D       		.byte	0xd
 2315 052d 0D       		.uleb128 0xd
 2316 052e CE050000 		.4byte	.LASF77
 2317 0532 04       		.byte	0x4
 2318 0533 7B02     		.2byte	0x27b
 2319 0535 6B000000 		.4byte	0x6b
 2320 0539 0E       		.byte	0xe
 2321 053a 0D       		.uleb128 0xd
 2322 053b 94030000 		.4byte	.LASF78
 2323 053f 04       		.byte	0x4
 2324 0540 8002     		.2byte	0x280
 2325 0542 6B000000 		.4byte	0x6b
 2326 0546 0F       		.byte	0xf
 2327 0547 0D       		.uleb128 0xd
 2328 0548 9E070000 		.4byte	.LASF79
 2329 054c 04       		.byte	0x4
 2330 054d 8502     		.2byte	0x285
 2331 054f 6B000000 		.4byte	0x6b
 2332 0553 10       		.byte	0x10
 2333 0554 0D       		.uleb128 0xd
 2334 0555 1A020000 		.4byte	.LASF36
 2335 0559 04       		.byte	0x4
 2336 055a 8A02     		.2byte	0x28a
 2337 055c 6B000000 		.4byte	0x6b
 2338 0560 11       		.byte	0x11
 2339 0561 0D       		.uleb128 0xd
 2340 0562 D90B0000 		.4byte	.LASF37
 2341 0566 04       		.byte	0x4
 2342 0567 8F02     		.2byte	0x28f
 2343 0569 77000000 		.4byte	0x77
 2344 056d 12       		.byte	0x12
 2345 056e 00       		.byte	0
 2346 056f 04       		.uleb128 0x4
 2347 0570 9E050000 		.4byte	.LASF80
 2348 0574 04       		.byte	0x4
 2349 0575 9002     		.2byte	0x290
 2350 0577 C9040000 		.4byte	0x4c9
 2351 057b 0B       		.uleb128 0xb
 2352 057c 4C       		.byte	0x4c
 2353 057d 04       		.byte	0x4
 2354 057e 9602     		.2byte	0x296
 2355 0580 7C060000 		.4byte	0x67c
 2356 0584 0D       		.uleb128 0xd
 2357 0585 8F090000 		.4byte	.LASF42
 2358 0589 04       		.byte	0x4
 2359 058a 9B02     		.2byte	0x29b
 2360 058c 7C060000 		.4byte	0x67c
 2361 0590 00       		.byte	0
 2362 0591 0D       		.uleb128 0xd
 2363 0592 97090000 		.4byte	.LASF43
 2364 0596 04       		.byte	0x4
 2365 0597 9F02     		.2byte	0x29f
 2366 0599 7C060000 		.4byte	0x67c
 2367 059d 04       		.byte	0x4
 2368 059e 0D       		.uleb128 0xd
ARM GAS  C:\Users\YUANFA~1\AppData\Local\Temp\ccItJH9a.s 			page 75


 2369 059f 9F090000 		.4byte	.LASF44
 2370 05a3 04       		.byte	0x4
 2371 05a4 A302     		.2byte	0x2a3
 2372 05a6 7C060000 		.4byte	0x67c
 2373 05aa 08       		.byte	0x8
 2374 05ab 0D       		.uleb128 0xd
 2375 05ac A7090000 		.4byte	.LASF45
 2376 05b0 04       		.byte	0x4
 2377 05b1 A702     		.2byte	0x2a7
 2378 05b3 7C060000 		.4byte	0x67c
 2379 05b7 0C       		.byte	0xc
 2380 05b8 0D       		.uleb128 0xd
 2381 05b9 AF090000 		.4byte	.LASF46
 2382 05bd 04       		.byte	0x4
 2383 05be AB02     		.2byte	0x2ab
 2384 05c0 7C060000 		.4byte	0x67c
 2385 05c4 10       		.byte	0x10
 2386 05c5 0D       		.uleb128 0xd
 2387 05c6 B7090000 		.4byte	.LASF47
 2388 05ca 04       		.byte	0x4
 2389 05cb AF02     		.2byte	0x2af
 2390 05cd 7C060000 		.4byte	0x67c
 2391 05d1 14       		.byte	0x14
 2392 05d2 0D       		.uleb128 0xd
 2393 05d3 4D070000 		.4byte	.LASF48
 2394 05d7 04       		.byte	0x4
 2395 05d8 B302     		.2byte	0x2b3
 2396 05da 7C060000 		.4byte	0x67c
 2397 05de 18       		.byte	0x18
 2398 05df 0D       		.uleb128 0xd
 2399 05e0 D4090000 		.4byte	.LASF49
 2400 05e4 04       		.byte	0x4
 2401 05e5 B702     		.2byte	0x2b7
 2402 05e7 7C060000 		.4byte	0x67c
 2403 05eb 1C       		.byte	0x1c
 2404 05ec 0D       		.uleb128 0xd
 2405 05ed DC090000 		.4byte	.LASF50
 2406 05f1 04       		.byte	0x4
 2407 05f2 BB02     		.2byte	0x2bb
 2408 05f4 7C060000 		.4byte	0x67c
 2409 05f8 20       		.byte	0x20
 2410 05f9 0D       		.uleb128 0xd
 2411 05fa E4090000 		.4byte	.LASF51
 2412 05fe 04       		.byte	0x4
 2413 05ff BF02     		.2byte	0x2bf
 2414 0601 7C060000 		.4byte	0x67c
 2415 0605 24       		.byte	0x24
 2416 0606 0D       		.uleb128 0xd
 2417 0607 B40C0000 		.4byte	.LASF52
 2418 060b 04       		.byte	0x4
 2419 060c C302     		.2byte	0x2c3
 2420 060e 7C060000 		.4byte	0x67c
 2421 0612 28       		.byte	0x28
 2422 0613 0D       		.uleb128 0xd
 2423 0614 BD0C0000 		.4byte	.LASF53
 2424 0618 04       		.byte	0x4
 2425 0619 C702     		.2byte	0x2c7
ARM GAS  C:\Users\YUANFA~1\AppData\Local\Temp\ccItJH9a.s 			page 76


 2426 061b 7C060000 		.4byte	0x67c
 2427 061f 2C       		.byte	0x2c
 2428 0620 0D       		.uleb128 0xd
 2429 0621 00000000 		.4byte	.LASF54
 2430 0625 04       		.byte	0x4
 2431 0626 CB02     		.2byte	0x2cb
 2432 0628 7C060000 		.4byte	0x67c
 2433 062c 30       		.byte	0x30
 2434 062d 0D       		.uleb128 0xd
 2435 062e 09000000 		.4byte	.LASF55
 2436 0632 04       		.byte	0x4
 2437 0633 CF02     		.2byte	0x2cf
 2438 0635 7C060000 		.4byte	0x67c
 2439 0639 34       		.byte	0x34
 2440 063a 0D       		.uleb128 0xd
 2441 063b 12000000 		.4byte	.LASF56
 2442 063f 04       		.byte	0x4
 2443 0640 D302     		.2byte	0x2d3
 2444 0642 7C060000 		.4byte	0x67c
 2445 0646 38       		.byte	0x38
 2446 0647 0D       		.uleb128 0xd
 2447 0648 1B000000 		.4byte	.LASF57
 2448 064c 04       		.byte	0x4
 2449 064d D702     		.2byte	0x2d7
 2450 064f 7C060000 		.4byte	0x67c
 2451 0653 3C       		.byte	0x3c
 2452 0654 0D       		.uleb128 0xd
 2453 0655 24000000 		.4byte	.LASF58
 2454 0659 04       		.byte	0x4
 2455 065a DB02     		.2byte	0x2db
 2456 065c 7C060000 		.4byte	0x67c
 2457 0660 40       		.byte	0x40
 2458 0661 0D       		.uleb128 0xd
 2459 0662 2D000000 		.4byte	.LASF59
 2460 0666 04       		.byte	0x4
 2461 0667 DF02     		.2byte	0x2df
 2462 0669 7C060000 		.4byte	0x67c
 2463 066d 44       		.byte	0x44
 2464 066e 0D       		.uleb128 0xd
 2465 066f 36000000 		.4byte	.LASF60
 2466 0673 04       		.byte	0x4
 2467 0674 E302     		.2byte	0x2e3
 2468 0676 7C060000 		.4byte	0x67c
 2469 067a 48       		.byte	0x48
 2470 067b 00       		.byte	0
 2471 067c 09       		.uleb128 0x9
 2472 067d 83000000 		.4byte	0x83
 2473 0681 8C060000 		.4byte	0x68c
 2474 0685 0A       		.uleb128 0xa
 2475 0686 D2000000 		.4byte	0xd2
 2476 068a 00       		.byte	0
 2477 068b 00       		.byte	0
 2478 068c 04       		.uleb128 0x4
 2479 068d 48010000 		.4byte	.LASF81
 2480 0691 04       		.byte	0x4
 2481 0692 E402     		.2byte	0x2e4
 2482 0694 7B050000 		.4byte	0x57b
ARM GAS  C:\Users\YUANFA~1\AppData\Local\Temp\ccItJH9a.s 			page 77


 2483 0698 0B       		.uleb128 0xb
 2484 0699 20       		.byte	0x20
 2485 069a 04       		.byte	0x4
 2486 069b E902     		.2byte	0x2e9
 2487 069d A6070000 		.4byte	0x7a6
 2488 06a1 0D       		.uleb128 0xd
 2489 06a2 A50C0000 		.4byte	.LASF82
 2490 06a6 04       		.byte	0x4
 2491 06a7 EE02     		.2byte	0x2ee
 2492 06a9 83000000 		.4byte	0x83
 2493 06ad 00       		.byte	0
 2494 06ae 0D       		.uleb128 0xd
 2495 06af 83010000 		.4byte	.LASF83
 2496 06b3 04       		.byte	0x4
 2497 06b4 F302     		.2byte	0x2f3
 2498 06b6 77000000 		.4byte	0x77
 2499 06ba 04       		.byte	0x4
 2500 06bb 0D       		.uleb128 0xd
 2501 06bc 45060000 		.4byte	.LASF84
 2502 06c0 04       		.byte	0x4
 2503 06c1 F802     		.2byte	0x2f8
 2504 06c3 77000000 		.4byte	0x77
 2505 06c7 06       		.byte	0x6
 2506 06c8 0D       		.uleb128 0xd
 2507 06c9 040A0000 		.4byte	.LASF85
 2508 06cd 04       		.byte	0x4
 2509 06ce FD02     		.2byte	0x2fd
 2510 06d0 77000000 		.4byte	0x77
 2511 06d4 08       		.byte	0x8
 2512 06d5 0D       		.uleb128 0xd
 2513 06d6 E00B0000 		.4byte	.LASF86
 2514 06da 04       		.byte	0x4
 2515 06db 0203     		.2byte	0x302
 2516 06dd 77000000 		.4byte	0x77
 2517 06e1 0A       		.byte	0xa
 2518 06e2 0D       		.uleb128 0xd
 2519 06e3 B3080000 		.4byte	.LASF87
 2520 06e7 04       		.byte	0x4
 2521 06e8 0703     		.2byte	0x307
 2522 06ea 77000000 		.4byte	0x77
 2523 06ee 0C       		.byte	0xc
 2524 06ef 0D       		.uleb128 0xd
 2525 06f0 8E0A0000 		.4byte	.LASF88
 2526 06f4 04       		.byte	0x4
 2527 06f5 0C03     		.2byte	0x30c
 2528 06f7 77000000 		.4byte	0x77
 2529 06fb 0E       		.byte	0xe
 2530 06fc 0D       		.uleb128 0xd
 2531 06fd 4D030000 		.4byte	.LASF89
 2532 0701 04       		.byte	0x4
 2533 0702 1103     		.2byte	0x311
 2534 0704 6B000000 		.4byte	0x6b
 2535 0708 10       		.byte	0x10
 2536 0709 0D       		.uleb128 0xd
 2537 070a 3B080000 		.4byte	.LASF90
 2538 070e 04       		.byte	0x4
 2539 070f 1603     		.2byte	0x316
ARM GAS  C:\Users\YUANFA~1\AppData\Local\Temp\ccItJH9a.s 			page 78


 2540 0711 6B000000 		.4byte	0x6b
 2541 0715 11       		.byte	0x11
 2542 0716 0D       		.uleb128 0xd
 2543 0717 48080000 		.4byte	.LASF91
 2544 071b 04       		.byte	0x4
 2545 071c 1B03     		.2byte	0x31b
 2546 071e 6B000000 		.4byte	0x6b
 2547 0722 12       		.byte	0x12
 2548 0723 0D       		.uleb128 0xd
 2549 0724 42040000 		.4byte	.LASF92
 2550 0728 04       		.byte	0x4
 2551 0729 2003     		.2byte	0x320
 2552 072b 6B000000 		.4byte	0x6b
 2553 072f 13       		.byte	0x13
 2554 0730 0D       		.uleb128 0xd
 2555 0731 7C040000 		.4byte	.LASF93
 2556 0735 04       		.byte	0x4
 2557 0736 2503     		.2byte	0x325
 2558 0738 6B000000 		.4byte	0x6b
 2559 073c 14       		.byte	0x14
 2560 073d 0D       		.uleb128 0xd
 2561 073e 6D040000 		.4byte	.LASF94
 2562 0742 04       		.byte	0x4
 2563 0743 2A03     		.2byte	0x32a
 2564 0745 6B000000 		.4byte	0x6b
 2565 0749 15       		.byte	0x15
 2566 074a 0D       		.uleb128 0xd
 2567 074b D3060000 		.4byte	.LASF95
 2568 074f 04       		.byte	0x4
 2569 0750 2F03     		.2byte	0x32f
 2570 0752 6B000000 		.4byte	0x6b
 2571 0756 16       		.byte	0x16
 2572 0757 0D       		.uleb128 0xd
 2573 0758 63010000 		.4byte	.LASF96
 2574 075c 04       		.byte	0x4
 2575 075d 3403     		.2byte	0x334
 2576 075f 6B000000 		.4byte	0x6b
 2577 0763 17       		.byte	0x17
 2578 0764 0D       		.uleb128 0xd
 2579 0765 01020000 		.4byte	.LASF97
 2580 0769 04       		.byte	0x4
 2581 076a 3903     		.2byte	0x339
 2582 076c 6B000000 		.4byte	0x6b
 2583 0770 18       		.byte	0x18
 2584 0771 0D       		.uleb128 0xd
 2585 0772 F20B0000 		.4byte	.LASF98
 2586 0776 04       		.byte	0x4
 2587 0777 3E03     		.2byte	0x33e
 2588 0779 6B000000 		.4byte	0x6b
 2589 077d 19       		.byte	0x19
 2590 077e 0D       		.uleb128 0xd
 2591 077f 5F030000 		.4byte	.LASF99
 2592 0783 04       		.byte	0x4
 2593 0784 4303     		.2byte	0x343
 2594 0786 6B000000 		.4byte	0x6b
 2595 078a 1A       		.byte	0x1a
 2596 078b 0D       		.uleb128 0xd
ARM GAS  C:\Users\YUANFA~1\AppData\Local\Temp\ccItJH9a.s 			page 79


 2597 078c 2E080000 		.4byte	.LASF100
 2598 0790 04       		.byte	0x4
 2599 0791 4803     		.2byte	0x348
 2600 0793 6B000000 		.4byte	0x6b
 2601 0797 1B       		.byte	0x1b
 2602 0798 0D       		.uleb128 0xd
 2603 0799 74010000 		.4byte	.LASF101
 2604 079d 04       		.byte	0x4
 2605 079e 4D03     		.2byte	0x34d
 2606 07a0 6B000000 		.4byte	0x6b
 2607 07a4 1C       		.byte	0x1c
 2608 07a5 00       		.byte	0
 2609 07a6 04       		.uleb128 0x4
 2610 07a7 63080000 		.4byte	.LASF102
 2611 07ab 04       		.byte	0x4
 2612 07ac 4E03     		.2byte	0x34e
 2613 07ae 98060000 		.4byte	0x698
 2614 07b2 0E       		.uleb128 0xe
 2615 07b3 4403     		.2byte	0x344
 2616 07b5 04       		.byte	0x4
 2617 07b6 5403     		.2byte	0x354
 2618 07b8 FF080000 		.4byte	0x8ff
 2619 07bc 0D       		.uleb128 0xd
 2620 07bd C3080000 		.4byte	.LASF103
 2621 07c1 04       		.byte	0x4
 2622 07c2 5B03     		.2byte	0x35b
 2623 07c4 77000000 		.4byte	0x77
 2624 07c8 00       		.byte	0
 2625 07c9 0D       		.uleb128 0xd
 2626 07ca 760C0000 		.4byte	.LASF104
 2627 07ce 04       		.byte	0x4
 2628 07cf 6003     		.2byte	0x360
 2629 07d1 77000000 		.4byte	0x77
 2630 07d5 02       		.byte	0x2
 2631 07d6 0D       		.uleb128 0xd
 2632 07d7 0A010000 		.4byte	.LASF105
 2633 07db 04       		.byte	0x4
 2634 07dc 6503     		.2byte	0x365
 2635 07de 77000000 		.4byte	0x77
 2636 07e2 04       		.byte	0x4
 2637 07e3 0D       		.uleb128 0xd
 2638 07e4 6E090000 		.4byte	.LASF106
 2639 07e8 04       		.byte	0x4
 2640 07e9 6B03     		.2byte	0x36b
 2641 07eb 77000000 		.4byte	0x77
 2642 07ef 06       		.byte	0x6
 2643 07f0 0D       		.uleb128 0xd
 2644 07f1 FE000000 		.4byte	.LASF107
 2645 07f5 04       		.byte	0x4
 2646 07f6 7003     		.2byte	0x370
 2647 07f8 77000000 		.4byte	0x77
 2648 07fc 08       		.byte	0x8
 2649 07fd 0D       		.uleb128 0xd
 2650 07fe EF050000 		.4byte	.LASF108
 2651 0802 04       		.byte	0x4
 2652 0803 7503     		.2byte	0x375
 2653 0805 C6000000 		.4byte	0xc6
ARM GAS  C:\Users\YUANFA~1\AppData\Local\Temp\ccItJH9a.s 			page 80


 2654 0809 0C       		.byte	0xc
 2655 080a 0D       		.uleb128 0xd
 2656 080b 3F090000 		.4byte	.LASF109
 2657 080f 04       		.byte	0x4
 2658 0810 7B03     		.2byte	0x37b
 2659 0812 7C060000 		.4byte	0x67c
 2660 0816 10       		.byte	0x10
 2661 0817 0D       		.uleb128 0xd
 2662 0818 2E020000 		.4byte	.LASF110
 2663 081c 04       		.byte	0x4
 2664 081d 8103     		.2byte	0x381
 2665 081f 7C060000 		.4byte	0x67c
 2666 0823 14       		.byte	0x14
 2667 0824 0D       		.uleb128 0xd
 2668 0825 3A0A0000 		.4byte	.LASF111
 2669 0829 04       		.byte	0x4
 2670 082a 8803     		.2byte	0x388
 2671 082c 7C060000 		.4byte	0x67c
 2672 0830 18       		.byte	0x18
 2673 0831 0D       		.uleb128 0xd
 2674 0832 E7080000 		.4byte	.LASF112
 2675 0836 04       		.byte	0x4
 2676 0837 9803     		.2byte	0x398
 2677 0839 FF080000 		.4byte	0x8ff
 2678 083d 1C       		.byte	0x1c
 2679 083e 0D       		.uleb128 0xd
 2680 083f B4070000 		.4byte	.LASF113
 2681 0843 04       		.byte	0x4
 2682 0844 9E03     		.2byte	0x39e
 2683 0846 77000000 		.4byte	0x77
 2684 084a 30       		.byte	0x30
 2685 084b 0D       		.uleb128 0xd
 2686 084c A2030000 		.4byte	.LASF114
 2687 0850 04       		.byte	0x4
 2688 0851 A303     		.2byte	0x3a3
 2689 0853 6B000000 		.4byte	0x6b
 2690 0857 32       		.byte	0x32
 2691 0858 0D       		.uleb128 0xd
 2692 0859 540C0000 		.4byte	.LASF115
 2693 085d 04       		.byte	0x4
 2694 085e A803     		.2byte	0x3a8
 2695 0860 77000000 		.4byte	0x77
 2696 0864 34       		.byte	0x34
 2697 0865 0D       		.uleb128 0xd
 2698 0866 44070000 		.4byte	.LASF116
 2699 086a 04       		.byte	0x4
 2700 086b AD03     		.2byte	0x3ad
 2701 086d 0F030000 		.4byte	0x30f
 2702 0871 36       		.byte	0x36
 2703 0872 0F       		.uleb128 0xf
 2704 0873 E2020000 		.4byte	.LASF117
 2705 0877 04       		.byte	0x4
 2706 0878 B203     		.2byte	0x3b2
 2707 087a BD040000 		.4byte	0x4bd
 2708 087e D801     		.2byte	0x1d8
 2709 0880 0F       		.uleb128 0xf
 2710 0881 00080000 		.4byte	.LASF118
ARM GAS  C:\Users\YUANFA~1\AppData\Local\Temp\ccItJH9a.s 			page 81


 2711 0885 04       		.byte	0x4
 2712 0886 B703     		.2byte	0x3b7
 2713 0888 6F050000 		.4byte	0x56f
 2714 088c BC02     		.2byte	0x2bc
 2715 088e 0F       		.uleb128 0xf
 2716 088f 09080000 		.4byte	.LASF119
 2717 0893 04       		.byte	0x4
 2718 0894 BC03     		.2byte	0x3bc
 2719 0896 A6070000 		.4byte	0x7a6
 2720 089a D002     		.2byte	0x2d0
 2721 089c 0F       		.uleb128 0xf
 2722 089d DE030000 		.4byte	.LASF120
 2723 08a1 04       		.byte	0x4
 2724 08a2 C103     		.2byte	0x3c1
 2725 08a4 8C060000 		.4byte	0x68c
 2726 08a8 F002     		.2byte	0x2f0
 2727 08aa 0F       		.uleb128 0xf
 2728 08ab A3000000 		.4byte	.LASF121
 2729 08af 04       		.byte	0x4
 2730 08b0 C603     		.2byte	0x3c6
 2731 08b2 6B000000 		.4byte	0x6b
 2732 08b6 3C03     		.2byte	0x33c
 2733 08b8 0F       		.uleb128 0xf
 2734 08b9 3D030000 		.4byte	.LASF122
 2735 08bd 04       		.byte	0x4
 2736 08be CB03     		.2byte	0x3cb
 2737 08c0 6B000000 		.4byte	0x6b
 2738 08c4 3D03     		.2byte	0x33d
 2739 08c6 0F       		.uleb128 0xf
 2740 08c7 A0080000 		.4byte	.LASF123
 2741 08cb 04       		.byte	0x4
 2742 08cc D003     		.2byte	0x3d0
 2743 08ce 77000000 		.4byte	0x77
 2744 08d2 3E03     		.2byte	0x33e
 2745 08d4 0F       		.uleb128 0xf
 2746 08d5 87070000 		.4byte	.LASF124
 2747 08d9 04       		.byte	0x4
 2748 08da D503     		.2byte	0x3d5
 2749 08dc 80030000 		.4byte	0x380
 2750 08e0 4003     		.2byte	0x340
 2751 08e2 0F       		.uleb128 0xf
 2752 08e3 12010000 		.4byte	.LASF125
 2753 08e7 04       		.byte	0x4
 2754 08e8 DA03     		.2byte	0x3da
 2755 08ea 6B000000 		.4byte	0x6b
 2756 08ee 4203     		.2byte	0x342
 2757 08f0 0F       		.uleb128 0xf
 2758 08f1 460B0000 		.4byte	.LASF126
 2759 08f5 04       		.byte	0x4
 2760 08f6 DF03     		.2byte	0x3df
 2761 08f8 6B000000 		.4byte	0x6b
 2762 08fc 4303     		.2byte	0x343
 2763 08fe 00       		.byte	0
 2764 08ff 09       		.uleb128 0x9
 2765 0900 6B000000 		.4byte	0x6b
 2766 0904 0F090000 		.4byte	0x90f
 2767 0908 0A       		.uleb128 0xa
ARM GAS  C:\Users\YUANFA~1\AppData\Local\Temp\ccItJH9a.s 			page 82


 2768 0909 D2000000 		.4byte	0xd2
 2769 090d 12       		.byte	0x12
 2770 090e 00       		.byte	0
 2771 090f 04       		.uleb128 0x4
 2772 0910 22090000 		.4byte	.LASF127
 2773 0914 04       		.byte	0x4
 2774 0915 E003     		.2byte	0x3e0
 2775 0917 B2070000 		.4byte	0x7b2
 2776 091b 0B       		.uleb128 0xb
 2777 091c 20       		.byte	0x20
 2778 091d 04       		.byte	0x4
 2779 091e E603     		.2byte	0x3e6
 2780 0920 A7090000 		.4byte	0x9a7
 2781 0924 0D       		.uleb128 0xd
 2782 0925 BF070000 		.4byte	.LASF128
 2783 0929 04       		.byte	0x4
 2784 092a EB03     		.2byte	0x3eb
 2785 092c A7090000 		.4byte	0x9a7
 2786 0930 00       		.byte	0
 2787 0931 0D       		.uleb128 0xd
 2788 0932 3F060000 		.4byte	.LASF129
 2789 0936 04       		.byte	0x4
 2790 0937 F003     		.2byte	0x3f0
 2791 0939 A7090000 		.4byte	0x9a7
 2792 093d 04       		.byte	0x4
 2793 093e 0D       		.uleb128 0xd
 2794 093f 1D010000 		.4byte	.LASF130
 2795 0943 04       		.byte	0x4
 2796 0944 F503     		.2byte	0x3f5
 2797 0946 A7090000 		.4byte	0x9a7
 2798 094a 08       		.byte	0x8
 2799 094b 0D       		.uleb128 0xd
 2800 094c C4030000 		.4byte	.LASF131
 2801 0950 04       		.byte	0x4
 2802 0951 FA03     		.2byte	0x3fa
 2803 0953 A7090000 		.4byte	0x9a7
 2804 0957 0C       		.byte	0xc
 2805 0958 0D       		.uleb128 0xd
 2806 0959 77090000 		.4byte	.LASF132
 2807 095d 04       		.byte	0x4
 2808 095e FF03     		.2byte	0x3ff
 2809 0960 A7090000 		.4byte	0x9a7
 2810 0964 10       		.byte	0x10
 2811 0965 0D       		.uleb128 0xd
 2812 0966 CF0B0000 		.4byte	.LASF133
 2813 096a 04       		.byte	0x4
 2814 096b 0404     		.2byte	0x404
 2815 096d 83000000 		.4byte	0x83
 2816 0971 14       		.byte	0x14
 2817 0972 0D       		.uleb128 0xd
 2818 0973 DF070000 		.4byte	.LASF134
 2819 0977 04       		.byte	0x4
 2820 0978 0904     		.2byte	0x409
 2821 097a 83000000 		.4byte	0x83
 2822 097e 18       		.byte	0x18
 2823 097f 0D       		.uleb128 0xd
 2824 0980 C3010000 		.4byte	.LASF135
ARM GAS  C:\Users\YUANFA~1\AppData\Local\Temp\ccItJH9a.s 			page 83


 2825 0984 04       		.byte	0x4
 2826 0985 0E04     		.2byte	0x40e
 2827 0987 6B000000 		.4byte	0x6b
 2828 098b 1C       		.byte	0x1c
 2829 098c 0D       		.uleb128 0xd
 2830 098d 5A0A0000 		.4byte	.LASF136
 2831 0991 04       		.byte	0x4
 2832 0992 1304     		.2byte	0x413
 2833 0994 6B000000 		.4byte	0x6b
 2834 0998 1D       		.byte	0x1d
 2835 0999 0D       		.uleb128 0xd
 2836 099a 40020000 		.4byte	.LASF137
 2837 099e 04       		.byte	0x4
 2838 099f 1804     		.2byte	0x418
 2839 09a1 6B000000 		.4byte	0x6b
 2840 09a5 1E       		.byte	0x1e
 2841 09a6 00       		.byte	0
 2842 09a7 10       		.uleb128 0x10
 2843 09a8 04       		.byte	0x4
 2844 09a9 BA000000 		.4byte	0xba
 2845 09ad 04       		.uleb128 0x4
 2846 09ae 24030000 		.4byte	.LASF138
 2847 09b2 04       		.byte	0x4
 2848 09b3 1904     		.2byte	0x419
 2849 09b5 1B090000 		.4byte	0x91b
 2850 09b9 0B       		.uleb128 0xb
 2851 09ba 20       		.byte	0x20
 2852 09bb 04       		.byte	0x4
 2853 09bc 4C04     		.2byte	0x44c
 2854 09be 450A0000 		.4byte	0xa45
 2855 09c2 0D       		.uleb128 0xd
 2856 09c3 470C0000 		.4byte	.LASF139
 2857 09c7 04       		.byte	0x4
 2858 09c8 5504     		.2byte	0x455
 2859 09ca 450A0000 		.4byte	0xa45
 2860 09ce 00       		.byte	0
 2861 09cf 0D       		.uleb128 0xd
 2862 09d0 550B0000 		.4byte	.LASF140
 2863 09d4 04       		.byte	0x4
 2864 09d5 5C04     		.2byte	0x45c
 2865 09d7 D9000000 		.4byte	0xd9
 2866 09db 04       		.byte	0x4
 2867 09dc 0D       		.uleb128 0xd
 2868 09dd CC080000 		.4byte	.LASF141
 2869 09e1 04       		.byte	0x4
 2870 09e2 6204     		.2byte	0x462
 2871 09e4 4C0A0000 		.4byte	0xa4c
 2872 09e8 08       		.byte	0x8
 2873 09e9 0D       		.uleb128 0xd
 2874 09ea CF070000 		.4byte	.LASF142
 2875 09ee 04       		.byte	0x4
 2876 09ef 6804     		.2byte	0x468
 2877 09f1 D9000000 		.4byte	0xd9
 2878 09f5 0C       		.byte	0xc
 2879 09f6 0D       		.uleb128 0xd
 2880 09f7 B40A0000 		.4byte	.LASF143
 2881 09fb 04       		.byte	0x4
ARM GAS  C:\Users\YUANFA~1\AppData\Local\Temp\ccItJH9a.s 			page 84


 2882 09fc 6F04     		.2byte	0x46f
 2883 09fe 520A0000 		.4byte	0xa52
 2884 0a02 10       		.byte	0x10
 2885 0a03 0D       		.uleb128 0xd
 2886 0a04 220B0000 		.4byte	.LASF144
 2887 0a08 04       		.byte	0x4
 2888 0a09 7404     		.2byte	0x474
 2889 0a0b 83000000 		.4byte	0x83
 2890 0a0f 14       		.byte	0x14
 2891 0a10 0D       		.uleb128 0xd
 2892 0a11 61040000 		.4byte	.LASF145
 2893 0a15 04       		.byte	0x4
 2894 0a16 7B04     		.2byte	0x47b
 2895 0a18 77000000 		.4byte	0x77
 2896 0a1c 18       		.byte	0x18
 2897 0a1d 0D       		.uleb128 0xd
 2898 0a1e 85030000 		.4byte	.LASF146
 2899 0a22 04       		.byte	0x4
 2900 0a23 8204     		.2byte	0x482
 2901 0a25 6B000000 		.4byte	0x6b
 2902 0a29 1A       		.byte	0x1a
 2903 0a2a 0D       		.uleb128 0xd
 2904 0a2b 63060000 		.4byte	.LASF147
 2905 0a2f 04       		.byte	0x4
 2906 0a30 8C04     		.2byte	0x48c
 2907 0a32 6B000000 		.4byte	0x6b
 2908 0a36 1B       		.byte	0x1b
 2909 0a37 0D       		.uleb128 0xd
 2910 0a38 6B070000 		.4byte	.LASF148
 2911 0a3c 04       		.byte	0x4
 2912 0a3d 9104     		.2byte	0x491
 2913 0a3f 580A0000 		.4byte	0xa58
 2914 0a43 1C       		.byte	0x1c
 2915 0a44 00       		.byte	0
 2916 0a45 10       		.uleb128 0x10
 2917 0a46 04       		.byte	0x4
 2918 0a47 4B0A0000 		.4byte	0xa4b
 2919 0a4b 11       		.uleb128 0x11
 2920 0a4c 10       		.uleb128 0x10
 2921 0a4d 04       		.byte	0x4
 2922 0a4e A0030000 		.4byte	0x3a0
 2923 0a52 10       		.uleb128 0x10
 2924 0a53 04       		.byte	0x4
 2925 0a54 6B000000 		.4byte	0x6b
 2926 0a58 10       		.uleb128 0x10
 2927 0a59 04       		.byte	0x4
 2928 0a5a 83000000 		.4byte	0x83
 2929 0a5e 04       		.uleb128 0x4
 2930 0a5f 0B040000 		.4byte	.LASF149
 2931 0a63 04       		.byte	0x4
 2932 0a64 9204     		.2byte	0x492
 2933 0a66 B9090000 		.4byte	0x9b9
 2934 0a6a 0E       		.uleb128 0xe
 2935 0a6b 6002     		.2byte	0x260
 2936 0a6d 04       		.byte	0x4
 2937 0a6e 9804     		.2byte	0x498
 2938 0a70 820A0000 		.4byte	0xa82
ARM GAS  C:\Users\YUANFA~1\AppData\Local\Temp\ccItJH9a.s 			page 85


 2939 0a74 0D       		.uleb128 0xd
 2940 0a75 46020000 		.4byte	.LASF150
 2941 0a79 04       		.byte	0x4
 2942 0a7a 9D04     		.2byte	0x49d
 2943 0a7c 820A0000 		.4byte	0xa82
 2944 0a80 00       		.byte	0
 2945 0a81 00       		.byte	0
 2946 0a82 09       		.uleb128 0x9
 2947 0a83 5E0A0000 		.4byte	0xa5e
 2948 0a87 920A0000 		.4byte	0xa92
 2949 0a8b 0A       		.uleb128 0xa
 2950 0a8c D2000000 		.4byte	0xd2
 2951 0a90 12       		.byte	0x12
 2952 0a91 00       		.byte	0
 2953 0a92 04       		.uleb128 0x4
 2954 0a93 55070000 		.4byte	.LASF151
 2955 0a97 04       		.byte	0x4
 2956 0a98 9E04     		.2byte	0x49e
 2957 0a9a 6A0A0000 		.4byte	0xa6a
 2958 0a9e 0B       		.uleb128 0xb
 2959 0a9f 08       		.byte	0x8
 2960 0aa0 01       		.byte	0x1
 2961 0aa1 0704     		.2byte	0x407
 2962 0aa3 020B0000 		.4byte	0xb02
 2963 0aa7 0D       		.uleb128 0xd
 2964 0aa8 CA030000 		.4byte	.LASF152
 2965 0aac 01       		.byte	0x1
 2966 0aad 0904     		.2byte	0x409
 2967 0aaf 77000000 		.4byte	0x77
 2968 0ab3 00       		.byte	0
 2969 0ab4 0D       		.uleb128 0xd
 2970 0ab5 7F0C0000 		.4byte	.LASF153
 2971 0ab9 01       		.byte	0x1
 2972 0aba 0A04     		.2byte	0x40a
 2973 0abc 6B000000 		.4byte	0x6b
 2974 0ac0 02       		.byte	0x2
 2975 0ac1 0D       		.uleb128 0xd
 2976 0ac2 250C0000 		.4byte	.LASF154
 2977 0ac6 01       		.byte	0x1
 2978 0ac7 0B04     		.2byte	0x40b
 2979 0ac9 6B000000 		.4byte	0x6b
 2980 0acd 03       		.byte	0x3
 2981 0ace 0C       		.uleb128 0xc
 2982 0acf 63726300 		.ascii	"crc\000"
 2983 0ad3 01       		.byte	0x1
 2984 0ad4 0C04     		.2byte	0x40c
 2985 0ad6 6B000000 		.4byte	0x6b
 2986 0ada 04       		.byte	0x4
 2987 0adb 0D       		.uleb128 0xd
 2988 0adc 0F0B0000 		.4byte	.LASF155
 2989 0ae0 01       		.byte	0x1
 2990 0ae1 0D04     		.2byte	0x40d
 2991 0ae3 6B000000 		.4byte	0x6b
 2992 0ae7 05       		.byte	0x5
 2993 0ae8 0C       		.uleb128 0xc
 2994 0ae9 727700   		.ascii	"rw\000"
 2995 0aec 01       		.byte	0x1
ARM GAS  C:\Users\YUANFA~1\AppData\Local\Temp\ccItJH9a.s 			page 86


 2996 0aed 0E04     		.2byte	0x40e
 2997 0aef 6B000000 		.4byte	0x6b
 2998 0af3 06       		.byte	0x6
 2999 0af4 0D       		.uleb128 0xd
 3000 0af5 FC0A0000 		.4byte	.LASF156
 3001 0af9 01       		.byte	0x1
 3002 0afa 0F04     		.2byte	0x40f
 3003 0afc 6B000000 		.4byte	0x6b
 3004 0b00 07       		.byte	0x7
 3005 0b01 00       		.byte	0
 3006 0b02 04       		.uleb128 0x4
 3007 0b03 D7080000 		.4byte	.LASF157
 3008 0b07 01       		.byte	0x1
 3009 0b08 1004     		.2byte	0x410
 3010 0b0a 9E0A0000 		.4byte	0xa9e
 3011 0b0e 12       		.uleb128 0x12
 3012 0b0f 39010000 		.4byte	.LASF214
 3013 0b13 01       		.byte	0x1
 3014 0b14 0F05     		.2byte	0x50f
 3015 0b16 A4000000 		.4byte	0xa4
 3016 0b1a 00000000 		.4byte	.LFB2
 3017 0b1e EC000000 		.4byte	.LFE2-.LFB2
 3018 0b22 01       		.uleb128 0x1
 3019 0b23 9C       		.byte	0x9c
 3020 0b24 B40B0000 		.4byte	0xbb4
 3021 0b28 13       		.uleb128 0x13
 3022 0b29 9B000000 		.4byte	.LASF158
 3023 0b2d 01       		.byte	0x1
 3024 0b2e 0F05     		.2byte	0x50f
 3025 0b30 83000000 		.4byte	0x83
 3026 0b34 00000000 		.4byte	.LLST0
 3027 0b38 13       		.uleb128 0x13
 3028 0b39 D1030000 		.4byte	.LASF159
 3029 0b3d 01       		.byte	0x1
 3030 0b3e 0F05     		.2byte	0x50f
 3031 0b40 B40B0000 		.4byte	0xbb4
 3032 0b44 1E000000 		.4byte	.LLST1
 3033 0b48 14       		.uleb128 0x14
 3034 0b49 EA020000 		.4byte	.LASF160
 3035 0b4d 01       		.byte	0x1
 3036 0b4e 1105     		.2byte	0x511
 3037 0b50 A4000000 		.4byte	0xa4
 3038 0b54 4A000000 		.4byte	.LLST2
 3039 0b58 15       		.uleb128 0x15
 3040 0b59 65090000 		.4byte	.LASF161
 3041 0b5d 01       		.byte	0x1
 3042 0b5e 1405     		.2byte	0x514
 3043 0b60 CF0B0000 		.4byte	0xbcf
 3044 0b64 02       		.uleb128 0x2
 3045 0b65 91       		.byte	0x91
 3046 0b66 58       		.sleb128 -40
 3047 0b67 16       		.uleb128 0x16
 3048 0b68 6900     		.ascii	"i\000"
 3049 0b6a 01       		.byte	0x1
 3050 0b6b 1A05     		.2byte	0x51a
 3051 0b6d 83000000 		.4byte	0x83
 3052 0b71 8A000000 		.4byte	.LLST3
ARM GAS  C:\Users\YUANFA~1\AppData\Local\Temp\ccItJH9a.s 			page 87


 3053 0b75 14       		.uleb128 0x14
 3054 0b76 57000000 		.4byte	.LASF162
 3055 0b7a 01       		.byte	0x1
 3056 0b7b 1B05     		.2byte	0x51b
 3057 0b7d 83000000 		.4byte	0x83
 3058 0b81 C3000000 		.4byte	.LLST4
 3059 0b85 14       		.uleb128 0x14
 3060 0b86 DB050000 		.4byte	.LASF163
 3061 0b8a 01       		.byte	0x1
 3062 0b8b 1C05     		.2byte	0x51c
 3063 0b8d 83000000 		.4byte	0x83
 3064 0b91 32010000 		.4byte	.LLST5
 3065 0b95 17       		.uleb128 0x17
 3066 0b96 16000000 		.4byte	.LVL4
 3067 0b9a 3E110000 		.4byte	0x113e
 3068 0b9e 18       		.uleb128 0x18
 3069 0b9f 01       		.uleb128 0x1
 3070 0ba0 50       		.byte	0x50
 3071 0ba1 02       		.uleb128 0x2
 3072 0ba2 7D       		.byte	0x7d
 3073 0ba3 00       		.sleb128 0
 3074 0ba4 18       		.uleb128 0x18
 3075 0ba5 01       		.uleb128 0x1
 3076 0ba6 51       		.byte	0x51
 3077 0ba7 05       		.uleb128 0x5
 3078 0ba8 03       		.byte	0x3
 3079 0ba9 00000000 		.4byte	.LANCHOR0
 3080 0bad 18       		.uleb128 0x18
 3081 0bae 01       		.uleb128 0x1
 3082 0baf 52       		.byte	0x52
 3083 0bb0 01       		.uleb128 0x1
 3084 0bb1 40       		.byte	0x40
 3085 0bb2 00       		.byte	0
 3086 0bb3 00       		.byte	0
 3087 0bb4 10       		.uleb128 0x10
 3088 0bb5 04       		.byte	0x4
 3089 0bb6 020B0000 		.4byte	0xb02
 3090 0bba 09       		.uleb128 0x9
 3091 0bbb CA0B0000 		.4byte	0xbca
 3092 0bbf CA0B0000 		.4byte	0xbca
 3093 0bc3 0A       		.uleb128 0xa
 3094 0bc4 D2000000 		.4byte	0xd2
 3095 0bc8 0F       		.byte	0xf
 3096 0bc9 00       		.byte	0
 3097 0bca 19       		.uleb128 0x19
 3098 0bcb 6B000000 		.4byte	0x6b
 3099 0bcf 19       		.uleb128 0x19
 3100 0bd0 BA0B0000 		.4byte	0xbba
 3101 0bd4 1A       		.uleb128 0x1a
 3102 0bd5 4A090000 		.4byte	.LASF215
 3103 0bd9 01       		.byte	0x1
 3104 0bda 3604     		.2byte	0x436
 3105 0bdc 00000000 		.4byte	.LFB1
 3106 0be0 18010000 		.4byte	.LFE1-.LFB1
 3107 0be4 01       		.uleb128 0x1
 3108 0be5 9C       		.byte	0x9c
 3109 0be6 7B0C0000 		.4byte	0xc7b
ARM GAS  C:\Users\YUANFA~1\AppData\Local\Temp\ccItJH9a.s 			page 88


 3110 0bea 14       		.uleb128 0x14
 3111 0beb 28020000 		.4byte	.LASF164
 3112 0bef 01       		.byte	0x1
 3113 0bf0 3C04     		.2byte	0x43c
 3114 0bf2 83000000 		.4byte	0x83
 3115 0bf6 5B010000 		.4byte	.LLST6
 3116 0bfa 14       		.uleb128 0x14
 3117 0bfb 61000000 		.4byte	.LASF165
 3118 0bff 01       		.byte	0x1
 3119 0c00 3D04     		.2byte	0x43d
 3120 0c02 83000000 		.4byte	0x83
 3121 0c06 8F010000 		.4byte	.LLST7
 3122 0c0a 14       		.uleb128 0x14
 3123 0c0b EC090000 		.4byte	.LASF166
 3124 0c0f 01       		.byte	0x1
 3125 0c10 3E04     		.2byte	0x43e
 3126 0c12 4C0A0000 		.4byte	0xa4c
 3127 0c16 D1010000 		.4byte	.LLST8
 3128 0c1a 14       		.uleb128 0x14
 3129 0c1b 150B0000 		.4byte	.LASF167
 3130 0c1f 01       		.byte	0x1
 3131 0c20 3F04     		.2byte	0x43f
 3132 0c22 7B0C0000 		.4byte	0xc7b
 3133 0c26 E4010000 		.4byte	.LLST9
 3134 0c2a 14       		.uleb128 0x14
 3135 0c2b 22080000 		.4byte	.LASF168
 3136 0c2f 01       		.byte	0x1
 3137 0c30 4804     		.2byte	0x448
 3138 0c32 860C0000 		.4byte	0xc86
 3139 0c36 07020000 		.4byte	.LLST10
 3140 0c3a 1B       		.uleb128 0x1b
 3141 0c3b 10000000 		.4byte	.LVL37
 3142 0c3f 47110000 		.4byte	0x1147
 3143 0c43 5A0C0000 		.4byte	0xc5a
 3144 0c47 18       		.uleb128 0x18
 3145 0c48 01       		.uleb128 0x1
 3146 0c49 50       		.byte	0x50
 3147 0c4a 02       		.uleb128 0x2
 3148 0c4b 74       		.byte	0x74
 3149 0c4c 00       		.sleb128 0
 3150 0c4d 18       		.uleb128 0x18
 3151 0c4e 01       		.uleb128 0x1
 3152 0c4f 51       		.byte	0x51
 3153 0c50 01       		.uleb128 0x1
 3154 0c51 30       		.byte	0x30
 3155 0c52 18       		.uleb128 0x18
 3156 0c53 01       		.uleb128 0x1
 3157 0c54 52       		.byte	0x52
 3158 0c55 03       		.uleb128 0x3
 3159 0c56 0A       		.byte	0xa
 3160 0c57 4403     		.2byte	0x344
 3161 0c59 00       		.byte	0
 3162 0c5a 17       		.uleb128 0x17
 3163 0c5b 9E000000 		.4byte	.LVL38
 3164 0c5f 3E110000 		.4byte	0x113e
 3165 0c63 18       		.uleb128 0x18
 3166 0c64 01       		.uleb128 0x1
ARM GAS  C:\Users\YUANFA~1\AppData\Local\Temp\ccItJH9a.s 			page 89


 3167 0c65 50       		.byte	0x50
 3168 0c66 02       		.uleb128 0x2
 3169 0c67 74       		.byte	0x74
 3170 0c68 36       		.sleb128 54
 3171 0c69 18       		.uleb128 0x18
 3172 0c6a 01       		.uleb128 0x1
 3173 0c6b 51       		.byte	0x51
 3174 0c6c 05       		.uleb128 0x5
 3175 0c6d 03       		.byte	0x3
 3176 0c6e 84020000 		.4byte	.LANCHOR1+4
 3177 0c72 18       		.uleb128 0x18
 3178 0c73 01       		.uleb128 0x1
 3179 0c74 52       		.byte	0x52
 3180 0c75 03       		.uleb128 0x3
 3181 0c76 0A       		.byte	0xa
 3182 0c77 A201     		.2byte	0x1a2
 3183 0c79 00       		.byte	0
 3184 0c7a 00       		.byte	0
 3185 0c7b 10       		.uleb128 0x10
 3186 0c7c 04       		.byte	0x4
 3187 0c7d 810C0000 		.4byte	0xc81
 3188 0c81 19       		.uleb128 0x19
 3189 0c82 5E0A0000 		.4byte	0xa5e
 3190 0c86 10       		.uleb128 0x10
 3191 0c87 04       		.byte	0x4
 3192 0c88 CA0B0000 		.4byte	0xbca
 3193 0c8c 1C       		.uleb128 0x1c
 3194 0c8d 6C030000 		.4byte	.LASF174
 3195 0c91 01       		.byte	0x1
 3196 0c92 CD05     		.2byte	0x5cd
 3197 0c94 A4000000 		.4byte	0xa4
 3198 0c98 00000000 		.4byte	.LFB3
 3199 0c9c 60000000 		.4byte	.LFE3-.LFB3
 3200 0ca0 01       		.uleb128 0x1
 3201 0ca1 9C       		.byte	0x9c
 3202 0ca2 5A0D0000 		.4byte	0xd5a
 3203 0ca6 13       		.uleb128 0x13
 3204 0ca7 9B000000 		.4byte	.LASF158
 3205 0cab 01       		.byte	0x1
 3206 0cac CD05     		.2byte	0x5cd
 3207 0cae 83000000 		.4byte	0x83
 3208 0cb2 2A020000 		.4byte	.LLST11
 3209 0cb6 13       		.uleb128 0x13
 3210 0cb7 8E030000 		.4byte	.LASF169
 3211 0cbb 01       		.byte	0x1
 3212 0cbc CD05     		.2byte	0x5cd
 3213 0cbe 580A0000 		.4byte	0xa58
 3214 0cc2 4B020000 		.4byte	.LLST12
 3215 0cc6 15       		.uleb128 0x15
 3216 0cc7 D1030000 		.4byte	.LASF159
 3217 0ccb 01       		.byte	0x1
 3218 0ccc CF05     		.2byte	0x5cf
 3219 0cce 020B0000 		.4byte	0xb02
 3220 0cd2 02       		.uleb128 0x2
 3221 0cd3 91       		.byte	0x91
 3222 0cd4 68       		.sleb128 -24
 3223 0cd5 14       		.uleb128 0x14
ARM GAS  C:\Users\YUANFA~1\AppData\Local\Temp\ccItJH9a.s 			page 90


 3224 0cd6 EA020000 		.4byte	.LASF160
 3225 0cda 01       		.byte	0x1
 3226 0cdb D005     		.2byte	0x5d0
 3227 0cdd A4000000 		.4byte	0xa4
 3228 0ce1 77020000 		.4byte	.LLST13
 3229 0ce5 1D       		.uleb128 0x1d
 3230 0ce6 04       		.byte	0x4
 3231 0ce7 01       		.byte	0x1
 3232 0ce8 D205     		.2byte	0x5d2
 3233 0cea 1F0D0000 		.4byte	0xd1f
 3234 0cee 1E       		.uleb128 0x1e
 3235 0cef 70747200 		.ascii	"ptr\000"
 3236 0cf3 01       		.byte	0x1
 3237 0cf4 D405     		.2byte	0x5d4
 3238 0cf6 5A0D0000 		.4byte	0xd5a
 3239 0cfa 1F       		.uleb128 0x1f
 3240 0cfb B3000000 		.4byte	.LASF170
 3241 0cff 01       		.byte	0x1
 3242 0d00 D505     		.2byte	0x5d5
 3243 0d02 660D0000 		.4byte	0xd66
 3244 0d06 1F       		.uleb128 0x1f
 3245 0d07 11060000 		.4byte	.LASF171
 3246 0d0b 01       		.byte	0x1
 3247 0d0c D605     		.2byte	0x5d6
 3248 0d0e 710D0000 		.4byte	0xd71
 3249 0d12 1F       		.uleb128 0x1f
 3250 0d13 18080000 		.4byte	.LASF172
 3251 0d17 01       		.byte	0x1
 3252 0d18 D705     		.2byte	0x5d7
 3253 0d1a 810D0000 		.4byte	0xd81
 3254 0d1e 00       		.byte	0
 3255 0d1f 14       		.uleb128 0x14
 3256 0d20 C70B0000 		.4byte	.LASF173
 3257 0d24 01       		.byte	0x1
 3258 0d25 D805     		.2byte	0x5d8
 3259 0d27 E50C0000 		.4byte	0xce5
 3260 0d2b A0020000 		.4byte	.LLST14
 3261 0d2f 1B       		.uleb128 0x1b
 3262 0d30 0C000000 		.4byte	.LVL54
 3263 0d34 0E0B0000 		.4byte	0xb0e
 3264 0d38 4A0D0000 		.4byte	0xd4a
 3265 0d3c 18       		.uleb128 0x18
 3266 0d3d 01       		.uleb128 0x1
 3267 0d3e 50       		.byte	0x50
 3268 0d3f 03       		.uleb128 0x3
 3269 0d40 F3       		.byte	0xf3
 3270 0d41 01       		.uleb128 0x1
 3271 0d42 50       		.byte	0x50
 3272 0d43 18       		.uleb128 0x18
 3273 0d44 01       		.uleb128 0x1
 3274 0d45 51       		.byte	0x51
 3275 0d46 02       		.uleb128 0x2
 3276 0d47 7D       		.byte	0x7d
 3277 0d48 00       		.sleb128 0
 3278 0d49 00       		.byte	0
 3279 0d4a 17       		.uleb128 0x17
 3280 0d4b 50000000 		.4byte	.LVL60
ARM GAS  C:\Users\YUANFA~1\AppData\Local\Temp\ccItJH9a.s 			page 91


 3281 0d4f 50110000 		.4byte	0x1150
 3282 0d53 18       		.uleb128 0x18
 3283 0d54 01       		.uleb128 0x1
 3284 0d55 50       		.byte	0x50
 3285 0d56 01       		.uleb128 0x1
 3286 0d57 30       		.byte	0x30
 3287 0d58 00       		.byte	0
 3288 0d59 00       		.byte	0
 3289 0d5a 10       		.uleb128 0x10
 3290 0d5b 04       		.byte	0x4
 3291 0d5c 610D0000 		.4byte	0xd61
 3292 0d60 20       		.uleb128 0x20
 3293 0d61 19       		.uleb128 0x19
 3294 0d62 600D0000 		.4byte	0xd60
 3295 0d66 10       		.uleb128 0x10
 3296 0d67 04       		.byte	0x4
 3297 0d68 6C0D0000 		.4byte	0xd6c
 3298 0d6c 05       		.uleb128 0x5
 3299 0d6d CA0B0000 		.4byte	0xbca
 3300 0d71 10       		.uleb128 0x10
 3301 0d72 04       		.byte	0x4
 3302 0d73 7C0D0000 		.4byte	0xd7c
 3303 0d77 19       		.uleb128 0x19
 3304 0d78 77000000 		.4byte	0x77
 3305 0d7c 05       		.uleb128 0x5
 3306 0d7d 770D0000 		.4byte	0xd77
 3307 0d81 10       		.uleb128 0x10
 3308 0d82 04       		.byte	0x4
 3309 0d83 870D0000 		.4byte	0xd87
 3310 0d87 19       		.uleb128 0x19
 3311 0d88 C6000000 		.4byte	0xc6
 3312 0d8c 1C       		.uleb128 0x1c
 3313 0d8d 7D090000 		.4byte	.LASF175
 3314 0d91 01       		.byte	0x1
 3315 0d92 3906     		.2byte	0x639
 3316 0d94 A4000000 		.4byte	0xa4
 3317 0d98 00000000 		.4byte	.LFB4
 3318 0d9c 80000000 		.4byte	.LFE4-.LFB4
 3319 0da0 01       		.uleb128 0x1
 3320 0da1 9C       		.byte	0x9c
 3321 0da2 6C0E0000 		.4byte	0xe6c
 3322 0da6 13       		.uleb128 0x13
 3323 0da7 9B000000 		.4byte	.LASF158
 3324 0dab 01       		.byte	0x1
 3325 0dac 3906     		.2byte	0x639
 3326 0dae 83000000 		.4byte	0x83
 3327 0db2 B3020000 		.4byte	.LLST15
 3328 0db6 13       		.uleb128 0x13
 3329 0db7 8E030000 		.4byte	.LASF169
 3330 0dbb 01       		.byte	0x1
 3331 0dbc 3906     		.2byte	0x639
 3332 0dbe 83000000 		.4byte	0x83
 3333 0dc2 D4020000 		.4byte	.LLST16
 3334 0dc6 14       		.uleb128 0x14
 3335 0dc7 EA020000 		.4byte	.LASF160
 3336 0dcb 01       		.byte	0x1
 3337 0dcc 3B06     		.2byte	0x63b
ARM GAS  C:\Users\YUANFA~1\AppData\Local\Temp\ccItJH9a.s 			page 92


 3338 0dce A4000000 		.4byte	0xa4
 3339 0dd2 32030000 		.4byte	.LLST17
 3340 0dd6 15       		.uleb128 0x15
 3341 0dd7 D1030000 		.4byte	.LASF159
 3342 0ddb 01       		.byte	0x1
 3343 0ddc 3C06     		.2byte	0x63c
 3344 0dde 020B0000 		.4byte	0xb02
 3345 0de2 02       		.uleb128 0x2
 3346 0de3 91       		.byte	0x91
 3347 0de4 68       		.sleb128 -24
 3348 0de5 1D       		.uleb128 0x1d
 3349 0de6 04       		.byte	0x4
 3350 0de7 01       		.byte	0x1
 3351 0de8 3E06     		.2byte	0x63e
 3352 0dea 1F0E0000 		.4byte	0xe1f
 3353 0dee 1E       		.uleb128 0x1e
 3354 0def 70747200 		.ascii	"ptr\000"
 3355 0df3 01       		.byte	0x1
 3356 0df4 4006     		.2byte	0x640
 3357 0df6 6C0E0000 		.4byte	0xe6c
 3358 0dfa 1F       		.uleb128 0x1f
 3359 0dfb B3000000 		.4byte	.LASF170
 3360 0dff 01       		.byte	0x1
 3361 0e00 4106     		.2byte	0x641
 3362 0e02 720E0000 		.4byte	0xe72
 3363 0e06 1F       		.uleb128 0x1f
 3364 0e07 11060000 		.4byte	.LASF171
 3365 0e0b 01       		.byte	0x1
 3366 0e0c 4206     		.2byte	0x642
 3367 0e0e 780E0000 		.4byte	0xe78
 3368 0e12 1F       		.uleb128 0x1f
 3369 0e13 18080000 		.4byte	.LASF172
 3370 0e17 01       		.byte	0x1
 3371 0e18 4306     		.2byte	0x643
 3372 0e1a 7E0E0000 		.4byte	0xe7e
 3373 0e1e 00       		.byte	0
 3374 0e1f 21       		.uleb128 0x21
 3375 0e20 C70B0000 		.4byte	.LASF173
 3376 0e24 01       		.byte	0x1
 3377 0e25 4406     		.2byte	0x644
 3378 0e27 E50D0000 		.4byte	0xde5
 3379 0e2b 1B       		.uleb128 0x1b
 3380 0e2c 0C000000 		.4byte	.LVL65
 3381 0e30 0E0B0000 		.4byte	0xb0e
 3382 0e34 460E0000 		.4byte	0xe46
 3383 0e38 18       		.uleb128 0x18
 3384 0e39 01       		.uleb128 0x1
 3385 0e3a 50       		.byte	0x50
 3386 0e3b 03       		.uleb128 0x3
 3387 0e3c F3       		.byte	0xf3
 3388 0e3d 01       		.uleb128 0x1
 3389 0e3e 50       		.byte	0x50
 3390 0e3f 18       		.uleb128 0x18
 3391 0e40 01       		.uleb128 0x1
 3392 0e41 51       		.byte	0x51
 3393 0e42 02       		.uleb128 0x2
 3394 0e43 7D       		.byte	0x7d
ARM GAS  C:\Users\YUANFA~1\AppData\Local\Temp\ccItJH9a.s 			page 93


 3395 0e44 00       		.sleb128 0
 3396 0e45 00       		.byte	0
 3397 0e46 1B       		.uleb128 0x1b
 3398 0e47 4C000000 		.4byte	.LVL72
 3399 0e4b 50110000 		.4byte	0x1150
 3400 0e4f 590E0000 		.4byte	0xe59
 3401 0e53 18       		.uleb128 0x18
 3402 0e54 01       		.uleb128 0x1
 3403 0e55 50       		.byte	0x50
 3404 0e56 01       		.uleb128 0x1
 3405 0e57 30       		.byte	0x30
 3406 0e58 00       		.byte	0
 3407 0e59 22       		.uleb128 0x22
 3408 0e5a 64000000 		.4byte	.LVL73
 3409 0e5e 5B110000 		.4byte	0x115b
 3410 0e62 22       		.uleb128 0x22
 3411 0e63 6E000000 		.4byte	.LVL74
 3412 0e67 66110000 		.4byte	0x1166
 3413 0e6b 00       		.byte	0
 3414 0e6c 10       		.uleb128 0x10
 3415 0e6d 04       		.byte	0x4
 3416 0e6e 600D0000 		.4byte	0xd60
 3417 0e72 10       		.uleb128 0x10
 3418 0e73 04       		.byte	0x4
 3419 0e74 B0000000 		.4byte	0xb0
 3420 0e78 10       		.uleb128 0x10
 3421 0e79 04       		.byte	0x4
 3422 0e7a B5000000 		.4byte	0xb5
 3423 0e7e 10       		.uleb128 0x10
 3424 0e7f 04       		.byte	0x4
 3425 0e80 C6000000 		.4byte	0xc6
 3426 0e84 1C       		.uleb128 0x1c
 3427 0e85 BC000000 		.4byte	.LASF176
 3428 0e89 01       		.byte	0x1
 3429 0e8a 9A06     		.2byte	0x69a
 3430 0e8c 83000000 		.4byte	0x83
 3431 0e90 00000000 		.4byte	.LFB5
 3432 0e94 20000000 		.4byte	.LFE5-.LFB5
 3433 0e98 01       		.uleb128 0x1
 3434 0e99 9C       		.byte	0x9c
 3435 0e9a BF0E0000 		.4byte	0xebf
 3436 0e9e 14       		.uleb128 0x14
 3437 0e9f EA020000 		.4byte	.LASF160
 3438 0ea3 01       		.byte	0x1
 3439 0ea4 9C06     		.2byte	0x69c
 3440 0ea6 83000000 		.4byte	0x83
 3441 0eaa 5B030000 		.4byte	.LLST18
 3442 0eae 14       		.uleb128 0x14
 3443 0eaf 3D070000 		.4byte	.LASF177
 3444 0eb3 01       		.byte	0x1
 3445 0eb4 9D06     		.2byte	0x69d
 3446 0eb6 83000000 		.4byte	0x83
 3447 0eba 7A030000 		.4byte	.LLST19
 3448 0ebe 00       		.byte	0
 3449 0ebf 1C       		.uleb128 0x1c
 3450 0ec0 68000000 		.4byte	.LASF178
 3451 0ec4 01       		.byte	0x1
ARM GAS  C:\Users\YUANFA~1\AppData\Local\Temp\ccItJH9a.s 			page 94


 3452 0ec5 C206     		.2byte	0x6c2
 3453 0ec7 83000000 		.4byte	0x83
 3454 0ecb 00000000 		.4byte	.LFB6
 3455 0ecf 24000000 		.4byte	.LFE6-.LFB6
 3456 0ed3 01       		.uleb128 0x1
 3457 0ed4 9C       		.byte	0x9c
 3458 0ed5 FA0E0000 		.4byte	0xefa
 3459 0ed9 13       		.uleb128 0x13
 3460 0eda 7F0C0000 		.4byte	.LASF153
 3461 0ede 01       		.byte	0x1
 3462 0edf C206     		.2byte	0x6c2
 3463 0ee1 83000000 		.4byte	0x83
 3464 0ee5 AF030000 		.4byte	.LLST20
 3465 0ee9 14       		.uleb128 0x14
 3466 0eea EA020000 		.4byte	.LASF160
 3467 0eee 01       		.byte	0x1
 3468 0eef C406     		.2byte	0x6c4
 3469 0ef1 83000000 		.4byte	0x83
 3470 0ef5 E9030000 		.4byte	.LLST21
 3471 0ef9 00       		.byte	0
 3472 0efa 1C       		.uleb128 0x1c
 3473 0efb 82080000 		.4byte	.LASF179
 3474 0eff 01       		.byte	0x1
 3475 0f00 F406     		.2byte	0x6f4
 3476 0f02 83000000 		.4byte	0x83
 3477 0f06 00000000 		.4byte	.LFB7
 3478 0f0a 30000000 		.4byte	.LFE7-.LFB7
 3479 0f0e 01       		.uleb128 0x1
 3480 0f0f 9C       		.byte	0x9c
 3481 0f10 430F0000 		.4byte	0xf43
 3482 0f14 13       		.uleb128 0x13
 3483 0f15 7F0C0000 		.4byte	.LASF153
 3484 0f19 01       		.byte	0x1
 3485 0f1a F406     		.2byte	0x6f4
 3486 0f1c 83000000 		.4byte	0x83
 3487 0f20 1F040000 		.4byte	.LLST22
 3488 0f24 23       		.uleb128 0x23
 3489 0f25 11020000 		.4byte	.LASF180
 3490 0f29 01       		.byte	0x1
 3491 0f2a F406     		.2byte	0x6f4
 3492 0f2c 83000000 		.4byte	0x83
 3493 0f30 01       		.uleb128 0x1
 3494 0f31 51       		.byte	0x51
 3495 0f32 14       		.uleb128 0x14
 3496 0f33 EA020000 		.4byte	.LASF160
 3497 0f37 01       		.byte	0x1
 3498 0f38 F606     		.2byte	0x6f6
 3499 0f3a 83000000 		.4byte	0x83
 3500 0f3e 72040000 		.4byte	.LLST23
 3501 0f42 00       		.byte	0
 3502 0f43 24       		.uleb128 0x24
 3503 0f44 A4040000 		.4byte	.LASF181
 3504 0f48 01       		.byte	0x1
 3505 0f49 51       		.byte	0x51
 3506 0f4a 2A010000 		.4byte	0x12a
 3507 0f4e 05       		.uleb128 0x5
 3508 0f4f 03       		.byte	0x3
ARM GAS  C:\Users\YUANFA~1\AppData\Local\Temp\ccItJH9a.s 			page 95


 3509 0f50 48000000 		.4byte	CapSense_debounceButton0
 3510 0f54 24       		.uleb128 0x24
 3511 0f55 BD040000 		.4byte	.LASF182
 3512 0f59 01       		.byte	0x1
 3513 0f5a 52       		.byte	0x52
 3514 0f5b 2A010000 		.4byte	0x12a
 3515 0f5f 05       		.uleb128 0x5
 3516 0f60 03       		.byte	0x3
 3517 0f61 44000000 		.4byte	CapSense_debounceButton1
 3518 0f65 24       		.uleb128 0x24
 3519 0f66 D6040000 		.4byte	.LASF183
 3520 0f6a 01       		.byte	0x1
 3521 0f6b 53       		.byte	0x53
 3522 0f6c 2A010000 		.4byte	0x12a
 3523 0f70 05       		.uleb128 0x5
 3524 0f71 03       		.byte	0x3
 3525 0f72 40000000 		.4byte	CapSense_debounceButton2
 3526 0f76 24       		.uleb128 0x24
 3527 0f77 EF040000 		.4byte	.LASF184
 3528 0f7b 01       		.byte	0x1
 3529 0f7c 54       		.byte	0x54
 3530 0f7d 2A010000 		.4byte	0x12a
 3531 0f81 05       		.uleb128 0x5
 3532 0f82 03       		.byte	0x3
 3533 0f83 3C000000 		.4byte	CapSense_debounceButton3
 3534 0f87 24       		.uleb128 0x24
 3535 0f88 08050000 		.4byte	.LASF185
 3536 0f8c 01       		.byte	0x1
 3537 0f8d 55       		.byte	0x55
 3538 0f8e 2A010000 		.4byte	0x12a
 3539 0f92 05       		.uleb128 0x5
 3540 0f93 03       		.byte	0x3
 3541 0f94 38000000 		.4byte	CapSense_debounceButton4
 3542 0f98 24       		.uleb128 0x24
 3543 0f99 21050000 		.4byte	.LASF186
 3544 0f9d 01       		.byte	0x1
 3545 0f9e 56       		.byte	0x56
 3546 0f9f 2A010000 		.4byte	0x12a
 3547 0fa3 05       		.uleb128 0x5
 3548 0fa4 03       		.byte	0x3
 3549 0fa5 34000000 		.4byte	CapSense_debounceButton5
 3550 0fa9 24       		.uleb128 0x24
 3551 0faa 3A050000 		.4byte	.LASF187
 3552 0fae 01       		.byte	0x1
 3553 0faf 57       		.byte	0x57
 3554 0fb0 2A010000 		.4byte	0x12a
 3555 0fb4 05       		.uleb128 0x5
 3556 0fb5 03       		.byte	0x3
 3557 0fb6 30000000 		.4byte	CapSense_debounceButton6
 3558 0fba 24       		.uleb128 0x24
 3559 0fbb 53050000 		.4byte	.LASF188
 3560 0fbf 01       		.byte	0x1
 3561 0fc0 58       		.byte	0x58
 3562 0fc1 2A010000 		.4byte	0x12a
 3563 0fc5 05       		.uleb128 0x5
 3564 0fc6 03       		.byte	0x3
 3565 0fc7 2C000000 		.4byte	CapSense_debounceButton7
ARM GAS  C:\Users\YUANFA~1\AppData\Local\Temp\ccItJH9a.s 			page 96


 3566 0fcb 24       		.uleb128 0x24
 3567 0fcc 6C050000 		.4byte	.LASF189
 3568 0fd0 01       		.byte	0x1
 3569 0fd1 59       		.byte	0x59
 3570 0fd2 2A010000 		.4byte	0x12a
 3571 0fd6 05       		.uleb128 0x5
 3572 0fd7 03       		.byte	0x3
 3573 0fd8 28000000 		.4byte	CapSense_debounceButton8
 3574 0fdc 24       		.uleb128 0x24
 3575 0fdd 85050000 		.4byte	.LASF190
 3576 0fe1 01       		.byte	0x1
 3577 0fe2 5A       		.byte	0x5a
 3578 0fe3 2A010000 		.4byte	0x12a
 3579 0fe7 05       		.uleb128 0x5
 3580 0fe8 03       		.byte	0x3
 3581 0fe9 24000000 		.4byte	CapSense_debounceButton9
 3582 0fed 24       		.uleb128 0x24
 3583 0fee 6B060000 		.4byte	.LASF191
 3584 0ff2 01       		.byte	0x1
 3585 0ff3 5B       		.byte	0x5b
 3586 0ff4 2A010000 		.4byte	0x12a
 3587 0ff8 05       		.uleb128 0x5
 3588 0ff9 03       		.byte	0x3
 3589 0ffa 20000000 		.4byte	CapSense_debounceButton10
 3590 0ffe 24       		.uleb128 0x24
 3591 0fff 85060000 		.4byte	.LASF192
 3592 1003 01       		.byte	0x1
 3593 1004 5C       		.byte	0x5c
 3594 1005 2A010000 		.4byte	0x12a
 3595 1009 05       		.uleb128 0x5
 3596 100a 03       		.byte	0x3
 3597 100b 1C000000 		.4byte	CapSense_debounceButton11
 3598 100f 24       		.uleb128 0x24
 3599 1010 9F060000 		.4byte	.LASF193
 3600 1014 01       		.byte	0x1
 3601 1015 5D       		.byte	0x5d
 3602 1016 2A010000 		.4byte	0x12a
 3603 101a 05       		.uleb128 0x5
 3604 101b 03       		.byte	0x3
 3605 101c 18000000 		.4byte	CapSense_debounceButton12
 3606 1020 24       		.uleb128 0x24
 3607 1021 B9060000 		.4byte	.LASF194
 3608 1025 01       		.byte	0x1
 3609 1026 5E       		.byte	0x5e
 3610 1027 2A010000 		.4byte	0x12a
 3611 102b 05       		.uleb128 0x5
 3612 102c 03       		.byte	0x3
 3613 102d 14000000 		.4byte	CapSense_debounceButton13
 3614 1031 24       		.uleb128 0x24
 3615 1032 D7000000 		.4byte	.LASF195
 3616 1036 01       		.byte	0x1
 3617 1037 5F       		.byte	0x5f
 3618 1038 2A010000 		.4byte	0x12a
 3619 103c 05       		.uleb128 0x5
 3620 103d 03       		.byte	0x3
 3621 103e 10000000 		.4byte	CapSense_debounceButton14
 3622 1042 24       		.uleb128 0x24
ARM GAS  C:\Users\YUANFA~1\AppData\Local\Temp\ccItJH9a.s 			page 97


 3623 1043 E4060000 		.4byte	.LASF196
 3624 1047 01       		.byte	0x1
 3625 1048 60       		.byte	0x60
 3626 1049 2A010000 		.4byte	0x12a
 3627 104d 05       		.uleb128 0x5
 3628 104e 03       		.byte	0x3
 3629 104f 0C000000 		.4byte	CapSense_debounceButton15
 3630 1053 24       		.uleb128 0x24
 3631 1054 FE060000 		.4byte	.LASF197
 3632 1058 01       		.byte	0x1
 3633 1059 61       		.byte	0x61
 3634 105a 2A010000 		.4byte	0x12a
 3635 105e 05       		.uleb128 0x5
 3636 105f 03       		.byte	0x3
 3637 1060 08000000 		.4byte	CapSense_debounceButton16
 3638 1064 24       		.uleb128 0x24
 3639 1065 740A0000 		.4byte	.LASF198
 3640 1069 01       		.byte	0x1
 3641 106a 62       		.byte	0x62
 3642 106b 2A010000 		.4byte	0x12a
 3643 106f 05       		.uleb128 0x5
 3644 1070 03       		.byte	0x3
 3645 1071 04000000 		.4byte	CapSense_debounceButton17
 3646 1075 24       		.uleb128 0x24
 3647 1076 23070000 		.4byte	.LASF199
 3648 107a 01       		.byte	0x1
 3649 107b 63       		.byte	0x63
 3650 107c 2A010000 		.4byte	0x12a
 3651 1080 05       		.uleb128 0x5
 3652 1081 03       		.byte	0x3
 3653 1082 00000000 		.4byte	CapSense_debounceButton18
 3654 1086 25       		.uleb128 0x25
 3655 1087 78070000 		.4byte	.LASF200
 3656 108b 01       		.byte	0x1
 3657 108c 4A       		.byte	0x4a
 3658 108d 0F090000 		.4byte	0x90f
 3659 1091 05       		.uleb128 0x5
 3660 1092 03       		.byte	0x3
 3661 1093 00000000 		.4byte	CapSense_dsRam
 3662 1097 25       		.uleb128 0x25
 3663 1098 1F0A0000 		.4byte	.LASF201
 3664 109c 01       		.byte	0x1
 3665 109d 74       		.byte	0x74
 3666 109e A8100000 		.4byte	0x10a8
 3667 10a2 05       		.uleb128 0x5
 3668 10a3 03       		.byte	0x3
 3669 10a4 00000000 		.4byte	CapSense_dsFlash
 3670 10a8 19       		.uleb128 0x19
 3671 10a9 920A0000 		.4byte	0xa92
 3672 10ad 09       		.uleb128 0x9
 3673 10ae BD100000 		.4byte	0x10bd
 3674 10b2 BD100000 		.4byte	0x10bd
 3675 10b6 0A       		.uleb128 0xa
 3676 10b7 D2000000 		.4byte	0xd2
 3677 10bb 12       		.byte	0x12
 3678 10bc 00       		.byte	0
 3679 10bd 19       		.uleb128 0x19
ARM GAS  C:\Users\YUANFA~1\AppData\Local\Temp\ccItJH9a.s 			page 98


 3680 10be AD090000 		.4byte	0x9ad
 3681 10c2 26       		.uleb128 0x26
 3682 10c3 300C0000 		.4byte	.LASF202
 3683 10c7 01       		.byte	0x1
 3684 10c8 6201     		.2byte	0x162
 3685 10ca D4100000 		.4byte	0x10d4
 3686 10ce 05       		.uleb128 0x5
 3687 10cf 03       		.byte	0x3
 3688 10d0 00000000 		.4byte	CapSense_ioList
 3689 10d4 19       		.uleb128 0x19
 3690 10d5 AD100000 		.4byte	0x10ad
 3691 10d9 26       		.uleb128 0x26
 3692 10da 2F0B0000 		.4byte	.LASF203
 3693 10de 01       		.byte	0x1
 3694 10df 5002     		.2byte	0x250
 3695 10e1 EB100000 		.4byte	0x10eb
 3696 10e5 05       		.uleb128 0x5
 3697 10e6 03       		.byte	0x3
 3698 10e7 00000000 		.4byte	CapSense_ramWidgetInit
 3699 10eb 19       		.uleb128 0x19
 3700 10ec 0F030000 		.4byte	0x30f
 3701 10f0 09       		.uleb128 0x9
 3702 10f1 CA0B0000 		.4byte	0xbca
 3703 10f5 00110000 		.4byte	0x1100
 3704 10f9 0A       		.uleb128 0xa
 3705 10fa D2000000 		.4byte	0xd2
 3706 10fe 12       		.byte	0x12
 3707 10ff 00       		.byte	0
 3708 1100 26       		.uleb128 0x26
 3709 1101 24010000 		.4byte	.LASF204
 3710 1105 01       		.byte	0x1
 3711 1106 AC03     		.2byte	0x3ac
 3712 1108 12110000 		.4byte	0x1112
 3713 110c 05       		.uleb128 0x5
 3714 110d 03       		.byte	0x3
 3715 110e 00000000 		.4byte	CapSense_ramIdacInit
 3716 1112 19       		.uleb128 0x19
 3717 1113 F0100000 		.4byte	0x10f0
 3718 1117 09       		.uleb128 0x9
 3719 1118 CA0B0000 		.4byte	0xbca
 3720 111c 27110000 		.4byte	0x1127
 3721 1120 0A       		.uleb128 0xa
 3722 1121 D2000000 		.4byte	0xd2
 3723 1125 00       		.byte	0
 3724 1126 00       		.byte	0
 3725 1127 26       		.uleb128 0x26
 3726 1128 24040000 		.4byte	.LASF205
 3727 112c 01       		.byte	0x1
 3728 112d 1E04     		.2byte	0x41e
 3729 112f 39110000 		.4byte	0x1139
 3730 1133 05       		.uleb128 0x5
 3731 1134 03       		.byte	0x3
 3732 1135 00000000 		.4byte	CapSense_extCapMap
 3733 1139 19       		.uleb128 0x19
 3734 113a 17110000 		.4byte	0x1117
 3735 113e 27       		.uleb128 0x27
 3736 113f 400C0000 		.4byte	.LASF206
ARM GAS  C:\Users\YUANFA~1\AppData\Local\Temp\ccItJH9a.s 			page 99


 3737 1143 400C0000 		.4byte	.LASF206
 3738 1147 27       		.uleb128 0x27
 3739 1148 97070000 		.4byte	.LASF207
 3740 114c 97070000 		.4byte	.LASF207
 3741 1150 28       		.uleb128 0x28
 3742 1151 7E030000 		.4byte	.LASF208
 3743 1155 7E030000 		.4byte	.LASF208
 3744 1159 05       		.byte	0x5
 3745 115a FA       		.byte	0xfa
 3746 115b 28       		.uleb128 0x28
 3747 115c 24060000 		.4byte	.LASF209
 3748 1160 24060000 		.4byte	.LASF209
 3749 1164 06       		.byte	0x6
 3750 1165 83       		.byte	0x83
 3751 1166 28       		.uleb128 0x28
 3752 1167 80000000 		.4byte	.LASF210
 3753 116b 80000000 		.4byte	.LASF210
 3754 116f 06       		.byte	0x6
 3755 1170 86       		.byte	0x86
 3756 1171 00       		.byte	0
 3757              		.section	.debug_abbrev,"",%progbits
 3758              	.Ldebug_abbrev0:
 3759 0000 01       		.uleb128 0x1
 3760 0001 11       		.uleb128 0x11
 3761 0002 01       		.byte	0x1
 3762 0003 25       		.uleb128 0x25
 3763 0004 0E       		.uleb128 0xe
 3764 0005 13       		.uleb128 0x13
 3765 0006 0B       		.uleb128 0xb
 3766 0007 03       		.uleb128 0x3
 3767 0008 0E       		.uleb128 0xe
 3768 0009 1B       		.uleb128 0x1b
 3769 000a 0E       		.uleb128 0xe
 3770 000b 55       		.uleb128 0x55
 3771 000c 17       		.uleb128 0x17
 3772 000d 11       		.uleb128 0x11
 3773 000e 01       		.uleb128 0x1
 3774 000f 10       		.uleb128 0x10
 3775 0010 17       		.uleb128 0x17
 3776 0011 00       		.byte	0
 3777 0012 00       		.byte	0
 3778 0013 02       		.uleb128 0x2
 3779 0014 24       		.uleb128 0x24
 3780 0015 00       		.byte	0
 3781 0016 0B       		.uleb128 0xb
 3782 0017 0B       		.uleb128 0xb
 3783 0018 3E       		.uleb128 0x3e
 3784 0019 0B       		.uleb128 0xb
 3785 001a 03       		.uleb128 0x3
 3786 001b 0E       		.uleb128 0xe
 3787 001c 00       		.byte	0
 3788 001d 00       		.byte	0
 3789 001e 03       		.uleb128 0x3
 3790 001f 24       		.uleb128 0x24
 3791 0020 00       		.byte	0
 3792 0021 0B       		.uleb128 0xb
 3793 0022 0B       		.uleb128 0xb
ARM GAS  C:\Users\YUANFA~1\AppData\Local\Temp\ccItJH9a.s 			page 100


 3794 0023 3E       		.uleb128 0x3e
 3795 0024 0B       		.uleb128 0xb
 3796 0025 03       		.uleb128 0x3
 3797 0026 08       		.uleb128 0x8
 3798 0027 00       		.byte	0
 3799 0028 00       		.byte	0
 3800 0029 04       		.uleb128 0x4
 3801 002a 16       		.uleb128 0x16
 3802 002b 00       		.byte	0
 3803 002c 03       		.uleb128 0x3
 3804 002d 0E       		.uleb128 0xe
 3805 002e 3A       		.uleb128 0x3a
 3806 002f 0B       		.uleb128 0xb
 3807 0030 3B       		.uleb128 0x3b
 3808 0031 05       		.uleb128 0x5
 3809 0032 49       		.uleb128 0x49
 3810 0033 13       		.uleb128 0x13
 3811 0034 00       		.byte	0
 3812 0035 00       		.byte	0
 3813 0036 05       		.uleb128 0x5
 3814 0037 35       		.uleb128 0x35
 3815 0038 00       		.byte	0
 3816 0039 49       		.uleb128 0x49
 3817 003a 13       		.uleb128 0x13
 3818 003b 00       		.byte	0
 3819 003c 00       		.byte	0
 3820 003d 06       		.uleb128 0x6
 3821 003e 0F       		.uleb128 0xf
 3822 003f 00       		.byte	0
 3823 0040 0B       		.uleb128 0xb
 3824 0041 0B       		.uleb128 0xb
 3825 0042 00       		.byte	0
 3826 0043 00       		.byte	0
 3827 0044 07       		.uleb128 0x7
 3828 0045 04       		.uleb128 0x4
 3829 0046 01       		.byte	0x1
 3830 0047 0B       		.uleb128 0xb
 3831 0048 0B       		.uleb128 0xb
 3832 0049 49       		.uleb128 0x49
 3833 004a 13       		.uleb128 0x13
 3834 004b 3A       		.uleb128 0x3a
 3835 004c 0B       		.uleb128 0xb
 3836 004d 3B       		.uleb128 0x3b
 3837 004e 0B       		.uleb128 0xb
 3838 004f 01       		.uleb128 0x1
 3839 0050 13       		.uleb128 0x13
 3840 0051 00       		.byte	0
 3841 0052 00       		.byte	0
 3842 0053 08       		.uleb128 0x8
 3843 0054 28       		.uleb128 0x28
 3844 0055 00       		.byte	0
 3845 0056 03       		.uleb128 0x3
 3846 0057 0E       		.uleb128 0xe
 3847 0058 1C       		.uleb128 0x1c
 3848 0059 0B       		.uleb128 0xb
 3849 005a 00       		.byte	0
 3850 005b 00       		.byte	0
ARM GAS  C:\Users\YUANFA~1\AppData\Local\Temp\ccItJH9a.s 			page 101


 3851 005c 09       		.uleb128 0x9
 3852 005d 01       		.uleb128 0x1
 3853 005e 01       		.byte	0x1
 3854 005f 49       		.uleb128 0x49
 3855 0060 13       		.uleb128 0x13
 3856 0061 01       		.uleb128 0x1
 3857 0062 13       		.uleb128 0x13
 3858 0063 00       		.byte	0
 3859 0064 00       		.byte	0
 3860 0065 0A       		.uleb128 0xa
 3861 0066 21       		.uleb128 0x21
 3862 0067 00       		.byte	0
 3863 0068 49       		.uleb128 0x49
 3864 0069 13       		.uleb128 0x13
 3865 006a 2F       		.uleb128 0x2f
 3866 006b 0B       		.uleb128 0xb
 3867 006c 00       		.byte	0
 3868 006d 00       		.byte	0
 3869 006e 0B       		.uleb128 0xb
 3870 006f 13       		.uleb128 0x13
 3871 0070 01       		.byte	0x1
 3872 0071 0B       		.uleb128 0xb
 3873 0072 0B       		.uleb128 0xb
 3874 0073 3A       		.uleb128 0x3a
 3875 0074 0B       		.uleb128 0xb
 3876 0075 3B       		.uleb128 0x3b
 3877 0076 05       		.uleb128 0x5
 3878 0077 01       		.uleb128 0x1
 3879 0078 13       		.uleb128 0x13
 3880 0079 00       		.byte	0
 3881 007a 00       		.byte	0
 3882 007b 0C       		.uleb128 0xc
 3883 007c 0D       		.uleb128 0xd
 3884 007d 00       		.byte	0
 3885 007e 03       		.uleb128 0x3
 3886 007f 08       		.uleb128 0x8
 3887 0080 3A       		.uleb128 0x3a
 3888 0081 0B       		.uleb128 0xb
 3889 0082 3B       		.uleb128 0x3b
 3890 0083 05       		.uleb128 0x5
 3891 0084 49       		.uleb128 0x49
 3892 0085 13       		.uleb128 0x13
 3893 0086 38       		.uleb128 0x38
 3894 0087 0B       		.uleb128 0xb
 3895 0088 00       		.byte	0
 3896 0089 00       		.byte	0
 3897 008a 0D       		.uleb128 0xd
 3898 008b 0D       		.uleb128 0xd
 3899 008c 00       		.byte	0
 3900 008d 03       		.uleb128 0x3
 3901 008e 0E       		.uleb128 0xe
 3902 008f 3A       		.uleb128 0x3a
 3903 0090 0B       		.uleb128 0xb
 3904 0091 3B       		.uleb128 0x3b
 3905 0092 05       		.uleb128 0x5
 3906 0093 49       		.uleb128 0x49
 3907 0094 13       		.uleb128 0x13
ARM GAS  C:\Users\YUANFA~1\AppData\Local\Temp\ccItJH9a.s 			page 102


 3908 0095 38       		.uleb128 0x38
 3909 0096 0B       		.uleb128 0xb
 3910 0097 00       		.byte	0
 3911 0098 00       		.byte	0
 3912 0099 0E       		.uleb128 0xe
 3913 009a 13       		.uleb128 0x13
 3914 009b 01       		.byte	0x1
 3915 009c 0B       		.uleb128 0xb
 3916 009d 05       		.uleb128 0x5
 3917 009e 3A       		.uleb128 0x3a
 3918 009f 0B       		.uleb128 0xb
 3919 00a0 3B       		.uleb128 0x3b
 3920 00a1 05       		.uleb128 0x5
 3921 00a2 01       		.uleb128 0x1
 3922 00a3 13       		.uleb128 0x13
 3923 00a4 00       		.byte	0
 3924 00a5 00       		.byte	0
 3925 00a6 0F       		.uleb128 0xf
 3926 00a7 0D       		.uleb128 0xd
 3927 00a8 00       		.byte	0
 3928 00a9 03       		.uleb128 0x3
 3929 00aa 0E       		.uleb128 0xe
 3930 00ab 3A       		.uleb128 0x3a
 3931 00ac 0B       		.uleb128 0xb
 3932 00ad 3B       		.uleb128 0x3b
 3933 00ae 05       		.uleb128 0x5
 3934 00af 49       		.uleb128 0x49
 3935 00b0 13       		.uleb128 0x13
 3936 00b1 38       		.uleb128 0x38
 3937 00b2 05       		.uleb128 0x5
 3938 00b3 00       		.byte	0
 3939 00b4 00       		.byte	0
 3940 00b5 10       		.uleb128 0x10
 3941 00b6 0F       		.uleb128 0xf
 3942 00b7 00       		.byte	0
 3943 00b8 0B       		.uleb128 0xb
 3944 00b9 0B       		.uleb128 0xb
 3945 00ba 49       		.uleb128 0x49
 3946 00bb 13       		.uleb128 0x13
 3947 00bc 00       		.byte	0
 3948 00bd 00       		.byte	0
 3949 00be 11       		.uleb128 0x11
 3950 00bf 26       		.uleb128 0x26
 3951 00c0 00       		.byte	0
 3952 00c1 00       		.byte	0
 3953 00c2 00       		.byte	0
 3954 00c3 12       		.uleb128 0x12
 3955 00c4 2E       		.uleb128 0x2e
 3956 00c5 01       		.byte	0x1
 3957 00c6 03       		.uleb128 0x3
 3958 00c7 0E       		.uleb128 0xe
 3959 00c8 3A       		.uleb128 0x3a
 3960 00c9 0B       		.uleb128 0xb
 3961 00ca 3B       		.uleb128 0x3b
 3962 00cb 05       		.uleb128 0x5
 3963 00cc 27       		.uleb128 0x27
 3964 00cd 19       		.uleb128 0x19
ARM GAS  C:\Users\YUANFA~1\AppData\Local\Temp\ccItJH9a.s 			page 103


 3965 00ce 49       		.uleb128 0x49
 3966 00cf 13       		.uleb128 0x13
 3967 00d0 11       		.uleb128 0x11
 3968 00d1 01       		.uleb128 0x1
 3969 00d2 12       		.uleb128 0x12
 3970 00d3 06       		.uleb128 0x6
 3971 00d4 40       		.uleb128 0x40
 3972 00d5 18       		.uleb128 0x18
 3973 00d6 9742     		.uleb128 0x2117
 3974 00d8 19       		.uleb128 0x19
 3975 00d9 01       		.uleb128 0x1
 3976 00da 13       		.uleb128 0x13
 3977 00db 00       		.byte	0
 3978 00dc 00       		.byte	0
 3979 00dd 13       		.uleb128 0x13
 3980 00de 05       		.uleb128 0x5
 3981 00df 00       		.byte	0
 3982 00e0 03       		.uleb128 0x3
 3983 00e1 0E       		.uleb128 0xe
 3984 00e2 3A       		.uleb128 0x3a
 3985 00e3 0B       		.uleb128 0xb
 3986 00e4 3B       		.uleb128 0x3b
 3987 00e5 05       		.uleb128 0x5
 3988 00e6 49       		.uleb128 0x49
 3989 00e7 13       		.uleb128 0x13
 3990 00e8 02       		.uleb128 0x2
 3991 00e9 17       		.uleb128 0x17
 3992 00ea 00       		.byte	0
 3993 00eb 00       		.byte	0
 3994 00ec 14       		.uleb128 0x14
 3995 00ed 34       		.uleb128 0x34
 3996 00ee 00       		.byte	0
 3997 00ef 03       		.uleb128 0x3
 3998 00f0 0E       		.uleb128 0xe
 3999 00f1 3A       		.uleb128 0x3a
 4000 00f2 0B       		.uleb128 0xb
 4001 00f3 3B       		.uleb128 0x3b
 4002 00f4 05       		.uleb128 0x5
 4003 00f5 49       		.uleb128 0x49
 4004 00f6 13       		.uleb128 0x13
 4005 00f7 02       		.uleb128 0x2
 4006 00f8 17       		.uleb128 0x17
 4007 00f9 00       		.byte	0
 4008 00fa 00       		.byte	0
 4009 00fb 15       		.uleb128 0x15
 4010 00fc 34       		.uleb128 0x34
 4011 00fd 00       		.byte	0
 4012 00fe 03       		.uleb128 0x3
 4013 00ff 0E       		.uleb128 0xe
 4014 0100 3A       		.uleb128 0x3a
 4015 0101 0B       		.uleb128 0xb
 4016 0102 3B       		.uleb128 0x3b
 4017 0103 05       		.uleb128 0x5
 4018 0104 49       		.uleb128 0x49
 4019 0105 13       		.uleb128 0x13
 4020 0106 02       		.uleb128 0x2
 4021 0107 18       		.uleb128 0x18
ARM GAS  C:\Users\YUANFA~1\AppData\Local\Temp\ccItJH9a.s 			page 104


 4022 0108 00       		.byte	0
 4023 0109 00       		.byte	0
 4024 010a 16       		.uleb128 0x16
 4025 010b 34       		.uleb128 0x34
 4026 010c 00       		.byte	0
 4027 010d 03       		.uleb128 0x3
 4028 010e 08       		.uleb128 0x8
 4029 010f 3A       		.uleb128 0x3a
 4030 0110 0B       		.uleb128 0xb
 4031 0111 3B       		.uleb128 0x3b
 4032 0112 05       		.uleb128 0x5
 4033 0113 49       		.uleb128 0x49
 4034 0114 13       		.uleb128 0x13
 4035 0115 02       		.uleb128 0x2
 4036 0116 17       		.uleb128 0x17
 4037 0117 00       		.byte	0
 4038 0118 00       		.byte	0
 4039 0119 17       		.uleb128 0x17
 4040 011a 898201   		.uleb128 0x4109
 4041 011d 01       		.byte	0x1
 4042 011e 11       		.uleb128 0x11
 4043 011f 01       		.uleb128 0x1
 4044 0120 31       		.uleb128 0x31
 4045 0121 13       		.uleb128 0x13
 4046 0122 00       		.byte	0
 4047 0123 00       		.byte	0
 4048 0124 18       		.uleb128 0x18
 4049 0125 8A8201   		.uleb128 0x410a
 4050 0128 00       		.byte	0
 4051 0129 02       		.uleb128 0x2
 4052 012a 18       		.uleb128 0x18
 4053 012b 9142     		.uleb128 0x2111
 4054 012d 18       		.uleb128 0x18
 4055 012e 00       		.byte	0
 4056 012f 00       		.byte	0
 4057 0130 19       		.uleb128 0x19
 4058 0131 26       		.uleb128 0x26
 4059 0132 00       		.byte	0
 4060 0133 49       		.uleb128 0x49
 4061 0134 13       		.uleb128 0x13
 4062 0135 00       		.byte	0
 4063 0136 00       		.byte	0
 4064 0137 1A       		.uleb128 0x1a
 4065 0138 2E       		.uleb128 0x2e
 4066 0139 01       		.byte	0x1
 4067 013a 3F       		.uleb128 0x3f
 4068 013b 19       		.uleb128 0x19
 4069 013c 03       		.uleb128 0x3
 4070 013d 0E       		.uleb128 0xe
 4071 013e 3A       		.uleb128 0x3a
 4072 013f 0B       		.uleb128 0xb
 4073 0140 3B       		.uleb128 0x3b
 4074 0141 05       		.uleb128 0x5
 4075 0142 27       		.uleb128 0x27
 4076 0143 19       		.uleb128 0x19
 4077 0144 11       		.uleb128 0x11
 4078 0145 01       		.uleb128 0x1
ARM GAS  C:\Users\YUANFA~1\AppData\Local\Temp\ccItJH9a.s 			page 105


 4079 0146 12       		.uleb128 0x12
 4080 0147 06       		.uleb128 0x6
 4081 0148 40       		.uleb128 0x40
 4082 0149 18       		.uleb128 0x18
 4083 014a 9742     		.uleb128 0x2117
 4084 014c 19       		.uleb128 0x19
 4085 014d 01       		.uleb128 0x1
 4086 014e 13       		.uleb128 0x13
 4087 014f 00       		.byte	0
 4088 0150 00       		.byte	0
 4089 0151 1B       		.uleb128 0x1b
 4090 0152 898201   		.uleb128 0x4109
 4091 0155 01       		.byte	0x1
 4092 0156 11       		.uleb128 0x11
 4093 0157 01       		.uleb128 0x1
 4094 0158 31       		.uleb128 0x31
 4095 0159 13       		.uleb128 0x13
 4096 015a 01       		.uleb128 0x1
 4097 015b 13       		.uleb128 0x13
 4098 015c 00       		.byte	0
 4099 015d 00       		.byte	0
 4100 015e 1C       		.uleb128 0x1c
 4101 015f 2E       		.uleb128 0x2e
 4102 0160 01       		.byte	0x1
 4103 0161 3F       		.uleb128 0x3f
 4104 0162 19       		.uleb128 0x19
 4105 0163 03       		.uleb128 0x3
 4106 0164 0E       		.uleb128 0xe
 4107 0165 3A       		.uleb128 0x3a
 4108 0166 0B       		.uleb128 0xb
 4109 0167 3B       		.uleb128 0x3b
 4110 0168 05       		.uleb128 0x5
 4111 0169 27       		.uleb128 0x27
 4112 016a 19       		.uleb128 0x19
 4113 016b 49       		.uleb128 0x49
 4114 016c 13       		.uleb128 0x13
 4115 016d 11       		.uleb128 0x11
 4116 016e 01       		.uleb128 0x1
 4117 016f 12       		.uleb128 0x12
 4118 0170 06       		.uleb128 0x6
 4119 0171 40       		.uleb128 0x40
 4120 0172 18       		.uleb128 0x18
 4121 0173 9742     		.uleb128 0x2117
 4122 0175 19       		.uleb128 0x19
 4123 0176 01       		.uleb128 0x1
 4124 0177 13       		.uleb128 0x13
 4125 0178 00       		.byte	0
 4126 0179 00       		.byte	0
 4127 017a 1D       		.uleb128 0x1d
 4128 017b 17       		.uleb128 0x17
 4129 017c 01       		.byte	0x1
 4130 017d 0B       		.uleb128 0xb
 4131 017e 0B       		.uleb128 0xb
 4132 017f 3A       		.uleb128 0x3a
 4133 0180 0B       		.uleb128 0xb
 4134 0181 3B       		.uleb128 0x3b
 4135 0182 05       		.uleb128 0x5
ARM GAS  C:\Users\YUANFA~1\AppData\Local\Temp\ccItJH9a.s 			page 106


 4136 0183 01       		.uleb128 0x1
 4137 0184 13       		.uleb128 0x13
 4138 0185 00       		.byte	0
 4139 0186 00       		.byte	0
 4140 0187 1E       		.uleb128 0x1e
 4141 0188 0D       		.uleb128 0xd
 4142 0189 00       		.byte	0
 4143 018a 03       		.uleb128 0x3
 4144 018b 08       		.uleb128 0x8
 4145 018c 3A       		.uleb128 0x3a
 4146 018d 0B       		.uleb128 0xb
 4147 018e 3B       		.uleb128 0x3b
 4148 018f 05       		.uleb128 0x5
 4149 0190 49       		.uleb128 0x49
 4150 0191 13       		.uleb128 0x13
 4151 0192 00       		.byte	0
 4152 0193 00       		.byte	0
 4153 0194 1F       		.uleb128 0x1f
 4154 0195 0D       		.uleb128 0xd
 4155 0196 00       		.byte	0
 4156 0197 03       		.uleb128 0x3
 4157 0198 0E       		.uleb128 0xe
 4158 0199 3A       		.uleb128 0x3a
 4159 019a 0B       		.uleb128 0xb
 4160 019b 3B       		.uleb128 0x3b
 4161 019c 05       		.uleb128 0x5
 4162 019d 49       		.uleb128 0x49
 4163 019e 13       		.uleb128 0x13
 4164 019f 00       		.byte	0
 4165 01a0 00       		.byte	0
 4166 01a1 20       		.uleb128 0x20
 4167 01a2 35       		.uleb128 0x35
 4168 01a3 00       		.byte	0
 4169 01a4 00       		.byte	0
 4170 01a5 00       		.byte	0
 4171 01a6 21       		.uleb128 0x21
 4172 01a7 34       		.uleb128 0x34
 4173 01a8 00       		.byte	0
 4174 01a9 03       		.uleb128 0x3
 4175 01aa 0E       		.uleb128 0xe
 4176 01ab 3A       		.uleb128 0x3a
 4177 01ac 0B       		.uleb128 0xb
 4178 01ad 3B       		.uleb128 0x3b
 4179 01ae 05       		.uleb128 0x5
 4180 01af 49       		.uleb128 0x49
 4181 01b0 13       		.uleb128 0x13
 4182 01b1 00       		.byte	0
 4183 01b2 00       		.byte	0
 4184 01b3 22       		.uleb128 0x22
 4185 01b4 898201   		.uleb128 0x4109
 4186 01b7 00       		.byte	0
 4187 01b8 11       		.uleb128 0x11
 4188 01b9 01       		.uleb128 0x1
 4189 01ba 31       		.uleb128 0x31
 4190 01bb 13       		.uleb128 0x13
 4191 01bc 00       		.byte	0
 4192 01bd 00       		.byte	0
ARM GAS  C:\Users\YUANFA~1\AppData\Local\Temp\ccItJH9a.s 			page 107


 4193 01be 23       		.uleb128 0x23
 4194 01bf 05       		.uleb128 0x5
 4195 01c0 00       		.byte	0
 4196 01c1 03       		.uleb128 0x3
 4197 01c2 0E       		.uleb128 0xe
 4198 01c3 3A       		.uleb128 0x3a
 4199 01c4 0B       		.uleb128 0xb
 4200 01c5 3B       		.uleb128 0x3b
 4201 01c6 05       		.uleb128 0x5
 4202 01c7 49       		.uleb128 0x49
 4203 01c8 13       		.uleb128 0x13
 4204 01c9 02       		.uleb128 0x2
 4205 01ca 18       		.uleb128 0x18
 4206 01cb 00       		.byte	0
 4207 01cc 00       		.byte	0
 4208 01cd 24       		.uleb128 0x24
 4209 01ce 34       		.uleb128 0x34
 4210 01cf 00       		.byte	0
 4211 01d0 03       		.uleb128 0x3
 4212 01d1 0E       		.uleb128 0xe
 4213 01d2 3A       		.uleb128 0x3a
 4214 01d3 0B       		.uleb128 0xb
 4215 01d4 3B       		.uleb128 0x3b
 4216 01d5 0B       		.uleb128 0xb
 4217 01d6 49       		.uleb128 0x49
 4218 01d7 13       		.uleb128 0x13
 4219 01d8 02       		.uleb128 0x2
 4220 01d9 18       		.uleb128 0x18
 4221 01da 00       		.byte	0
 4222 01db 00       		.byte	0
 4223 01dc 25       		.uleb128 0x25
 4224 01dd 34       		.uleb128 0x34
 4225 01de 00       		.byte	0
 4226 01df 03       		.uleb128 0x3
 4227 01e0 0E       		.uleb128 0xe
 4228 01e1 3A       		.uleb128 0x3a
 4229 01e2 0B       		.uleb128 0xb
 4230 01e3 3B       		.uleb128 0x3b
 4231 01e4 0B       		.uleb128 0xb
 4232 01e5 49       		.uleb128 0x49
 4233 01e6 13       		.uleb128 0x13
 4234 01e7 3F       		.uleb128 0x3f
 4235 01e8 19       		.uleb128 0x19
 4236 01e9 02       		.uleb128 0x2
 4237 01ea 18       		.uleb128 0x18
 4238 01eb 00       		.byte	0
 4239 01ec 00       		.byte	0
 4240 01ed 26       		.uleb128 0x26
 4241 01ee 34       		.uleb128 0x34
 4242 01ef 00       		.byte	0
 4243 01f0 03       		.uleb128 0x3
 4244 01f1 0E       		.uleb128 0xe
 4245 01f2 3A       		.uleb128 0x3a
 4246 01f3 0B       		.uleb128 0xb
 4247 01f4 3B       		.uleb128 0x3b
 4248 01f5 05       		.uleb128 0x5
 4249 01f6 49       		.uleb128 0x49
ARM GAS  C:\Users\YUANFA~1\AppData\Local\Temp\ccItJH9a.s 			page 108


 4250 01f7 13       		.uleb128 0x13
 4251 01f8 3F       		.uleb128 0x3f
 4252 01f9 19       		.uleb128 0x19
 4253 01fa 02       		.uleb128 0x2
 4254 01fb 18       		.uleb128 0x18
 4255 01fc 00       		.byte	0
 4256 01fd 00       		.byte	0
 4257 01fe 27       		.uleb128 0x27
 4258 01ff 2E       		.uleb128 0x2e
 4259 0200 00       		.byte	0
 4260 0201 3F       		.uleb128 0x3f
 4261 0202 19       		.uleb128 0x19
 4262 0203 3C       		.uleb128 0x3c
 4263 0204 19       		.uleb128 0x19
 4264 0205 6E       		.uleb128 0x6e
 4265 0206 0E       		.uleb128 0xe
 4266 0207 03       		.uleb128 0x3
 4267 0208 0E       		.uleb128 0xe
 4268 0209 00       		.byte	0
 4269 020a 00       		.byte	0
 4270 020b 28       		.uleb128 0x28
 4271 020c 2E       		.uleb128 0x2e
 4272 020d 00       		.byte	0
 4273 020e 3F       		.uleb128 0x3f
 4274 020f 19       		.uleb128 0x19
 4275 0210 3C       		.uleb128 0x3c
 4276 0211 19       		.uleb128 0x19
 4277 0212 6E       		.uleb128 0x6e
 4278 0213 0E       		.uleb128 0xe
 4279 0214 03       		.uleb128 0x3
 4280 0215 0E       		.uleb128 0xe
 4281 0216 3A       		.uleb128 0x3a
 4282 0217 0B       		.uleb128 0xb
 4283 0218 3B       		.uleb128 0x3b
 4284 0219 0B       		.uleb128 0xb
 4285 021a 00       		.byte	0
 4286 021b 00       		.byte	0
 4287 021c 00       		.byte	0
 4288              		.section	.debug_loc,"",%progbits
 4289              	.Ldebug_loc0:
 4290              	.LLST0:
 4291 0000 00000000 		.4byte	.LVL0
 4292 0004 12000000 		.4byte	.LVL3
 4293 0008 0100     		.2byte	0x1
 4294 000a 50       		.byte	0x50
 4295 000b 12000000 		.4byte	.LVL3
 4296 000f 6C000000 		.4byte	.LVL17
 4297 0013 0100     		.2byte	0x1
 4298 0015 54       		.byte	0x54
 4299 0016 00000000 		.4byte	0
 4300 001a 00000000 		.4byte	0
 4301              	.LLST1:
 4302 001e 00000000 		.4byte	.LVL0
 4303 0022 10000000 		.4byte	.LVL2
 4304 0026 0100     		.2byte	0x1
 4305 0028 51       		.byte	0x51
 4306 0029 10000000 		.4byte	.LVL2
ARM GAS  C:\Users\YUANFA~1\AppData\Local\Temp\ccItJH9a.s 			page 109


 4307 002d 48000000 		.4byte	.LVL6
 4308 0031 0100     		.2byte	0x1
 4309 0033 56       		.byte	0x56
 4310 0034 48000000 		.4byte	.LVL6
 4311 0038 EC000000 		.4byte	.LFE2
 4312 003c 0400     		.2byte	0x4
 4313 003e F3       		.byte	0xf3
 4314 003f 01       		.uleb128 0x1
 4315 0040 51       		.byte	0x51
 4316 0041 9F       		.byte	0x9f
 4317 0042 00000000 		.4byte	0
 4318 0046 00000000 		.4byte	0
 4319              	.LLST2:
 4320 004a 0C000000 		.4byte	.LVL1
 4321 004e 76000000 		.4byte	.LVL20
 4322 0052 0200     		.2byte	0x2
 4323 0054 30       		.byte	0x30
 4324 0055 9F       		.byte	0x9f
 4325 0056 76000000 		.4byte	.LVL20
 4326 005a A6000000 		.4byte	.LVL26
 4327 005e 0100     		.2byte	0x1
 4328 0060 53       		.byte	0x53
 4329 0061 A8000000 		.4byte	.LVL27
 4330 0065 CE000000 		.4byte	.LVL29
 4331 0069 0100     		.2byte	0x1
 4332 006b 53       		.byte	0x53
 4333 006c D0000000 		.4byte	.LVL30
 4334 0070 D2000000 		.4byte	.LVL31
 4335 0074 0100     		.2byte	0x1
 4336 0076 53       		.byte	0x53
 4337 0077 D4000000 		.4byte	.LVL32
 4338 007b EC000000 		.4byte	.LFE2
 4339 007f 0100     		.2byte	0x1
 4340 0081 53       		.byte	0x53
 4341 0082 00000000 		.4byte	0
 4342 0086 00000000 		.4byte	0
 4343              	.LLST3:
 4344 008a 46000000 		.4byte	.LVL5
 4345 008e 4C000000 		.4byte	.LVL7
 4346 0092 0200     		.2byte	0x2
 4347 0094 36       		.byte	0x36
 4348 0095 9F       		.byte	0x9f
 4349 0096 4C000000 		.4byte	.LVL7
 4350 009a 62000000 		.4byte	.LVL13
 4351 009e 0100     		.2byte	0x1
 4352 00a0 52       		.byte	0x52
 4353 00a1 62000000 		.4byte	.LVL13
 4354 00a5 8E000000 		.4byte	.LVL22
 4355 00a9 0300     		.2byte	0x3
 4356 00ab 72       		.byte	0x72
 4357 00ac 71       		.sleb128 -15
 4358 00ad 9F       		.byte	0x9f
 4359 00ae 94000000 		.4byte	.LVL23
 4360 00b2 96000000 		.4byte	.LVL24
 4361 00b6 0300     		.2byte	0x3
 4362 00b8 72       		.byte	0x72
 4363 00b9 71       		.sleb128 -15
ARM GAS  C:\Users\YUANFA~1\AppData\Local\Temp\ccItJH9a.s 			page 110


 4364 00ba 9F       		.byte	0x9f
 4365 00bb 00000000 		.4byte	0
 4366 00bf 00000000 		.4byte	0
 4367              	.LLST4:
 4368 00c3 16000000 		.4byte	.LVL4
 4369 00c7 4C000000 		.4byte	.LVL7
 4370 00cb 0200     		.2byte	0x2
 4371 00cd 30       		.byte	0x30
 4372 00ce 9F       		.byte	0x9f
 4373 00cf 4C000000 		.4byte	.LVL7
 4374 00d3 54000000 		.4byte	.LVL9
 4375 00d7 0100     		.2byte	0x1
 4376 00d9 56       		.byte	0x56
 4377 00da 56000000 		.4byte	.LVL10
 4378 00de 68000000 		.4byte	.LVL15
 4379 00e2 0100     		.2byte	0x1
 4380 00e4 56       		.byte	0x56
 4381 00e5 6A000000 		.4byte	.LVL16
 4382 00e9 70000000 		.4byte	.LVL19
 4383 00ed 0100     		.2byte	0x1
 4384 00ef 53       		.byte	0x53
 4385 00f0 70000000 		.4byte	.LVL19
 4386 00f4 76000000 		.4byte	.LVL20
 4387 00f8 0600     		.2byte	0x6
 4388 00fa 73       		.byte	0x73
 4389 00fb 00       		.sleb128 0
 4390 00fc 08       		.byte	0x8
 4391 00fd FF       		.byte	0xff
 4392 00fe 1A       		.byte	0x1a
 4393 00ff 9F       		.byte	0x9f
 4394 0100 76000000 		.4byte	.LVL20
 4395 0104 DA000000 		.4byte	.LVL34
 4396 0108 0B00     		.2byte	0xb
 4397 010a 7D       		.byte	0x7d
 4398 010b 00       		.sleb128 0
 4399 010c 74       		.byte	0x74
 4400 010d 00       		.sleb128 0
 4401 010e 22       		.byte	0x22
 4402 010f 94       		.byte	0x94
 4403 0110 01       		.byte	0x1
 4404 0111 08       		.byte	0x8
 4405 0112 FF       		.byte	0xff
 4406 0113 1A       		.byte	0x1a
 4407 0114 9F       		.byte	0x9f
 4408 0115 DA000000 		.4byte	.LVL34
 4409 0119 DA000000 		.4byte	.LVL35
 4410 011d 0B00     		.2byte	0xb
 4411 011f 76       		.byte	0x76
 4412 0120 00       		.sleb128 0
 4413 0121 74       		.byte	0x74
 4414 0122 00       		.sleb128 0
 4415 0123 22       		.byte	0x22
 4416 0124 94       		.byte	0x94
 4417 0125 01       		.byte	0x1
 4418 0126 08       		.byte	0x8
 4419 0127 FF       		.byte	0xff
 4420 0128 1A       		.byte	0x1a
ARM GAS  C:\Users\YUANFA~1\AppData\Local\Temp\ccItJH9a.s 			page 111


 4421 0129 9F       		.byte	0x9f
 4422 012a 00000000 		.4byte	0
 4423 012e 00000000 		.4byte	0
 4424              	.LLST5:
 4425 0132 52000000 		.4byte	.LVL8
 4426 0136 5A000000 		.4byte	.LVL12
 4427 013a 0100     		.2byte	0x1
 4428 013c 53       		.byte	0x53
 4429 013d 66000000 		.4byte	.LVL14
 4430 0141 6A000000 		.4byte	.LVL16
 4431 0145 0100     		.2byte	0x1
 4432 0147 53       		.byte	0x53
 4433 0148 6E000000 		.4byte	.LVL18
 4434 014c DA000000 		.4byte	.LVL35
 4435 0150 0100     		.2byte	0x1
 4436 0152 54       		.byte	0x54
 4437 0153 00000000 		.4byte	0
 4438 0157 00000000 		.4byte	0
 4439              	.LLST6:
 4440 015b AE000000 		.4byte	.LVL41
 4441 015f B0000000 		.4byte	.LVL42
 4442 0163 0100     		.2byte	0x1
 4443 0165 53       		.byte	0x53
 4444 0166 B0000000 		.4byte	.LVL42
 4445 016a BA000000 		.4byte	.LVL45
 4446 016e 0100     		.2byte	0x1
 4447 0170 50       		.byte	0x50
 4448 0171 BA000000 		.4byte	.LVL45
 4449 0175 BC000000 		.4byte	.LVL46
 4450 0179 0100     		.2byte	0x1
 4451 017b 53       		.byte	0x53
 4452 017c BC000000 		.4byte	.LVL46
 4453 0180 C4000000 		.4byte	.LVL48
 4454 0184 0100     		.2byte	0x1
 4455 0186 50       		.byte	0x50
 4456 0187 00000000 		.4byte	0
 4457 018b 00000000 		.4byte	0
 4458              	.LLST7:
 4459 018f 9E000000 		.4byte	.LVL38
 4460 0193 AA000000 		.4byte	.LVL39
 4461 0197 0200     		.2byte	0x2
 4462 0199 43       		.byte	0x43
 4463 019a 9F       		.byte	0x9f
 4464 019b AA000000 		.4byte	.LVL39
 4465 019f C4000000 		.4byte	.LVL48
 4466 01a3 0100     		.2byte	0x1
 4467 01a5 55       		.byte	0x55
 4468 01a6 C4000000 		.4byte	.LVL48
 4469 01aa C6000000 		.4byte	.LVL49
 4470 01ae 0100     		.2byte	0x1
 4471 01b0 53       		.byte	0x53
 4472 01b1 C6000000 		.4byte	.LVL49
 4473 01b5 CA000000 		.4byte	.LVL51
 4474 01b9 0100     		.2byte	0x1
 4475 01bb 55       		.byte	0x55
 4476 01bc CA000000 		.4byte	.LVL51
 4477 01c0 18010000 		.4byte	.LFE1
ARM GAS  C:\Users\YUANFA~1\AppData\Local\Temp\ccItJH9a.s 			page 112


 4478 01c4 0300     		.2byte	0x3
 4479 01c6 73       		.byte	0x73
 4480 01c7 7F       		.sleb128 -1
 4481 01c8 9F       		.byte	0x9f
 4482 01c9 00000000 		.4byte	0
 4483 01cd 00000000 		.4byte	0
 4484              	.LLST8:
 4485 01d1 AC000000 		.4byte	.LVL40
 4486 01d5 C4000000 		.4byte	.LVL48
 4487 01d9 0100     		.2byte	0x1
 4488 01db 52       		.byte	0x52
 4489 01dc 00000000 		.4byte	0
 4490 01e0 00000000 		.4byte	0
 4491              	.LLST9:
 4492 01e4 9E000000 		.4byte	.LVL38
 4493 01e8 AA000000 		.4byte	.LVL39
 4494 01ec 0600     		.2byte	0x6
 4495 01ee 03       		.byte	0x3
 4496 01ef 00000000 		.4byte	CapSense_dsFlash
 4497 01f3 9F       		.byte	0x9f
 4498 01f4 AA000000 		.4byte	.LVL39
 4499 01f8 CA000000 		.4byte	.LVL50
 4500 01fc 0100     		.2byte	0x1
 4501 01fe 54       		.byte	0x54
 4502 01ff 00000000 		.4byte	0
 4503 0203 00000000 		.4byte	0
 4504              	.LLST10:
 4505 0207 02000000 		.4byte	.LVL36
 4506 020b AA000000 		.4byte	.LVL39
 4507 020f 0600     		.2byte	0x6
 4508 0211 03       		.byte	0x3
 4509 0212 00000000 		.4byte	CapSense_ramIdacInit
 4510 0216 9F       		.byte	0x9f
 4511 0217 AA000000 		.4byte	.LVL39
 4512 021b 18010000 		.4byte	.LFE1
 4513 021f 0100     		.2byte	0x1
 4514 0221 51       		.byte	0x51
 4515 0222 00000000 		.4byte	0
 4516 0226 00000000 		.4byte	0
 4517              	.LLST11:
 4518 022a 00000000 		.4byte	.LVL52
 4519 022e 0B000000 		.4byte	.LVL54-1
 4520 0232 0100     		.2byte	0x1
 4521 0234 50       		.byte	0x50
 4522 0235 0B000000 		.4byte	.LVL54-1
 4523 0239 60000000 		.4byte	.LFE3
 4524 023d 0400     		.2byte	0x4
 4525 023f F3       		.byte	0xf3
 4526 0240 01       		.uleb128 0x1
 4527 0241 50       		.byte	0x50
 4528 0242 9F       		.byte	0x9f
 4529 0243 00000000 		.4byte	0
 4530 0247 00000000 		.4byte	0
 4531              	.LLST12:
 4532 024b 00000000 		.4byte	.LVL52
 4533 024f 08000000 		.4byte	.LVL53
 4534 0253 0100     		.2byte	0x1
ARM GAS  C:\Users\YUANFA~1\AppData\Local\Temp\ccItJH9a.s 			page 113


 4535 0255 51       		.byte	0x51
 4536 0256 08000000 		.4byte	.LVL53
 4537 025a 54000000 		.4byte	.LVL62
 4538 025e 0100     		.2byte	0x1
 4539 0260 55       		.byte	0x55
 4540 0261 54000000 		.4byte	.LVL62
 4541 0265 60000000 		.4byte	.LFE3
 4542 0269 0400     		.2byte	0x4
 4543 026b F3       		.byte	0xf3
 4544 026c 01       		.uleb128 0x1
 4545 026d 51       		.byte	0x51
 4546 026e 9F       		.byte	0x9f
 4547 026f 00000000 		.4byte	0
 4548 0273 00000000 		.4byte	0
 4549              	.LLST13:
 4550 0277 0E000000 		.4byte	.LVL55
 4551 027b 4C000000 		.4byte	.LVL59
 4552 027f 0100     		.2byte	0x1
 4553 0281 50       		.byte	0x50
 4554 0282 4C000000 		.4byte	.LVL59
 4555 0286 54000000 		.4byte	.LVL61
 4556 028a 0100     		.2byte	0x1
 4557 028c 54       		.byte	0x54
 4558 028d 54000000 		.4byte	.LVL61
 4559 0291 60000000 		.4byte	.LFE3
 4560 0295 0100     		.2byte	0x1
 4561 0297 50       		.byte	0x50
 4562 0298 00000000 		.4byte	0
 4563 029c 00000000 		.4byte	0
 4564              	.LLST14:
 4565 02a0 26000000 		.4byte	.LVL57
 4566 02a4 2A000000 		.4byte	.LVL58
 4567 02a8 0100     		.2byte	0x1
 4568 02aa 52       		.byte	0x52
 4569 02ab 00000000 		.4byte	0
 4570 02af 00000000 		.4byte	0
 4571              	.LLST15:
 4572 02b3 00000000 		.4byte	.LVL63
 4573 02b7 0B000000 		.4byte	.LVL65-1
 4574 02bb 0100     		.2byte	0x1
 4575 02bd 50       		.byte	0x50
 4576 02be 0B000000 		.4byte	.LVL65-1
 4577 02c2 80000000 		.4byte	.LFE4
 4578 02c6 0400     		.2byte	0x4
 4579 02c8 F3       		.byte	0xf3
 4580 02c9 01       		.uleb128 0x1
 4581 02ca 50       		.byte	0x50
 4582 02cb 9F       		.byte	0x9f
 4583 02cc 00000000 		.4byte	0
 4584 02d0 00000000 		.4byte	0
 4585              	.LLST16:
 4586 02d4 00000000 		.4byte	.LVL63
 4587 02d8 08000000 		.4byte	.LVL64
 4588 02dc 0100     		.2byte	0x1
 4589 02de 51       		.byte	0x51
 4590 02df 08000000 		.4byte	.LVL64
 4591 02e3 30000000 		.4byte	.LVL68
ARM GAS  C:\Users\YUANFA~1\AppData\Local\Temp\ccItJH9a.s 			page 114


 4592 02e7 0100     		.2byte	0x1
 4593 02e9 56       		.byte	0x56
 4594 02ea 30000000 		.4byte	.LVL68
 4595 02ee 34000000 		.4byte	.LVL69
 4596 02f2 0400     		.2byte	0x4
 4597 02f4 F3       		.byte	0xf3
 4598 02f5 01       		.uleb128 0x1
 4599 02f6 51       		.byte	0x51
 4600 02f7 9F       		.byte	0x9f
 4601 02f8 34000000 		.4byte	.LVL69
 4602 02fc 3A000000 		.4byte	.LVL70
 4603 0300 0100     		.2byte	0x1
 4604 0302 56       		.byte	0x56
 4605 0303 3A000000 		.4byte	.LVL70
 4606 0307 3E000000 		.4byte	.LVL71
 4607 030b 0400     		.2byte	0x4
 4608 030d F3       		.byte	0xf3
 4609 030e 01       		.uleb128 0x1
 4610 030f 51       		.byte	0x51
 4611 0310 9F       		.byte	0x9f
 4612 0311 3E000000 		.4byte	.LVL71
 4613 0315 4C000000 		.4byte	.LVL72
 4614 0319 0100     		.2byte	0x1
 4615 031b 56       		.byte	0x56
 4616 031c 4C000000 		.4byte	.LVL72
 4617 0320 80000000 		.4byte	.LFE4
 4618 0324 0400     		.2byte	0x4
 4619 0326 F3       		.byte	0xf3
 4620 0327 01       		.uleb128 0x1
 4621 0328 51       		.byte	0x51
 4622 0329 9F       		.byte	0x9f
 4623 032a 00000000 		.4byte	0
 4624 032e 00000000 		.4byte	0
 4625              	.LLST17:
 4626 0332 0E000000 		.4byte	.LVL66
 4627 0336 1A000000 		.4byte	.LVL67
 4628 033a 0100     		.2byte	0x1
 4629 033c 50       		.byte	0x50
 4630 033d 1A000000 		.4byte	.LVL67
 4631 0341 72000000 		.4byte	.LVL75
 4632 0345 0100     		.2byte	0x1
 4633 0347 54       		.byte	0x54
 4634 0348 72000000 		.4byte	.LVL75
 4635 034c 80000000 		.4byte	.LFE4
 4636 0350 0100     		.2byte	0x1
 4637 0352 50       		.byte	0x50
 4638 0353 00000000 		.4byte	0
 4639 0357 00000000 		.4byte	0
 4640              	.LLST18:
 4641 035b 00000000 		.4byte	.LVL76
 4642 035f 06000000 		.4byte	.LVL77
 4643 0363 0200     		.2byte	0x2
 4644 0365 30       		.byte	0x30
 4645 0366 9F       		.byte	0x9f
 4646 0367 06000000 		.4byte	.LVL77
 4647 036b 20000000 		.4byte	.LFE5
 4648 036f 0100     		.2byte	0x1
ARM GAS  C:\Users\YUANFA~1\AppData\Local\Temp\ccItJH9a.s 			page 115


 4649 0371 50       		.byte	0x50
 4650 0372 00000000 		.4byte	0
 4651 0376 00000000 		.4byte	0
 4652              	.LLST19:
 4653 037a 00000000 		.4byte	.LVL76
 4654 037e 06000000 		.4byte	.LVL77
 4655 0382 0200     		.2byte	0x2
 4656 0384 31       		.byte	0x31
 4657 0385 9F       		.byte	0x9f
 4658 0386 06000000 		.4byte	.LVL77
 4659 038a 12000000 		.4byte	.LVL79
 4660 038e 0100     		.2byte	0x1
 4661 0390 52       		.byte	0x52
 4662 0391 12000000 		.4byte	.LVL79
 4663 0395 14000000 		.4byte	.LVL80
 4664 0399 0100     		.2byte	0x1
 4665 039b 53       		.byte	0x53
 4666 039c 14000000 		.4byte	.LVL80
 4667 03a0 20000000 		.4byte	.LFE5
 4668 03a4 0100     		.2byte	0x1
 4669 03a6 52       		.byte	0x52
 4670 03a7 00000000 		.4byte	0
 4671 03ab 00000000 		.4byte	0
 4672              	.LLST20:
 4673 03af 00000000 		.4byte	.LVL81
 4674 03b3 16000000 		.4byte	.LVL82
 4675 03b7 0100     		.2byte	0x1
 4676 03b9 50       		.byte	0x50
 4677 03ba 16000000 		.4byte	.LVL82
 4678 03be 1A000000 		.4byte	.LVL84
 4679 03c2 0400     		.2byte	0x4
 4680 03c4 F3       		.byte	0xf3
 4681 03c5 01       		.uleb128 0x1
 4682 03c6 50       		.byte	0x50
 4683 03c7 9F       		.byte	0x9f
 4684 03c8 1A000000 		.4byte	.LVL84
 4685 03cc 1C000000 		.4byte	.LVL85
 4686 03d0 0100     		.2byte	0x1
 4687 03d2 50       		.byte	0x50
 4688 03d3 1C000000 		.4byte	.LVL85
 4689 03d7 24000000 		.4byte	.LFE6
 4690 03db 0400     		.2byte	0x4
 4691 03dd F3       		.byte	0xf3
 4692 03de 01       		.uleb128 0x1
 4693 03df 50       		.byte	0x50
 4694 03e0 9F       		.byte	0x9f
 4695 03e1 00000000 		.4byte	0
 4696 03e5 00000000 		.4byte	0
 4697              	.LLST21:
 4698 03e9 00000000 		.4byte	.LVL81
 4699 03ed 18000000 		.4byte	.LVL83
 4700 03f1 0200     		.2byte	0x2
 4701 03f3 30       		.byte	0x30
 4702 03f4 9F       		.byte	0x9f
 4703 03f5 18000000 		.4byte	.LVL83
 4704 03f9 1A000000 		.4byte	.LVL84
 4705 03fd 0100     		.2byte	0x1
ARM GAS  C:\Users\YUANFA~1\AppData\Local\Temp\ccItJH9a.s 			page 116


 4706 03ff 50       		.byte	0x50
 4707 0400 1A000000 		.4byte	.LVL84
 4708 0404 1C000000 		.4byte	.LVL85
 4709 0408 0200     		.2byte	0x2
 4710 040a 30       		.byte	0x30
 4711 040b 9F       		.byte	0x9f
 4712 040c 1C000000 		.4byte	.LVL85
 4713 0410 24000000 		.4byte	.LFE6
 4714 0414 0100     		.2byte	0x1
 4715 0416 50       		.byte	0x50
 4716 0417 00000000 		.4byte	0
 4717 041b 00000000 		.4byte	0
 4718              	.LLST22:
 4719 041f 00000000 		.4byte	.LVL86
 4720 0423 14000000 		.4byte	.LVL87
 4721 0427 0100     		.2byte	0x1
 4722 0429 50       		.byte	0x50
 4723 042a 14000000 		.4byte	.LVL87
 4724 042e 1E000000 		.4byte	.LVL89
 4725 0432 0400     		.2byte	0x4
 4726 0434 F3       		.byte	0xf3
 4727 0435 01       		.uleb128 0x1
 4728 0436 50       		.byte	0x50
 4729 0437 9F       		.byte	0x9f
 4730 0438 1E000000 		.4byte	.LVL89
 4731 043c 20000000 		.4byte	.LVL90
 4732 0440 0100     		.2byte	0x1
 4733 0442 50       		.byte	0x50
 4734 0443 20000000 		.4byte	.LVL90
 4735 0447 22000000 		.4byte	.LVL91
 4736 044b 0400     		.2byte	0x4
 4737 044d F3       		.byte	0xf3
 4738 044e 01       		.uleb128 0x1
 4739 044f 50       		.byte	0x50
 4740 0450 9F       		.byte	0x9f
 4741 0451 22000000 		.4byte	.LVL91
 4742 0455 24000000 		.4byte	.LVL92
 4743 0459 0100     		.2byte	0x1
 4744 045b 50       		.byte	0x50
 4745 045c 24000000 		.4byte	.LVL92
 4746 0460 30000000 		.4byte	.LFE7
 4747 0464 0400     		.2byte	0x4
 4748 0466 F3       		.byte	0xf3
 4749 0467 01       		.uleb128 0x1
 4750 0468 50       		.byte	0x50
 4751 0469 9F       		.byte	0x9f
 4752 046a 00000000 		.4byte	0
 4753 046e 00000000 		.4byte	0
 4754              	.LLST23:
 4755 0472 00000000 		.4byte	.LVL86
 4756 0476 1C000000 		.4byte	.LVL88
 4757 047a 0200     		.2byte	0x2
 4758 047c 30       		.byte	0x30
 4759 047d 9F       		.byte	0x9f
 4760 047e 1C000000 		.4byte	.LVL88
 4761 0482 1E000000 		.4byte	.LVL89
 4762 0486 0100     		.2byte	0x1
ARM GAS  C:\Users\YUANFA~1\AppData\Local\Temp\ccItJH9a.s 			page 117


 4763 0488 50       		.byte	0x50
 4764 0489 1E000000 		.4byte	.LVL89
 4765 048d 24000000 		.4byte	.LVL92
 4766 0491 0200     		.2byte	0x2
 4767 0493 30       		.byte	0x30
 4768 0494 9F       		.byte	0x9f
 4769 0495 24000000 		.4byte	.LVL92
 4770 0499 30000000 		.4byte	.LFE7
 4771 049d 0100     		.2byte	0x1
 4772 049f 50       		.byte	0x50
 4773 04a0 00000000 		.4byte	0
 4774 04a4 00000000 		.4byte	0
 4775              		.section	.debug_aranges,"",%progbits
 4776 0000 4C000000 		.4byte	0x4c
 4777 0004 0200     		.2byte	0x2
 4778 0006 00000000 		.4byte	.Ldebug_info0
 4779 000a 04       		.byte	0x4
 4780 000b 00       		.byte	0
 4781 000c 0000     		.2byte	0
 4782 000e 0000     		.2byte	0
 4783 0010 00000000 		.4byte	.LFB2
 4784 0014 EC000000 		.4byte	.LFE2-.LFB2
 4785 0018 00000000 		.4byte	.LFB1
 4786 001c 18010000 		.4byte	.LFE1-.LFB1
 4787 0020 00000000 		.4byte	.LFB3
 4788 0024 60000000 		.4byte	.LFE3-.LFB3
 4789 0028 00000000 		.4byte	.LFB4
 4790 002c 80000000 		.4byte	.LFE4-.LFB4
 4791 0030 00000000 		.4byte	.LFB5
 4792 0034 20000000 		.4byte	.LFE5-.LFB5
 4793 0038 00000000 		.4byte	.LFB6
 4794 003c 24000000 		.4byte	.LFE6-.LFB6
 4795 0040 00000000 		.4byte	.LFB7
 4796 0044 30000000 		.4byte	.LFE7-.LFB7
 4797 0048 00000000 		.4byte	0
 4798 004c 00000000 		.4byte	0
 4799              		.section	.debug_ranges,"",%progbits
 4800              	.Ldebug_ranges0:
 4801 0000 00000000 		.4byte	.LFB2
 4802 0004 EC000000 		.4byte	.LFE2
 4803 0008 00000000 		.4byte	.LFB1
 4804 000c 18010000 		.4byte	.LFE1
 4805 0010 00000000 		.4byte	.LFB3
 4806 0014 60000000 		.4byte	.LFE3
 4807 0018 00000000 		.4byte	.LFB4
 4808 001c 80000000 		.4byte	.LFE4
 4809 0020 00000000 		.4byte	.LFB5
 4810 0024 20000000 		.4byte	.LFE5
 4811 0028 00000000 		.4byte	.LFB6
 4812 002c 24000000 		.4byte	.LFE6
 4813 0030 00000000 		.4byte	.LFB7
 4814 0034 30000000 		.4byte	.LFE7
 4815 0038 00000000 		.4byte	0
 4816 003c 00000000 		.4byte	0
 4817              		.section	.debug_line,"",%progbits
 4818              	.Ldebug_line0:
 4819 0000 13020000 		.section	.debug_str,"MS",%progbits,1
ARM GAS  C:\Users\YUANFA~1\AppData\Local\Temp\ccItJH9a.s 			page 118


 4819      0200A500 
 4819      00000201 
 4819      FB0E0D00 
 4819      01010101 
 4820              	.LASF54:
 4821 0000 62757474 		.ascii	"button12\000"
 4821      6F6E3132 
 4821      00
 4822              	.LASF55:
 4823 0009 62757474 		.ascii	"button13\000"
 4823      6F6E3133 
 4823      00
 4824              	.LASF56:
 4825 0012 62757474 		.ascii	"button14\000"
 4825      6F6E3134 
 4825      00
 4826              	.LASF57:
 4827 001b 62757474 		.ascii	"button15\000"
 4827      6F6E3135 
 4827      00
 4828              	.LASF58:
 4829 0024 62757474 		.ascii	"button16\000"
 4829      6F6E3136 
 4829      00
 4830              	.LASF59:
 4831 002d 62757474 		.ascii	"button17\000"
 4831      6F6E3137 
 4831      00
 4832              	.LASF60:
 4833 0036 62757474 		.ascii	"button18\000"
 4833      6F6E3138 
 4833      00
 4834              	.LASF26:
 4835 003f 43617053 		.ascii	"CapSense_WD_PROXIMITY_E\000"
 4835      656E7365 
 4835      5F57445F 
 4835      50524F58 
 4835      494D4954 
 4836              	.LASF162:
 4837 0057 61637475 		.ascii	"actualCrc\000"
 4837      616C4372 
 4837      6300
 4838              	.LASF165:
 4839 0061 77646774 		.ascii	"wdgtId\000"
 4839      496400
 4840              	.LASF178:
 4841 0068 43617053 		.ascii	"CapSense_IsWidgetActive\000"
 4841      656E7365 
 4841      5F497357 
 4841      69646765 
 4841      74416374 
 4842              	.LASF210:
 4843 0080 43617053 		.ascii	"CapSense_DsUpdateWidgetCrc\000"
 4843      656E7365 
 4843      5F447355 
 4843      70646174 
 4843      65576964 
ARM GAS  C:\Users\YUANFA~1\AppData\Local\Temp\ccItJH9a.s 			page 119


 4844              	.LASF158:
 4845 009b 70617261 		.ascii	"paramId\000"
 4845      6D496400 
 4846              	.LASF121:
 4847 00a3 736E7254 		.ascii	"snrTestWidgetId\000"
 4847      65737457 
 4847      69646765 
 4847      74496400 
 4848              	.LASF170:
 4849 00b3 70747255 		.ascii	"ptrUint8\000"
 4849      696E7438 
 4849      00
 4850              	.LASF176:
 4851 00bc 43617053 		.ascii	"CapSense_IsAnyWidgetActive\000"
 4851      656E7365 
 4851      5F497341 
 4851      6E795769 
 4851      64676574 
 4852              	.LASF195:
 4853 00d7 43617053 		.ascii	"CapSense_debounceButton14\000"
 4853      656E7365 
 4853      5F646562 
 4853      6F756E63 
 4853      65427574 
 4854              	.LASF8:
 4855 00f1 756E7369 		.ascii	"unsigned int\000"
 4855      676E6564 
 4855      20696E74 
 4855      00
 4856              	.LASF107:
 4857 00fe 7363616E 		.ascii	"scanCounter\000"
 4857      436F756E 
 4857      74657200 
 4858              	.LASF105:
 4859 010a 6877436C 		.ascii	"hwClock\000"
 4859      6F636B00 
 4860              	.LASF125:
 4861 0112 7363616E 		.ascii	"scanCsdISC\000"
 4861      43736449 
 4861      534300
 4862              	.LASF130:
 4863 011d 70633250 		.ascii	"pc2Ptr\000"
 4863      747200
 4864              	.LASF204:
 4865 0124 43617053 		.ascii	"CapSense_ramIdacInit\000"
 4865      656E7365 
 4865      5F72616D 
 4865      49646163 
 4865      496E6974 
 4866              	.LASF214:
 4867 0139 44735061 		.ascii	"DsParseParamId\000"
 4867      72736550 
 4867      6172616D 
 4867      496400
 4868              	.LASF81:
 4869 0148 43617053 		.ascii	"CapSense_RAM_SNS_CP_STRUCT\000"
 4869      656E7365 
ARM GAS  C:\Users\YUANFA~1\AppData\Local\Temp\ccItJH9a.s 			page 120


 4869      5F52414D 
 4869      5F534E53 
 4869      5F43505F 
 4870              	.LASF96:
 4871 0163 62697374 		.ascii	"bistCsxSnsCapISC\000"
 4871      43737853 
 4871      6E734361 
 4871      70495343 
 4871      00
 4872              	.LASF101:
 4873 0174 736E7353 		.ascii	"snsShortTimeUs\000"
 4873      686F7274 
 4873      54696D65 
 4873      557300
 4874              	.LASF83:
 4875 0183 736E7343 		.ascii	"snsCapSnsClkDivider\000"
 4875      6170536E 
 4875      73436C6B 
 4875      44697669 
 4875      64657200 
 4876              	.LASF212:
 4877 0197 47656E65 		.ascii	"Generated_Source\\PSoC4\\CapSense_Structure.c\000"
 4877      72617465 
 4877      645F536F 
 4877      75726365 
 4877      5C50536F 
 4878              	.LASF135:
 4879 01c3 6873696F 		.ascii	"hsiomShift\000"
 4879      6D536869 
 4879      667400
 4880              	.LASF25:
 4881 01ce 43617053 		.ascii	"CapSense_WD_TOUCHPAD_E\000"
 4881      656E7365 
 4881      5F57445F 
 4881      544F5543 
 4881      48504144 
 4882              	.LASF61:
 4883 01e5 43617053 		.ascii	"CapSense_RAM_WD_LIST_STRUCT\000"
 4883      656E7365 
 4883      5F52414D 
 4883      5F57445F 
 4883      4C495354 
 4884              	.LASF97:
 4885 0201 62697374 		.ascii	"bistCsdShCapISC\000"
 4885      43736453 
 4885      68436170 
 4885      49534300 
 4886              	.LASF180:
 4887 0211 73656E73 		.ascii	"sensorId\000"
 4887      6F724964 
 4887      00
 4888              	.LASF36:
 4889 021a 69646163 		.ascii	"idacGainIndex\000"
 4889      4761696E 
 4889      496E6465 
 4889      7800
 4890              	.LASF164:
ARM GAS  C:\Users\YUANFA~1\AppData\Local\Temp\ccItJH9a.s 			page 121


 4891 0228 736E7349 		.ascii	"snsId\000"
 4891      6400
 4892              	.LASF110:
 4893 022e 77646774 		.ascii	"wdgtWorking\000"
 4893      576F726B 
 4893      696E6700 
 4894              	.LASF12:
 4895 023a 666C6F61 		.ascii	"float\000"
 4895      7400
 4896              	.LASF137:
 4897 0240 73686966 		.ascii	"shift\000"
 4897      7400
 4898              	.LASF150:
 4899 0246 77646774 		.ascii	"wdgtArray\000"
 4899      41727261 
 4899      7900
 4900              	.LASF211:
 4901 0250 474E5520 		.ascii	"GNU C11 5.4.1 20160609 (release) [ARM/embedded-5-br"
 4901      43313120 
 4901      352E342E 
 4901      31203230 
 4901      31363036 
 4902 0283 616E6368 		.ascii	"anch revision 237715] -mcpu=cortex-m0plus -mthumb -"
 4902      20726576 
 4902      6973696F 
 4902      6E203233 
 4902      37373135 
 4903 02b6 67202D4F 		.ascii	"g -Og -ffunction-sections -ffat-lto-objects\000"
 4903      67202D66 
 4903      66756E63 
 4903      74696F6E 
 4903      2D736563 
 4904              	.LASF117:
 4905 02e2 736E734C 		.ascii	"snsList\000"
 4905      69737400 
 4906              	.LASF160:
 4907 02ea 72657375 		.ascii	"result\000"
 4907      6C7400
 4908              	.LASF7:
 4909 02f1 6C6F6E67 		.ascii	"long long unsigned int\000"
 4909      206C6F6E 
 4909      6720756E 
 4909      7369676E 
 4909      65642069 
 4910              	.LASF24:
 4911 0308 43617053 		.ascii	"CapSense_WD_MATRIX_BUTTON_E\000"
 4911      656E7365 
 4911      5F57445F 
 4911      4D415452 
 4911      49585F42 
 4912              	.LASF138:
 4913 0324 43617053 		.ascii	"CapSense_FLASH_IO_STRUCT\000"
 4913      656E7365 
 4913      5F464C41 
 4913      53485F49 
 4913      4F5F5354 
 4914              	.LASF122:
ARM GAS  C:\Users\YUANFA~1\AppData\Local\Temp\ccItJH9a.s 			page 122


 4915 033d 736E7254 		.ascii	"snrTestSensorId\000"
 4915      65737453 
 4915      656E736F 
 4915      72496400 
 4916              	.LASF89:
 4917 034d 76646461 		.ascii	"vddaModClkDivider\000"
 4917      4D6F6443 
 4917      6C6B4469 
 4917      76696465 
 4917      7200
 4918              	.LASF99:
 4919 035f 73746172 		.ascii	"startupDelay\000"
 4919      74757044 
 4919      656C6179 
 4919      00
 4920              	.LASF174:
 4921 036c 43617053 		.ascii	"CapSense_GetParam\000"
 4921      656E7365 
 4921      5F476574 
 4921      50617261 
 4921      6D00
 4922              	.LASF208:
 4923 037e 43794861 		.ascii	"CyHalt\000"
 4923      6C7400
 4924              	.LASF146:
 4925 0385 77646774 		.ascii	"wdgtType\000"
 4925      54797065 
 4925      00
 4926              	.LASF169:
 4927 038e 76616C75 		.ascii	"value\000"
 4927      6500
 4928              	.LASF78:
 4929 0394 73686F72 		.ascii	"shortedWdgtId\000"
 4929      74656457 
 4929      64677449 
 4929      6400
 4930              	.LASF114:
 4931 03a2 6D6F6443 		.ascii	"modCsdClk\000"
 4931      7364436C 
 4931      6B00
 4932              	.LASF68:
 4933 03ac 43617053 		.ascii	"CapSense_RAM_SNS_STRUCT\000"
 4933      656E7365 
 4933      5F52414D 
 4933      5F534E53 
 4933      5F535452 
 4934              	.LASF131:
 4935 03c4 64725074 		.ascii	"drPtr\000"
 4935      7200
 4936              	.LASF152:
 4937 03ca 6F666673 		.ascii	"offset\000"
 4937      657400
 4938              	.LASF159:
 4939 03d1 70446174 		.ascii	"pData\000"
 4939      6100
 4940              	.LASF40:
 4941 03d7 73696750 		.ascii	"sigPFC\000"
ARM GAS  C:\Users\YUANFA~1\AppData\Local\Temp\ccItJH9a.s 			page 123


 4941      464300
 4942              	.LASF120:
 4943 03de 736E7343 		.ascii	"snsCp\000"
 4943      7000
 4944              	.LASF32:
 4945 03e4 68797374 		.ascii	"hysteresis\000"
 4945      65726573 
 4945      697300
 4946              	.LASF23:
 4947 03ef 43617053 		.ascii	"CapSense_WD_RADIAL_SLIDER_E\000"
 4947      656E7365 
 4947      5F57445F 
 4947      52414449 
 4947      414C5F53 
 4948              	.LASF149:
 4949 040b 43617053 		.ascii	"CapSense_FLASH_WD_STRUCT\000"
 4949      656E7365 
 4949      5F464C41 
 4949      53485F57 
 4949      445F5354 
 4950              	.LASF205:
 4951 0424 43617053 		.ascii	"CapSense_extCapMap\000"
 4951      656E7365 
 4951      5F657874 
 4951      4361704D 
 4951      617000
 4952              	.LASF34:
 4953 0437 6C6F7742 		.ascii	"lowBslnRst\000"
 4953      736C6E52 
 4953      737400
 4954              	.LASF92:
 4955 0442 76646461 		.ascii	"vddaIdacDefault\000"
 4955      49646163 
 4955      44656661 
 4955      756C7400 
 4956              	.LASF70:
 4957 0452 74657374 		.ascii	"testResultMask\000"
 4957      52657375 
 4957      6C744D61 
 4957      736B00
 4958              	.LASF145:
 4959 0461 746F7461 		.ascii	"totalNumSns\000"
 4959      6C4E756D 
 4959      536E7300 
 4960              	.LASF94:
 4961 046d 736E7343 		.ascii	"snsCapVrefGain\000"
 4961      61705672 
 4961      65664761 
 4961      696E00
 4962              	.LASF93:
 4963 047c 736E7343 		.ascii	"snsCapResolution\000"
 4963      61705265 
 4963      736F6C75 
 4963      74696F6E 
 4963      00
 4964              	.LASF75:
 4965 048d 77646774 		.ascii	"wdgtCrcId\000"
ARM GAS  C:\Users\YUANFA~1\AppData\Local\Temp\ccItJH9a.s 			page 124


 4965      43726349 
 4965      6400
 4966              	.LASF30:
 4967 0497 6E6F6973 		.ascii	"noiseTh\000"
 4967      65546800 
 4968              	.LASF14:
 4969 049f 63686172 		.ascii	"char\000"
 4969      00
 4970              	.LASF181:
 4971 04a4 43617053 		.ascii	"CapSense_debounceButton0\000"
 4971      656E7365 
 4971      5F646562 
 4971      6F756E63 
 4971      65427574 
 4972              	.LASF182:
 4973 04bd 43617053 		.ascii	"CapSense_debounceButton1\000"
 4973      656E7365 
 4973      5F646562 
 4973      6F756E63 
 4973      65427574 
 4974              	.LASF183:
 4975 04d6 43617053 		.ascii	"CapSense_debounceButton2\000"
 4975      656E7365 
 4975      5F646562 
 4975      6F756E63 
 4975      65427574 
 4976              	.LASF184:
 4977 04ef 43617053 		.ascii	"CapSense_debounceButton3\000"
 4977      656E7365 
 4977      5F646562 
 4977      6F756E63 
 4977      65427574 
 4978              	.LASF185:
 4979 0508 43617053 		.ascii	"CapSense_debounceButton4\000"
 4979      656E7365 
 4979      5F646562 
 4979      6F756E63 
 4979      65427574 
 4980              	.LASF186:
 4981 0521 43617053 		.ascii	"CapSense_debounceButton5\000"
 4981      656E7365 
 4981      5F646562 
 4981      6F756E63 
 4981      65427574 
 4982              	.LASF187:
 4983 053a 43617053 		.ascii	"CapSense_debounceButton6\000"
 4983      656E7365 
 4983      5F646562 
 4983      6F756E63 
 4983      65427574 
 4984              	.LASF188:
 4985 0553 43617053 		.ascii	"CapSense_debounceButton7\000"
 4985      656E7365 
 4985      5F646562 
 4985      6F756E63 
 4985      65427574 
 4986              	.LASF189:
ARM GAS  C:\Users\YUANFA~1\AppData\Local\Temp\ccItJH9a.s 			page 125


 4987 056c 43617053 		.ascii	"CapSense_debounceButton8\000"
 4987      656E7365 
 4987      5F646562 
 4987      6F756E63 
 4987      65427574 
 4988              	.LASF190:
 4989 0585 43617053 		.ascii	"CapSense_debounceButton9\000"
 4989      656E7365 
 4989      5F646562 
 4989      6F756E63 
 4989      65427574 
 4990              	.LASF80:
 4991 059e 43617053 		.ascii	"CapSense_RAM_SELF_TEST_STRUCT\000"
 4991      656E7365 
 4991      5F52414D 
 4991      5F53454C 
 4991      465F5445 
 4992              	.LASF73:
 4993 05bc 676C6243 		.ascii	"glbCrcCalc\000"
 4993      72634361 
 4993      6C6300
 4994              	.LASF10:
 4995 05c7 75696E74 		.ascii	"uint16\000"
 4995      313600
 4996              	.LASF77:
 4997 05ce 696E7642 		.ascii	"invBslnSnsId\000"
 4997      736C6E53 
 4997      6E734964 
 4997      00
 4998              	.LASF163:
 4999 05db 63726349 		.ascii	"crcIndex\000"
 4999      6E646578 
 4999      00
 5000              	.LASF28:
 5001 05e4 7265736F 		.ascii	"resolution\000"
 5001      6C757469 
 5001      6F6E00
 5002              	.LASF108:
 5003 05ef 73746174 		.ascii	"status\000"
 5003      757300
 5004              	.LASF20:
 5005 05f6 43617053 		.ascii	"CapSense_LOW_BSLN_RST_TYPE\000"
 5005      656E7365 
 5005      5F4C4F57 
 5005      5F42534C 
 5005      4E5F5253 
 5006              	.LASF171:
 5007 0611 70747255 		.ascii	"ptrUint16\000"
 5007      696E7431 
 5007      3600
 5008              	.LASF67:
 5009 061b 69646163 		.ascii	"idacComp\000"
 5009      436F6D70 
 5009      00
 5010              	.LASF209:
 5011 0624 43617053 		.ascii	"CapSense_DsUpdateGlobalCrc\000"
 5011      656E7365 
ARM GAS  C:\Users\YUANFA~1\AppData\Local\Temp\ccItJH9a.s 			page 126


 5011      5F447355 
 5011      70646174 
 5011      65476C6F 
 5012              	.LASF129:
 5013 063f 70635074 		.ascii	"pcPtr\000"
 5013      7200
 5014              	.LASF84:
 5015 0645 736E7343 		.ascii	"snsCapModClkKHz\000"
 5015      61704D6F 
 5015      64436C6B 
 5015      4B487A00 
 5016              	.LASF6:
 5017 0655 6C6F6E67 		.ascii	"long long int\000"
 5017      206C6F6E 
 5017      6720696E 
 5017      7400
 5018              	.LASF147:
 5019 0663 6E756D43 		.ascii	"numCols\000"
 5019      6F6C7300 
 5020              	.LASF191:
 5021 066b 43617053 		.ascii	"CapSense_debounceButton10\000"
 5021      656E7365 
 5021      5F646562 
 5021      6F756E63 
 5021      65427574 
 5022              	.LASF192:
 5023 0685 43617053 		.ascii	"CapSense_debounceButton11\000"
 5023      656E7365 
 5023      5F646562 
 5023      6F756E63 
 5023      65427574 
 5024              	.LASF193:
 5025 069f 43617053 		.ascii	"CapSense_debounceButton12\000"
 5025      656E7365 
 5025      5F646562 
 5025      6F756E63 
 5025      65427574 
 5026              	.LASF194:
 5027 06b9 43617053 		.ascii	"CapSense_debounceButton13\000"
 5027      656E7365 
 5027      5F646562 
 5027      6F756E63 
 5027      65427574 
 5028              	.LASF95:
 5029 06d3 62697374 		.ascii	"bistCsdSnsCapISC\000"
 5029      43736453 
 5029      6E734361 
 5029      70495343 
 5029      00
 5030              	.LASF196:
 5031 06e4 43617053 		.ascii	"CapSense_debounceButton15\000"
 5031      656E7365 
 5031      5F646562 
 5031      6F756E63 
 5031      65427574 
 5032              	.LASF197:
 5033 06fe 43617053 		.ascii	"CapSense_debounceButton16\000"
ARM GAS  C:\Users\YUANFA~1\AppData\Local\Temp\ccItJH9a.s 			page 127


 5033      656E7365 
 5033      5F646562 
 5033      6F756E63 
 5033      65427574 
 5034              	.LASF33:
 5035 0718 6F6E4465 		.ascii	"onDebounce\000"
 5035      626F756E 
 5035      636500
 5036              	.LASF199:
 5037 0723 43617053 		.ascii	"CapSense_debounceButton18\000"
 5037      656E7365 
 5037      5F646562 
 5037      6F756E63 
 5037      65427574 
 5038              	.LASF177:
 5039 073d 7764576F 		.ascii	"wdWord\000"
 5039      726400
 5040              	.LASF116:
 5041 0744 77646774 		.ascii	"wdgtList\000"
 5041      4C697374 
 5041      00
 5042              	.LASF48:
 5043 074d 62757474 		.ascii	"button6\000"
 5043      6F6E3600 
 5044              	.LASF151:
 5045 0755 43617053 		.ascii	"CapSense_FLASH_STRUCT\000"
 5045      656E7365 
 5045      5F464C41 
 5045      53485F53 
 5045      54525543 
 5046              	.LASF148:
 5047 076b 70747232 		.ascii	"ptr2SnsCpArr\000"
 5047      536E7343 
 5047      70417272 
 5047      00
 5048              	.LASF200:
 5049 0778 43617053 		.ascii	"CapSense_dsRam\000"
 5049      656E7365 
 5049      5F647352 
 5049      616D00
 5050              	.LASF124:
 5051 0787 736E7254 		.ascii	"snrTestRawCount\000"
 5051      65737452 
 5051      6177436F 
 5051      756E7400 
 5052              	.LASF207:
 5053 0797 6D656D73 		.ascii	"memset\000"
 5053      657400
 5054              	.LASF79:
 5055 079e 73686F72 		.ascii	"shortedSnsId\000"
 5055      74656453 
 5055      6E734964 
 5055      00
 5056              	.LASF31:
 5057 07ab 6E4E6F69 		.ascii	"nNoiseTh\000"
 5057      73655468 
 5057      00
ARM GAS  C:\Users\YUANFA~1\AppData\Local\Temp\ccItJH9a.s 			page 128


 5058              	.LASF113:
 5059 07b4 63736430 		.ascii	"csd0Config\000"
 5059      436F6E66 
 5059      696700
 5060              	.LASF128:
 5061 07bf 6873696F 		.ascii	"hsiomPtr\000"
 5061      6D507472 
 5061      00
 5062              	.LASF11:
 5063 07c8 75696E74 		.ascii	"uint32\000"
 5063      333200
 5064              	.LASF142:
 5065 07cf 70747232 		.ascii	"ptr2FltrHistory\000"
 5065      466C7472 
 5065      48697374 
 5065      6F727900 
 5066              	.LASF134:
 5067 07df 6D61736B 		.ascii	"mask\000"
 5067      00
 5068              	.LASF22:
 5069 07e4 43617053 		.ascii	"CapSense_WD_LINEAR_SLIDER_E\000"
 5069      656E7365 
 5069      5F57445F 
 5069      4C494E45 
 5069      41525F53 
 5070              	.LASF118:
 5071 0800 73656C66 		.ascii	"selfTest\000"
 5071      54657374 
 5071      00
 5072              	.LASF119:
 5073 0809 73656C66 		.ascii	"selfTestConfig\000"
 5073      54657374 
 5073      436F6E66 
 5073      696700
 5074              	.LASF172:
 5075 0818 70747255 		.ascii	"ptrUint32\000"
 5075      696E7433 
 5075      3200
 5076              	.LASF168:
 5077 0822 70747249 		.ascii	"ptrIdacInit\000"
 5077      64616349 
 5077      6E697400 
 5078              	.LASF100:
 5079 082e 66696E65 		.ascii	"fineInitTime\000"
 5079      496E6974 
 5079      54696D65 
 5079      00
 5080              	.LASF90:
 5081 083b 76646461 		.ascii	"vddaVrefGain\000"
 5081      56726566 
 5081      4761696E 
 5081      00
 5082              	.LASF91:
 5083 0848 76646461 		.ascii	"vddaResolution\000"
 5083      5265736F 
 5083      6C757469 
 5083      6F6E00
ARM GAS  C:\Users\YUANFA~1\AppData\Local\Temp\ccItJH9a.s 			page 129


 5084              	.LASF17:
 5085 0857 6C6F6E67 		.ascii	"long double\000"
 5085      20646F75 
 5085      626C6500 
 5086              	.LASF102:
 5087 0863 43617053 		.ascii	"CapSense_RAM_TST_CONFIG_STRUCT\000"
 5087      656E7365 
 5087      5F52414D 
 5087      5F545354 
 5087      5F434F4E 
 5088              	.LASF179:
 5089 0882 43617053 		.ascii	"CapSense_IsSensorActive\000"
 5089      656E7365 
 5089      5F497353 
 5089      656E736F 
 5089      72416374 
 5090              	.LASF16:
 5091 089a 72656733 		.ascii	"reg32\000"
 5091      3200
 5092              	.LASF123:
 5093 08a0 736E7254 		.ascii	"snrTestScanCounter\000"
 5093      65737453 
 5093      63616E43 
 5093      6F756E74 
 5093      657200
 5094              	.LASF87:
 5095 08b3 76646461 		.ascii	"vddaVrefVoltage\000"
 5095      56726566 
 5095      566F6C74 
 5095      61676500 
 5096              	.LASF103:
 5097 08c3 636F6E66 		.ascii	"configId\000"
 5097      69674964 
 5097      00
 5098              	.LASF141:
 5099 08cc 70747232 		.ascii	"ptr2SnsRam\000"
 5099      536E7352 
 5099      616D00
 5100              	.LASF157:
 5101 08d7 50415241 		.ascii	"PARAM_ID_STRUCT\000"
 5101      4D5F4944 
 5101      5F535452 
 5101      55435400 
 5102              	.LASF112:
 5103 08e7 736E7353 		.ascii	"snsStatus\000"
 5103      74617475 
 5103      7300
 5104              	.LASF27:
 5105 08f1 43617053 		.ascii	"CapSense_WD_ENCODERDIAL_E\000"
 5105      656E7365 
 5105      5F57445F 
 5105      454E434F 
 5105      44455244 
 5106              	.LASF38:
 5107 090b 736E7343 		.ascii	"snsClkSource\000"
 5107      6C6B536F 
 5107      75726365 
ARM GAS  C:\Users\YUANFA~1\AppData\Local\Temp\ccItJH9a.s 			page 130


 5107      00
 5108              	.LASF2:
 5109 0918 73686F72 		.ascii	"short int\000"
 5109      7420696E 
 5109      7400
 5110              	.LASF127:
 5111 0922 43617053 		.ascii	"CapSense_RAM_STRUCT\000"
 5111      656E7365 
 5111      5F52414D 
 5111      5F535452 
 5111      55435400 
 5112              	.LASF4:
 5113 0936 6C6F6E67 		.ascii	"long int\000"
 5113      20696E74 
 5113      00
 5114              	.LASF109:
 5115 093f 77646774 		.ascii	"wdgtEnable\000"
 5115      456E6162 
 5115      6C6500
 5116              	.LASF215:
 5117 094a 43617053 		.ascii	"CapSense_DsInitialize\000"
 5117      656E7365 
 5117      5F447349 
 5117      6E697469 
 5117      616C697A 
 5118              	.LASF65:
 5119 0960 64696666 		.ascii	"diff\000"
 5119      00
 5120              	.LASF161:
 5121 0965 63726354 		.ascii	"crcTable\000"
 5121      61626C65 
 5121      00
 5122              	.LASF106:
 5123 096e 74756E65 		.ascii	"tunerCmd\000"
 5123      72436D64 
 5123      00
 5124              	.LASF132:
 5125 0977 70735074 		.ascii	"psPtr\000"
 5125      7200
 5126              	.LASF175:
 5127 097d 43617053 		.ascii	"CapSense_SetParam\000"
 5127      656E7365 
 5127      5F536574 
 5127      50617261 
 5127      6D00
 5128              	.LASF42:
 5129 098f 62757474 		.ascii	"button0\000"
 5129      6F6E3000 
 5130              	.LASF43:
 5131 0997 62757474 		.ascii	"button1\000"
 5131      6F6E3100 
 5132              	.LASF44:
 5133 099f 62757474 		.ascii	"button2\000"
 5133      6F6E3200 
 5134              	.LASF45:
 5135 09a7 62757474 		.ascii	"button3\000"
 5135      6F6E3300 
ARM GAS  C:\Users\YUANFA~1\AppData\Local\Temp\ccItJH9a.s 			page 131


 5136              	.LASF46:
 5137 09af 62757474 		.ascii	"button4\000"
 5137      6F6E3400 
 5138              	.LASF47:
 5139 09b7 62757474 		.ascii	"button5\000"
 5139      6F6E3500 
 5140              	.LASF21:
 5141 09bf 43617053 		.ascii	"CapSense_WD_BUTTON_E\000"
 5141      656E7365 
 5141      5F57445F 
 5141      42555454 
 5141      4F4E5F45 
 5142              	.LASF49:
 5143 09d4 62757474 		.ascii	"button7\000"
 5143      6F6E3700 
 5144              	.LASF50:
 5145 09dc 62757474 		.ascii	"button8\000"
 5145      6F6E3800 
 5146              	.LASF51:
 5147 09e4 62757474 		.ascii	"button9\000"
 5147      6F6E3900 
 5148              	.LASF166:
 5149 09ec 70747253 		.ascii	"ptrSnsTmp\000"
 5149      6E73546D 
 5149      7000
 5150              	.LASF76:
 5151 09f6 696E7642 		.ascii	"invBslnWdgtId\000"
 5151      736C6E57 
 5151      64677449 
 5151      6400
 5152              	.LASF85:
 5153 0a04 736E7343 		.ascii	"snsCapModClkDivider\000"
 5153      61704D6F 
 5153      64436C6B 
 5153      44697669 
 5153      64657200 
 5154              	.LASF71:
 5155 0a18 65787443 		.ascii	"extCap\000"
 5155      617000
 5156              	.LASF201:
 5157 0a1f 43617053 		.ascii	"CapSense_dsFlash\000"
 5157      656E7365 
 5157      5F647346 
 5157      6C617368 
 5157      00
 5158              	.LASF39:
 5159 0a30 66696E67 		.ascii	"fingerCap\000"
 5159      65724361 
 5159      7000
 5160              	.LASF111:
 5161 0a3a 77646774 		.ascii	"wdgtStatus\000"
 5161      53746174 
 5161      757300
 5162              	.LASF72:
 5163 0a45 76646461 		.ascii	"vddaVoltage\000"
 5163      566F6C74 
 5163      61676500 
ARM GAS  C:\Users\YUANFA~1\AppData\Local\Temp\ccItJH9a.s 			page 132


 5164              	.LASF18:
 5165 0a51 73697A65 		.ascii	"sizetype\000"
 5165      74797065 
 5165      00
 5166              	.LASF136:
 5167 0a5a 64725368 		.ascii	"drShift\000"
 5167      69667400 
 5168              	.LASF5:
 5169 0a62 6C6F6E67 		.ascii	"long unsigned int\000"
 5169      20756E73 
 5169      69676E65 
 5169      6420696E 
 5169      7400
 5170              	.LASF198:
 5171 0a74 43617053 		.ascii	"CapSense_debounceButton17\000"
 5171      656E7365 
 5171      5F646562 
 5171      6F756E63 
 5171      65427574 
 5172              	.LASF88:
 5173 0a8e 65787443 		.ascii	"extCapVrefVoltage\000"
 5173      61705672 
 5173      6566566F 
 5173      6C746167 
 5173      6500
 5174              	.LASF35:
 5175 0aa0 69646163 		.ascii	"idacMod\000"
 5175      4D6F6400 
 5176              	.LASF74:
 5177 0aa8 77646774 		.ascii	"wdgtCrcCalc\000"
 5177      43726343 
 5177      616C6300 
 5178              	.LASF143:
 5179 0ab4 70747232 		.ascii	"ptr2DebounceArr\000"
 5179      4465626F 
 5179      756E6365 
 5179      41727200 
 5180              	.LASF29:
 5181 0ac4 66696E67 		.ascii	"fingerTh\000"
 5181      65725468 
 5181      00
 5182              	.LASF64:
 5183 0acd 62736C6E 		.ascii	"bslnExt\000"
 5183      45787400 
 5184              	.LASF41:
 5185 0ad5 43617053 		.ascii	"CapSense_RAM_WD_BUTTON_STRUCT\000"
 5185      656E7365 
 5185      5F52414D 
 5185      5F57445F 
 5185      42555454 
 5186              	.LASF15:
 5187 0af3 63797374 		.ascii	"cystatus\000"
 5187      61747573 
 5187      00
 5188              	.LASF156:
 5189 0afc 74797065 		.ascii	"type\000"
 5189      00
ARM GAS  C:\Users\YUANFA~1\AppData\Local\Temp\ccItJH9a.s 			page 133


 5190              	.LASF1:
 5191 0b01 756E7369 		.ascii	"unsigned char\000"
 5191      676E6564 
 5191      20636861 
 5191      7200
 5192              	.LASF155:
 5193 0b0f 666C6173 		.ascii	"flash\000"
 5193      6800
 5194              	.LASF167:
 5195 0b15 70747246 		.ascii	"ptrFlashWdgt\000"
 5195      6C617368 
 5195      57646774 
 5195      00
 5196              	.LASF144:
 5197 0b22 73746174 		.ascii	"staticConfig\000"
 5197      6963436F 
 5197      6E666967 
 5197      00
 5198              	.LASF203:
 5199 0b2f 43617053 		.ascii	"CapSense_ramWidgetInit\000"
 5199      656E7365 
 5199      5F72616D 
 5199      57696467 
 5199      6574496E 
 5200              	.LASF126:
 5201 0b46 7363616E 		.ascii	"scanCurrentISC\000"
 5201      43757272 
 5201      656E7449 
 5201      534300
 5202              	.LASF140:
 5203 0b55 70747232 		.ascii	"ptr2WdgtRam\000"
 5203      57646774 
 5203      52616D00 
 5204              	.LASF19:
 5205 0b61 43617053 		.ascii	"CapSense_THRESHOLD_TYPE\000"
 5205      656E7365 
 5205      5F544852 
 5205      4553484F 
 5205      4C445F54 
 5206              	.LASF63:
 5207 0b79 62736C6E 		.ascii	"bslnInv\000"
 5207      496E7600 
 5208              	.LASF213:
 5209 0b81 5C5C4D61 		.ascii	"\\\\Mac\\Home\\Documents\\PSoC Creator\\touch-panel"
 5209      635C486F 
 5209      6D655C44 
 5209      6F63756D 
 5209      656E7473 
 5210 0bae 5C434330 		.ascii	"\\CC03\\CC03_CSD\\wk1.cydsn\000"
 5210      335C4343 
 5210      30335F43 
 5210      53445C77 
 5210      6B312E63 
 5211              	.LASF173:
 5212 0bc7 70747244 		.ascii	"ptrData\000"
 5212      61746100 
 5213              	.LASF133:
ARM GAS  C:\Users\YUANFA~1\AppData\Local\Temp\ccItJH9a.s 			page 134


 5214 0bcf 6873696F 		.ascii	"hsiomMask\000"
 5214      6D4D6173 
 5214      6B00
 5215              	.LASF37:
 5216 0bd9 736E7343 		.ascii	"snsClk\000"
 5216      6C6B00
 5217              	.LASF86:
 5218 0be0 736E7343 		.ascii	"snsCapVrefVoltage\000"
 5218      61705672 
 5218      6566566F 
 5218      6C746167 
 5218      6500
 5219              	.LASF98:
 5220 0bf2 65787443 		.ascii	"extCapVrefGain\000"
 5220      61705672 
 5220      65664761 
 5220      696E00
 5221              	.LASF0:
 5222 0c01 7369676E 		.ascii	"signed char\000"
 5222      65642063 
 5222      68617200 
 5223              	.LASF62:
 5224 0c0d 62736C6E 		.ascii	"bsln\000"
 5224      00
 5225              	.LASF3:
 5226 0c12 73686F72 		.ascii	"short unsigned int\000"
 5226      7420756E 
 5226      7369676E 
 5226      65642069 
 5226      6E7400
 5227              	.LASF154:
 5228 0c25 61666665 		.ascii	"affectsCrc\000"
 5228      63747343 
 5228      726300
 5229              	.LASF202:
 5230 0c30 43617053 		.ascii	"CapSense_ioList\000"
 5230      656E7365 
 5230      5F696F4C 
 5230      69737400 
 5231              	.LASF206:
 5232 0c40 6D656D63 		.ascii	"memcpy\000"
 5232      707900
 5233              	.LASF139:
 5234 0c47 70747232 		.ascii	"ptr2SnsFlash\000"
 5234      536E7346 
 5234      6C617368 
 5234      00
 5235              	.LASF115:
 5236 0c54 676C6243 		.ascii	"glbCrc\000"
 5236      726300
 5237              	.LASF9:
 5238 0c5b 75696E74 		.ascii	"uint8\000"
 5238      3800
 5239              	.LASF13:
 5240 0c61 646F7562 		.ascii	"double\000"
 5240      6C6500
 5241              	.LASF66:
ARM GAS  C:\Users\YUANFA~1\AppData\Local\Temp\ccItJH9a.s 			page 135


 5242 0c68 6E656742 		.ascii	"negBslnRstCnt\000"
 5242      736C6E52 
 5242      7374436E 
 5242      7400
 5243              	.LASF104:
 5244 0c76 64657669 		.ascii	"deviceId\000"
 5244      63654964 
 5244      00
 5245              	.LASF153:
 5246 0c7f 77696467 		.ascii	"widgetId\000"
 5246      65744964 
 5246      00
 5247              	.LASF69:
 5248 0c88 43617053 		.ascii	"CapSense_RAM_SNS_LIST_STRUCT\000"
 5248      656E7365 
 5248      5F52414D 
 5248      5F534E53 
 5248      5F4C4953 
 5249              	.LASF82:
 5250 0ca5 736E7343 		.ascii	"snsCapSnsClkHz\000"
 5250      6170536E 
 5250      73436C6B 
 5250      487A00
 5251              	.LASF52:
 5252 0cb4 62757474 		.ascii	"button10\000"
 5252      6F6E3130 
 5252      00
 5253              	.LASF53:
 5254 0cbd 62757474 		.ascii	"button11\000"
 5254      6F6E3131 
 5254      00
 5255              		.ident	"GCC: (GNU Tools for ARM Embedded Processors) 5.4.1 20160609 (release) [ARM/embedded-5-bran
