ARM GAS  C:\Users\YUANFA~1\AppData\Local\Temp\ccYDlzYT.s 			page 1


   1              		.syntax unified
   2              		.cpu cortex-m0plus
   3              		.fpu softvfp
   4              		.eabi_attribute 20, 1
   5              		.eabi_attribute 21, 1
   6              		.eabi_attribute 23, 3
   7              		.eabi_attribute 24, 1
   8              		.eabi_attribute 25, 1
   9              		.eabi_attribute 26, 1
  10              		.eabi_attribute 30, 1
  11              		.eabi_attribute 34, 0
  12              		.eabi_attribute 18, 4
  13              		.thumb
  14              		.syntax unified
  15              		.file	"CyLib.c"
  16              		.text
  17              	.Ltext0:
  18              		.cfi_sections	.debug_frame
  19              		.section	.text.CySysClkImoStart,"ax",%progbits
  20              		.align	2
  21              		.global	CySysClkImoStart
  22              		.code	16
  23              		.thumb_func
  24              		.type	CySysClkImoStart, %function
  25              	CySysClkImoStart:
  26              	.LFB1:
  27              		.file 1 "Generated_Source\\PSoC4\\CyLib.c"
   1:Generated_Source\PSoC4/CyLib.c **** /***************************************************************************//**
   2:Generated_Source\PSoC4/CyLib.c **** * \file CyLib.c
   3:Generated_Source\PSoC4/CyLib.c **** * \version 6.0
   4:Generated_Source\PSoC4/CyLib.c **** *
   5:Generated_Source\PSoC4/CyLib.c **** * \brief Provides a system API for the Clocking, Interrupts, SysTick, and
   6:Generated_Source\PSoC4/CyLib.c **** * Voltage Detect.
   7:Generated_Source\PSoC4/CyLib.c **** *
   8:Generated_Source\PSoC4/CyLib.c **** * \note Documentation of the API's in this file is located in the PSoC 4 System
   9:Generated_Source\PSoC4/CyLib.c **** * Reference Guide provided with PSoC Creator.
  10:Generated_Source\PSoC4/CyLib.c **** *
  11:Generated_Source\PSoC4/CyLib.c **** ********************************************************************************
  12:Generated_Source\PSoC4/CyLib.c **** * \copyright
  13:Generated_Source\PSoC4/CyLib.c **** * Copyright 2010-2020, Cypress Semiconductor Corporation.  All rights reserved.
  14:Generated_Source\PSoC4/CyLib.c **** * You may use this file only in accordance with the license, terms, conditions,
  15:Generated_Source\PSoC4/CyLib.c **** * disclaimers, and limitations in the end user license agreement accompanying
  16:Generated_Source\PSoC4/CyLib.c **** * the software package with which this file was provided.
  17:Generated_Source\PSoC4/CyLib.c **** *******************************************************************************/
  18:Generated_Source\PSoC4/CyLib.c **** 
  19:Generated_Source\PSoC4/CyLib.c **** #include "CyLib.h"
  20:Generated_Source\PSoC4/CyLib.c **** 
  21:Generated_Source\PSoC4/CyLib.c **** /* CySysClkWriteImoFreq() || CySysClkImoEnableWcoLock() */
  22:Generated_Source\PSoC4/CyLib.c **** #if ((CY_IP_SRSSV2 && CY_IP_FMLT) || CY_IP_IMO_TRIMMABLE_BY_WCO)
  23:Generated_Source\PSoC4/CyLib.c ****     #include "CyFlash.h"
  24:Generated_Source\PSoC4/CyLib.c **** #endif /* (CY_IP_SRSSV2 && CY_IP_FMLT) */
  25:Generated_Source\PSoC4/CyLib.c **** 
  26:Generated_Source\PSoC4/CyLib.c **** /* Do not use these definitions directly in your application */
  27:Generated_Source\PSoC4/CyLib.c **** uint32 cydelayFreqHz  = CYDEV_BCLK__SYSCLK__HZ;
  28:Generated_Source\PSoC4/CyLib.c **** uint32 cydelayFreqKhz = (CYDEV_BCLK__SYSCLK__HZ + CY_DELAY_1K_MINUS_1_THRESHOLD) / CY_DELAY_1K_THRE
  29:Generated_Source\PSoC4/CyLib.c **** uint8  cydelayFreqMhz = (uint8)((CYDEV_BCLK__SYSCLK__HZ + CY_DELAY_1M_MINUS_1_THRESHOLD) / CY_DELAY
  30:Generated_Source\PSoC4/CyLib.c **** uint32 cydelay32kMs   = CY_DELAY_MS_OVERFLOW * ((CYDEV_BCLK__SYSCLK__HZ + CY_DELAY_1K_MINUS_1_THRES
ARM GAS  C:\Users\YUANFA~1\AppData\Local\Temp\ccYDlzYT.s 			page 2


  31:Generated_Source\PSoC4/CyLib.c ****                         CY_DELAY_1K_THRESHOLD);
  32:Generated_Source\PSoC4/CyLib.c **** 
  33:Generated_Source\PSoC4/CyLib.c **** 
  34:Generated_Source\PSoC4/CyLib.c **** static cySysTickCallback CySysTickCallbacks[CY_SYS_SYST_NUM_OF_CALLBACKS];
  35:Generated_Source\PSoC4/CyLib.c **** static void CySysTickServiceCallbacks(void);
  36:Generated_Source\PSoC4/CyLib.c **** 
  37:Generated_Source\PSoC4/CyLib.c **** #if (CY_IP_PLL)
  38:Generated_Source\PSoC4/CyLib.c ****     static uint32 CySysClkPllGetBypassMode(uint32 pll);
  39:Generated_Source\PSoC4/CyLib.c ****     static cystatus CySysClkPllConfigChangeAllowed(uint32 pll);
  40:Generated_Source\PSoC4/CyLib.c **** #endif /* (CY_IP_PLL) */
  41:Generated_Source\PSoC4/CyLib.c **** 
  42:Generated_Source\PSoC4/CyLib.c **** 
  43:Generated_Source\PSoC4/CyLib.c **** /***************************************************************************//**
  44:Generated_Source\PSoC4/CyLib.c **** * Indicates whether or not the SysTick has been initialized. The variable is
  45:Generated_Source\PSoC4/CyLib.c **** * initialized to 0 and set to 1 the first time CySysTickStart() is called.
  46:Generated_Source\PSoC4/CyLib.c **** *
  47:Generated_Source\PSoC4/CyLib.c **** * This allows the component to restart without reinitialization after the first
  48:Generated_Source\PSoC4/CyLib.c **** * call to the CySysTickStart() routine.
  49:Generated_Source\PSoC4/CyLib.c **** *
  50:Generated_Source\PSoC4/CyLib.c **** * If reinitialization of the SysTick is required, call CySysTickInit() before
  51:Generated_Source\PSoC4/CyLib.c **** * calling CySysTickStart(). Alternatively, the SysTick can be reinitialized by
  52:Generated_Source\PSoC4/CyLib.c **** * calling the CySysTickInit() and CySysTickEnable() functions.
  53:Generated_Source\PSoC4/CyLib.c **** *******************************************************************************/
  54:Generated_Source\PSoC4/CyLib.c **** uint32 CySysTickInitVar = 0u;
  55:Generated_Source\PSoC4/CyLib.c **** 
  56:Generated_Source\PSoC4/CyLib.c **** 
  57:Generated_Source\PSoC4/CyLib.c **** #if(CY_IP_SRSSV2)
  58:Generated_Source\PSoC4/CyLib.c ****         /* Conversion between CySysClkWriteImoFreq() parameter and register's value */
  59:Generated_Source\PSoC4/CyLib.c ****         const uint8 cyImoFreqMhz2Reg[CY_SYS_CLK_IMO_FREQ_TABLE_SIZE] = {
  60:Generated_Source\PSoC4/CyLib.c ****             /*  3 MHz */ 0x03u,  /*  4 MHz */ 0x04u,  /*  5 MHz */ 0x05u,  /*  6 MHz */ 0x06u,
  61:Generated_Source\PSoC4/CyLib.c ****             /*  7 MHz */ 0x07u,  /*  8 MHz */ 0x08u,  /*  9 MHz */ 0x09u,  /* 10 MHz */ 0x0Au,
  62:Generated_Source\PSoC4/CyLib.c ****             /* 11 MHz */ 0x0Bu,  /* 12 MHz */ 0x0Cu,  /* 13 MHz */ 0x0Eu,  /* 14 MHz */ 0x0Fu,
  63:Generated_Source\PSoC4/CyLib.c ****             /* 15 MHz */ 0x10u,  /* 16 MHz */ 0x11u,  /* 17 MHz */ 0x12u,  /* 18 MHz */ 0x13u,
  64:Generated_Source\PSoC4/CyLib.c ****             /* 19 MHz */ 0x14u,  /* 20 MHz */ 0x15u,  /* 21 MHz */ 0x16u,  /* 22 MHz */ 0x17u,
  65:Generated_Source\PSoC4/CyLib.c ****             /* 23 MHz */ 0x18u,  /* 24 MHz */ 0x19u,  /* 25 MHz */ 0x1Bu,  /* 26 MHz */ 0x1Cu,
  66:Generated_Source\PSoC4/CyLib.c ****             /* 27 MHz */ 0x1Du,  /* 28 MHz */ 0x1Eu,  /* 29 MHz */ 0x1Fu,  /* 30 MHz */ 0x20u,
  67:Generated_Source\PSoC4/CyLib.c ****             /* 31 MHz */ 0x21u,  /* 32 MHz */ 0x22u,  /* 33 MHz */ 0x23u,  /* 34 MHz */ 0x25u,
  68:Generated_Source\PSoC4/CyLib.c ****             /* 35 MHz */ 0x26u,  /* 36 MHz */ 0x27u,  /* 37 MHz */ 0x28u,  /* 38 MHz */ 0x29u,
  69:Generated_Source\PSoC4/CyLib.c ****             /* 39 MHz */ 0x2Au,  /* 40 MHz */ 0x2Bu,  /* 41 MHz */ 0x2Eu,  /* 42 MHz */ 0x2Fu,
  70:Generated_Source\PSoC4/CyLib.c ****             /* 43 MHz */ 0x30u,  /* 44 MHz */ 0x31u,  /* 45 MHz */ 0x32u,  /* 46 MHz */ 0x33u,
  71:Generated_Source\PSoC4/CyLib.c ****             /* 47 MHz */ 0x34u,  /* 48 MHz */ 0x35u };
  72:Generated_Source\PSoC4/CyLib.c **** #endif /* (CY_IP_SRSSV2) */
  73:Generated_Source\PSoC4/CyLib.c **** 
  74:Generated_Source\PSoC4/CyLib.c **** #if (CY_IP_IMO_TRIMMABLE_BY_USB && CY_IP_SRSSV2)
  75:Generated_Source\PSoC4/CyLib.c ****     #define CY_CRI_TESTPGM_6_REV            (6u)
  76:Generated_Source\PSoC4/CyLib.c ****     #define CY_CRI_TESTPGM_9_REV            (9u)
  77:Generated_Source\PSoC4/CyLib.c ****     #define CYSFLASH_CRI_testpgm_rev_MASK   (0x0000003Fu)
  78:Generated_Source\PSoC4/CyLib.c **** 
  79:Generated_Source\PSoC4/CyLib.c ****     /* Stored CY_SYS_CLK_IMO_TRIM4_REG when modified for USB lock */
  80:Generated_Source\PSoC4/CyLib.c ****     uint32 CySysClkImoTrim4 = 0u;
  81:Generated_Source\PSoC4/CyLib.c ****     uint32 CySysClkImoTrim5 = 0u;
  82:Generated_Source\PSoC4/CyLib.c **** 
  83:Generated_Source\PSoC4/CyLib.c ****     static void CySysClkImoSetPwrBgTrim5(void);
  84:Generated_Source\PSoC4/CyLib.c ****     static void CySysClkImoSetImoTrims(void);
  85:Generated_Source\PSoC4/CyLib.c **** #endif /* (CY_IP_IMO_TRIMMABLE_BY_USB && CY_IP_SRSSV2) */
  86:Generated_Source\PSoC4/CyLib.c **** 
  87:Generated_Source\PSoC4/CyLib.c **** /* Stored PUMP_SEL configuration during disable (IMO output by default) */
ARM GAS  C:\Users\YUANFA~1\AppData\Local\Temp\ccYDlzYT.s 			page 3


  88:Generated_Source\PSoC4/CyLib.c **** uint32 CySysClkPumpConfig = CY_SYS_CLK_PUMP_ENABLE;
  89:Generated_Source\PSoC4/CyLib.c **** 
  90:Generated_Source\PSoC4/CyLib.c **** 
  91:Generated_Source\PSoC4/CyLib.c **** /*******************************************************************************
  92:Generated_Source\PSoC4/CyLib.c **** * Function Name: CySysClkImoStart
  93:Generated_Source\PSoC4/CyLib.c **** ****************************************************************************//**
  94:Generated_Source\PSoC4/CyLib.c **** *
  95:Generated_Source\PSoC4/CyLib.c **** * Enables the IMO.
  96:Generated_Source\PSoC4/CyLib.c **** *
  97:Generated_Source\PSoC4/CyLib.c **** * For PSoC 4100M / PSoC 4200M / PSoC 4000S / PSoC 4100S / PSoC 4500 / PSoC Analog
  98:Generated_Source\PSoC4/CyLib.c **** * Coprocessor devices, this function will also enable WCO lock if selected in
  99:Generated_Source\PSoC4/CyLib.c **** * the Design Wide Resources tab.
 100:Generated_Source\PSoC4/CyLib.c **** *
 101:Generated_Source\PSoC4/CyLib.c **** * For PSoC 4200L devices, this function will also enable USB lock if selected
 102:Generated_Source\PSoC4/CyLib.c **** * in the Design Wide Resources tab.
 103:Generated_Source\PSoC4/CyLib.c **** *
 104:Generated_Source\PSoC4/CyLib.c **** *******************************************************************************/
 105:Generated_Source\PSoC4/CyLib.c **** void CySysClkImoStart(void)
 106:Generated_Source\PSoC4/CyLib.c **** {
  28              		.loc 1 106 0
  29              		.cfi_startproc
  30              		@ args = 0, pretend = 0, frame = 0
  31              		@ frame_needed = 0, uses_anonymous_args = 0
  32              		@ link register save eliminated.
 107:Generated_Source\PSoC4/CyLib.c ****     CY_SYS_CLK_IMO_CONFIG_REG |= CY_SYS_CLK_IMO_CONFIG_ENABLE;
  33              		.loc 1 107 0
  34 0000 034A     		ldr	r2, .L2
  35 0002 1368     		ldr	r3, [r2]
  36 0004 8021     		movs	r1, #128
  37 0006 0906     		lsls	r1, r1, #24
  38 0008 0B43     		orrs	r3, r1
  39 000a 1360     		str	r3, [r2]
 108:Generated_Source\PSoC4/CyLib.c **** 
 109:Generated_Source\PSoC4/CyLib.c ****     #if (CY_IP_IMO_TRIMMABLE_BY_WCO)
 110:Generated_Source\PSoC4/CyLib.c ****         #if (CYDEV_IMO_TRIMMED_BY_WCO == 1u)
 111:Generated_Source\PSoC4/CyLib.c ****             CySysClkImoEnableWcoLock();
 112:Generated_Source\PSoC4/CyLib.c ****         #endif  /* (CYDEV_IMO_TRIMMED_BY_WCO == 1u) */
 113:Generated_Source\PSoC4/CyLib.c ****     #endif  /* (CY_IP_IMO_TRIMMABLE_BY_WCO) */
 114:Generated_Source\PSoC4/CyLib.c **** 
 115:Generated_Source\PSoC4/CyLib.c **** 
 116:Generated_Source\PSoC4/CyLib.c ****     #if (CY_IP_IMO_TRIMMABLE_BY_USB)
 117:Generated_Source\PSoC4/CyLib.c ****         #if (CYDEV_IMO_TRIMMED_BY_USB == 1u)
 118:Generated_Source\PSoC4/CyLib.c ****             CySysClkImoEnableUsbLock();
 119:Generated_Source\PSoC4/CyLib.c ****         #endif  /* (CYDEV_IMO_TRIMMED_BY_USB == 1u) */
 120:Generated_Source\PSoC4/CyLib.c ****     #endif  /* (CY_IP_IMO_TRIMMABLE_BY_USB) */
 121:Generated_Source\PSoC4/CyLib.c **** 
 122:Generated_Source\PSoC4/CyLib.c **** }
  40              		.loc 1 122 0
  41              		@ sp needed
  42 000c 7047     		bx	lr
  43              	.L3:
  44 000e C046     		.align	2
  45              	.L2:
  46 0010 30000340 		.word	1073938480
  47              		.cfi_endproc
  48              	.LFE1:
  49              		.size	CySysClkImoStart, .-CySysClkImoStart
ARM GAS  C:\Users\YUANFA~1\AppData\Local\Temp\ccYDlzYT.s 			page 4


  50              		.section	.text.CySysClkImoDisableWcoLock,"ax",%progbits
  51              		.align	2
  52              		.global	CySysClkImoDisableWcoLock
  53              		.code	16
  54              		.thumb_func
  55              		.type	CySysClkImoDisableWcoLock, %function
  56              	CySysClkImoDisableWcoLock:
  57              	.LFB4:
 123:Generated_Source\PSoC4/CyLib.c **** 
 124:Generated_Source\PSoC4/CyLib.c **** 
 125:Generated_Source\PSoC4/CyLib.c **** /*******************************************************************************
 126:Generated_Source\PSoC4/CyLib.c **** * Function Name: CySysClkImoStop
 127:Generated_Source\PSoC4/CyLib.c **** ****************************************************************************//**
 128:Generated_Source\PSoC4/CyLib.c **** *
 129:Generated_Source\PSoC4/CyLib.c **** * Disables the IMO.
 130:Generated_Source\PSoC4/CyLib.c **** *
 131:Generated_Source\PSoC4/CyLib.c **** * For PSoC 4100M / PSoC 4200M / PSoC 4200L / PSoC 4000S / PSoC 4100S /
 132:Generated_Source\PSoC4/CyLib.c **** * PSoC 4500 / PSoC Analog Coprocessor devices, this function will also
 133:Generated_Source\PSoC4/CyLib.c **** * disable WCO lock.
 134:Generated_Source\PSoC4/CyLib.c **** *
 135:Generated_Source\PSoC4/CyLib.c **** * For PSoC PSoC 4200L devices, this function will also disable USB lock.
 136:Generated_Source\PSoC4/CyLib.c **** *
 137:Generated_Source\PSoC4/CyLib.c **** *******************************************************************************/
 138:Generated_Source\PSoC4/CyLib.c **** void CySysClkImoStop(void)
 139:Generated_Source\PSoC4/CyLib.c **** {
 140:Generated_Source\PSoC4/CyLib.c ****     #if (CY_IP_IMO_TRIMMABLE_BY_WCO)
 141:Generated_Source\PSoC4/CyLib.c ****         CySysClkImoDisableWcoLock();
 142:Generated_Source\PSoC4/CyLib.c ****     #endif  /* (CY_IP_IMO_TRIMMABLE_BY_WCO) */
 143:Generated_Source\PSoC4/CyLib.c **** 
 144:Generated_Source\PSoC4/CyLib.c ****     #if (CY_IP_IMO_TRIMMABLE_BY_USB)
 145:Generated_Source\PSoC4/CyLib.c ****         CySysClkImoDisableUsbLock();
 146:Generated_Source\PSoC4/CyLib.c ****     #endif  /* (CY_IP_IMO_TRIMMABLE_BY_USB) */
 147:Generated_Source\PSoC4/CyLib.c **** 
 148:Generated_Source\PSoC4/CyLib.c ****     CY_SYS_CLK_IMO_CONFIG_REG &= ( uint32 ) ( ~( uint32 )CY_SYS_CLK_IMO_CONFIG_ENABLE);
 149:Generated_Source\PSoC4/CyLib.c **** }
 150:Generated_Source\PSoC4/CyLib.c **** 
 151:Generated_Source\PSoC4/CyLib.c **** #if (CY_IP_IMO_TRIMMABLE_BY_WCO)
 152:Generated_Source\PSoC4/CyLib.c **** 
 153:Generated_Source\PSoC4/CyLib.c ****     /*******************************************************************************
 154:Generated_Source\PSoC4/CyLib.c ****     * Function Name: CySysClkImoEnableWcoLock
 155:Generated_Source\PSoC4/CyLib.c ****     ****************************************************************************//**
 156:Generated_Source\PSoC4/CyLib.c ****     *
 157:Generated_Source\PSoC4/CyLib.c ****     * Enables the IMO to WCO lock feature. This function works only if the WCO is
 158:Generated_Source\PSoC4/CyLib.c ****     * already enabled. If the WCO is not enabled then this function returns
 159:Generated_Source\PSoC4/CyLib.c ****     * without enabling the lock feature.
 160:Generated_Source\PSoC4/CyLib.c ****     *
 161:Generated_Source\PSoC4/CyLib.c ****     * It takes up to 20 ms for the IMO to stabilize. The delay is implemented with
 162:Generated_Source\PSoC4/CyLib.c ****     * CyDelay() function. The delay interval is measured based on the system
 163:Generated_Source\PSoC4/CyLib.c ****     * frequency defined by PSoC Creator at build time. If System clock frequency
 164:Generated_Source\PSoC4/CyLib.c ****     * is changed in runtime, the CyDelayFreq() with the appropriate parameter
 165:Generated_Source\PSoC4/CyLib.c ****     * should be called.
 166:Generated_Source\PSoC4/CyLib.c ****     *
 167:Generated_Source\PSoC4/CyLib.c ****     * For PSoC 4200L devices, note that the IMO can lock to either WCO or USB
 168:Generated_Source\PSoC4/CyLib.c ****     * but not both.
 169:Generated_Source\PSoC4/CyLib.c ****     *
 170:Generated_Source\PSoC4/CyLib.c ****     * This function is applicable for PSoC 4100M / PSoC 4200M / PSoC 4000S /
 171:Generated_Source\PSoC4/CyLib.c ****     * PSoC 4100S / PSoC 4500 / PSoC Analog Coprocessor / PSoC 4200L.
ARM GAS  C:\Users\YUANFA~1\AppData\Local\Temp\ccYDlzYT.s 			page 5


 172:Generated_Source\PSoC4/CyLib.c ****     *
 173:Generated_Source\PSoC4/CyLib.c ****     *******************************************************************************/
 174:Generated_Source\PSoC4/CyLib.c ****     void CySysClkImoEnableWcoLock(void)
 175:Generated_Source\PSoC4/CyLib.c ****     {
 176:Generated_Source\PSoC4/CyLib.c ****         #if(CY_IP_SRSSV2)
 177:Generated_Source\PSoC4/CyLib.c ****             uint32 i;
 178:Generated_Source\PSoC4/CyLib.c ****         #endif  /* (CY_IP_SRSSV2) */
 179:Generated_Source\PSoC4/CyLib.c **** 
 180:Generated_Source\PSoC4/CyLib.c ****         uint32 freq;
 181:Generated_Source\PSoC4/CyLib.c ****         uint8  interruptState;
 182:Generated_Source\PSoC4/CyLib.c ****         uint32 regTmp;
 183:Generated_Source\PSoC4/CyLib.c ****         uint32 lfLimit = 0u;
 184:Generated_Source\PSoC4/CyLib.c ****         volatile uint32 flashCtlReg;
 185:Generated_Source\PSoC4/CyLib.c **** 
 186:Generated_Source\PSoC4/CyLib.c ****         if (0u != CySysClkWcoEnabled())
 187:Generated_Source\PSoC4/CyLib.c ****         {
 188:Generated_Source\PSoC4/CyLib.c ****             interruptState = CyEnterCriticalSection();
 189:Generated_Source\PSoC4/CyLib.c **** 
 190:Generated_Source\PSoC4/CyLib.c ****             /* Set oscillator interface control port to WCO */
 191:Generated_Source\PSoC4/CyLib.c ****             #if (CY_IP_IMO_TRIMMABLE_BY_WCO && CY_IP_IMO_TRIMMABLE_BY_USB)
 192:Generated_Source\PSoC4/CyLib.c ****                 CY_SYS_CLK_OSCINTF_CTL_REG =
 193:Generated_Source\PSoC4/CyLib.c ****                     (CY_SYS_CLK_OSCINTF_CTL_REG & (uint32) ~CY_SYS_CLK_OSCINTF_CTL_PORT_SEL_MASK) |
 194:Generated_Source\PSoC4/CyLib.c ****                     CY_SYS_CLK_OSCINTF_CTL_PORT_SEL_WCO;
 195:Generated_Source\PSoC4/CyLib.c ****             #endif /* (CY_IP_IMO_TRIMMABLE_BY_WCO && CY_IP_IMO_TRIMMABLE_BY_USB) */
 196:Generated_Source\PSoC4/CyLib.c **** 
 197:Generated_Source\PSoC4/CyLib.c ****             /* Get current IMO frequency based on the register value */
 198:Generated_Source\PSoC4/CyLib.c ****             #if(CY_IP_SRSSV2)
 199:Generated_Source\PSoC4/CyLib.c ****                 freq = CY_SYS_CLK_IMO_MIN_FREQ_MHZ;
 200:Generated_Source\PSoC4/CyLib.c ****                 for(i = 0u; i < CY_SYS_CLK_IMO_FREQ_TABLE_SIZE; i++)
 201:Generated_Source\PSoC4/CyLib.c ****                 {
 202:Generated_Source\PSoC4/CyLib.c ****                     if ((uint8) (CY_SYS_CLK_IMO_TRIM2_REG & CY_SYS_CLK_IMO_FREQ_BITS_MASK) == cyImo
 203:Generated_Source\PSoC4/CyLib.c ****                     {
 204:Generated_Source\PSoC4/CyLib.c ****                         freq = i + CY_SYS_CLK_IMO_FREQ_TABLE_OFFSET;
 205:Generated_Source\PSoC4/CyLib.c ****                         break;
 206:Generated_Source\PSoC4/CyLib.c ****                     }
 207:Generated_Source\PSoC4/CyLib.c ****                 }
 208:Generated_Source\PSoC4/CyLib.c ****             #else
 209:Generated_Source\PSoC4/CyLib.c ****                 /* Calculate frequency by shifting register field value and adding constant. */
 210:Generated_Source\PSoC4/CyLib.c ****                 #if(CY_IP_SRSSLT)
 211:Generated_Source\PSoC4/CyLib.c ****                     freq = (((uint32) ((CY_SYS_CLK_IMO_SELECT_REG & ((uint32) CY_SYS_CLK_IMO_SELECT
 212:Generated_Source\PSoC4/CyLib.c ****                                         CY_SYS_CLK_IMO_SELECT_FREQ_SHIFT) + CY_SYS_CLK_IMO_MIN_FREQ
 213:Generated_Source\PSoC4/CyLib.c ****                                       ((CY_SYS_CLK_SELECT_REG >> CY_SYS_CLK_SELECT_HFCLK_DIV_SHIFT)
 214:Generated_Source\PSoC4/CyLib.c ****                                        (uint32) CY_SYS_CLK_SELECT_HFCLK_DIV_MASK));
 215:Generated_Source\PSoC4/CyLib.c ****                 #else
 216:Generated_Source\PSoC4/CyLib.c ****                     freq = ((uint32) ((CY_SYS_CLK_IMO_SELECT_REG & ((uint32) CY_SYS_CLK_IMO_SELECT_
 217:Generated_Source\PSoC4/CyLib.c ****                                        CY_SYS_CLK_IMO_SELECT_FREQ_SHIFT) + CY_SYS_CLK_IMO_MIN_FREQ_
 218:Generated_Source\PSoC4/CyLib.c ****                 #endif  /* (CY_IP_SRSSLT) */
 219:Generated_Source\PSoC4/CyLib.c **** 
 220:Generated_Source\PSoC4/CyLib.c ****             #endif  /* (CY_IP_SRSSV2) */
 221:Generated_Source\PSoC4/CyLib.c **** 
 222:Generated_Source\PSoC4/CyLib.c ****             CY_SYS_CLK_IMO_TRIM1_REG = 0;
 223:Generated_Source\PSoC4/CyLib.c **** 
 224:Generated_Source\PSoC4/CyLib.c ****             /* For the WCO locking mode, the IMO gain needs to be CY_SYS_CLK_IMO_TRIM4_GAIN */
 225:Generated_Source\PSoC4/CyLib.c ****             #if(CY_IP_SRSSV2)
 226:Generated_Source\PSoC4/CyLib.c ****                 if ((CY_SYS_CLK_IMO_TRIM4_REG & CY_SYS_CLK_IMO_TRIM4_GAIN_MASK) == 0u)
 227:Generated_Source\PSoC4/CyLib.c ****                 {
 228:Generated_Source\PSoC4/CyLib.c ****                      CY_SYS_CLK_IMO_TRIM4_REG = (CY_SYS_CLK_IMO_TRIM4_REG & (uint32) ~CY_SYS_CLK_IM
ARM GAS  C:\Users\YUANFA~1\AppData\Local\Temp\ccYDlzYT.s 			page 6


 229:Generated_Source\PSoC4/CyLib.c ****                                                  CY_SYS_CLK_IMO_TRIM4_WCO_GAIN;
 230:Generated_Source\PSoC4/CyLib.c ****                 }
 231:Generated_Source\PSoC4/CyLib.c ****             #endif /* (CY_IP_SRSSV2) */
 232:Generated_Source\PSoC4/CyLib.c **** 
 233:Generated_Source\PSoC4/CyLib.c ****             regTmp  = CY_SYS_CLK_WCO_DPLL_REG & ~(CY_SYS_CLK_WCO_DPLL_MULT_MASK |
 234:Generated_Source\PSoC4/CyLib.c ****                                                   CY_SYS_CLK_WCO_CONFIG_DPLL_LF_IGAIN_MASK |
 235:Generated_Source\PSoC4/CyLib.c ****                                                   CY_SYS_CLK_WCO_CONFIG_DPLL_LF_PGAIN_MASK |
 236:Generated_Source\PSoC4/CyLib.c ****                                                   CY_SYS_CLK_WCO_CONFIG_DPLL_LF_LIMIT_MASK);
 237:Generated_Source\PSoC4/CyLib.c **** 
 238:Generated_Source\PSoC4/CyLib.c ****             /* Set multiplier to determine IMO frequency in multiples of the WCO frequency */
 239:Generated_Source\PSoC4/CyLib.c ****             regTmp |= (CY_SYS_CLK_WCO_DPLL_MULT_VALUE(freq) & CY_SYS_CLK_WCO_DPLL_MULT_MASK);
 240:Generated_Source\PSoC4/CyLib.c **** 
 241:Generated_Source\PSoC4/CyLib.c ****             /* Set DPLL Loop Filter Integral and Proportional Gains Setting */
 242:Generated_Source\PSoC4/CyLib.c ****             regTmp |= (CY_SYS_CLK_WCO_CONFIG_DPLL_LF_IGAIN | CY_SYS_CLK_WCO_CONFIG_DPLL_LF_PGAIN);
 243:Generated_Source\PSoC4/CyLib.c **** 
 244:Generated_Source\PSoC4/CyLib.c ****             CY_SYS_CLK_WCO_DPLL_REG = regTmp;
 245:Generated_Source\PSoC4/CyLib.c **** 
 246:Generated_Source\PSoC4/CyLib.c ****             flashCtlReg = CY_FLASH_CTL_REG;
 247:Generated_Source\PSoC4/CyLib.c ****             CySysFlashSetWaitCycles(CY_SYS_CLK_IMO_MAX_FREQ_MHZ);
 248:Generated_Source\PSoC4/CyLib.c ****             CY_SYS_CLK_WCO_CONFIG_REG |= CY_SYS_CLK_WCO_CONFIG_DPLL_ENABLE;
 249:Generated_Source\PSoC4/CyLib.c **** 
 250:Generated_Source\PSoC4/CyLib.c ****             regTmp  = CY_SYS_CLK_WCO_DPLL_REG & ~(CY_SYS_CLK_WCO_CONFIG_DPLL_LF_LIMIT_MASK);
 251:Generated_Source\PSoC4/CyLib.c **** 
 252:Generated_Source\PSoC4/CyLib.c ****             while (lfLimit < (CY_SYS_CLK_WCO_CONFIG_DPLL_LF_LIMIT_MAX - CY_SYS_CLK_WCO_CONFIG_DPLL_
 253:Generated_Source\PSoC4/CyLib.c ****             {
 254:Generated_Source\PSoC4/CyLib.c ****                 CyDelay(CY_SYS_CLK_WCO_DPLL_TIMEOUT_MS);
 255:Generated_Source\PSoC4/CyLib.c ****                 lfLimit += CY_SYS_CLK_WCO_CONFIG_DPLL_LF_LIMIT_STEP;
 256:Generated_Source\PSoC4/CyLib.c ****                 CY_SYS_CLK_WCO_DPLL_REG = (regTmp | (lfLimit << CY_SYS_CLK_WCO_CONFIG_DPLL_LF_LIMIT
 257:Generated_Source\PSoC4/CyLib.c ****             }
 258:Generated_Source\PSoC4/CyLib.c **** 
 259:Generated_Source\PSoC4/CyLib.c ****             CyDelay(CY_SYS_CLK_WCO_DPLL_TIMEOUT_MS);
 260:Generated_Source\PSoC4/CyLib.c ****             CY_SYS_CLK_WCO_DPLL_REG = (regTmp | (CY_SYS_CLK_WCO_CONFIG_DPLL_LF_LIMIT_MAX <<
 261:Generated_Source\PSoC4/CyLib.c ****                                                  CY_SYS_CLK_WCO_CONFIG_DPLL_LF_LIMIT_SHIFT));
 262:Generated_Source\PSoC4/CyLib.c **** 
 263:Generated_Source\PSoC4/CyLib.c ****             CY_FLASH_CTL_REG = flashCtlReg;
 264:Generated_Source\PSoC4/CyLib.c **** 
 265:Generated_Source\PSoC4/CyLib.c ****             CyExitCriticalSection(interruptState);
 266:Generated_Source\PSoC4/CyLib.c ****         }
 267:Generated_Source\PSoC4/CyLib.c ****     }
 268:Generated_Source\PSoC4/CyLib.c **** 
 269:Generated_Source\PSoC4/CyLib.c **** 
 270:Generated_Source\PSoC4/CyLib.c ****     /*******************************************************************************
 271:Generated_Source\PSoC4/CyLib.c ****     * Function Name: CySysClkImoDisableWcoLock
 272:Generated_Source\PSoC4/CyLib.c ****     ****************************************************************************//**
 273:Generated_Source\PSoC4/CyLib.c ****     *
 274:Generated_Source\PSoC4/CyLib.c ****     * Disables the IMO to WCO lock feature.
 275:Generated_Source\PSoC4/CyLib.c ****     *
 276:Generated_Source\PSoC4/CyLib.c ****     * For PSoC 4200L devices, note that the IMO can lock to either WCO or USB
 277:Generated_Source\PSoC4/CyLib.c ****     * but not both.
 278:Generated_Source\PSoC4/CyLib.c ****     *
 279:Generated_Source\PSoC4/CyLib.c ****     * This function is applicable for PSoC 4100M / PSoC 4200M / PSoC 4000S /
 280:Generated_Source\PSoC4/CyLib.c ****     * PSoC 4100S / PSoC 4500 / PSoC Analog Coprocessor / PSoC 4200L.
 281:Generated_Source\PSoC4/CyLib.c ****     *
 282:Generated_Source\PSoC4/CyLib.c ****     *******************************************************************************/
 283:Generated_Source\PSoC4/CyLib.c ****     void CySysClkImoDisableWcoLock(void)
 284:Generated_Source\PSoC4/CyLib.c ****     {
  58              		.loc 1 284 0
ARM GAS  C:\Users\YUANFA~1\AppData\Local\Temp\ccYDlzYT.s 			page 7


  59              		.cfi_startproc
  60              		@ args = 0, pretend = 0, frame = 0
  61              		@ frame_needed = 0, uses_anonymous_args = 0
  62              		@ link register save eliminated.
 285:Generated_Source\PSoC4/CyLib.c ****         #if(CY_IP_SRSSV2)
 286:Generated_Source\PSoC4/CyLib.c ****             uint32 i;
 287:Generated_Source\PSoC4/CyLib.c ****         #endif  /* (CY_IP_SRSSV2) */
 288:Generated_Source\PSoC4/CyLib.c **** 
 289:Generated_Source\PSoC4/CyLib.c ****         uint32 freq;
 290:Generated_Source\PSoC4/CyLib.c **** 
 291:Generated_Source\PSoC4/CyLib.c ****         /* Get current IMO frequency based on the register value */
 292:Generated_Source\PSoC4/CyLib.c ****         #if(CY_IP_SRSSV2)
 293:Generated_Source\PSoC4/CyLib.c ****             freq = CY_SYS_CLK_IMO_MIN_FREQ_MHZ;
 294:Generated_Source\PSoC4/CyLib.c ****             for(i = 0u; i < CY_SYS_CLK_IMO_FREQ_TABLE_SIZE; i++)
 295:Generated_Source\PSoC4/CyLib.c ****             {
 296:Generated_Source\PSoC4/CyLib.c ****                 if ((uint8) (CY_SYS_CLK_IMO_TRIM2_REG & CY_SYS_CLK_IMO_FREQ_BITS_MASK) == cyImoFreq
 297:Generated_Source\PSoC4/CyLib.c ****                 {
 298:Generated_Source\PSoC4/CyLib.c ****                     freq = i + CY_SYS_CLK_IMO_FREQ_TABLE_OFFSET;
 299:Generated_Source\PSoC4/CyLib.c ****                     break;
 300:Generated_Source\PSoC4/CyLib.c ****                 }
 301:Generated_Source\PSoC4/CyLib.c ****             }
 302:Generated_Source\PSoC4/CyLib.c ****         #else
 303:Generated_Source\PSoC4/CyLib.c ****             /* Calculate frequency by shifting register field value and adding constant. */
 304:Generated_Source\PSoC4/CyLib.c ****             #if(CY_IP_SRSSLT)
 305:Generated_Source\PSoC4/CyLib.c ****                 freq = (((uint32) ((CY_SYS_CLK_IMO_SELECT_REG & ((uint32) CY_SYS_CLK_IMO_SELECT_FRE
  63              		.loc 1 305 0
  64 0000 0C4B     		ldr	r3, .L5
  65 0002 1B68     		ldr	r3, [r3]
  66 0004 9B00     		lsls	r3, r3, #2
  67 0006 1C22     		movs	r2, #28
  68 0008 1340     		ands	r3, r2
 306:Generated_Source\PSoC4/CyLib.c ****                                     CY_SYS_CLK_IMO_SELECT_FREQ_SHIFT) + CY_SYS_CLK_IMO_MIN_FREQ_MHZ
  69              		.loc 1 306 0
  70 000a 1833     		adds	r3, r3, #24
 307:Generated_Source\PSoC4/CyLib.c ****                                   ((CY_SYS_CLK_SELECT_REG >> CY_SYS_CLK_SELECT_HFCLK_DIV_SHIFT) &
  71              		.loc 1 307 0
  72 000c 0A4A     		ldr	r2, .L5+4
  73 000e 1268     		ldr	r2, [r2]
  74 0010 9208     		lsrs	r2, r2, #2
  75 0012 0321     		movs	r1, #3
  76 0014 0A40     		ands	r2, r1
 305:Generated_Source\PSoC4/CyLib.c ****                                     CY_SYS_CLK_IMO_SELECT_FREQ_SHIFT) + CY_SYS_CLK_IMO_MIN_FREQ_MHZ
  77              		.loc 1 305 0
  78 0016 D340     		lsrs	r3, r3, r2
  79              	.LVL0:
 308:Generated_Source\PSoC4/CyLib.c ****                                    (uint32) CY_SYS_CLK_SELECT_HFCLK_DIV_MASK));
 309:Generated_Source\PSoC4/CyLib.c ****             #else
 310:Generated_Source\PSoC4/CyLib.c ****                 freq = ((uint32) ((CY_SYS_CLK_IMO_SELECT_REG & ((uint32) CY_SYS_CLK_IMO_SELECT_FREQ
 311:Generated_Source\PSoC4/CyLib.c ****                                    CY_SYS_CLK_IMO_SELECT_FREQ_SHIFT) + CY_SYS_CLK_IMO_MIN_FREQ_MHZ)
 312:Generated_Source\PSoC4/CyLib.c ****             #endif  /* (CY_IP_SRSSLT) */
 313:Generated_Source\PSoC4/CyLib.c **** 
 314:Generated_Source\PSoC4/CyLib.c ****         #endif  /* (CY_IP_SRSSV2) */
 315:Generated_Source\PSoC4/CyLib.c **** 
 316:Generated_Source\PSoC4/CyLib.c ****         CY_SYS_CLK_WCO_CONFIG_REG &= (uint32) ~CY_SYS_CLK_WCO_CONFIG_DPLL_ENABLE;
  80              		.loc 1 316 0
  81 0018 0849     		ldr	r1, .L5+8
  82 001a 0868     		ldr	r0, [r1]
ARM GAS  C:\Users\YUANFA~1\AppData\Local\Temp\ccYDlzYT.s 			page 8


  83 001c 084A     		ldr	r2, .L5+12
  84 001e 0240     		ands	r2, r0
  85 0020 0A60     		str	r2, [r1]
 317:Generated_Source\PSoC4/CyLib.c **** 
 318:Generated_Source\PSoC4/CyLib.c ****         #if(CY_IP_SRSSLT)
 319:Generated_Source\PSoC4/CyLib.c ****             CY_SYS_CLK_IMO_TRIM1_REG = CY_SFLASH_IMO_TRIM_REG(freq - CY_SYS_CLK_IMO_MIN_FREQ_MHZ);
  86              		.loc 1 319 0
  87 0022 084A     		ldr	r2, .L5+16
  88 0024 9446     		mov	ip, r2
  89 0026 6344     		add	r3, r3, ip
  90              	.LVL1:
  91 0028 1B78     		ldrb	r3, [r3]
  92              	.LVL2:
  93 002a DBB2     		uxtb	r3, r3
  94 002c 064A     		ldr	r2, .L5+20
  95 002e 1360     		str	r3, [r2]
 320:Generated_Source\PSoC4/CyLib.c ****         #else
 321:Generated_Source\PSoC4/CyLib.c ****             CY_SYS_CLK_IMO_TRIM1_REG = CY_SFLASH_IMO_TRIM_REG(freq - CY_SYS_CLK_IMO_FREQ_TABLE_OFFS
 322:Generated_Source\PSoC4/CyLib.c ****         #endif
 323:Generated_Source\PSoC4/CyLib.c ****     }
  96              		.loc 1 323 0
  97              		@ sp needed
  98 0030 7047     		bx	lr
  99              	.L6:
 100 0032 C046     		.align	2
 101              	.L5:
 102 0034 080F0340 		.word	1073942280
 103 0038 28000340 		.word	1073938472
 104 003c 00002240 		.word	1075970048
 105 0040 FFFFFFBF 		.word	-1073741825
 106 0044 4DF3FF0F 		.word	268432205
 107 0048 0C0F0340 		.word	1073942284
 108              		.cfi_endproc
 109              	.LFE4:
 110              		.size	CySysClkImoDisableWcoLock, .-CySysClkImoDisableWcoLock
 111              		.section	.text.CySysClkImoStop,"ax",%progbits
 112              		.align	2
 113              		.global	CySysClkImoStop
 114              		.code	16
 115              		.thumb_func
 116              		.type	CySysClkImoStop, %function
 117              	CySysClkImoStop:
 118              	.LFB2:
 139:Generated_Source\PSoC4/CyLib.c ****     #if (CY_IP_IMO_TRIMMABLE_BY_WCO)
 119              		.loc 1 139 0
 120              		.cfi_startproc
 121              		@ args = 0, pretend = 0, frame = 0
 122              		@ frame_needed = 0, uses_anonymous_args = 0
 123 0000 10B5     		push	{r4, lr}
 124              		.cfi_def_cfa_offset 8
 125              		.cfi_offset 4, -8
 126              		.cfi_offset 14, -4
 141:Generated_Source\PSoC4/CyLib.c ****     #endif  /* (CY_IP_IMO_TRIMMABLE_BY_WCO) */
 127              		.loc 1 141 0
 128 0002 FFF7FEFF 		bl	CySysClkImoDisableWcoLock
 129              	.LVL3:
 148:Generated_Source\PSoC4/CyLib.c **** }
ARM GAS  C:\Users\YUANFA~1\AppData\Local\Temp\ccYDlzYT.s 			page 9


 130              		.loc 1 148 0
 131 0006 034A     		ldr	r2, .L8
 132 0008 1368     		ldr	r3, [r2]
 133 000a 5B00     		lsls	r3, r3, #1
 134 000c 5B08     		lsrs	r3, r3, #1
 135 000e 1360     		str	r3, [r2]
 149:Generated_Source\PSoC4/CyLib.c **** 
 136              		.loc 1 149 0
 137              		@ sp needed
 138 0010 10BD     		pop	{r4, pc}
 139              	.L9:
 140 0012 C046     		.align	2
 141              	.L8:
 142 0014 30000340 		.word	1073938480
 143              		.cfi_endproc
 144              	.LFE2:
 145              		.size	CySysClkImoStop, .-CySysClkImoStop
 146              		.section	.text.CySysClkImoGetWcoLock,"ax",%progbits
 147              		.align	2
 148              		.global	CySysClkImoGetWcoLock
 149              		.code	16
 150              		.thumb_func
 151              		.type	CySysClkImoGetWcoLock, %function
 152              	CySysClkImoGetWcoLock:
 153              	.LFB5:
 324:Generated_Source\PSoC4/CyLib.c **** 
 325:Generated_Source\PSoC4/CyLib.c **** 
 326:Generated_Source\PSoC4/CyLib.c ****     /*******************************************************************************
 327:Generated_Source\PSoC4/CyLib.c ****     * Function Name: CySysClkImoGetWcoLock
 328:Generated_Source\PSoC4/CyLib.c ****     ****************************************************************************//**
 329:Generated_Source\PSoC4/CyLib.c ****     *
 330:Generated_Source\PSoC4/CyLib.c ****     * Reports the IMO to WCO lock enable state.
 331:Generated_Source\PSoC4/CyLib.c ****     *
 332:Generated_Source\PSoC4/CyLib.c ****     * This function is applicable for PSoC 4100M / PSoC 4200M / PSoC 4000S /
 333:Generated_Source\PSoC4/CyLib.c ****     * PSoC 4100S / PSoC 4500 / PSoC Analog Coprocessor / PSoC 4200L.
 334:Generated_Source\PSoC4/CyLib.c ****     *
 335:Generated_Source\PSoC4/CyLib.c ****     * \return 1 if IMO to WCO lock is enabled.
 336:Generated_Source\PSoC4/CyLib.c ****     * \return 0 if IMO to WCO lock is disabled.
 337:Generated_Source\PSoC4/CyLib.c ****     *
 338:Generated_Source\PSoC4/CyLib.c ****     *******************************************************************************/
 339:Generated_Source\PSoC4/CyLib.c ****     uint32 CySysClkImoGetWcoLock(void)
 340:Generated_Source\PSoC4/CyLib.c ****     {
 154              		.loc 1 340 0
 155              		.cfi_startproc
 156              		@ args = 0, pretend = 0, frame = 0
 157              		@ frame_needed = 0, uses_anonymous_args = 0
 158              		@ link register save eliminated.
 341:Generated_Source\PSoC4/CyLib.c ****         return ((0u != (CY_SYS_CLK_WCO_CONFIG_REG & CY_SYS_CLK_WCO_CONFIG_DPLL_ENABLE)) ?
 159              		.loc 1 341 0
 160 0000 034B     		ldr	r3, .L12
 161 0002 1868     		ldr	r0, [r3]
 162 0004 8023     		movs	r3, #128
 163 0006 DB05     		lsls	r3, r3, #23
 164 0008 1840     		ands	r0, r3
 342:Generated_Source\PSoC4/CyLib.c ****                 (uint32) 1u :
 165              		.loc 1 342 0
 166 000a 00D0     		beq	.L11
ARM GAS  C:\Users\YUANFA~1\AppData\Local\Temp\ccYDlzYT.s 			page 10


 167 000c 0120     		movs	r0, #1
 168              	.L11:
 343:Generated_Source\PSoC4/CyLib.c ****                 (uint32) 0u);
 344:Generated_Source\PSoC4/CyLib.c ****     }
 169              		.loc 1 344 0
 170              		@ sp needed
 171 000e 7047     		bx	lr
 172              	.L13:
 173              		.align	2
 174              	.L12:
 175 0010 00002240 		.word	1075970048
 176              		.cfi_endproc
 177              	.LFE5:
 178              		.size	CySysClkImoGetWcoLock, .-CySysClkImoGetWcoLock
 179              		.section	.text.CySysClkWriteHfclkDirect,"ax",%progbits
 180              		.align	2
 181              		.global	CySysClkWriteHfclkDirect
 182              		.code	16
 183              		.thumb_func
 184              		.type	CySysClkWriteHfclkDirect, %function
 185              	CySysClkWriteHfclkDirect:
 186              	.LFB6:
 345:Generated_Source\PSoC4/CyLib.c **** 
 346:Generated_Source\PSoC4/CyLib.c **** #endif /* (CY_IP_IMO_TRIMMABLE_BY_WCO) */
 347:Generated_Source\PSoC4/CyLib.c **** 
 348:Generated_Source\PSoC4/CyLib.c **** 
 349:Generated_Source\PSoC4/CyLib.c **** #if (CY_IP_IMO_TRIMMABLE_BY_USB)
 350:Generated_Source\PSoC4/CyLib.c **** 
 351:Generated_Source\PSoC4/CyLib.c ****     /*******************************************************************************
 352:Generated_Source\PSoC4/CyLib.c ****     * Function Name: CySysClkImoEnableUsbLock
 353:Generated_Source\PSoC4/CyLib.c ****     ****************************************************************************//**
 354:Generated_Source\PSoC4/CyLib.c ****     *
 355:Generated_Source\PSoC4/CyLib.c ****     * Enables the IMO to USB lock feature.
 356:Generated_Source\PSoC4/CyLib.c ****     *
 357:Generated_Source\PSoC4/CyLib.c ****     * This function must be called before CySysClkWriteImoFreq().
 358:Generated_Source\PSoC4/CyLib.c ****     *
 359:Generated_Source\PSoC4/CyLib.c ****     * This function is called from CySysClkImoStart() function if USB lock
 360:Generated_Source\PSoC4/CyLib.c ****     * selected in the Design Wide Resources tab.
 361:Generated_Source\PSoC4/CyLib.c ****     *
 362:Generated_Source\PSoC4/CyLib.c ****     * This is applicable for PSoC 4200L family of devices only. For PSoC 4200L
 363:Generated_Source\PSoC4/CyLib.c ****     * devices, the IMO can lock to either WCO or USB, but not both.
 364:Generated_Source\PSoC4/CyLib.c ****     *
 365:Generated_Source\PSoC4/CyLib.c ****     *******************************************************************************/
 366:Generated_Source\PSoC4/CyLib.c ****     void CySysClkImoEnableUsbLock(void)
 367:Generated_Source\PSoC4/CyLib.c ****     {
 368:Generated_Source\PSoC4/CyLib.c ****         /* Set oscillator interface control port to USB */
 369:Generated_Source\PSoC4/CyLib.c ****         #if (CY_IP_IMO_TRIMMABLE_BY_WCO && CY_IP_IMO_TRIMMABLE_BY_USB)
 370:Generated_Source\PSoC4/CyLib.c ****             CY_SYS_CLK_OSCINTF_CTL_REG = (CY_SYS_CLK_OSCINTF_CTL_REG & (uint32) ~CY_SYS_CLK_OSCINTF
 371:Generated_Source\PSoC4/CyLib.c ****                                           CY_SYS_CLK_OSCINTF_CTL_PORT_SEL_USB;
 372:Generated_Source\PSoC4/CyLib.c ****         #endif /* (CY_IP_IMO_TRIMMABLE_BY_WCO && CY_IP_IMO_TRIMMABLE_BY_USB) */
 373:Generated_Source\PSoC4/CyLib.c **** 
 374:Generated_Source\PSoC4/CyLib.c ****         #if(CY_IP_SRSSV2)
 375:Generated_Source\PSoC4/CyLib.c **** 
 376:Generated_Source\PSoC4/CyLib.c ****             /* Save trims to restore in CySysClkImoDisableUsbLock() */
 377:Generated_Source\PSoC4/CyLib.c ****             CySysClkImoTrim4 = CY_SYS_CLK_IMO_TRIM4_REG;
 378:Generated_Source\PSoC4/CyLib.c ****             CySysClkImoTrim5 = CY_PWR_BG_TRIM5_REG;
 379:Generated_Source\PSoC4/CyLib.c **** 
ARM GAS  C:\Users\YUANFA~1\AppData\Local\Temp\ccYDlzYT.s 			page 11


 380:Generated_Source\PSoC4/CyLib.c ****             CySysClkImoSetImoTrims();
 381:Generated_Source\PSoC4/CyLib.c ****             CySysClkImoSetPwrBgTrim5();
 382:Generated_Source\PSoC4/CyLib.c **** 
 383:Generated_Source\PSoC4/CyLib.c ****         #endif  /* (CY_IP_SRSSV2) */
 384:Generated_Source\PSoC4/CyLib.c **** 
 385:Generated_Source\PSoC4/CyLib.c ****         CY_SYS_CLK_USBDEVv2_CR1_REG |= CY_SYS_CLK_USBDEVv2_CR1_ENABLE_LOCK;
 386:Generated_Source\PSoC4/CyLib.c ****     }
 387:Generated_Source\PSoC4/CyLib.c **** 
 388:Generated_Source\PSoC4/CyLib.c **** 
 389:Generated_Source\PSoC4/CyLib.c ****     /*******************************************************************************
 390:Generated_Source\PSoC4/CyLib.c ****     * Function Name: CySysClkImoDisableUsbLock
 391:Generated_Source\PSoC4/CyLib.c ****     ****************************************************************************//**
 392:Generated_Source\PSoC4/CyLib.c ****     *
 393:Generated_Source\PSoC4/CyLib.c ****     * Disables the IMO to USB lock feature.
 394:Generated_Source\PSoC4/CyLib.c ****     *
 395:Generated_Source\PSoC4/CyLib.c ****     * This function is called from CySysClkImoStop() function if USB lock selected
 396:Generated_Source\PSoC4/CyLib.c ****     * in the Design Wide Resources tab.
 397:Generated_Source\PSoC4/CyLib.c ****     *
 398:Generated_Source\PSoC4/CyLib.c ****     * This is applicable for PSoC 4200L family of devices only. For PSoC 4200L
 399:Generated_Source\PSoC4/CyLib.c ****     * devices, the IMO can lock to either WCO or USB, but not both.
 400:Generated_Source\PSoC4/CyLib.c ****     *
 401:Generated_Source\PSoC4/CyLib.c ****     *******************************************************************************/
 402:Generated_Source\PSoC4/CyLib.c ****     void CySysClkImoDisableUsbLock(void)
 403:Generated_Source\PSoC4/CyLib.c ****     {
 404:Generated_Source\PSoC4/CyLib.c ****         #if(CY_IP_SRSSV2)
 405:Generated_Source\PSoC4/CyLib.c ****             uint32 i;
 406:Generated_Source\PSoC4/CyLib.c **** 
 407:Generated_Source\PSoC4/CyLib.c ****             /* Get current IMO frequency based on the register value */
 408:Generated_Source\PSoC4/CyLib.c ****             uint32 freq = CY_SYS_CLK_IMO_MIN_FREQ_MHZ;
 409:Generated_Source\PSoC4/CyLib.c **** 
 410:Generated_Source\PSoC4/CyLib.c ****             for(i = 0u; i < CY_SYS_CLK_IMO_FREQ_TABLE_SIZE; i++)
 411:Generated_Source\PSoC4/CyLib.c ****             {
 412:Generated_Source\PSoC4/CyLib.c ****                 if ((uint8) (CY_SYS_CLK_IMO_TRIM2_REG & CY_SYS_CLK_IMO_FREQ_BITS_MASK) == cyImoFreq
 413:Generated_Source\PSoC4/CyLib.c ****                 {
 414:Generated_Source\PSoC4/CyLib.c ****                     freq = i + CY_SYS_CLK_IMO_FREQ_TABLE_OFFSET;
 415:Generated_Source\PSoC4/CyLib.c ****                     break;
 416:Generated_Source\PSoC4/CyLib.c ****                 }
 417:Generated_Source\PSoC4/CyLib.c ****             }
 418:Generated_Source\PSoC4/CyLib.c ****         #endif  /* (CY_IP_SRSSV2) */
 419:Generated_Source\PSoC4/CyLib.c **** 
 420:Generated_Source\PSoC4/CyLib.c ****         CY_SYS_CLK_USBDEVv2_CR1_REG &= (uint32) ~CY_SYS_CLK_USBDEVv2_CR1_ENABLE_LOCK;
 421:Generated_Source\PSoC4/CyLib.c **** 
 422:Generated_Source\PSoC4/CyLib.c ****         #if(CY_IP_SRSSV2)
 423:Generated_Source\PSoC4/CyLib.c ****             /* Restore IMO trim registers saved by CySysClkImoEnableUsbLock() */
 424:Generated_Source\PSoC4/CyLib.c ****             CY_SYS_CLK_IMO_TRIM4_REG = ((CY_SYS_CLK_IMO_TRIM4_REG & (uint32) ~CY_SYS_CLK_IMO_TRIM4_
 425:Generated_Source\PSoC4/CyLib.c ****                                         (CySysClkImoTrim4 & CY_SYS_CLK_IMO_TRIM4_GAIN_MASK));
 426:Generated_Source\PSoC4/CyLib.c ****             CY_PWR_BG_TRIM5_REG = CySysClkImoTrim5;
 427:Generated_Source\PSoC4/CyLib.c **** 
 428:Generated_Source\PSoC4/CyLib.c ****             CY_SYS_CLK_IMO_TRIM1_REG = CY_SFLASH_IMO_TRIM_REG(freq - CY_SYS_CLK_IMO_FREQ_TABLE_OFFS
 429:Generated_Source\PSoC4/CyLib.c **** 
 430:Generated_Source\PSoC4/CyLib.c ****         #endif  /* (CY_IP_SRSSV2) */
 431:Generated_Source\PSoC4/CyLib.c ****     }
 432:Generated_Source\PSoC4/CyLib.c **** 
 433:Generated_Source\PSoC4/CyLib.c **** 
 434:Generated_Source\PSoC4/CyLib.c ****     /*******************************************************************************
 435:Generated_Source\PSoC4/CyLib.c ****     * Function Name: CySysClkImoGetUsbLock
 436:Generated_Source\PSoC4/CyLib.c ****     ****************************************************************************//**
ARM GAS  C:\Users\YUANFA~1\AppData\Local\Temp\ccYDlzYT.s 			page 12


 437:Generated_Source\PSoC4/CyLib.c ****     *
 438:Generated_Source\PSoC4/CyLib.c ****     * Reports the IMO to USB lock enable state.
 439:Generated_Source\PSoC4/CyLib.c ****     *
 440:Generated_Source\PSoC4/CyLib.c ****     * This is applicable for PSoC 4200L family of devices only. For PSoC 4200L
 441:Generated_Source\PSoC4/CyLib.c ****     * devices, the IMO can lock to either WCO or USB, but not both.
 442:Generated_Source\PSoC4/CyLib.c ****     *
 443:Generated_Source\PSoC4/CyLib.c ****     * \return 1 if IMO to USB lock is enabled.
 444:Generated_Source\PSoC4/CyLib.c ****     * \return 0 if IMO to USB lock is disabled.
 445:Generated_Source\PSoC4/CyLib.c ****     *
 446:Generated_Source\PSoC4/CyLib.c ****     *******************************************************************************/
 447:Generated_Source\PSoC4/CyLib.c ****     uint32 CySysClkImoGetUsbLock(void)
 448:Generated_Source\PSoC4/CyLib.c ****     {
 449:Generated_Source\PSoC4/CyLib.c ****         return ((0u != (CY_SYS_CLK_USBDEVv2_CR1_REG & CY_SYS_CLK_USBDEVv2_CR1_ENABLE_LOCK)) ?
 450:Generated_Source\PSoC4/CyLib.c ****                 (uint32) 1u :
 451:Generated_Source\PSoC4/CyLib.c ****                 (uint32) 0u);
 452:Generated_Source\PSoC4/CyLib.c ****     }
 453:Generated_Source\PSoC4/CyLib.c **** 
 454:Generated_Source\PSoC4/CyLib.c **** #if (CY_IP_SRSSV2)
 455:Generated_Source\PSoC4/CyLib.c **** 
 456:Generated_Source\PSoC4/CyLib.c ****     /*******************************************************************************
 457:Generated_Source\PSoC4/CyLib.c ****     * Function Name: CySysClkImoSetPwrBgTrim5
 458:Generated_Source\PSoC4/CyLib.c ****     ****************************************************************************//**
 459:Generated_Source\PSoC4/CyLib.c ****     *
 460:Generated_Source\PSoC4/CyLib.c ****     * Updates Bandgap trim register based on the test program revision.
 461:Generated_Source\PSoC4/CyLib.c ****     *
 462:Generated_Source\PSoC4/CyLib.c ****     *******************************************************************************/
 463:Generated_Source\PSoC4/CyLib.c ****     static void CySysClkImoSetPwrBgTrim5(void)
 464:Generated_Source\PSoC4/CyLib.c ****     {
 465:Generated_Source\PSoC4/CyLib.c ****         /* Get sort test revision number */
 466:Generated_Source\PSoC4/CyLib.c ****         uint32  testRev = ((CY_SFLASH_CRI_TESTPGM_REV_REG >> CYSFLASH_CRI_testpgm_rev__OFFSET) &
 467:Generated_Source\PSoC4/CyLib.c ****                             CYSFLASH_CRI_testpgm_rev_MASK);
 468:Generated_Source\PSoC4/CyLib.c **** 
 469:Generated_Source\PSoC4/CyLib.c ****         if(testRev <= CY_CRI_TESTPGM_9_REV)
 470:Generated_Source\PSoC4/CyLib.c ****         {
 471:Generated_Source\PSoC4/CyLib.c ****             CY_PWR_BG_TRIM5_REG = CY_SFLASH_IMO_TMPCO0_REG;
 472:Generated_Source\PSoC4/CyLib.c ****         }
 473:Generated_Source\PSoC4/CyLib.c ****         else
 474:Generated_Source\PSoC4/CyLib.c ****         {
 475:Generated_Source\PSoC4/CyLib.c ****             CY_PWR_BG_TRIM5_REG = CY_SFLASH_USBMODE_IMO_TEMPCO_REG;
 476:Generated_Source\PSoC4/CyLib.c ****         }
 477:Generated_Source\PSoC4/CyLib.c ****     }
 478:Generated_Source\PSoC4/CyLib.c **** 
 479:Generated_Source\PSoC4/CyLib.c ****     /*******************************************************************************
 480:Generated_Source\PSoC4/CyLib.c ****     * Function Name: CySysClkImoSetImoTrims
 481:Generated_Source\PSoC4/CyLib.c ****     ****************************************************************************//**
 482:Generated_Source\PSoC4/CyLib.c ****     *
 483:Generated_Source\PSoC4/CyLib.c ****     * Updates IMO trim registers based on the IMO frequency and test program
 484:Generated_Source\PSoC4/CyLib.c ****     * revision.
 485:Generated_Source\PSoC4/CyLib.c ****     *
 486:Generated_Source\PSoC4/CyLib.c ****     *******************************************************************************/
 487:Generated_Source\PSoC4/CyLib.c ****     static void CySysClkImoSetImoTrims(void)
 488:Generated_Source\PSoC4/CyLib.c ****     {
 489:Generated_Source\PSoC4/CyLib.c ****         uint32 i;
 490:Generated_Source\PSoC4/CyLib.c **** 
 491:Generated_Source\PSoC4/CyLib.c ****         /* Get current IMO frequency based on the register value */
 492:Generated_Source\PSoC4/CyLib.c ****         uint32 freq = CY_SYS_CLK_IMO_MIN_FREQ_MHZ;
 493:Generated_Source\PSoC4/CyLib.c **** 
ARM GAS  C:\Users\YUANFA~1\AppData\Local\Temp\ccYDlzYT.s 			page 13


 494:Generated_Source\PSoC4/CyLib.c ****         for(i = 0u; i < CY_SYS_CLK_IMO_FREQ_TABLE_SIZE; i++)
 495:Generated_Source\PSoC4/CyLib.c ****         {
 496:Generated_Source\PSoC4/CyLib.c ****             if ((uint8) (CY_SYS_CLK_IMO_TRIM2_REG & CY_SYS_CLK_IMO_FREQ_BITS_MASK) == cyImoFreqMhz2
 497:Generated_Source\PSoC4/CyLib.c ****             {
 498:Generated_Source\PSoC4/CyLib.c ****                 freq = i + CY_SYS_CLK_IMO_FREQ_TABLE_OFFSET;
 499:Generated_Source\PSoC4/CyLib.c ****                 break;
 500:Generated_Source\PSoC4/CyLib.c ****             }
 501:Generated_Source\PSoC4/CyLib.c ****         }
 502:Generated_Source\PSoC4/CyLib.c **** 
 503:Generated_Source\PSoC4/CyLib.c ****         /* Get sort test revision number */
 504:Generated_Source\PSoC4/CyLib.c ****         uint32  testRev = ((CY_SFLASH_CRI_TESTPGM_REV_REG >> CYSFLASH_CRI_testpgm_rev__OFFSET) &
 505:Generated_Source\PSoC4/CyLib.c ****             CYSFLASH_CRI_testpgm_rev_MASK);
 506:Generated_Source\PSoC4/CyLib.c **** 
 507:Generated_Source\PSoC4/CyLib.c ****         if(testRev <= CY_CRI_TESTPGM_6_REV)
 508:Generated_Source\PSoC4/CyLib.c ****         {
 509:Generated_Source\PSoC4/CyLib.c ****             if (48u == freq)
 510:Generated_Source\PSoC4/CyLib.c ****             {
 511:Generated_Source\PSoC4/CyLib.c ****                 CY_SYS_CLK_IMO_TRIM1_REG = (uint32) CY_SFLASH_IMO_TRIM_USBMODE_48_REG;
 512:Generated_Source\PSoC4/CyLib.c ****             }
 513:Generated_Source\PSoC4/CyLib.c ****             else if (24u == freq)
 514:Generated_Source\PSoC4/CyLib.c ****             {
 515:Generated_Source\PSoC4/CyLib.c ****                 CY_SYS_CLK_IMO_TRIM1_REG = (uint32) CY_SFLASH_IMO_TRIM_USBMODE_24_REG;
 516:Generated_Source\PSoC4/CyLib.c ****             }
 517:Generated_Source\PSoC4/CyLib.c ****             else
 518:Generated_Source\PSoC4/CyLib.c ****             {
 519:Generated_Source\PSoC4/CyLib.c ****                 /* Do nothing */
 520:Generated_Source\PSoC4/CyLib.c ****             }
 521:Generated_Source\PSoC4/CyLib.c **** 
 522:Generated_Source\PSoC4/CyLib.c ****             /* Set IMO Gain in IMO Trim Register 4 */
 523:Generated_Source\PSoC4/CyLib.c ****             CY_SYS_CLK_IMO_TRIM4_REG = (CY_SYS_CLK_IMO_TRIM4_REG & (uint32) ~CY_SYS_CLK_IMO_TRIM4_G
 524:Generated_Source\PSoC4/CyLib.c ****                                         CY_SYS_CLK_IMO_TRIM4_USB_GAIN;
 525:Generated_Source\PSoC4/CyLib.c ****         }
 526:Generated_Source\PSoC4/CyLib.c ****         else
 527:Generated_Source\PSoC4/CyLib.c ****         {
 528:Generated_Source\PSoC4/CyLib.c ****             if (48u == freq)
 529:Generated_Source\PSoC4/CyLib.c ****             {
 530:Generated_Source\PSoC4/CyLib.c ****                 CY_SYS_CLK_IMO_TRIM1_REG = (uint32) CY_SFLASH_CU_IMO_TRIM_USBMODE_48_REG;
 531:Generated_Source\PSoC4/CyLib.c ****             }
 532:Generated_Source\PSoC4/CyLib.c ****             else if (24u == freq)
 533:Generated_Source\PSoC4/CyLib.c ****             {
 534:Generated_Source\PSoC4/CyLib.c ****                 CY_SYS_CLK_IMO_TRIM1_REG = (uint32) CY_SFLASH_CU_IMO_TRIM_USBMODE_24_REG;
 535:Generated_Source\PSoC4/CyLib.c ****             }
 536:Generated_Source\PSoC4/CyLib.c ****             else
 537:Generated_Source\PSoC4/CyLib.c ****             {
 538:Generated_Source\PSoC4/CyLib.c ****                 /* Do nothing */
 539:Generated_Source\PSoC4/CyLib.c ****             }
 540:Generated_Source\PSoC4/CyLib.c **** 
 541:Generated_Source\PSoC4/CyLib.c ****             /* Set IMO Gain in IMO Trim Register 4 */
 542:Generated_Source\PSoC4/CyLib.c ****             CY_SYS_CLK_IMO_TRIM4_REG = (CY_SYS_CLK_IMO_TRIM4_REG & (uint32) ~CY_SYS_CLK_IMO_TRIM4_G
 543:Generated_Source\PSoC4/CyLib.c ****                                         CY_SFLASH_USBMODE_IMO_GAIN_TRIM_REG;
 544:Generated_Source\PSoC4/CyLib.c ****         }
 545:Generated_Source\PSoC4/CyLib.c ****     }
 546:Generated_Source\PSoC4/CyLib.c ****     #endif /* (CY_IP_SRSSV2) */
 547:Generated_Source\PSoC4/CyLib.c **** 
 548:Generated_Source\PSoC4/CyLib.c **** #endif  /* (CY_IP_IMO_TRIMMABLE_BY_USB) */
 549:Generated_Source\PSoC4/CyLib.c **** 
 550:Generated_Source\PSoC4/CyLib.c **** 
ARM GAS  C:\Users\YUANFA~1\AppData\Local\Temp\ccYDlzYT.s 			page 14


 551:Generated_Source\PSoC4/CyLib.c **** /*******************************************************************************
 552:Generated_Source\PSoC4/CyLib.c **** * Function Name: CySysClkWriteHfclkDirect
 553:Generated_Source\PSoC4/CyLib.c **** ****************************************************************************//**
 554:Generated_Source\PSoC4/CyLib.c **** *
 555:Generated_Source\PSoC4/CyLib.c **** * Selects the direct source for the HFCLK.
 556:Generated_Source\PSoC4/CyLib.c **** *
 557:Generated_Source\PSoC4/CyLib.c **** * The new source must be running and stable before calling this function.
 558:Generated_Source\PSoC4/CyLib.c **** *
 559:Generated_Source\PSoC4/CyLib.c **** * PSoC 4000:
 560:Generated_Source\PSoC4/CyLib.c **** * The SYSCLK has a maximum speed of 16 MHz, so HFCLK and SYSCLK dividers should
 561:Generated_Source\PSoC4/CyLib.c **** * be selected in a way to not to exceed 16 MHz for the System clock.
 562:Generated_Source\PSoC4/CyLib.c **** *
 563:Generated_Source\PSoC4/CyLib.c **** * If the SYSCLK clock frequency increases during device operation, call
 564:Generated_Source\PSoC4/CyLib.c **** * CySysFlashSetWaitCycles() with the appropriate parameter to adjust the number
 565:Generated_Source\PSoC4/CyLib.c **** * of clock cycles the cache will wait before sampling data comes back from
 566:Generated_Source\PSoC4/CyLib.c **** * Flash. If the SYSCLK clock frequency decreases, you can call
 567:Generated_Source\PSoC4/CyLib.c **** * CySysFlashSetWaitCycles() to improve the CPU performance. See
 568:Generated_Source\PSoC4/CyLib.c **** * CySysFlashSetWaitCycles() description for more information.
 569:Generated_Source\PSoC4/CyLib.c **** *
 570:Generated_Source\PSoC4/CyLib.c **** * Do not select PLL as the source for HFCLK if PLL output frequency exceeds
 571:Generated_Source\PSoC4/CyLib.c **** * maximum permissible value for HFCLK.
 572:Generated_Source\PSoC4/CyLib.c **** *
 573:Generated_Source\PSoC4/CyLib.c **** * \param clkSelect One of the available HFCLK direct sources.
 574:Generated_Source\PSoC4/CyLib.c **** * CY_SYS_CLK_HFCLK_IMO     IMO.
 575:Generated_Source\PSoC4/CyLib.c **** * CY_SYS_CLK_HFCLK_EXTCLK  External clock pin.
 576:Generated_Source\PSoC4/CyLib.c **** * CY_SYS_CLK_HFCLK_ECO     External crystal oscillator. Applicable for
 577:Generated_Source\PSoC4/CyLib.c **** *                          PSoC 4100 BLE / PSoC 4200 BLE / PSoC 4200L /
 578:Generated_Source\PSoC4/CyLib.c **** *                          4100S / 4500 with ECO.
 579:Generated_Source\PSoC4/CyLib.c **** * CY_SYS_CLK_HFCLK_PLL0    PLL#0. Applicable for PSoC 4200L /
 580:Generated_Source\PSoC4/CyLib.c **** *                          4100S / 4500 with PLL.
 581:Generated_Source\PSoC4/CyLib.c **** * CY_SYS_CLK_HFCLK_PLL1    PLL#1. Applicable for PSoC 4200L.
 582:Generated_Source\PSoC4/CyLib.c **** *
 583:Generated_Source\PSoC4/CyLib.c **** *******************************************************************************/
 584:Generated_Source\PSoC4/CyLib.c **** void CySysClkWriteHfclkDirect(uint32 clkSelect)
 585:Generated_Source\PSoC4/CyLib.c **** {
 187              		.loc 1 585 0
 188              		.cfi_startproc
 189              		@ args = 0, pretend = 0, frame = 0
 190              		@ frame_needed = 0, uses_anonymous_args = 0
 191              	.LVL4:
 192 0000 70B5     		push	{r4, r5, r6, lr}
 193              		.cfi_def_cfa_offset 16
 194              		.cfi_offset 4, -16
 195              		.cfi_offset 5, -12
 196              		.cfi_offset 6, -8
 197              		.cfi_offset 14, -4
 198 0002 0400     		movs	r4, r0
 199              	.LVL5:
 586:Generated_Source\PSoC4/CyLib.c ****     uint8  interruptState;
 587:Generated_Source\PSoC4/CyLib.c ****     uint32 tmpReg;
 588:Generated_Source\PSoC4/CyLib.c **** 
 589:Generated_Source\PSoC4/CyLib.c ****     #if (CY_IP_SRSSLT && CY_IP_PLL)
 590:Generated_Source\PSoC4/CyLib.c ****         uint8 i = 0u;
 591:Generated_Source\PSoC4/CyLib.c ****     #endif /* (CY_IP_SRSSLT && CY_IP_PLL) */
 592:Generated_Source\PSoC4/CyLib.c **** 
 593:Generated_Source\PSoC4/CyLib.c ****     interruptState = CyEnterCriticalSection();
 200              		.loc 1 593 0
ARM GAS  C:\Users\YUANFA~1\AppData\Local\Temp\ccYDlzYT.s 			page 15


 201 0004 FFF7FEFF 		bl	CyEnterCriticalSection
 202              	.LVL6:
 594:Generated_Source\PSoC4/CyLib.c **** 
 595:Generated_Source\PSoC4/CyLib.c **** #if (CY_IP_SRSSLT && CY_IP_PLL)
 596:Generated_Source\PSoC4/CyLib.c ****     if ((CY_SYS_CLK_HFCLK_PLL0 == clkSelect) || (CY_SYS_CLK_HFCLK_ECO == clkSelect))
 203              		.loc 1 596 0
 204 0008 062C     		cmp	r4, #6
 205 000a 01D0     		beq	.L15
 206              		.loc 1 596 0 is_stmt 0 discriminator 1
 207 000c 022C     		cmp	r4, #2
 208 000e 2DD1     		bne	.L16
 209              	.L15:
 597:Generated_Source\PSoC4/CyLib.c ****     {
 598:Generated_Source\PSoC4/CyLib.c ****         tmpReg = CY_SYS_CLK_SELECT_REG & ~CY_SYS_CLK_SELECT_DIRECT_SEL_MASK;
 210              		.loc 1 598 0 is_stmt 1
 211 0010 1B4A     		ldr	r2, .L20
 212 0012 1368     		ldr	r3, [r2]
 213 0014 0321     		movs	r1, #3
 214 0016 8B43     		bics	r3, r1
 215              	.LVL7:
 599:Generated_Source\PSoC4/CyLib.c ****         tmpReg |= CY_SYS_CLK_HFCLK_IMO;
 600:Generated_Source\PSoC4/CyLib.c ****         CY_SYS_CLK_SELECT_REG = tmpReg;
 216              		.loc 1 600 0
 217 0018 1360     		str	r3, [r2]
 601:Generated_Source\PSoC4/CyLib.c **** 
 602:Generated_Source\PSoC4/CyLib.c ****         /* SRSSLT block does not have registers to select PLL. It is part of EXCO */
 603:Generated_Source\PSoC4/CyLib.c ****         tmpReg = CY_SYS_ECO_CLK_SELECT_REG & ~CY_SYS_ECO_CLK_SELECT_ECO_PLL_MASK;
 218              		.loc 1 603 0
 219 001a 1A4D     		ldr	r5, .L20+4
 220 001c 2968     		ldr	r1, [r5]
 221 001e 0123     		movs	r3, #1
 222              	.LVL8:
 223 0020 9943     		bics	r1, r3
 224              	.LVL9:
 604:Generated_Source\PSoC4/CyLib.c ****         tmpReg |= ((clkSelect & CY_SYS_CLK_SELECT_HFCLK_SEL_PLL_MASK) >> CY_SYS_CLK_SELECT_HFCLK_PL
 225              		.loc 1 604 0
 226 0022 A208     		lsrs	r2, r4, #2
 227 0024 1340     		ands	r3, r2
 228 0026 0B43     		orrs	r3, r1
 229              	.LVL10:
 605:Generated_Source\PSoC4/CyLib.c ****         CY_SYS_ECO_CLK_SELECT_REG = tmpReg;
 230              		.loc 1 605 0
 231 0028 2B60     		str	r3, [r5]
 606:Generated_Source\PSoC4/CyLib.c **** 
 607:Generated_Source\PSoC4/CyLib.c ****         /* Check if ECO is enabled and running */
 608:Generated_Source\PSoC4/CyLib.c ****         if ((0UL == (CY_SYS_CLK_ECO_CONFIG_REG & CY_SYS_CLK_ECO_CONFIG_ENABLE)) ||
 232              		.loc 1 608 0
 233 002a 174B     		ldr	r3, .L20+8
 234              	.LVL11:
 235 002c 1B68     		ldr	r3, [r3]
 236 002e 002B     		cmp	r3, #0
 237 0030 03DA     		bge	.L17
 609:Generated_Source\PSoC4/CyLib.c ****             (0UL != (CY_SYS_CLK_ECO_STATUS_REG & CY_SYS_CLK_ECO_STATUS_WATCHDOG_ERROR)))
 238              		.loc 1 609 0 discriminator 1
 239 0032 164B     		ldr	r3, .L20+12
 240 0034 1B68     		ldr	r3, [r3]
 608:Generated_Source\PSoC4/CyLib.c ****             (0UL != (CY_SYS_CLK_ECO_STATUS_REG & CY_SYS_CLK_ECO_STATUS_WATCHDOG_ERROR)))
ARM GAS  C:\Users\YUANFA~1\AppData\Local\Temp\ccYDlzYT.s 			page 16


 241              		.loc 1 608 0 discriminator 1
 242 0036 DB07     		lsls	r3, r3, #31
 243 0038 18D5     		bpl	.L16
 244              	.L17:
 610:Generated_Source\PSoC4/CyLib.c ****         {
 611:Generated_Source\PSoC4/CyLib.c ****             /* Generate clock sequence to change clock source in CY_SYS_ECO_CLK_SELECT_REG */
 612:Generated_Source\PSoC4/CyLib.c ****             CY_SYS_EXCO_PGM_CLK_REG |= CY_SYS_EXCO_PGM_CLK_ENABLE_MASK;
 245              		.loc 1 612 0
 246 003a 154A     		ldr	r2, .L20+16
 247 003c 1368     		ldr	r3, [r2]
 248 003e 8021     		movs	r1, #128
 249 0040 0906     		lsls	r1, r1, #24
 250 0042 0B43     		orrs	r3, r1
 251 0044 1360     		str	r3, [r2]
 252              	.LVL12:
 613:Generated_Source\PSoC4/CyLib.c **** 
 614:Generated_Source\PSoC4/CyLib.c ****             for(i = 0u; i < CY_SYS_EXCO_PGM_CLK_SEQ_GENERATOR; i++)
 253              		.loc 1 614 0
 254 0046 0023     		movs	r3, #0
 255 0048 09E0     		b	.L18
 256              	.LVL13:
 257              	.L19:
 615:Generated_Source\PSoC4/CyLib.c ****             {
 616:Generated_Source\PSoC4/CyLib.c ****                 CY_SYS_EXCO_PGM_CLK_REG |= CY_SYS_EXCO_PGM_CLK_CLK_ECO_MASK;
 258              		.loc 1 616 0 discriminator 3
 259 004a 114A     		ldr	r2, .L20+16
 260 004c 1168     		ldr	r1, [r2]
 261 004e 0225     		movs	r5, #2
 262 0050 2943     		orrs	r1, r5
 263 0052 1160     		str	r1, [r2]
 617:Generated_Source\PSoC4/CyLib.c ****                 CY_SYS_EXCO_PGM_CLK_REG &= ~CY_SYS_EXCO_PGM_CLK_CLK_ECO_MASK;
 264              		.loc 1 617 0 discriminator 3
 265 0054 1168     		ldr	r1, [r2]
 266 0056 A943     		bics	r1, r5
 267 0058 1160     		str	r1, [r2]
 614:Generated_Source\PSoC4/CyLib.c ****             {
 268              		.loc 1 614 0 discriminator 3
 269 005a 0133     		adds	r3, r3, #1
 270              	.LVL14:
 271 005c DBB2     		uxtb	r3, r3
 272              	.LVL15:
 273              	.L18:
 614:Generated_Source\PSoC4/CyLib.c ****             {
 274              		.loc 1 614 0 is_stmt 0 discriminator 1
 275 005e 042B     		cmp	r3, #4
 276 0060 F3D9     		bls	.L19
 618:Generated_Source\PSoC4/CyLib.c ****             }
 619:Generated_Source\PSoC4/CyLib.c **** 
 620:Generated_Source\PSoC4/CyLib.c ****             CY_SYS_EXCO_PGM_CLK_REG &= ~CY_SYS_EXCO_PGM_CLK_ENABLE_MASK;
 277              		.loc 1 620 0 is_stmt 1
 278 0062 0B4A     		ldr	r2, .L20+16
 279 0064 1368     		ldr	r3, [r2]
 280              	.LVL16:
 281 0066 5B00     		lsls	r3, r3, #1
 282 0068 5B08     		lsrs	r3, r3, #1
 283 006a 1360     		str	r3, [r2]
 284              	.L16:
ARM GAS  C:\Users\YUANFA~1\AppData\Local\Temp\ccYDlzYT.s 			page 17


 621:Generated_Source\PSoC4/CyLib.c ****         }
 622:Generated_Source\PSoC4/CyLib.c ****     }
 623:Generated_Source\PSoC4/CyLib.c **** #endif /* (CY_IP_SRSSLT && CY_IP_PLL) */
 624:Generated_Source\PSoC4/CyLib.c **** 
 625:Generated_Source\PSoC4/CyLib.c ****     tmpReg = CY_SYS_CLK_SELECT_REG & ~(CY_SYS_CLK_SELECT_DIRECT_SEL_MASK |
 285              		.loc 1 625 0
 286 006c 044A     		ldr	r2, .L20
 287 006e 1368     		ldr	r3, [r2]
 288 0070 0321     		movs	r1, #3
 289 0072 8B43     		bics	r3, r1
 290              	.LVL17:
 626:Generated_Source\PSoC4/CyLib.c ****                                        CY_SYS_CLK_SELECT_HFCLK_SEL_MASK);
 627:Generated_Source\PSoC4/CyLib.c **** 
 628:Generated_Source\PSoC4/CyLib.c **** #if (CY_IP_SRSSV2 && CY_IP_PLL)
 629:Generated_Source\PSoC4/CyLib.c ****     if ((CY_SYS_CLK_HFCLK_PLL0 == clkSelect) || (CY_SYS_CLK_HFCLK_PLL1 == clkSelect))
 630:Generated_Source\PSoC4/CyLib.c ****     {
 631:Generated_Source\PSoC4/CyLib.c ****         tmpReg |= (clkSelect & CY_SYS_CLK_SELECT_HFCLK_SEL_MASK);
 632:Generated_Source\PSoC4/CyLib.c ****     }
 633:Generated_Source\PSoC4/CyLib.c ****     else
 634:Generated_Source\PSoC4/CyLib.c **** #endif /* (CY_IP_SRSSV2 && CY_IP_PLL) */
 635:Generated_Source\PSoC4/CyLib.c ****     {
 636:Generated_Source\PSoC4/CyLib.c ****         tmpReg |= (clkSelect & CY_SYS_CLK_SELECT_DIRECT_SEL_MASK);
 291              		.loc 1 636 0
 292 0074 0C40     		ands	r4, r1
 293              	.LVL18:
 294 0076 1C43     		orrs	r4, r3
 295              	.LVL19:
 637:Generated_Source\PSoC4/CyLib.c ****     }
 638:Generated_Source\PSoC4/CyLib.c **** 
 639:Generated_Source\PSoC4/CyLib.c ****     CY_SYS_CLK_SELECT_REG = tmpReg;
 296              		.loc 1 639 0
 297 0078 1460     		str	r4, [r2]
 640:Generated_Source\PSoC4/CyLib.c **** 
 641:Generated_Source\PSoC4/CyLib.c ****     CyExitCriticalSection(interruptState);
 298              		.loc 1 641 0
 299 007a FFF7FEFF 		bl	CyExitCriticalSection
 300              	.LVL20:
 642:Generated_Source\PSoC4/CyLib.c **** }
 301              		.loc 1 642 0
 302              		@ sp needed
 303              	.LVL21:
 304 007e 70BD     		pop	{r4, r5, r6, pc}
 305              	.L21:
 306              		.align	2
 307              	.L20:
 308 0080 28000340 		.word	1073938472
 309 0084 00002F40 		.word	1076822016
 310 0088 08002F40 		.word	1076822024
 311 008c 0C002F40 		.word	1076822028
 312 0090 20002F40 		.word	1076822048
 313              		.cfi_endproc
 314              	.LFE6:
 315              		.size	CySysClkWriteHfclkDirect, .-CySysClkWriteHfclkDirect
 316              		.section	.text.CySysEnablePumpClock,"ax",%progbits
 317              		.align	2
 318              		.global	CySysEnablePumpClock
 319              		.code	16
ARM GAS  C:\Users\YUANFA~1\AppData\Local\Temp\ccYDlzYT.s 			page 18


 320              		.thumb_func
 321              		.type	CySysEnablePumpClock, %function
 322              	CySysEnablePumpClock:
 323              	.LFB7:
 643:Generated_Source\PSoC4/CyLib.c **** 
 644:Generated_Source\PSoC4/CyLib.c **** 
 645:Generated_Source\PSoC4/CyLib.c **** /*******************************************************************************
 646:Generated_Source\PSoC4/CyLib.c **** * Function Name: CySysEnablePumpClock
 647:Generated_Source\PSoC4/CyLib.c **** ****************************************************************************//**
 648:Generated_Source\PSoC4/CyLib.c **** *
 649:Generated_Source\PSoC4/CyLib.c **** * Enables / disables the pump clock.
 650:Generated_Source\PSoC4/CyLib.c **** *
 651:Generated_Source\PSoC4/CyLib.c **** * \param enable
 652:Generated_Source\PSoC4/CyLib.c **** * CY_SYS_CLK_PUMP_DISABLE - Disables the pump clock
 653:Generated_Source\PSoC4/CyLib.c **** * CY_SYS_CLK_PUMP_ENABLE - Enables and restores the operating source of
 654:Generated_Source\PSoC4/CyLib.c **** * the pump clock.
 655:Generated_Source\PSoC4/CyLib.c **** *
 656:Generated_Source\PSoC4/CyLib.c **** * \sideeffect
 657:Generated_Source\PSoC4/CyLib.c **** *  Enabling/disabling the pump clock does not guarantee glitch free operation
 658:Generated_Source\PSoC4/CyLib.c **** *  when changing the IMO parameters or clock divider settings.
 659:Generated_Source\PSoC4/CyLib.c **** *
 660:Generated_Source\PSoC4/CyLib.c **** *******************************************************************************/
 661:Generated_Source\PSoC4/CyLib.c **** void CySysEnablePumpClock(uint32 enable)
 662:Generated_Source\PSoC4/CyLib.c **** {
 324              		.loc 1 662 0
 325              		.cfi_startproc
 326              		@ args = 0, pretend = 0, frame = 0
 327              		@ frame_needed = 0, uses_anonymous_args = 0
 328              		@ link register save eliminated.
 329              	.LVL22:
 663:Generated_Source\PSoC4/CyLib.c ****     #if(CY_IP_SRSSV2)
 664:Generated_Source\PSoC4/CyLib.c ****         if (0u != (CY_SYS_CLK_PUMP_ENABLE & enable))
 665:Generated_Source\PSoC4/CyLib.c ****         {
 666:Generated_Source\PSoC4/CyLib.c ****             CY_SYS_CLK_IMO_CONFIG_REG |= (CySysClkPumpConfig << CY_SYS_CLK_IMO_CONFIG_PUMP_SEL_SHIF
 667:Generated_Source\PSoC4/CyLib.c ****         }
 668:Generated_Source\PSoC4/CyLib.c ****         else
 669:Generated_Source\PSoC4/CyLib.c ****         {
 670:Generated_Source\PSoC4/CyLib.c ****             CySysClkPumpConfig = (CY_SYS_CLK_IMO_CONFIG_REG >> CY_SYS_CLK_IMO_CONFIG_PUMP_SEL_SHIFT
 671:Generated_Source\PSoC4/CyLib.c ****                                   CY_SYS_CLK_IMO_CONFIG_PUMP_SEL_MASK;
 672:Generated_Source\PSoC4/CyLib.c ****             CY_SYS_CLK_IMO_CONFIG_REG &= ~(CY_SYS_CLK_IMO_CONFIG_PUMP_SEL_MASK << CY_SYS_CLK_IMO_CO
 673:Generated_Source\PSoC4/CyLib.c ****         }
 674:Generated_Source\PSoC4/CyLib.c ****     #else /* CY_IP_SRSSLT */
 675:Generated_Source\PSoC4/CyLib.c ****         if (0u != (CY_SYS_CLK_PUMP_ENABLE & enable))
 330              		.loc 1 675 0
 331 0000 C307     		lsls	r3, r0, #31
 332 0002 07D5     		bpl	.L23
 676:Generated_Source\PSoC4/CyLib.c ****         {
 677:Generated_Source\PSoC4/CyLib.c ****             CY_SYS_CLK_SELECT_REG |= (CySysClkPumpConfig << CY_SYS_CLK_SELECT_PUMP_SEL_SHIFT);
 333              		.loc 1 677 0
 334 0004 094A     		ldr	r2, .L25
 335 0006 1168     		ldr	r1, [r2]
 336 0008 094B     		ldr	r3, .L25+4
 337 000a 1B68     		ldr	r3, [r3]
 338 000c 1B01     		lsls	r3, r3, #4
 339 000e 0B43     		orrs	r3, r1
 340 0010 1360     		str	r3, [r2]
 341 0012 0AE0     		b	.L22
ARM GAS  C:\Users\YUANFA~1\AppData\Local\Temp\ccYDlzYT.s 			page 19


 342              	.L23:
 678:Generated_Source\PSoC4/CyLib.c ****         }
 679:Generated_Source\PSoC4/CyLib.c ****         else
 680:Generated_Source\PSoC4/CyLib.c ****         {
 681:Generated_Source\PSoC4/CyLib.c ****             CySysClkPumpConfig = (CY_SYS_CLK_SELECT_REG >> CY_SYS_CLK_SELECT_PUMP_SEL_SHIFT) &
 343              		.loc 1 681 0
 344 0014 054A     		ldr	r2, .L25
 345 0016 1368     		ldr	r3, [r2]
 346 0018 1B09     		lsrs	r3, r3, #4
 347 001a 0321     		movs	r1, #3
 348 001c 0B40     		ands	r3, r1
 349 001e 0449     		ldr	r1, .L25+4
 350 0020 0B60     		str	r3, [r1]
 682:Generated_Source\PSoC4/CyLib.c ****                                   CY_SYS_CLK_SELECT_PUMP_SEL_MASK;
 683:Generated_Source\PSoC4/CyLib.c ****             CY_SYS_CLK_SELECT_REG &= ~(CY_SYS_CLK_SELECT_PUMP_SEL_MASK << CY_SYS_CLK_SELECT_PUMP_SE
 351              		.loc 1 683 0
 352 0022 1368     		ldr	r3, [r2]
 353 0024 3021     		movs	r1, #48
 354 0026 8B43     		bics	r3, r1
 355 0028 1360     		str	r3, [r2]
 356              	.L22:
 684:Generated_Source\PSoC4/CyLib.c ****         }
 685:Generated_Source\PSoC4/CyLib.c ****     #endif  /* (CY_IP_SRSSV2) */
 686:Generated_Source\PSoC4/CyLib.c **** }
 357              		.loc 1 686 0
 358              		@ sp needed
 359 002a 7047     		bx	lr
 360              	.L26:
 361              		.align	2
 362              	.L25:
 363 002c 28000340 		.word	1073938472
 364 0030 00000000 		.word	.LANCHOR0
 365              		.cfi_endproc
 366              	.LFE7:
 367              		.size	CySysEnablePumpClock, .-CySysEnablePumpClock
 368              		.section	.text.CySysClkGetSysclkSource,"ax",%progbits
 369              		.align	2
 370              		.global	CySysClkGetSysclkSource
 371              		.code	16
 372              		.thumb_func
 373              		.type	CySysClkGetSysclkSource, %function
 374              	CySysClkGetSysclkSource:
 375              	.LFB8:
 687:Generated_Source\PSoC4/CyLib.c **** 
 688:Generated_Source\PSoC4/CyLib.c **** 
 689:Generated_Source\PSoC4/CyLib.c **** /*******************************************************************************
 690:Generated_Source\PSoC4/CyLib.c **** * Function Name: CySysClkGetSysclkSource
 691:Generated_Source\PSoC4/CyLib.c **** ****************************************************************************//**
 692:Generated_Source\PSoC4/CyLib.c **** *
 693:Generated_Source\PSoC4/CyLib.c **** * Returns the source of the System clock.
 694:Generated_Source\PSoC4/CyLib.c **** *
 695:Generated_Source\PSoC4/CyLib.c **** * \return The same as \ref CySysClkWriteHfclkDirect() function parameters.
 696:Generated_Source\PSoC4/CyLib.c **** *
 697:Generated_Source\PSoC4/CyLib.c **** *******************************************************************************/
 698:Generated_Source\PSoC4/CyLib.c **** uint32 CySysClkGetSysclkSource(void)
 699:Generated_Source\PSoC4/CyLib.c **** {
 376              		.loc 1 699 0
ARM GAS  C:\Users\YUANFA~1\AppData\Local\Temp\ccYDlzYT.s 			page 20


 377              		.cfi_startproc
 378              		@ args = 0, pretend = 0, frame = 0
 379              		@ frame_needed = 0, uses_anonymous_args = 0
 380 0000 10B5     		push	{r4, lr}
 381              		.cfi_def_cfa_offset 8
 382              		.cfi_offset 4, -8
 383              		.cfi_offset 14, -4
 700:Generated_Source\PSoC4/CyLib.c ****     uint8  interruptState;
 701:Generated_Source\PSoC4/CyLib.c ****     uint32 sysclkSource;
 702:Generated_Source\PSoC4/CyLib.c **** 
 703:Generated_Source\PSoC4/CyLib.c ****     interruptState = CyEnterCriticalSection();
 384              		.loc 1 703 0
 385 0002 FFF7FEFF 		bl	CyEnterCriticalSection
 386              	.LVL23:
 704:Generated_Source\PSoC4/CyLib.c **** 
 705:Generated_Source\PSoC4/CyLib.c **** #if (CY_IP_SRSSV2 && CY_IP_PLL)
 706:Generated_Source\PSoC4/CyLib.c ****     if ((CY_SYS_CLK_SELECT_REG & CY_SYS_CLK_SELECT_HFCLK_SEL_MASK) != 0u)
 707:Generated_Source\PSoC4/CyLib.c ****     {
 708:Generated_Source\PSoC4/CyLib.c ****         sysclkSource = (CY_SYS_CLK_SELECT_REG & CY_SYS_CLK_SELECT_HFCLK_SEL_MASK);
 709:Generated_Source\PSoC4/CyLib.c ****     }
 710:Generated_Source\PSoC4/CyLib.c ****     else
 711:Generated_Source\PSoC4/CyLib.c **** #endif /* (CY_IP_SRSSV2 && CY_IP_PLL) */
 712:Generated_Source\PSoC4/CyLib.c ****     {
 713:Generated_Source\PSoC4/CyLib.c ****         sysclkSource = (CY_SYS_CLK_SELECT_REG & CY_SYS_CLK_SELECT_DIRECT_SEL_MASK);
 387              		.loc 1 713 0
 388 0006 074B     		ldr	r3, .L28
 389 0008 1B68     		ldr	r3, [r3]
 390 000a 0324     		movs	r4, #3
 391 000c 2200     		movs	r2, r4
 392 000e 1A40     		ands	r2, r3
 393              	.LVL24:
 714:Generated_Source\PSoC4/CyLib.c **** 
 715:Generated_Source\PSoC4/CyLib.c ****     #if (CY_IP_SRSSLT && CY_IP_PLL)
 716:Generated_Source\PSoC4/CyLib.c ****         sysclkSource |= (((uint32)(CY_SYS_ECO_CLK_SELECT_REG & CY_SYS_ECO_CLK_SELECT_ECO_PLL_MASK))
 394              		.loc 1 716 0
 395 0010 054B     		ldr	r3, .L28+4
 396 0012 1B68     		ldr	r3, [r3]
 397 0014 9B00     		lsls	r3, r3, #2
 398 0016 0134     		adds	r4, r4, #1
 399 0018 1C40     		ands	r4, r3
 400 001a 1443     		orrs	r4, r2
 401              	.LVL25:
 717:Generated_Source\PSoC4/CyLib.c ****                          CY_SYS_CLK_SELECT_HFCLK_PLL_SHIFT);
 718:Generated_Source\PSoC4/CyLib.c ****     #endif /* (CY_IP_SRSSLT && CY_IP_PLL) */
 719:Generated_Source\PSoC4/CyLib.c **** 
 720:Generated_Source\PSoC4/CyLib.c ****     }
 721:Generated_Source\PSoC4/CyLib.c **** 
 722:Generated_Source\PSoC4/CyLib.c ****     CyExitCriticalSection(interruptState);
 402              		.loc 1 722 0
 403 001c FFF7FEFF 		bl	CyExitCriticalSection
 404              	.LVL26:
 723:Generated_Source\PSoC4/CyLib.c **** 
 724:Generated_Source\PSoC4/CyLib.c ****     return (sysclkSource);
 725:Generated_Source\PSoC4/CyLib.c **** }
 405              		.loc 1 725 0
 406 0020 2000     		movs	r0, r4
 407              		@ sp needed
ARM GAS  C:\Users\YUANFA~1\AppData\Local\Temp\ccYDlzYT.s 			page 21


 408              	.LVL27:
 409 0022 10BD     		pop	{r4, pc}
 410              	.L29:
 411              		.align	2
 412              	.L28:
 413 0024 28000340 		.word	1073938472
 414 0028 00002F40 		.word	1076822016
 415              		.cfi_endproc
 416              	.LFE8:
 417              		.size	CySysClkGetSysclkSource, .-CySysClkGetSysclkSource
 418              		.section	.text.CySysClkWriteSysclkDiv,"ax",%progbits
 419              		.align	2
 420              		.global	CySysClkWriteSysclkDiv
 421              		.code	16
 422              		.thumb_func
 423              		.type	CySysClkWriteSysclkDiv, %function
 424              	CySysClkWriteSysclkDiv:
 425              	.LFB9:
 726:Generated_Source\PSoC4/CyLib.c **** 
 727:Generated_Source\PSoC4/CyLib.c **** 
 728:Generated_Source\PSoC4/CyLib.c **** /*******************************************************************************
 729:Generated_Source\PSoC4/CyLib.c **** * Function Name: CySysClkWriteSysclkDiv
 730:Generated_Source\PSoC4/CyLib.c **** ****************************************************************************//**
 731:Generated_Source\PSoC4/CyLib.c **** *
 732:Generated_Source\PSoC4/CyLib.c **** * Selects the prescaler divide amount for SYSCLK from HFCLK.
 733:Generated_Source\PSoC4/CyLib.c **** *
 734:Generated_Source\PSoC4/CyLib.c **** * PSoC 4000: The SYSCLK has the speed of 16 MHz, so HFCLK and SYSCLK dividers
 735:Generated_Source\PSoC4/CyLib.c **** * should be selected in a way, not to exceed 16 MHz for SYSCLK.
 736:Generated_Source\PSoC4/CyLib.c **** *
 737:Generated_Source\PSoC4/CyLib.c **** * PSoC 4100 \ PSoC 4100 BLE \ PSoC 4100M: The SYSCLK has the speed of 24 MHz,
 738:Generated_Source\PSoC4/CyLib.c **** * so HFCLK and SYSCLK dividers should be selected in a way, not to exceed 24 MHz
 739:Generated_Source\PSoC4/CyLib.c **** * for SYSCLK.
 740:Generated_Source\PSoC4/CyLib.c **** *
 741:Generated_Source\PSoC4/CyLib.c **** * If the SYSCLK clock frequency increases during the device operation, call
 742:Generated_Source\PSoC4/CyLib.c **** * \ref CySysFlashSetWaitCycles() with the appropriate parameter to adjust the
 743:Generated_Source\PSoC4/CyLib.c **** * number of clock cycles the cache will wait before sampling data comes back
 744:Generated_Source\PSoC4/CyLib.c **** * from Flash. If the SYSCLK clock frequency decreases, you can call
 745:Generated_Source\PSoC4/CyLib.c **** * \ref CySysFlashSetWaitCycles() to improve the CPU performance. See
 746:Generated_Source\PSoC4/CyLib.c **** * \ref CySysFlashSetWaitCycles() description for more information.
 747:Generated_Source\PSoC4/CyLib.c **** *
 748:Generated_Source\PSoC4/CyLib.c **** * \param divider Power of 2 prescaler selection
 749:Generated_Source\PSoC4/CyLib.c **** *  CY_SYS_CLK_SYSCLK_DIV1        SYSCLK = HFCLK / 1
 750:Generated_Source\PSoC4/CyLib.c **** *  CY_SYS_CLK_SYSCLK_DIV2        SYSCLK = HFCLK / 2
 751:Generated_Source\PSoC4/CyLib.c **** *  CY_SYS_CLK_SYSCLK_DIV4        SYSCLK = HFCLK / 4
 752:Generated_Source\PSoC4/CyLib.c **** *  CY_SYS_CLK_SYSCLK_DIV8        SYSCLK = HFCLK / 8
 753:Generated_Source\PSoC4/CyLib.c **** *  CY_SYS_CLK_SYSCLK_DIV16       SYSCLK = HFCLK / 16  (N/A for 4000 Family)
 754:Generated_Source\PSoC4/CyLib.c **** *  CY_SYS_CLK_SYSCLK_DIV32       SYSCLK = HFCLK / 32  (N/A for 4000 Family)
 755:Generated_Source\PSoC4/CyLib.c **** *  CY_SYS_CLK_SYSCLK_DIV64       SYSCLK = HFCLK / 64  (N/A for 4000 Family)
 756:Generated_Source\PSoC4/CyLib.c **** *  CY_SYS_CLK_SYSCLK_DIV128      SYSCLK = HFCLK / 128 (N/A for 4000 Family)
 757:Generated_Source\PSoC4/CyLib.c **** *
 758:Generated_Source\PSoC4/CyLib.c **** *******************************************************************************/
 759:Generated_Source\PSoC4/CyLib.c **** void CySysClkWriteSysclkDiv(uint32 divider)
 760:Generated_Source\PSoC4/CyLib.c **** {
 426              		.loc 1 760 0
 427              		.cfi_startproc
 428              		@ args = 0, pretend = 0, frame = 0
 429              		@ frame_needed = 0, uses_anonymous_args = 0
ARM GAS  C:\Users\YUANFA~1\AppData\Local\Temp\ccYDlzYT.s 			page 22


 430              	.LVL28:
 431 0000 10B5     		push	{r4, lr}
 432              		.cfi_def_cfa_offset 8
 433              		.cfi_offset 4, -8
 434              		.cfi_offset 14, -4
 435 0002 0400     		movs	r4, r0
 761:Generated_Source\PSoC4/CyLib.c ****     uint8  interruptState;
 762:Generated_Source\PSoC4/CyLib.c **** 
 763:Generated_Source\PSoC4/CyLib.c ****     interruptState = CyEnterCriticalSection();
 436              		.loc 1 763 0
 437 0004 FFF7FEFF 		bl	CyEnterCriticalSection
 438              	.LVL29:
 764:Generated_Source\PSoC4/CyLib.c **** 
 765:Generated_Source\PSoC4/CyLib.c ****     CY_SYS_CLK_SELECT_REG = ((uint32)(((uint32)divider & CY_SYS_CLK_SELECT_SYSCLK_DIV_MASK) <<
 439              		.loc 1 765 0
 440 0008 A401     		lsls	r4, r4, #6
 441              	.LVL30:
 442 000a FF23     		movs	r3, #255
 443 000c 2340     		ands	r3, r4
 766:Generated_Source\PSoC4/CyLib.c ****                                     CY_SYS_CLK_SELECT_SYSCLK_DIV_SHIFT)) |
 767:Generated_Source\PSoC4/CyLib.c ****                             (CY_SYS_CLK_SELECT_REG & ((uint32)(~(uint32)(CY_SYS_CLK_SELECT_SYSCLK_D
 444              		.loc 1 767 0
 445 000e 0449     		ldr	r1, .L31
 446 0010 0A68     		ldr	r2, [r1]
 447 0012 C024     		movs	r4, #192
 448 0014 A243     		bics	r2, r4
 766:Generated_Source\PSoC4/CyLib.c ****                                     CY_SYS_CLK_SELECT_SYSCLK_DIV_SHIFT)) |
 449              		.loc 1 766 0
 450 0016 1343     		orrs	r3, r2
 765:Generated_Source\PSoC4/CyLib.c ****                                     CY_SYS_CLK_SELECT_SYSCLK_DIV_SHIFT)) |
 451              		.loc 1 765 0
 452 0018 0B60     		str	r3, [r1]
 768:Generated_Source\PSoC4/CyLib.c ****                                     CY_SYS_CLK_SELECT_SYSCLK_DIV_SHIFT))));
 769:Generated_Source\PSoC4/CyLib.c **** 
 770:Generated_Source\PSoC4/CyLib.c ****     CyExitCriticalSection(interruptState);
 453              		.loc 1 770 0
 454 001a FFF7FEFF 		bl	CyExitCriticalSection
 455              	.LVL31:
 771:Generated_Source\PSoC4/CyLib.c **** }
 456              		.loc 1 771 0
 457              		@ sp needed
 458 001e 10BD     		pop	{r4, pc}
 459              	.L32:
 460              		.align	2
 461              	.L31:
 462 0020 28000340 		.word	1073938472
 463              		.cfi_endproc
 464              	.LFE9:
 465              		.size	CySysClkWriteSysclkDiv, .-CySysClkWriteSysclkDiv
 466              		.section	.text.CySysClkWriteHfclkDiv,"ax",%progbits
 467              		.align	2
 468              		.global	CySysClkWriteHfclkDiv
 469              		.code	16
 470              		.thumb_func
 471              		.type	CySysClkWriteHfclkDiv, %function
 472              	CySysClkWriteHfclkDiv:
 473              	.LFB11:
ARM GAS  C:\Users\YUANFA~1\AppData\Local\Temp\ccYDlzYT.s 			page 23


 772:Generated_Source\PSoC4/CyLib.c **** 
 773:Generated_Source\PSoC4/CyLib.c **** 
 774:Generated_Source\PSoC4/CyLib.c **** /*******************************************************************************
 775:Generated_Source\PSoC4/CyLib.c **** * Function Name: CySysClkWriteImoFreq
 776:Generated_Source\PSoC4/CyLib.c **** ****************************************************************************//**
 777:Generated_Source\PSoC4/CyLib.c **** *
 778:Generated_Source\PSoC4/CyLib.c **** * Sets the frequency of the IMO.
 779:Generated_Source\PSoC4/CyLib.c **** *
 780:Generated_Source\PSoC4/CyLib.c **** * PSoC 4000: The SYSCLK has the speed of 16 MHz, so HFCLK and SYSCLK dividers
 781:Generated_Source\PSoC4/CyLib.c **** * should be selected in a way, not to exceed 16 MHz for SYSCLK.
 782:Generated_Source\PSoC4/CyLib.c **** *
 783:Generated_Source\PSoC4/CyLib.c **** * PSoC 4100 \ PSoC 4100 BLE \ PSoC 4100M: The SYSCLK has the speed of 24 MHz,
 784:Generated_Source\PSoC4/CyLib.c **** * so HFCLK and SYSCLK dividers should be selected in a way, not to exceed 24 MHz
 785:Generated_Source\PSoC4/CyLib.c **** * for SYSCLK.
 786:Generated_Source\PSoC4/CyLib.c **** *
 787:Generated_Source\PSoC4/CyLib.c **** * For PSoC 4200M and PSoC 4200L device families, if WCO lock feature is enabled
 788:Generated_Source\PSoC4/CyLib.c **** * then this API will disable the lock, write the new IMO frequency and then
 789:Generated_Source\PSoC4/CyLib.c **** * re-enable the lock.
 790:Generated_Source\PSoC4/CyLib.c **** *
 791:Generated_Source\PSoC4/CyLib.c **** * For PSoC 4200L device families, this function enables the USB lock when 24 or
 792:Generated_Source\PSoC4/CyLib.c **** * 48 MHz passed as a parameter if the USB lock option is enabled in Design Wide
 793:Generated_Source\PSoC4/CyLib.c **** * Resources tab or CySysClkImoEnableUsbLock() was called before. Note the USB
 794:Generated_Source\PSoC4/CyLib.c **** * lock is disabled during IMO frequency change.
 795:Generated_Source\PSoC4/CyLib.c **** *
 796:Generated_Source\PSoC4/CyLib.c **** * The CPU is halted if new frequency is invalid and project is compiled
 797:Generated_Source\PSoC4/CyLib.c **** * in debug mode.
 798:Generated_Source\PSoC4/CyLib.c **** *
 799:Generated_Source\PSoC4/CyLib.c **** * If the SYSCLK clock frequency increases during the device operation, call
 800:Generated_Source\PSoC4/CyLib.c **** * \ref CySysFlashSetWaitCycles() with the appropriate parameter to adjust the
 801:Generated_Source\PSoC4/CyLib.c **** * number of clock cycles the cache will wait before sampling data comes back
 802:Generated_Source\PSoC4/CyLib.c **** * from Flash. If the SYSCLK clock frequency decreases, you can call
 803:Generated_Source\PSoC4/CyLib.c **** * \ref CySysFlashSetWaitCycles() to improve the CPU performance. See
 804:Generated_Source\PSoC4/CyLib.c **** * \ref CySysFlashSetWaitCycles() description for more information.
 805:Generated_Source\PSoC4/CyLib.c **** *
 806:Generated_Source\PSoC4/CyLib.c **** * PSoC 4000: The System Clock (SYSCLK) has maximum speed of 16 MHz, so HFCLK
 807:Generated_Source\PSoC4/CyLib.c **** * and SYSCLK dividers should be selected in a way, to not to exceed 16 MHz for
 808:Generated_Source\PSoC4/CyLib.c **** * the System clock.
 809:Generated_Source\PSoC4/CyLib.c **** *
 810:Generated_Source\PSoC4/CyLib.c **** * \param freq All PSoC 4 families excluding the following: Valid range [3-48]
 811:Generated_Source\PSoC4/CyLib.c **** * with step size equals 1. PSoC 4000: Valid values are 24, 32, and 48.
 812:Generated_Source\PSoC4/CyLib.c **** * PSoC 4000S / PSoC 4100S / PSoC Analog Coprocessor: Valid range [24-48] with
 813:Generated_Source\PSoC4/CyLib.c **** * step size equals 4.
 814:Generated_Source\PSoC4/CyLib.c **** *
 815:Generated_Source\PSoC4/CyLib.c **** *******************************************************************************/
 816:Generated_Source\PSoC4/CyLib.c **** #if(CY_IP_SRSSV2)
 817:Generated_Source\PSoC4/CyLib.c ****     void CySysClkWriteImoFreq(uint32 freq)
 818:Generated_Source\PSoC4/CyLib.c ****     {
 819:Generated_Source\PSoC4/CyLib.c ****         #if (CY_IP_FMLT)
 820:Generated_Source\PSoC4/CyLib.c ****             volatile uint32   parameters[2u];
 821:Generated_Source\PSoC4/CyLib.c ****             volatile uint32   regValues[4u];
 822:Generated_Source\PSoC4/CyLib.c ****         #else
 823:Generated_Source\PSoC4/CyLib.c ****             uint8  bgTrim4;
 824:Generated_Source\PSoC4/CyLib.c ****             uint8  bgTrim5;
 825:Generated_Source\PSoC4/CyLib.c ****             uint8  newImoTrim2Value;
 826:Generated_Source\PSoC4/CyLib.c ****             uint8  currentImoTrim2Value;
 827:Generated_Source\PSoC4/CyLib.c ****         #endif /* (CY_IP_FM) */
 828:Generated_Source\PSoC4/CyLib.c **** 
ARM GAS  C:\Users\YUANFA~1\AppData\Local\Temp\ccYDlzYT.s 			page 24


 829:Generated_Source\PSoC4/CyLib.c ****         #if (CY_IP_IMO_TRIMMABLE_BY_WCO)
 830:Generated_Source\PSoC4/CyLib.c ****             uint32 wcoLock = 0u;
 831:Generated_Source\PSoC4/CyLib.c ****         #endif  /* (CY_IP_IMO_TRIMMABLE_BY_WCO) */
 832:Generated_Source\PSoC4/CyLib.c **** 
 833:Generated_Source\PSoC4/CyLib.c ****         #if (CY_IP_IMO_TRIMMABLE_BY_USB)
 834:Generated_Source\PSoC4/CyLib.c ****             uint32 usbLock = 0u;
 835:Generated_Source\PSoC4/CyLib.c ****         #endif  /* (CY_IP_IMO_TRIMMABLE_BY_USB) */
 836:Generated_Source\PSoC4/CyLib.c **** 
 837:Generated_Source\PSoC4/CyLib.c ****         uint8  interruptState;
 838:Generated_Source\PSoC4/CyLib.c **** 
 839:Generated_Source\PSoC4/CyLib.c **** 
 840:Generated_Source\PSoC4/CyLib.c ****         interruptState = CyEnterCriticalSection();
 841:Generated_Source\PSoC4/CyLib.c **** 
 842:Generated_Source\PSoC4/CyLib.c ****         #if (CY_IP_IMO_TRIMMABLE_BY_WCO)
 843:Generated_Source\PSoC4/CyLib.c ****             if(0u != CySysClkImoGetWcoLock())
 844:Generated_Source\PSoC4/CyLib.c ****             {
 845:Generated_Source\PSoC4/CyLib.c ****                 wcoLock = 1u;
 846:Generated_Source\PSoC4/CyLib.c ****                 CySysClkImoDisableWcoLock();
 847:Generated_Source\PSoC4/CyLib.c ****             }
 848:Generated_Source\PSoC4/CyLib.c ****         #endif  /* (CY_IP_IMO_TRIMMABLE_BY_WCO) */
 849:Generated_Source\PSoC4/CyLib.c **** 
 850:Generated_Source\PSoC4/CyLib.c **** 
 851:Generated_Source\PSoC4/CyLib.c ****         #if (CY_IP_IMO_TRIMMABLE_BY_USB)
 852:Generated_Source\PSoC4/CyLib.c **** 
 853:Generated_Source\PSoC4/CyLib.c ****             #if (CYDEV_IMO_TRIMMED_BY_USB == 0u)
 854:Generated_Source\PSoC4/CyLib.c ****                 if(0u != CySysClkImoGetUsbLock())
 855:Generated_Source\PSoC4/CyLib.c ****                 {
 856:Generated_Source\PSoC4/CyLib.c ****             #endif  /* (CYDEV_IMO_TRIMMED_BY_USB == 0u) */
 857:Generated_Source\PSoC4/CyLib.c **** 
 858:Generated_Source\PSoC4/CyLib.c ****                 if ((24u == freq) || (48u == freq))
 859:Generated_Source\PSoC4/CyLib.c ****                 {
 860:Generated_Source\PSoC4/CyLib.c ****                     usbLock = 1u;
 861:Generated_Source\PSoC4/CyLib.c ****                     CySysClkImoDisableUsbLock();
 862:Generated_Source\PSoC4/CyLib.c ****                 }
 863:Generated_Source\PSoC4/CyLib.c **** 
 864:Generated_Source\PSoC4/CyLib.c ****             #if (CYDEV_IMO_TRIMMED_BY_USB == 0u)
 865:Generated_Source\PSoC4/CyLib.c ****                 }
 866:Generated_Source\PSoC4/CyLib.c ****             #endif  /* (CYDEV_IMO_TRIMMED_BY_USB == 0u) */
 867:Generated_Source\PSoC4/CyLib.c **** 
 868:Generated_Source\PSoC4/CyLib.c ****         #endif  /* (CYDEV_IMO_TRIMMED_BY_USB == 0u) */
 869:Generated_Source\PSoC4/CyLib.c **** 
 870:Generated_Source\PSoC4/CyLib.c **** 
 871:Generated_Source\PSoC4/CyLib.c ****         #if (CY_IP_FMLT)
 872:Generated_Source\PSoC4/CyLib.c **** 
 873:Generated_Source\PSoC4/CyLib.c ****             /* FM-Lite Clock Restore */
 874:Generated_Source\PSoC4/CyLib.c ****             regValues[0u] = CY_SYS_CLK_IMO_CONFIG_REG;
 875:Generated_Source\PSoC4/CyLib.c ****             regValues[1u] = CY_SYS_CLK_SELECT_REG;
 876:Generated_Source\PSoC4/CyLib.c ****             regValues[2u] = cyImoFreqMhz2Reg[freq - CY_SYS_CLK_IMO_FREQ_TABLE_OFFSET];
 877:Generated_Source\PSoC4/CyLib.c ****             regValues[3u] = CY_FLASH_CTL_REG;
 878:Generated_Source\PSoC4/CyLib.c **** 
 879:Generated_Source\PSoC4/CyLib.c ****             parameters[0u] =
 880:Generated_Source\PSoC4/CyLib.c ****                 (uint32) ((CY_FLASH_KEY_TWO(CY_FLASH_API_OPCODE_CLK_RESTORE) <<  CY_FLASH_PARAM_KEY
 881:Generated_Source\PSoC4/CyLib.c ****                             CY_FLASH_KEY_ONE);
 882:Generated_Source\PSoC4/CyLib.c ****             parameters[1u] = (uint32) &regValues[0u];
 883:Generated_Source\PSoC4/CyLib.c **** 
 884:Generated_Source\PSoC4/CyLib.c ****             CY_FLASH_CPUSS_SYSARG_REG = (uint32) &parameters[0u];
 885:Generated_Source\PSoC4/CyLib.c ****             CY_FLASH_CPUSS_SYSREQ_REG = CY_FLASH_CPUSS_REQ_START | CY_FLASH_API_OPCODE_CLK_RESTORE;
ARM GAS  C:\Users\YUANFA~1\AppData\Local\Temp\ccYDlzYT.s 			page 25


 886:Generated_Source\PSoC4/CyLib.c ****             (void) CY_FLASH_CPUSS_SYSARG_REG;
 887:Generated_Source\PSoC4/CyLib.c **** 
 888:Generated_Source\PSoC4/CyLib.c ****         #else /* (CY_IP_FM) */
 889:Generated_Source\PSoC4/CyLib.c **** 
 890:Generated_Source\PSoC4/CyLib.c ****         if ((freq >= CY_SYS_CLK_IMO_MIN_FREQ_MHZ) && (freq <= CY_SYS_CLK_IMO_MAX_FREQ_MHZ))
 891:Generated_Source\PSoC4/CyLib.c ****         {
 892:Generated_Source\PSoC4/CyLib.c ****             if(freq <= CY_SFLASH_IMO_MAXF0_REG)
 893:Generated_Source\PSoC4/CyLib.c ****             {
 894:Generated_Source\PSoC4/CyLib.c ****                 bgTrim4 = CY_SFLASH_IMO_ABS0_REG;
 895:Generated_Source\PSoC4/CyLib.c ****                 bgTrim5 = CY_SFLASH_IMO_TMPCO0_REG;
 896:Generated_Source\PSoC4/CyLib.c ****             }
 897:Generated_Source\PSoC4/CyLib.c ****             else if(freq <= CY_SFLASH_IMO_MAXF1_REG)
 898:Generated_Source\PSoC4/CyLib.c ****             {
 899:Generated_Source\PSoC4/CyLib.c ****                 bgTrim4 = CY_SFLASH_IMO_ABS1_REG;
 900:Generated_Source\PSoC4/CyLib.c ****                 bgTrim5 = CY_SFLASH_IMO_TMPCO1_REG;
 901:Generated_Source\PSoC4/CyLib.c ****             }
 902:Generated_Source\PSoC4/CyLib.c ****             else if(freq <= CY_SFLASH_IMO_MAXF2_REG)
 903:Generated_Source\PSoC4/CyLib.c ****             {
 904:Generated_Source\PSoC4/CyLib.c ****                 bgTrim4 = CY_SFLASH_IMO_ABS2_REG;
 905:Generated_Source\PSoC4/CyLib.c ****                 bgTrim5 = CY_SFLASH_IMO_TMPCO2_REG;
 906:Generated_Source\PSoC4/CyLib.c ****             }
 907:Generated_Source\PSoC4/CyLib.c ****             else if(freq <= CY_SFLASH_IMO_MAXF3_REG)
 908:Generated_Source\PSoC4/CyLib.c ****             {
 909:Generated_Source\PSoC4/CyLib.c ****                 bgTrim4 = CY_SFLASH_IMO_ABS3_REG;
 910:Generated_Source\PSoC4/CyLib.c ****                 bgTrim5 = CY_SFLASH_IMO_TMPCO3_REG;
 911:Generated_Source\PSoC4/CyLib.c ****             }
 912:Generated_Source\PSoC4/CyLib.c ****             else
 913:Generated_Source\PSoC4/CyLib.c ****             {
 914:Generated_Source\PSoC4/CyLib.c ****                 bgTrim4 = CY_SFLASH_IMO_ABS4_REG;
 915:Generated_Source\PSoC4/CyLib.c ****                 bgTrim5 = CY_SFLASH_IMO_TMPCO4_REG;
 916:Generated_Source\PSoC4/CyLib.c ****             }
 917:Generated_Source\PSoC4/CyLib.c **** 
 918:Generated_Source\PSoC4/CyLib.c ****             /* Get IMO_TRIM2 value for the new frequency */
 919:Generated_Source\PSoC4/CyLib.c ****             newImoTrim2Value = cyImoFreqMhz2Reg[freq - CY_SYS_CLK_IMO_FREQ_TABLE_OFFSET];
 920:Generated_Source\PSoC4/CyLib.c **** 
 921:Generated_Source\PSoC4/CyLib.c **** 
 922:Generated_Source\PSoC4/CyLib.c ****             /****************************************************************************
 923:Generated_Source\PSoC4/CyLib.c ****             * The IMO can have a different trim per frequency. To avoid possible corner
 924:Generated_Source\PSoC4/CyLib.c ****             * cases where a trim change can exceed the maximum frequency, the trim must
 925:Generated_Source\PSoC4/CyLib.c ****             * be applied at a frequency that is low enough.
 926:Generated_Source\PSoC4/CyLib.c ****             *
 927:Generated_Source\PSoC4/CyLib.c ****             * Comparing IMO_TRIM2 values for the current and new frequencies, since
 928:Generated_Source\PSoC4/CyLib.c ****             * IMO_TRIM2 value as a function of IMO frequency is a strictly increasing
 929:Generated_Source\PSoC4/CyLib.c ****             * function and is time-invariant.
 930:Generated_Source\PSoC4/CyLib.c ****             ***************************************************************************/
 931:Generated_Source\PSoC4/CyLib.c ****             if ((newImoTrim2Value >= CY_SYS_CLK_IMO_BOUNDARY_FREQ_TRIM2) && (freq >= CY_SYS_CLK_IMO
 932:Generated_Source\PSoC4/CyLib.c ****             {
 933:Generated_Source\PSoC4/CyLib.c ****                 /* Set boundary IMO frequency: safe for IMO above 48 MHZ trimming */
 934:Generated_Source\PSoC4/CyLib.c ****                 CY_SYS_CLK_IMO_TRIM2_REG = (uint32) cyImoFreqMhz2Reg[CY_SYS_CLK_IMO_TEMP_FREQ_MHZ -
 935:Generated_Source\PSoC4/CyLib.c ****                                                                      CY_SYS_CLK_IMO_FREQ_TABLE_OFFS
 936:Generated_Source\PSoC4/CyLib.c **** 
 937:Generated_Source\PSoC4/CyLib.c ****                 CyDelayCycles(CY_SYS_CLK_IMO_FREQ_TIMEOUT_CYCLES);
 938:Generated_Source\PSoC4/CyLib.c **** 
 939:Generated_Source\PSoC4/CyLib.c ****                 currentImoTrim2Value = CY_SYS_CLK_IMO_TEMP_FREQ_TRIM2;
 940:Generated_Source\PSoC4/CyLib.c ****             }
 941:Generated_Source\PSoC4/CyLib.c ****             else
 942:Generated_Source\PSoC4/CyLib.c ****             {
ARM GAS  C:\Users\YUANFA~1\AppData\Local\Temp\ccYDlzYT.s 			page 26


 943:Generated_Source\PSoC4/CyLib.c ****                 currentImoTrim2Value = (uint8) (CY_SYS_CLK_IMO_TRIM2_REG & CY_SYS_CLK_IMO_FREQ_BITS
 944:Generated_Source\PSoC4/CyLib.c ****             }
 945:Generated_Source\PSoC4/CyLib.c **** 
 946:Generated_Source\PSoC4/CyLib.c **** 
 947:Generated_Source\PSoC4/CyLib.c ****             /***************************************************************************
 948:Generated_Source\PSoC4/CyLib.c ****             * A trim change needs to be allowed to settle (within 5us) before the Freq
 949:Generated_Source\PSoC4/CyLib.c ****             * can be changed to a new frequency.
 950:Generated_Source\PSoC4/CyLib.c ****             *
 951:Generated_Source\PSoC4/CyLib.c ****             * Comparing IMO_TRIM2 values for the current and new frequencies, since
 952:Generated_Source\PSoC4/CyLib.c ****             * IMO_TRIM2 value as a function of IMO frequency is a strictly increasing
 953:Generated_Source\PSoC4/CyLib.c ****             * function and is time-invariant.
 954:Generated_Source\PSoC4/CyLib.c ****             ***************************************************************************/
 955:Generated_Source\PSoC4/CyLib.c ****             if (newImoTrim2Value < currentImoTrim2Value)
 956:Generated_Source\PSoC4/CyLib.c ****             {
 957:Generated_Source\PSoC4/CyLib.c ****                 /* Set new IMO frequency */
 958:Generated_Source\PSoC4/CyLib.c ****                 CY_SYS_CLK_IMO_TRIM2_REG = cyImoFreqMhz2Reg[freq - CY_SYS_CLK_IMO_FREQ_TABLE_OFFSET
 959:Generated_Source\PSoC4/CyLib.c ****                 CyDelayCycles(CY_SYS_CLK_IMO_FREQ_TIMEOUT_CYCLES);
 960:Generated_Source\PSoC4/CyLib.c ****             }
 961:Generated_Source\PSoC4/CyLib.c **** 
 962:Generated_Source\PSoC4/CyLib.c ****             /* Set trims for the new IMO frequency */
 963:Generated_Source\PSoC4/CyLib.c ****             CY_SYS_CLK_IMO_TRIM1_REG = (uint32) CY_SFLASH_IMO_TRIM_REG(freq - CY_SYS_CLK_IMO_FREQ_T
 964:Generated_Source\PSoC4/CyLib.c ****             CY_PWR_BG_TRIM4_REG  = bgTrim4;
 965:Generated_Source\PSoC4/CyLib.c ****             CY_PWR_BG_TRIM5_REG  = bgTrim5;
 966:Generated_Source\PSoC4/CyLib.c ****             CyDelayUs(CY_SYS_CLK_IMO_TRIM_TIMEOUT_US);
 967:Generated_Source\PSoC4/CyLib.c **** 
 968:Generated_Source\PSoC4/CyLib.c ****             if (newImoTrim2Value > currentImoTrim2Value)
 969:Generated_Source\PSoC4/CyLib.c ****             {
 970:Generated_Source\PSoC4/CyLib.c ****                 /* Set new IMO frequency */
 971:Generated_Source\PSoC4/CyLib.c ****                 CY_SYS_CLK_IMO_TRIM2_REG = cyImoFreqMhz2Reg[freq - CY_SYS_CLK_IMO_FREQ_TABLE_OFFSET
 972:Generated_Source\PSoC4/CyLib.c ****                 CyDelayCycles(CY_SYS_CLK_IMO_FREQ_TIMEOUT_CYCLES);
 973:Generated_Source\PSoC4/CyLib.c ****             }
 974:Generated_Source\PSoC4/CyLib.c ****         }
 975:Generated_Source\PSoC4/CyLib.c ****         else
 976:Generated_Source\PSoC4/CyLib.c ****         {
 977:Generated_Source\PSoC4/CyLib.c ****             /* Halt CPU in debug mode if new frequency is invalid */
 978:Generated_Source\PSoC4/CyLib.c ****             CYASSERT(0u != 0u);
 979:Generated_Source\PSoC4/CyLib.c ****         }
 980:Generated_Source\PSoC4/CyLib.c **** 
 981:Generated_Source\PSoC4/CyLib.c ****         #endif /* (CY_IP_FMLT) */
 982:Generated_Source\PSoC4/CyLib.c **** 
 983:Generated_Source\PSoC4/CyLib.c ****         #if (CY_IP_IMO_TRIMMABLE_BY_WCO)
 984:Generated_Source\PSoC4/CyLib.c ****             if (1u == wcoLock)
 985:Generated_Source\PSoC4/CyLib.c ****             {
 986:Generated_Source\PSoC4/CyLib.c ****                 CySysClkImoEnableWcoLock();
 987:Generated_Source\PSoC4/CyLib.c ****             }
 988:Generated_Source\PSoC4/CyLib.c ****         #endif  /* (CY_IP_IMO_TRIMMABLE_BY_WCO) */
 989:Generated_Source\PSoC4/CyLib.c **** 
 990:Generated_Source\PSoC4/CyLib.c ****         #if (CY_IP_IMO_TRIMMABLE_BY_USB)
 991:Generated_Source\PSoC4/CyLib.c ****             if (1u == usbLock)
 992:Generated_Source\PSoC4/CyLib.c ****             {
 993:Generated_Source\PSoC4/CyLib.c ****                 CySysClkImoEnableUsbLock();
 994:Generated_Source\PSoC4/CyLib.c ****             }
 995:Generated_Source\PSoC4/CyLib.c ****         #endif  /* (CY_IP_IMO_TRIMMABLE_BY_USB) */
 996:Generated_Source\PSoC4/CyLib.c **** 
 997:Generated_Source\PSoC4/CyLib.c ****         CyExitCriticalSection(interruptState);
 998:Generated_Source\PSoC4/CyLib.c ****     }
 999:Generated_Source\PSoC4/CyLib.c **** 
ARM GAS  C:\Users\YUANFA~1\AppData\Local\Temp\ccYDlzYT.s 			page 27


1000:Generated_Source\PSoC4/CyLib.c **** #else
1001:Generated_Source\PSoC4/CyLib.c **** 
1002:Generated_Source\PSoC4/CyLib.c ****     void CySysClkWriteImoFreq(uint32 freq)
1003:Generated_Source\PSoC4/CyLib.c ****     {
1004:Generated_Source\PSoC4/CyLib.c ****         uint8  interruptState;
1005:Generated_Source\PSoC4/CyLib.c ****         uint8  imoTrim1Value;
1006:Generated_Source\PSoC4/CyLib.c **** 
1007:Generated_Source\PSoC4/CyLib.c ****         #if (CY_IP_IMO_TRIMMABLE_BY_WCO)
1008:Generated_Source\PSoC4/CyLib.c ****             uint32 wcoLock = 0u;
1009:Generated_Source\PSoC4/CyLib.c ****         #endif  /* (CY_IP_IMO_TRIMMABLE_BY_WCO) */
1010:Generated_Source\PSoC4/CyLib.c **** 
1011:Generated_Source\PSoC4/CyLib.c ****         #if (CY_IP_IMO_TRIMMABLE_BY_USB)
1012:Generated_Source\PSoC4/CyLib.c ****             uint32 usbLock = 0u;
1013:Generated_Source\PSoC4/CyLib.c ****         #endif  /* (CY_IP_IMO_TRIMMABLE_BY_USB) */
1014:Generated_Source\PSoC4/CyLib.c **** 
1015:Generated_Source\PSoC4/CyLib.c ****         #if (CY_PSOC4_4000)
1016:Generated_Source\PSoC4/CyLib.c ****             if ((freq == 24u) || (freq == 32u) || (freq == 48u))
1017:Generated_Source\PSoC4/CyLib.c ****         #elif (CY_CCG3)
1018:Generated_Source\PSoC4/CyLib.c ****             if ((freq == 24u) || (freq == 36u) || (freq == 48u))
1019:Generated_Source\PSoC4/CyLib.c ****         #else
1020:Generated_Source\PSoC4/CyLib.c ****             if ((freq == 24u) || (freq == 28u) || (freq == 32u) ||
1021:Generated_Source\PSoC4/CyLib.c ****                 (freq == 36u) || (freq == 40u) || (freq == 44u) ||
1022:Generated_Source\PSoC4/CyLib.c ****                 (freq == 48u))
1023:Generated_Source\PSoC4/CyLib.c ****         #endif /* (CY_PSOC4_4000) */
1024:Generated_Source\PSoC4/CyLib.c ****         {
1025:Generated_Source\PSoC4/CyLib.c ****             interruptState = CyEnterCriticalSection();
1026:Generated_Source\PSoC4/CyLib.c **** 
1027:Generated_Source\PSoC4/CyLib.c ****             #if (CY_IP_IMO_TRIMMABLE_BY_WCO)
1028:Generated_Source\PSoC4/CyLib.c ****                 if(0u != CySysClkImoGetWcoLock())
1029:Generated_Source\PSoC4/CyLib.c ****                 {
1030:Generated_Source\PSoC4/CyLib.c ****                     wcoLock = 1u;
1031:Generated_Source\PSoC4/CyLib.c ****                     CySysClkImoDisableWcoLock();
1032:Generated_Source\PSoC4/CyLib.c ****                 }
1033:Generated_Source\PSoC4/CyLib.c ****             #endif  /* (CY_IP_IMO_TRIMMABLE_BY_WCO) */
1034:Generated_Source\PSoC4/CyLib.c **** 
1035:Generated_Source\PSoC4/CyLib.c ****             #if (CY_IP_IMO_TRIMMABLE_BY_USB)
1036:Generated_Source\PSoC4/CyLib.c **** 
1037:Generated_Source\PSoC4/CyLib.c ****                 #if (CYDEV_IMO_TRIMMED_BY_USB == 0u)
1038:Generated_Source\PSoC4/CyLib.c ****                     if(0u != CySysClkImoGetUsbLock())
1039:Generated_Source\PSoC4/CyLib.c ****                     {
1040:Generated_Source\PSoC4/CyLib.c ****                 #endif  /* (CYDEV_IMO_TRIMMED_BY_USB == 0u) */
1041:Generated_Source\PSoC4/CyLib.c **** 
1042:Generated_Source\PSoC4/CyLib.c ****                     if (48u == freq)
1043:Generated_Source\PSoC4/CyLib.c ****                     {
1044:Generated_Source\PSoC4/CyLib.c ****                         usbLock = 1u;
1045:Generated_Source\PSoC4/CyLib.c ****                         CySysClkImoDisableUsbLock();
1046:Generated_Source\PSoC4/CyLib.c ****                     }
1047:Generated_Source\PSoC4/CyLib.c **** 
1048:Generated_Source\PSoC4/CyLib.c ****                 #if (CYDEV_IMO_TRIMMED_BY_USB == 0u)
1049:Generated_Source\PSoC4/CyLib.c ****                     }
1050:Generated_Source\PSoC4/CyLib.c ****                 #endif  /* (CYDEV_IMO_TRIMMED_BY_USB == 0u) */
1051:Generated_Source\PSoC4/CyLib.c **** 
1052:Generated_Source\PSoC4/CyLib.c ****             #endif  /* (CYDEV_IMO_TRIMMED_BY_USB == 0u) */
1053:Generated_Source\PSoC4/CyLib.c **** 
1054:Generated_Source\PSoC4/CyLib.c **** 
1055:Generated_Source\PSoC4/CyLib.c ****             /* Set IMO to 24 MHz - CLK_IMO_SELECT.FREQ = 0 */
1056:Generated_Source\PSoC4/CyLib.c ****             CY_SYS_CLK_IMO_SELECT_REG &= ((uint32) ~CY_SYS_CLK_IMO_SELECT_FREQ_MASK);
ARM GAS  C:\Users\YUANFA~1\AppData\Local\Temp\ccYDlzYT.s 			page 28


1057:Generated_Source\PSoC4/CyLib.c **** 
1058:Generated_Source\PSoC4/CyLib.c **** 
1059:Generated_Source\PSoC4/CyLib.c ****             /* Apply coarse trim */
1060:Generated_Source\PSoC4/CyLib.c ****             #if (CY_IP_IMO_TRIMMABLE_BY_USB)
1061:Generated_Source\PSoC4/CyLib.c ****                 if ((1u == usbLock) && (48u == freq))
1062:Generated_Source\PSoC4/CyLib.c ****                 {
1063:Generated_Source\PSoC4/CyLib.c ****                     imoTrim1Value = CY_SFLASH_IMO_TRIM_USBMODE_48_REG;
1064:Generated_Source\PSoC4/CyLib.c ****                 }
1065:Generated_Source\PSoC4/CyLib.c ****                 else if ((1u == usbLock) && (24u == freq))
1066:Generated_Source\PSoC4/CyLib.c ****                 {
1067:Generated_Source\PSoC4/CyLib.c ****                     imoTrim1Value = CY_SFLASH_IMO_TRIM_USBMODE_24_REG;
1068:Generated_Source\PSoC4/CyLib.c ****                 }
1069:Generated_Source\PSoC4/CyLib.c ****                 else
1070:Generated_Source\PSoC4/CyLib.c ****                 {
1071:Generated_Source\PSoC4/CyLib.c ****                     imoTrim1Value = (uint8) CY_SFLASH_IMO_TRIM_REG(freq - CY_SYS_CLK_IMO_MIN_FREQ_M
1072:Generated_Source\PSoC4/CyLib.c ****                 }
1073:Generated_Source\PSoC4/CyLib.c ****             #else
1074:Generated_Source\PSoC4/CyLib.c ****                 imoTrim1Value = (uint8) CY_SFLASH_IMO_TRIM_REG(freq - CY_SYS_CLK_IMO_MIN_FREQ_MHZ);
1075:Generated_Source\PSoC4/CyLib.c ****             #endif  /* (CY_IP_IMO_TRIMMABLE_BY_USB) */
1076:Generated_Source\PSoC4/CyLib.c ****             CY_SYS_CLK_IMO_TRIM1_REG = (uint32) imoTrim1Value;
1077:Generated_Source\PSoC4/CyLib.c **** 
1078:Generated_Source\PSoC4/CyLib.c ****             /* Zero out fine trim */
1079:Generated_Source\PSoC4/CyLib.c ****             CY_SYS_CLK_IMO_TRIM2_REG = CY_SYS_CLK_IMO_TRIM2_REG & ((uint32) ~CY_SYS_CLK_IMO_TRIM2_F
1080:Generated_Source\PSoC4/CyLib.c **** 
1081:Generated_Source\PSoC4/CyLib.c ****             /* Apply TC trim */
1082:Generated_Source\PSoC4/CyLib.c ****             CY_SYS_CLK_IMO_TRIM3_REG = (CY_SYS_CLK_IMO_TRIM3_REG & ((uint32) ~CY_SYS_CLK_IMO_TRIM3_
1083:Generated_Source\PSoC4/CyLib.c ****                 (CY_SFLASH_IMO_TCTRIM_REG(freq - CY_SYS_CLK_IMO_MIN_FREQ_MHZ) & CY_SYS_CLK_IMO_TRIM
1084:Generated_Source\PSoC4/CyLib.c **** 
1085:Generated_Source\PSoC4/CyLib.c ****             CyDelayCycles(CY_SYS_CLK_IMO_TRIM_DELAY_CYCLES);
1086:Generated_Source\PSoC4/CyLib.c **** 
1087:Generated_Source\PSoC4/CyLib.c ****             if (freq > CY_SYS_CLK_IMO_MIN_FREQ_MHZ)
1088:Generated_Source\PSoC4/CyLib.c ****             {
1089:Generated_Source\PSoC4/CyLib.c ****                 /* Select nearby intermediate frequency */
1090:Generated_Source\PSoC4/CyLib.c ****                 CY_SYS_CLK_IMO_SELECT_REG = (CY_SYS_CLK_IMO_SELECT_REG & ((uint32) ~CY_SYS_CLK_IMO_
1091:Generated_Source\PSoC4/CyLib.c ****                     (((freq - 4u - CY_SYS_CLK_IMO_MIN_FREQ_MHZ) >> 2u) & CY_SYS_CLK_IMO_SELECT_FREQ
1092:Generated_Source\PSoC4/CyLib.c **** 
1093:Generated_Source\PSoC4/CyLib.c ****                 CyDelayCycles(CY_SYS_CLK_IMO_TRIM_DELAY_CYCLES);
1094:Generated_Source\PSoC4/CyLib.c **** 
1095:Generated_Source\PSoC4/CyLib.c ****                 /* Make small step to final frequency */
1096:Generated_Source\PSoC4/CyLib.c ****                 /* Select nearby intermediate frequency */
1097:Generated_Source\PSoC4/CyLib.c ****                 CY_SYS_CLK_IMO_SELECT_REG = (CY_SYS_CLK_IMO_SELECT_REG & ((uint32) ~CY_SYS_CLK_IMO_
1098:Generated_Source\PSoC4/CyLib.c ****                     (((freq - CY_SYS_CLK_IMO_MIN_FREQ_MHZ) >> 2u) & CY_SYS_CLK_IMO_SELECT_FREQ_MASK
1099:Generated_Source\PSoC4/CyLib.c ****             }
1100:Generated_Source\PSoC4/CyLib.c **** 
1101:Generated_Source\PSoC4/CyLib.c ****             #if (CY_IP_IMO_TRIMMABLE_BY_WCO)
1102:Generated_Source\PSoC4/CyLib.c ****                 if (1u == wcoLock)
1103:Generated_Source\PSoC4/CyLib.c ****                 {
1104:Generated_Source\PSoC4/CyLib.c ****                     CySysClkImoEnableWcoLock();
1105:Generated_Source\PSoC4/CyLib.c ****                 }
1106:Generated_Source\PSoC4/CyLib.c ****             #endif  /* (CY_IP_IMO_TRIMMABLE_BY_WCO) */
1107:Generated_Source\PSoC4/CyLib.c **** 
1108:Generated_Source\PSoC4/CyLib.c **** 
1109:Generated_Source\PSoC4/CyLib.c ****             #if (CY_IP_IMO_TRIMMABLE_BY_USB)
1110:Generated_Source\PSoC4/CyLib.c ****                 if (1u == usbLock)
1111:Generated_Source\PSoC4/CyLib.c ****                 {
1112:Generated_Source\PSoC4/CyLib.c ****                     CySysClkImoEnableUsbLock();
1113:Generated_Source\PSoC4/CyLib.c ****                 }
ARM GAS  C:\Users\YUANFA~1\AppData\Local\Temp\ccYDlzYT.s 			page 29


1114:Generated_Source\PSoC4/CyLib.c ****             #endif  /* (CY_IP_IMO_TRIMMABLE_BY_USB) */
1115:Generated_Source\PSoC4/CyLib.c **** 
1116:Generated_Source\PSoC4/CyLib.c ****             CyExitCriticalSection(interruptState);
1117:Generated_Source\PSoC4/CyLib.c ****         }
1118:Generated_Source\PSoC4/CyLib.c ****         else
1119:Generated_Source\PSoC4/CyLib.c ****         {
1120:Generated_Source\PSoC4/CyLib.c ****             /* Halt CPU in debug mode if new frequency is invalid */
1121:Generated_Source\PSoC4/CyLib.c ****             CYASSERT(0u != 0u);
1122:Generated_Source\PSoC4/CyLib.c ****         }
1123:Generated_Source\PSoC4/CyLib.c ****     }
1124:Generated_Source\PSoC4/CyLib.c **** 
1125:Generated_Source\PSoC4/CyLib.c **** #endif /* (CY_IP_SRSSV2) */
1126:Generated_Source\PSoC4/CyLib.c **** 
1127:Generated_Source\PSoC4/CyLib.c **** 
1128:Generated_Source\PSoC4/CyLib.c **** #if(CY_IP_SRSSLT)
1129:Generated_Source\PSoC4/CyLib.c ****     /*******************************************************************************
1130:Generated_Source\PSoC4/CyLib.c ****     * Function Name: CySysClkWriteHfclkDiv
1131:Generated_Source\PSoC4/CyLib.c ****     ****************************************************************************//**
1132:Generated_Source\PSoC4/CyLib.c ****     *
1133:Generated_Source\PSoC4/CyLib.c ****     * Selects the pre-scaler divider value for HFCLK from IMO.
1134:Generated_Source\PSoC4/CyLib.c ****     *
1135:Generated_Source\PSoC4/CyLib.c ****     * The HFCLK predivider allows the device to divide the HFCLK selection mux
1136:Generated_Source\PSoC4/CyLib.c ****     * input before use as HFCLK. The predivider is capable of dividing the HFCLK by
1137:Generated_Source\PSoC4/CyLib.c ****     * powers of 2 between 1 and 8.
1138:Generated_Source\PSoC4/CyLib.c ****     *
1139:Generated_Source\PSoC4/CyLib.c ****     * PSoC 4000: The SYSCLK has the speed of 16 MHz, so HFCLK and SYSCLK dividers
1140:Generated_Source\PSoC4/CyLib.c ****     * should be selected in a way, not to exceed 16 MHz for SYSCLK.
1141:Generated_Source\PSoC4/CyLib.c ****     *
1142:Generated_Source\PSoC4/CyLib.c ****     * If the SYSCLK clock frequency increases during the device operation, call
1143:Generated_Source\PSoC4/CyLib.c ****     * \ref CySysFlashSetWaitCycles() with the appropriate parameter to adjust the
1144:Generated_Source\PSoC4/CyLib.c ****     * number of clock cycles the cache will wait before sampling data comes back
1145:Generated_Source\PSoC4/CyLib.c ****     * from Flash. If the SYSCLK clock frequency decreases, you can call
1146:Generated_Source\PSoC4/CyLib.c ****     * \ref CySysFlashSetWaitCycles() to improve the CPU performance. See
1147:Generated_Source\PSoC4/CyLib.c ****     * \ref CySysFlashSetWaitCycles() description for more information.
1148:Generated_Source\PSoC4/CyLib.c ****     *
1149:Generated_Source\PSoC4/CyLib.c ****     * \param \ref CY_SYS_CLK_HFCLK_DIV_NODIV    Transparent mode (w/o dividing)
1150:Generated_Source\PSoC4/CyLib.c ****     * \param \ref CY_SYS_CLK_HFCLK_DIV_2        Divide selected clock source by 2
1151:Generated_Source\PSoC4/CyLib.c ****     * \param \ref CY_SYS_CLK_HFCLK_DIV_4        Divide selected clock source by 4
1152:Generated_Source\PSoC4/CyLib.c ****     * \param \ref CY_SYS_CLK_HFCLK_DIV_8        Divide selected clock source by 8
1153:Generated_Source\PSoC4/CyLib.c ****     *
1154:Generated_Source\PSoC4/CyLib.c ****     *******************************************************************************/
1155:Generated_Source\PSoC4/CyLib.c ****     void CySysClkWriteHfclkDiv(uint32 divider)
1156:Generated_Source\PSoC4/CyLib.c ****     {
 474              		.loc 1 1156 0
 475              		.cfi_startproc
 476              		@ args = 0, pretend = 0, frame = 0
 477              		@ frame_needed = 0, uses_anonymous_args = 0
 478              	.LVL32:
 479 0000 70B5     		push	{r4, r5, r6, lr}
 480              		.cfi_def_cfa_offset 16
 481              		.cfi_offset 4, -16
 482              		.cfi_offset 5, -12
 483              		.cfi_offset 6, -8
 484              		.cfi_offset 14, -4
 485 0002 0400     		movs	r4, r0
1157:Generated_Source\PSoC4/CyLib.c ****         uint8  interruptState;
1158:Generated_Source\PSoC4/CyLib.c **** 
ARM GAS  C:\Users\YUANFA~1\AppData\Local\Temp\ccYDlzYT.s 			page 30


1159:Generated_Source\PSoC4/CyLib.c ****         interruptState = CyEnterCriticalSection();
 486              		.loc 1 1159 0
 487 0004 FFF7FEFF 		bl	CyEnterCriticalSection
 488              	.LVL33:
1160:Generated_Source\PSoC4/CyLib.c **** 
1161:Generated_Source\PSoC4/CyLib.c ****         CY_SYS_CLK_SELECT_REG = ((CY_SYS_CLK_SELECT_REG & ((uint32) (~(CY_SYS_CLK_SELECT_HFCLK_DIV_
 489              		.loc 1 1161 0
 490 0008 0549     		ldr	r1, .L34
 491 000a 0A68     		ldr	r2, [r1]
 492 000c 0C25     		movs	r5, #12
 493 000e AA43     		bics	r2, r5
1162:Generated_Source\PSoC4/CyLib.c ****                                         CY_SYS_CLK_SELECT_HFCLK_DIV_SHIFT)))) |
1163:Generated_Source\PSoC4/CyLib.c ****                     ((uint32)((divider & CY_SYS_CLK_SELECT_HFCLK_DIV_MASK) << CY_SYS_CLK_SELECT_HFC
 494              		.loc 1 1163 0
 495 0010 A300     		lsls	r3, r4, #2
 496 0012 2C00     		movs	r4, r5
 497              	.LVL34:
 498 0014 1C40     		ands	r4, r3
1162:Generated_Source\PSoC4/CyLib.c ****                                         CY_SYS_CLK_SELECT_HFCLK_DIV_SHIFT)))) |
 499              		.loc 1 1162 0
 500 0016 1443     		orrs	r4, r2
1161:Generated_Source\PSoC4/CyLib.c ****                                         CY_SYS_CLK_SELECT_HFCLK_DIV_SHIFT)))) |
 501              		.loc 1 1161 0
 502 0018 0C60     		str	r4, [r1]
1164:Generated_Source\PSoC4/CyLib.c **** 
1165:Generated_Source\PSoC4/CyLib.c ****         CyExitCriticalSection(interruptState);
 503              		.loc 1 1165 0
 504 001a FFF7FEFF 		bl	CyExitCriticalSection
 505              	.LVL35:
1166:Generated_Source\PSoC4/CyLib.c ****     }
 506              		.loc 1 1166 0
 507              		@ sp needed
 508 001e 70BD     		pop	{r4, r5, r6, pc}
 509              	.L35:
 510              		.align	2
 511              	.L34:
 512 0020 28000340 		.word	1073938472
 513              		.cfi_endproc
 514              	.LFE11:
 515              		.size	CySysClkWriteHfclkDiv, .-CySysClkWriteHfclkDiv
 516              		.section	.text.CySysClkEcoStop,"ax",%progbits
 517              		.align	2
 518              		.global	CySysClkEcoStop
 519              		.code	16
 520              		.thumb_func
 521              		.type	CySysClkEcoStop, %function
 522              	CySysClkEcoStop:
 523              	.LFB13:
1167:Generated_Source\PSoC4/CyLib.c **** #endif /* (CY_IP_SRSSLT) */
1168:Generated_Source\PSoC4/CyLib.c **** 
1169:Generated_Source\PSoC4/CyLib.c **** 
1170:Generated_Source\PSoC4/CyLib.c **** #if (CY_IP_ECO)
1171:Generated_Source\PSoC4/CyLib.c **** 
1172:Generated_Source\PSoC4/CyLib.c ****     /*******************************************************************************
1173:Generated_Source\PSoC4/CyLib.c ****     * Function Name: CySysClkEcoStart
1174:Generated_Source\PSoC4/CyLib.c ****     ****************************************************************************//**
1175:Generated_Source\PSoC4/CyLib.c ****     *
ARM GAS  C:\Users\YUANFA~1\AppData\Local\Temp\ccYDlzYT.s 			page 31


1176:Generated_Source\PSoC4/CyLib.c ****     * Starts the External Crystal Oscillator (ECO). Refer to the device datasheet
1177:Generated_Source\PSoC4/CyLib.c ****     * for the ECO startup time.
1178:Generated_Source\PSoC4/CyLib.c ****     *
1179:Generated_Source\PSoC4/CyLib.c ****     * The timeout interval is measured based on the system frequency defined by
1180:Generated_Source\PSoC4/CyLib.c ****     * PSoC Creator at build time. If System clock frequency is changed in
1181:Generated_Source\PSoC4/CyLib.c ****     * runtime, the \ref CyDelayFreq() with the appropriate parameter should be
1182:Generated_Source\PSoC4/CyLib.c ****     * called.
1183:Generated_Source\PSoC4/CyLib.c ****     *
1184:Generated_Source\PSoC4/CyLib.c ****     * PSoC 4100 BLE / PSoC 4200 BLE: The WCO must be enabled prior to enabling ECO.
1185:Generated_Source\PSoC4/CyLib.c ****     *
1186:Generated_Source\PSoC4/CyLib.c ****     * \param timeoutUs Timeout in microseconds.
1187:Generated_Source\PSoC4/CyLib.c ****     *
1188:Generated_Source\PSoC4/CyLib.c ****     * If zero is specified, the function does not wait for timeout and returns
1189:Generated_Source\PSoC4/CyLib.c ****     * CYRET_SUCCESS. If non-zero is specified, the function waits for the timeout.
1190:Generated_Source\PSoC4/CyLib.c ****     *
1191:Generated_Source\PSoC4/CyLib.c ****     * \return \ref CYRET_SUCCESS Completed successfully. The ECO is oscillating and
1192:Generated_Source\PSoC4/CyLib.c ****     * amplitude reached 60% and it does not mean 24 MHz crystal is within 50 ppm.
1193:Generated_Source\PSoC4/CyLib.c ****     *
1194:Generated_Source\PSoC4/CyLib.c ****     * \return \ref CYRET_TIMEOUT Timeout occurred. If the crystal is not oscillating
1195:Generated_Source\PSoC4/CyLib.c ****     * or amplitude didn't reach 60% after specified amount of time, CYRET_TIMEOUT
1196:Generated_Source\PSoC4/CyLib.c ****     * is returned.
1197:Generated_Source\PSoC4/CyLib.c ****     *
1198:Generated_Source\PSoC4/CyLib.c ****     * \return \ref CYRET_BAD_PARAM One or more invalid parameters.
1199:Generated_Source\PSoC4/CyLib.c ****     *
1200:Generated_Source\PSoC4/CyLib.c ****     *******************************************************************************/
1201:Generated_Source\PSoC4/CyLib.c ****     cystatus CySysClkEcoStart(uint32 timeoutUs)
1202:Generated_Source\PSoC4/CyLib.c ****     {
1203:Generated_Source\PSoC4/CyLib.c ****         cystatus returnStatus = CYRET_SUCCESS;
1204:Generated_Source\PSoC4/CyLib.c **** 
1205:Generated_Source\PSoC4/CyLib.c ****         #if (CY_IP_ECO_BLESS)
1206:Generated_Source\PSoC4/CyLib.c ****             /* Enable the RF oscillator band gap */
1207:Generated_Source\PSoC4/CyLib.c ****             CY_SYS_XTAL_BLESS_RF_CONFIG_REG |= CY_SYS_XTAL_BLESS_RF_CONFIG_RF_ENABLE;
1208:Generated_Source\PSoC4/CyLib.c **** 
1209:Generated_Source\PSoC4/CyLib.c ****             /* Update trimming register */
1210:Generated_Source\PSoC4/CyLib.c ****             CY_SYS_XTAL_BLERD_BB_XO_REG = CY_SYS_XTAL_BLERD_BB_XO_TRIM;
1211:Generated_Source\PSoC4/CyLib.c **** 
1212:Generated_Source\PSoC4/CyLib.c ****             /* Enable the Crystal */
1213:Generated_Source\PSoC4/CyLib.c ****             CY_SYS_XTAL_BLERD_DBUS_REG |= CY_SYS_XTAL_BLERD_DBUS_XTAL_ENABLE;
1214:Generated_Source\PSoC4/CyLib.c **** 
1215:Generated_Source\PSoC4/CyLib.c ****         #elif (CY_IP_ECO_BLESSV3)
1216:Generated_Source\PSoC4/CyLib.c ****             uint32 regConfig;
1217:Generated_Source\PSoC4/CyLib.c ****             uint32 intrRegMaskStore = 0u;
1218:Generated_Source\PSoC4/CyLib.c **** 
1219:Generated_Source\PSoC4/CyLib.c ****             if (0u != (CY_SYS_BLESS_MT_CFG_REG & (CY_SYS_BLESS_MT_CFG_ENABLE_BLERD <<  CYFLD_BLE_BL
1220:Generated_Source\PSoC4/CyLib.c ****             {
1221:Generated_Source\PSoC4/CyLib.c ****                 CY_SYS_BLESS_MT_CFG_REG |= (CY_SYS_BLESS_MT_CFG_DPSLP_ECO_ON  <<  CYFLD_BLE_BLESS_D
1222:Generated_Source\PSoC4/CyLib.c ****             }
1223:Generated_Source\PSoC4/CyLib.c ****             else
1224:Generated_Source\PSoC4/CyLib.c ****             {
1225:Generated_Source\PSoC4/CyLib.c ****                 /* Init BLE core */
1226:Generated_Source\PSoC4/CyLib.c ****                 CY_SYS_BLESS_MT_DELAY_CFG_REG = CY_SYS_BLESS_MT_DELAY_CFG_INIT;
1227:Generated_Source\PSoC4/CyLib.c ****                 CY_SYS_BLESS_MT_DELAY_CFG2_REG = CY_SYS_BLESS_MT_DELAY_CFG2_INIT;
1228:Generated_Source\PSoC4/CyLib.c ****                 CY_SYS_BLESS_MT_DELAY_CFG3_REG = CY_SYS_BLESS_MT_DELAY_CFG3_INIT;
1229:Generated_Source\PSoC4/CyLib.c **** 
1230:Generated_Source\PSoC4/CyLib.c ****                 /* RCB init */
1231:Generated_Source\PSoC4/CyLib.c ****                 regConfig = CY_SYS_RCB_CTRL_REG;
1232:Generated_Source\PSoC4/CyLib.c ****                 regConfig &= CY_SYS_RCB_CTRL_CLEAR;
ARM GAS  C:\Users\YUANFA~1\AppData\Local\Temp\ccYDlzYT.s 			page 32


1233:Generated_Source\PSoC4/CyLib.c ****                 regConfig |= CY_SYS_RCB_CTRL_INIT;
1234:Generated_Source\PSoC4/CyLib.c ****                 CY_SYS_RCB_CTRL_REG = regConfig;
1235:Generated_Source\PSoC4/CyLib.c **** 
1236:Generated_Source\PSoC4/CyLib.c ****                 intrRegMaskStore = CY_SYS_BLESS_INTR_MASK_REG;
1237:Generated_Source\PSoC4/CyLib.c ****                 if(0u != (CY_SYS_BLESS_BLERD_ACTIVE_INTR_MASK & intrRegMaskStore))
1238:Generated_Source\PSoC4/CyLib.c ****                 {
1239:Generated_Source\PSoC4/CyLib.c ****                     CY_SYS_BLESS_INTR_MASK_REG &= ~CY_SYS_BLESS_BLERD_ACTIVE_INTR_MASK;
1240:Generated_Source\PSoC4/CyLib.c ****                 }
1241:Generated_Source\PSoC4/CyLib.c **** 
1242:Generated_Source\PSoC4/CyLib.c ****                 /* Enable BLE core */
1243:Generated_Source\PSoC4/CyLib.c ****                 regConfig = CY_SYS_BLESS_MT_CFG_REG;
1244:Generated_Source\PSoC4/CyLib.c ****                 regConfig &= CY_SYS_BLESS_MT_CFG_CLEAR;
1245:Generated_Source\PSoC4/CyLib.c ****                 regConfig |= CY_SYS_BLESS_MT_CFG_INIT;
1246:Generated_Source\PSoC4/CyLib.c ****                 CY_SYS_BLESS_MT_CFG_REG = regConfig;
1247:Generated_Source\PSoC4/CyLib.c **** 
1248:Generated_Source\PSoC4/CyLib.c ****                 while(0u == ((CY_SYS_BLESS_BLERD_ACTIVE_INTR_STAT & CY_SYS_BLESS_INTR_STAT_REG)))
1249:Generated_Source\PSoC4/CyLib.c ****                 {
1250:Generated_Source\PSoC4/CyLib.c ****                     /* Wait until BLERD55 moves to active state */
1251:Generated_Source\PSoC4/CyLib.c ****                 }
1252:Generated_Source\PSoC4/CyLib.c **** 
1253:Generated_Source\PSoC4/CyLib.c ****                 if(0u != (CY_SYS_BLESS_BLERD_ACTIVE_INTR_MASK & intrRegMaskStore))
1254:Generated_Source\PSoC4/CyLib.c ****                 {
1255:Generated_Source\PSoC4/CyLib.c ****                     CY_SYS_BLESS_INTR_MASK_REG |= CY_SYS_BLESS_BLERD_ACTIVE_INTR_MASK;
1256:Generated_Source\PSoC4/CyLib.c ****                 }
1257:Generated_Source\PSoC4/CyLib.c **** 
1258:Generated_Source\PSoC4/CyLib.c ****                 /* Send write commands to RBUS */
1259:Generated_Source\PSoC4/CyLib.c ****                 CY_SYS_RCB_TX_FIFO_WR_REG = CY_SYS_RCB_RBUS_FREQ_NRST_SET;
1260:Generated_Source\PSoC4/CyLib.c ****                 CY_SYS_RCB_TX_FIFO_WR_REG = CY_SYS_RCB_RBUS_DIG_CLK_SET;
1261:Generated_Source\PSoC4/CyLib.c **** 
1262:Generated_Source\PSoC4/CyLib.c ****                 #if (CY_SYS_BLE_CLK_ECO_FREQ_32MHZ == CYDEV_ECO_CLK_MHZ)
1263:Generated_Source\PSoC4/CyLib.c ****                     CY_SYS_RCB_TX_FIFO_WR_REG = CY_SYS_RCB_RBUS_FREQ_XTAL_DIV_SET;
1264:Generated_Source\PSoC4/CyLib.c ****                     CY_SYS_RCB_TX_FIFO_WR_REG = (CY_SYS_RCB_RBUS_RF_DCXO_CFG_SET | CY_SYS_RCB_RBUS_
1265:Generated_Source\PSoC4/CyLib.c ****                 #else
1266:Generated_Source\PSoC4/CyLib.c ****                     CY_SYS_RCB_TX_FIFO_WR_REG = CY_SYS_RCB_RBUS_FREQ_XTAL_NODIV_SET;
1267:Generated_Source\PSoC4/CyLib.c ****                 #endif
1268:Generated_Source\PSoC4/CyLib.c **** 
1269:Generated_Source\PSoC4/CyLib.c ****                 intrRegMaskStore = CY_SYS_BLESS_INTR_MASK_REG;
1270:Generated_Source\PSoC4/CyLib.c ****                 if(0u != (CY_SYS_RCB_INTR_RCB_DONE & intrRegMaskStore))
1271:Generated_Source\PSoC4/CyLib.c ****                 {
1272:Generated_Source\PSoC4/CyLib.c ****                     CY_SYS_BLESS_INTR_MASK_REG &= ~(CY_SYS_RCB_INTR_RCB_DONE | CY_SYS_RCB_INTR_RCB_
1273:Generated_Source\PSoC4/CyLib.c ****                 }
1274:Generated_Source\PSoC4/CyLib.c **** 
1275:Generated_Source\PSoC4/CyLib.c ****                 /* Send read commands to RBUS */
1276:Generated_Source\PSoC4/CyLib.c ****                 CY_SYS_RCB_TX_FIFO_WR_REG = (CY_SYS_RCB_RBUS_RD_CMD |
1277:Generated_Source\PSoC4/CyLib.c ****                                             (CY_SYS_RCB_RBUS_RF_DCXO_CFG_SET & ~CY_SYS_RCB_RBUS_VAL
1278:Generated_Source\PSoC4/CyLib.c **** 
1279:Generated_Source\PSoC4/CyLib.c ****                 while (0u == (CY_SYS_RCB_INTR_RCB_RX_FIFO_NOT_EMPTY & CY_SYS_RCB_INTR_REG))
1280:Generated_Source\PSoC4/CyLib.c ****                 {
1281:Generated_Source\PSoC4/CyLib.c ****                     /* Wait until RX_FIFO_NOT_EMPTY state */
1282:Generated_Source\PSoC4/CyLib.c ****                 }
1283:Generated_Source\PSoC4/CyLib.c **** 
1284:Generated_Source\PSoC4/CyLib.c ****                 CY_SYS_RCB_INTR_REG |= CY_SYS_RCB_INTR_RCB_DONE;
1285:Generated_Source\PSoC4/CyLib.c **** 
1286:Generated_Source\PSoC4/CyLib.c ****                 regConfig = CY_SYS_RCB_RX_FIFO_RD_REG & CY_SYS_RCB_RBUS_TRIM_MASK;
1287:Generated_Source\PSoC4/CyLib.c **** 
1288:Generated_Source\PSoC4/CyLib.c ****                 /* Send write commands to RBUS */
1289:Generated_Source\PSoC4/CyLib.c ****                 CY_SYS_RCB_TX_FIFO_WR_REG = (CY_SYS_RCB_RBUS_RF_DCXO_CFG_SET | regConfig | CY_SYS_R
ARM GAS  C:\Users\YUANFA~1\AppData\Local\Temp\ccYDlzYT.s 			page 33


1290:Generated_Source\PSoC4/CyLib.c **** 
1291:Generated_Source\PSoC4/CyLib.c ****                 while (0u == (CY_SYS_RCB_INTR_RCB_DONE & CY_SYS_RCB_INTR_REG))
1292:Generated_Source\PSoC4/CyLib.c ****                 {
1293:Generated_Source\PSoC4/CyLib.c ****                     /* Wait until RCB_DONE state */
1294:Generated_Source\PSoC4/CyLib.c ****                 }
1295:Generated_Source\PSoC4/CyLib.c **** 
1296:Generated_Source\PSoC4/CyLib.c ****                 /* Clear Interrupt */
1297:Generated_Source\PSoC4/CyLib.c ****                 CY_SYS_RCB_INTR_REG = CY_SYS_RCB_INTR_CLEAR;
1298:Generated_Source\PSoC4/CyLib.c **** 
1299:Generated_Source\PSoC4/CyLib.c ****                 if(0u != ((CY_SYS_RCB_INTR_RCB_DONE | CY_SYS_RCB_INTR_RCB_RX_FIFO_NOT_EMPTY) & intr
1300:Generated_Source\PSoC4/CyLib.c ****                 {
1301:Generated_Source\PSoC4/CyLib.c ****                     CY_SYS_BLESS_INTR_MASK_REG |= intrRegMaskStore;
1302:Generated_Source\PSoC4/CyLib.c ****                 }
1303:Generated_Source\PSoC4/CyLib.c **** 
1304:Generated_Source\PSoC4/CyLib.c ****             }
1305:Generated_Source\PSoC4/CyLib.c ****         #else /* CY_IP_ECO_SRSSV2 || CY_IP_ECO_SRSSLT */
1306:Generated_Source\PSoC4/CyLib.c ****             CY_SYS_CLK_ECO_CONFIG_REG |= CY_SYS_CLK_ECO_CONFIG_ENABLE;
1307:Generated_Source\PSoC4/CyLib.c ****             CyDelayUs(CY_SYS_CLK_ECO_CONFIG_CLK_EN_TIMEOUT_US);
1308:Generated_Source\PSoC4/CyLib.c ****             #if (CY_IP_ECOV2_SRSSLT)
1309:Generated_Source\PSoC4/CyLib.c ****                 CySysClkPllClearPendingInterrupt(CY_SYS_PLL_INTR_WD_ERR);
1310:Generated_Source\PSoC4/CyLib.c ****             #endif /* (CY_IP_ECOV2_SRSSLT) */
1311:Generated_Source\PSoC4/CyLib.c ****             CY_SYS_CLK_ECO_CONFIG_REG |= CY_SYS_CLK_ECO_CONFIG_CLK_EN;
1312:Generated_Source\PSoC4/CyLib.c ****         #endif /* (CY_IP_ECO_BLESS) */
1313:Generated_Source\PSoC4/CyLib.c **** 
1314:Generated_Source\PSoC4/CyLib.c ****         if(timeoutUs > 0u)
1315:Generated_Source\PSoC4/CyLib.c ****         {
1316:Generated_Source\PSoC4/CyLib.c ****             returnStatus = CYRET_TIMEOUT;
1317:Generated_Source\PSoC4/CyLib.c **** 
1318:Generated_Source\PSoC4/CyLib.c ****             for( ; timeoutUs > 0u; timeoutUs--)
1319:Generated_Source\PSoC4/CyLib.c ****             {
1320:Generated_Source\PSoC4/CyLib.c ****                 CyDelayUs(1u);
1321:Generated_Source\PSoC4/CyLib.c **** 
1322:Generated_Source\PSoC4/CyLib.c ****                 if(0u != CySysClkEcoReadStatus())
1323:Generated_Source\PSoC4/CyLib.c ****                 {
1324:Generated_Source\PSoC4/CyLib.c ****                     returnStatus = CYRET_SUCCESS;
1325:Generated_Source\PSoC4/CyLib.c ****                     break;
1326:Generated_Source\PSoC4/CyLib.c ****                 }
1327:Generated_Source\PSoC4/CyLib.c ****             }
1328:Generated_Source\PSoC4/CyLib.c **** 
1329:Generated_Source\PSoC4/CyLib.c ****         }
1330:Generated_Source\PSoC4/CyLib.c **** 
1331:Generated_Source\PSoC4/CyLib.c ****         return(returnStatus);
1332:Generated_Source\PSoC4/CyLib.c ****     }
1333:Generated_Source\PSoC4/CyLib.c **** 
1334:Generated_Source\PSoC4/CyLib.c **** 
1335:Generated_Source\PSoC4/CyLib.c ****     /*******************************************************************************
1336:Generated_Source\PSoC4/CyLib.c ****     * Function Name: CySysClkEcoStop
1337:Generated_Source\PSoC4/CyLib.c ****     ****************************************************************************//**
1338:Generated_Source\PSoC4/CyLib.c ****     *
1339:Generated_Source\PSoC4/CyLib.c ****     * Stops the megahertz crystal.
1340:Generated_Source\PSoC4/CyLib.c ****     *
1341:Generated_Source\PSoC4/CyLib.c ****     * If ECO is disabled when it is sourcing HFCLK, the CPU will halt. In addition,
1342:Generated_Source\PSoC4/CyLib.c ****     * for PSoC 4100 BLE / PSoC 4200 BLE devices, the BLE sub-system will stop
1343:Generated_Source\PSoC4/CyLib.c ****     * functioning.
1344:Generated_Source\PSoC4/CyLib.c ****     *
1345:Generated_Source\PSoC4/CyLib.c ****     *******************************************************************************/
1346:Generated_Source\PSoC4/CyLib.c ****     void CySysClkEcoStop(void)
ARM GAS  C:\Users\YUANFA~1\AppData\Local\Temp\ccYDlzYT.s 			page 34


1347:Generated_Source\PSoC4/CyLib.c ****     {
 524              		.loc 1 1347 0
 525              		.cfi_startproc
 526              		@ args = 0, pretend = 0, frame = 0
 527              		@ frame_needed = 0, uses_anonymous_args = 0
 528              		@ link register save eliminated.
1348:Generated_Source\PSoC4/CyLib.c ****         #if (CY_IP_WCO_BLESS)
1349:Generated_Source\PSoC4/CyLib.c ****             /* Disable the RF oscillator band gap */
1350:Generated_Source\PSoC4/CyLib.c ****             CY_SYS_XTAL_BLESS_RF_CONFIG_REG &= (uint32) ~CY_SYS_XTAL_BLESS_RF_CONFIG_RF_ENABLE;
1351:Generated_Source\PSoC4/CyLib.c **** 
1352:Generated_Source\PSoC4/CyLib.c ****             /* Disable the Crystal */
1353:Generated_Source\PSoC4/CyLib.c ****             CY_SYS_XTAL_BLERD_DBUS_REG &= (uint32) ~CY_SYS_XTAL_BLERD_DBUS_XTAL_ENABLE;
1354:Generated_Source\PSoC4/CyLib.c ****         #elif (CY_IP_ECO_BLESSV3)
1355:Generated_Source\PSoC4/CyLib.c ****             CY_SYS_BLESS_MT_CFG_REG &= ~(CY_SYS_BLESS_MT_CFG_DPSLP_ECO_ON  <<  CYFLD_BLE_BLESS_DPSL
1356:Generated_Source\PSoC4/CyLib.c ****         #else
1357:Generated_Source\PSoC4/CyLib.c ****             CY_SYS_CLK_ECO_CONFIG_REG &= (uint32) ~(CY_SYS_CLK_ECO_CONFIG_ENABLE | CY_SYS_CLK_ECO_C
 529              		.loc 1 1357 0
 530 0000 024A     		ldr	r2, .L37
 531 0002 1168     		ldr	r1, [r2]
 532 0004 024B     		ldr	r3, .L37+4
 533 0006 0B40     		ands	r3, r1
 534 0008 1360     		str	r3, [r2]
1358:Generated_Source\PSoC4/CyLib.c ****         #endif /* (CY_IP_WCO_BLESS) */
1359:Generated_Source\PSoC4/CyLib.c ****     }
 535              		.loc 1 1359 0
 536              		@ sp needed
 537 000a 7047     		bx	lr
 538              	.L38:
 539              		.align	2
 540              	.L37:
 541 000c 08002F40 		.word	1076822024
 542 0010 FEFFFF7F 		.word	2147483646
 543              		.cfi_endproc
 544              	.LFE13:
 545              		.size	CySysClkEcoStop, .-CySysClkEcoStop
 546              		.section	.text.CySysClkEcoReadStatus,"ax",%progbits
 547              		.align	2
 548              		.global	CySysClkEcoReadStatus
 549              		.code	16
 550              		.thumb_func
 551              		.type	CySysClkEcoReadStatus, %function
 552              	CySysClkEcoReadStatus:
 553              	.LFB14:
1360:Generated_Source\PSoC4/CyLib.c **** 
1361:Generated_Source\PSoC4/CyLib.c **** 
1362:Generated_Source\PSoC4/CyLib.c ****     /*******************************************************************************
1363:Generated_Source\PSoC4/CyLib.c ****     * Function Name: CySysClkEcoReadStatus
1364:Generated_Source\PSoC4/CyLib.c ****     ****************************************************************************//**
1365:Generated_Source\PSoC4/CyLib.c ****     *
1366:Generated_Source\PSoC4/CyLib.c ****     * Reads the status bit for the megahertz crystal.
1367:Generated_Source\PSoC4/CyLib.c ****     *
1368:Generated_Source\PSoC4/CyLib.c ****     * For PSoC 4100 BLE / PSoC 4200 BLE devices, the status bit is the
1369:Generated_Source\PSoC4/CyLib.c ****     * XO_AMP_DETECT bit in FSM register.
1370:Generated_Source\PSoC4/CyLib.c ****     *
1371:Generated_Source\PSoC4/CyLib.c ****     * For PSoC 4200L / 4100S / 4500 with ECO devices, the error status bit is
1372:Generated_Source\PSoC4/CyLib.c ****     * the WATCHDOG_ERROR bit in ECO_STATUS register.
1373:Generated_Source\PSoC4/CyLib.c ****     *
ARM GAS  C:\Users\YUANFA~1\AppData\Local\Temp\ccYDlzYT.s 			page 35


1374:Generated_Source\PSoC4/CyLib.c ****     * \return PSoC 4100 BLE/PSoC 4200 BLE: Non-zero indicates that ECO output
1375:Generated_Source\PSoC4/CyLib.c ****     * reached 50 ppm and is oscillating in valid range.
1376:Generated_Source\PSoC4/CyLib.c ****     *
1377:Generated_Source\PSoC4/CyLib.c ****     * \return PSoC 4200L / 4100S / 4500 with ECO: Non-zero indicates that ECO
1378:Generated_Source\PSoC4/CyLib.c ****     * is running.
1379:Generated_Source\PSoC4/CyLib.c ****     *
1380:Generated_Source\PSoC4/CyLib.c ****     *******************************************************************************/
1381:Generated_Source\PSoC4/CyLib.c ****     uint32 CySysClkEcoReadStatus(void)
1382:Generated_Source\PSoC4/CyLib.c ****     {
 554              		.loc 1 1382 0
 555              		.cfi_startproc
 556              		@ args = 0, pretend = 0, frame = 0
 557              		@ frame_needed = 0, uses_anonymous_args = 0
 558              		@ link register save eliminated.
1383:Generated_Source\PSoC4/CyLib.c ****         uint32 returnValue;
1384:Generated_Source\PSoC4/CyLib.c **** 
1385:Generated_Source\PSoC4/CyLib.c ****         #if (CY_IP_WCO_BLESS)
1386:Generated_Source\PSoC4/CyLib.c ****             returnValue = CY_SYS_XTAL_BLERD_FSM_REG & CY_SYS_XTAL_BLERD_FSM_XO_AMP_DETECT;
1387:Generated_Source\PSoC4/CyLib.c ****         #elif (CY_IP_ECO_BLESSV3)
1388:Generated_Source\PSoC4/CyLib.c ****             returnValue = (CY_SYS_BLESS_MT_STATUS_REG & CY_SYS_BLESS_MT_STATUS_CURR_STATE_MASK) >> 
1389:Generated_Source\PSoC4/CyLib.c **** 
1390:Generated_Source\PSoC4/CyLib.c ****             returnValue =  ((CY_SYS_BLESS_MT_STATUS_BLERD_IDLE == returnValue) ||
1391:Generated_Source\PSoC4/CyLib.c ****                             (CY_SYS_BLESS_MT_STATUS_SWITCH_EN  == returnValue) ||
1392:Generated_Source\PSoC4/CyLib.c ****                             (CY_SYS_BLESS_MT_STATUS_ACTIVE  ==  returnValue) ||
1393:Generated_Source\PSoC4/CyLib.c ****                             (CY_SYS_BLESS_MT_STATUS_ISOLATE == returnValue));
1394:Generated_Source\PSoC4/CyLib.c ****         #else
1395:Generated_Source\PSoC4/CyLib.c ****             returnValue = (0u != (CY_SYS_CLK_ECO_STATUS_REG & CY_SYS_CLK_ECO_STATUS_WATCHDOG_ERROR)
 559              		.loc 1 1395 0
 560 0000 034B     		ldr	r3, .L40
 561 0002 1B68     		ldr	r3, [r3]
 562 0004 0120     		movs	r0, #1
 563 0006 1840     		ands	r0, r3
 564 0008 4342     		rsbs	r3, r0, #0
 565 000a 5841     		adcs	r0, r0, r3
 566 000c C0B2     		uxtb	r0, r0
 567              	.LVL36:
1396:Generated_Source\PSoC4/CyLib.c ****         #endif /* (CY_IP_WCO_BLESS) */
1397:Generated_Source\PSoC4/CyLib.c **** 
1398:Generated_Source\PSoC4/CyLib.c ****         return (returnValue);
1399:Generated_Source\PSoC4/CyLib.c ****     }
 568              		.loc 1 1399 0
 569              		@ sp needed
 570 000e 7047     		bx	lr
 571              	.L41:
 572              		.align	2
 573              	.L40:
 574 0010 0C002F40 		.word	1076822028
 575              		.cfi_endproc
 576              	.LFE14:
 577              		.size	CySysClkEcoReadStatus, .-CySysClkEcoReadStatus
 578              		.section	.text.CySysClkConfigureEcoTrim,"ax",%progbits
 579              		.align	2
 580              		.global	CySysClkConfigureEcoTrim
 581              		.code	16
 582              		.thumb_func
 583              		.type	CySysClkConfigureEcoTrim, %function
 584              	CySysClkConfigureEcoTrim:
ARM GAS  C:\Users\YUANFA~1\AppData\Local\Temp\ccYDlzYT.s 			page 36


 585              	.LFB15:
1400:Generated_Source\PSoC4/CyLib.c **** 
1401:Generated_Source\PSoC4/CyLib.c ****     #if (CY_IP_ECO_BLESS || CY_IP_ECO_BLESSV3)
1402:Generated_Source\PSoC4/CyLib.c ****         /*******************************************************************************
1403:Generated_Source\PSoC4/CyLib.c ****         * Function Name: CySysClkWriteEcoDiv
1404:Generated_Source\PSoC4/CyLib.c ****         ****************************************************************************//**
1405:Generated_Source\PSoC4/CyLib.c ****         *
1406:Generated_Source\PSoC4/CyLib.c ****         * Selects value for the ECO divider.
1407:Generated_Source\PSoC4/CyLib.c ****         *
1408:Generated_Source\PSoC4/CyLib.c ****         * The ECO must not be the HFCLK clock source when this function is called.
1409:Generated_Source\PSoC4/CyLib.c ****         * The HFCLK source can be changed to the other clock source by call to the
1410:Generated_Source\PSoC4/CyLib.c ****         * CySysClkWriteHfclkDirect() function. If the ECO sources the HFCLK this
1411:Generated_Source\PSoC4/CyLib.c ****         * function will not have any effect if compiler in release mode, and halt the
1412:Generated_Source\PSoC4/CyLib.c ****         * CPU when compiler in debug mode.
1413:Generated_Source\PSoC4/CyLib.c ****         *
1414:Generated_Source\PSoC4/CyLib.c ****         * If the SYSCLK clock frequency increases during the device operation, call
1415:Generated_Source\PSoC4/CyLib.c ****         * CySysFlashSetWaitCycles() with the appropriate parameter to adjust the number
1416:Generated_Source\PSoC4/CyLib.c ****         * of clock cycles the cache will wait before sampling data comes back from
1417:Generated_Source\PSoC4/CyLib.c ****         * Flash. If the SYSCLK clock frequency decreases, you can call
1418:Generated_Source\PSoC4/CyLib.c ****         * CySysFlashSetWaitCycles() to improve the CPU performance. See
1419:Generated_Source\PSoC4/CyLib.c ****         * CySysFlashSetWaitCycles() description for more information.
1420:Generated_Source\PSoC4/CyLib.c ****         *
1421:Generated_Source\PSoC4/CyLib.c ****         * \param divider Power of 2 divider selection.
1422:Generated_Source\PSoC4/CyLib.c ****         * - \ref CY_SYS_CLK_ECO_DIV1
1423:Generated_Source\PSoC4/CyLib.c ****         * - \ref CY_SYS_CLK_ECO_DIV2
1424:Generated_Source\PSoC4/CyLib.c ****         * - \ref CY_SYS_CLK_ECO_DIV4
1425:Generated_Source\PSoC4/CyLib.c ****         * - \ref CY_SYS_CLK_ECO_DIV8
1426:Generated_Source\PSoC4/CyLib.c ****         *
1427:Generated_Source\PSoC4/CyLib.c ****         *******************************************************************************/
1428:Generated_Source\PSoC4/CyLib.c ****         void CySysClkWriteEcoDiv(uint32 divider)
1429:Generated_Source\PSoC4/CyLib.c ****         {
1430:Generated_Source\PSoC4/CyLib.c ****             uint8  interruptState;
1431:Generated_Source\PSoC4/CyLib.c **** 
1432:Generated_Source\PSoC4/CyLib.c ****             if (CY_SYS_CLK_HFCLK_ECO != (CY_SYS_CLK_SELECT_REG & CY_SYS_CLK_SELECT_DIRECT_SEL_MASK)
1433:Generated_Source\PSoC4/CyLib.c ****             {
1434:Generated_Source\PSoC4/CyLib.c ****                 interruptState = CyEnterCriticalSection();
1435:Generated_Source\PSoC4/CyLib.c **** 
1436:Generated_Source\PSoC4/CyLib.c ****                 CY_SYS_CLK_XTAL_CLK_DIV_CONFIG_REG =  (divider & CY_SYS_CLK_XTAL_CLK_DIV_MASK) |
1437:Generated_Source\PSoC4/CyLib.c ****                                                       (CY_SYS_CLK_XTAL_CLK_DIV_CONFIG_REG & ((uint3
1438:Generated_Source\PSoC4/CyLib.c **** 
1439:Generated_Source\PSoC4/CyLib.c ****                 CyExitCriticalSection(interruptState);
1440:Generated_Source\PSoC4/CyLib.c ****             }
1441:Generated_Source\PSoC4/CyLib.c ****             else
1442:Generated_Source\PSoC4/CyLib.c ****             {
1443:Generated_Source\PSoC4/CyLib.c ****                 /* Halt CPU in debug mode if ECO sources HFCLK */
1444:Generated_Source\PSoC4/CyLib.c ****                 CYASSERT(0u != 0u);
1445:Generated_Source\PSoC4/CyLib.c ****             }
1446:Generated_Source\PSoC4/CyLib.c ****         }
1447:Generated_Source\PSoC4/CyLib.c **** 
1448:Generated_Source\PSoC4/CyLib.c ****     #else
1449:Generated_Source\PSoC4/CyLib.c **** 
1450:Generated_Source\PSoC4/CyLib.c ****         /*******************************************************************************
1451:Generated_Source\PSoC4/CyLib.c ****         * Function Name: CySysClkConfigureEcoTrim
1452:Generated_Source\PSoC4/CyLib.c ****         ****************************************************************************//**
1453:Generated_Source\PSoC4/CyLib.c ****         *
1454:Generated_Source\PSoC4/CyLib.c ****         * Selects trim setting values for ECO. This API is available only for PSoC
1455:Generated_Source\PSoC4/CyLib.c ****         * 4200L / 4100S /4500 with ECO devices only.
ARM GAS  C:\Users\YUANFA~1\AppData\Local\Temp\ccYDlzYT.s 			page 37


1456:Generated_Source\PSoC4/CyLib.c ****         *
1457:Generated_Source\PSoC4/CyLib.c ****         * The following parameters can be trimmed for ECO. The affected registers are
1458:Generated_Source\PSoC4/CyLib.c ****         * ECO_TRIM0 and ECO_TRIM1.
1459:Generated_Source\PSoC4/CyLib.c ****         *
1460:Generated_Source\PSoC4/CyLib.c ****         * Watchdog trim - This bit field sets the error threshold below the steady
1461:Generated_Source\PSoC4/CyLib.c ****         * state amplitude level.
1462:Generated_Source\PSoC4/CyLib.c ****         *
1463:Generated_Source\PSoC4/CyLib.c ****         * Amplitude trim - This bit field is to set the crystal drive level when
1464:Generated_Source\PSoC4/CyLib.c ****         * ECO_CONFIG.AGC_EN = 1. WARNING: use care when setting this field because
1465:Generated_Source\PSoC4/CyLib.c ****         * driving a crystal beyond its rated limit can permanently damage the crystal.
1466:Generated_Source\PSoC4/CyLib.c ****         *
1467:Generated_Source\PSoC4/CyLib.c ****         * Filter frequency trim - This bit field sets LPF frequency trim and affects
1468:Generated_Source\PSoC4/CyLib.c ****         * the 3rd harmonic content.
1469:Generated_Source\PSoC4/CyLib.c ****         *
1470:Generated_Source\PSoC4/CyLib.c ****         * Feedback resistor trim - This bit field sets the feedback resistor trim and
1471:Generated_Source\PSoC4/CyLib.c ****         * impacts the oscillation amplitude.
1472:Generated_Source\PSoC4/CyLib.c ****         *
1473:Generated_Source\PSoC4/CyLib.c ****         * Amplifier gain trim - This bit field sets the amplifier gain trim and affects
1474:Generated_Source\PSoC4/CyLib.c ****         * the startup time of the crystal.
1475:Generated_Source\PSoC4/CyLib.c ****         *
1476:Generated_Source\PSoC4/CyLib.c ****         * Use care when setting the amplitude trim field because driving a crystal
1477:Generated_Source\PSoC4/CyLib.c ****         * beyond its rated limit can permanently damage the crystal.
1478:Generated_Source\PSoC4/CyLib.c ****         *
1479:Generated_Source\PSoC4/CyLib.c ****         * \param wDTrim: Watchdog trim
1480:Generated_Source\PSoC4/CyLib.c ****         * - \ref CY_SYS_CLK_ECO_WDTRIM0      Error threshold is 0.05 V
1481:Generated_Source\PSoC4/CyLib.c ****         * - \ref CY_SYS_CLK_ECO_WDTRIM1      Error threshold is 0.10 V
1482:Generated_Source\PSoC4/CyLib.c ****         * - \ref CY_SYS_CLK_ECO_WDTRIM2      Error threshold is 0.15 V
1483:Generated_Source\PSoC4/CyLib.c ****         * - \ref CY_SYS_CLK_ECO_WDTRIM3      Error threshold is 0.20 V
1484:Generated_Source\PSoC4/CyLib.c ****         *
1485:Generated_Source\PSoC4/CyLib.c ****         * \param aTrim: Amplitude trim
1486:Generated_Source\PSoC4/CyLib.c ****         * - \ref CY_SYS_CLK_ECO_ATRIM0       Amplitude is 0.3 Vpp
1487:Generated_Source\PSoC4/CyLib.c ****         * - \ref CY_SYS_CLK_ECO_ATRIM1       Amplitude is 0.4 Vpp
1488:Generated_Source\PSoC4/CyLib.c ****         * - \ref CY_SYS_CLK_ECO_ATRIM2       Amplitude is 0.5 Vpp
1489:Generated_Source\PSoC4/CyLib.c ****         * - \ref CY_SYS_CLK_ECO_ATRIM3       Amplitude is 0.6 Vpp
1490:Generated_Source\PSoC4/CyLib.c ****         * - \ref CY_SYS_CLK_ECO_ATRIM4       Amplitude is 0.7 Vpp
1491:Generated_Source\PSoC4/CyLib.c ****         * - \ref CY_SYS_CLK_ECO_ATRIM5       Amplitude is 0.8 Vpp
1492:Generated_Source\PSoC4/CyLib.c ****         * - \ref CY_SYS_CLK_ECO_ATRIM6       Amplitude is 0.9 Vpp
1493:Generated_Source\PSoC4/CyLib.c ****         * - \ref CY_SYS_CLK_ECO_ATRIM7       Amplitude is 1.0 Vpp
1494:Generated_Source\PSoC4/CyLib.c ****         *
1495:Generated_Source\PSoC4/CyLib.c ****         * \param fTrim: Filter frequency trim
1496:Generated_Source\PSoC4/CyLib.c ****         * - \ref CY_SYS_CLK_ECO_FTRIM0       Crystal frequency > 30 MHz
1497:Generated_Source\PSoC4/CyLib.c ****         * - \ref CY_SYS_CLK_ECO_FTRIM1       24 MHz < Crystal frequency <= 30 MHz
1498:Generated_Source\PSoC4/CyLib.c ****         * - \ref CY_SYS_CLK_ECO_FTRIM2       17 MHz < Crystal frequency <= 24 MHz
1499:Generated_Source\PSoC4/CyLib.c ****         * - \ref CY_SYS_CLK_ECO_FTRIM3       Crystal frequency <= 17 MHz
1500:Generated_Source\PSoC4/CyLib.c ****         *
1501:Generated_Source\PSoC4/CyLib.c ****         * \param rTrim: Feedback resistor trim
1502:Generated_Source\PSoC4/CyLib.c ****         * - \ref CY_SYS_CLK_ECO_RTRIM0       Crystal frequency > 30 MHz
1503:Generated_Source\PSoC4/CyLib.c ****         * - \ref CY_SYS_CLK_ECO_RTRIM1       24 MHz < Crystal frequency <= 30 MHz
1504:Generated_Source\PSoC4/CyLib.c ****         * - \ref CY_SYS_CLK_ECO_RTRIM2       17 MHz < Crystal frequency <= 24 MHz
1505:Generated_Source\PSoC4/CyLib.c ****         * - \ref CY_SYS_CLK_ECO_RTRIM3       Crystal frequency <= 17 MHz
1506:Generated_Source\PSoC4/CyLib.c ****         *
1507:Generated_Source\PSoC4/CyLib.c ****         * \param gTrim: Amplifier gain trim. Calculate the minimum required gm
1508:Generated_Source\PSoC4/CyLib.c ****         * (trans-conductance value). Divide the calculated gm value by 4.5 to
1509:Generated_Source\PSoC4/CyLib.c ****         * obtain an integer value 'result'. For more information please refer
1510:Generated_Source\PSoC4/CyLib.c ****         * to the device TRM.
1511:Generated_Source\PSoC4/CyLib.c ****         * - \ref CY_SYS_CLK_ECO_GTRIM0       If result = 1
1512:Generated_Source\PSoC4/CyLib.c ****         * - \ref CY_SYS_CLK_ECO_GTRIM1       If result = 0
ARM GAS  C:\Users\YUANFA~1\AppData\Local\Temp\ccYDlzYT.s 			page 38


1513:Generated_Source\PSoC4/CyLib.c ****         * - \ref CY_SYS_CLK_ECO_GTRIM2       If result = 2
1514:Generated_Source\PSoC4/CyLib.c ****         * - \ref CY_SYS_CLK_ECO_GTRIM2       If result = 3
1515:Generated_Source\PSoC4/CyLib.c ****         *
1516:Generated_Source\PSoC4/CyLib.c ****         *******************************************************************************/
1517:Generated_Source\PSoC4/CyLib.c ****         void CySysClkConfigureEcoTrim(uint32 wDTrim, uint32 aTrim, uint32 fTrim, uint32 rTrim, uint
1518:Generated_Source\PSoC4/CyLib.c ****         {
 586              		.loc 1 1518 0
 587              		.cfi_startproc
 588              		@ args = 4, pretend = 0, frame = 0
 589              		@ frame_needed = 0, uses_anonymous_args = 0
 590              	.LVL37:
 591 0000 F0B5     		push	{r4, r5, r6, r7, lr}
 592              		.cfi_def_cfa_offset 20
 593              		.cfi_offset 4, -20
 594              		.cfi_offset 5, -16
 595              		.cfi_offset 6, -12
 596              		.cfi_offset 7, -8
 597              		.cfi_offset 14, -4
 598 0002 4746     		mov	r7, r8
 599 0004 80B4     		push	{r7}
 600              		.cfi_def_cfa_offset 24
 601              		.cfi_offset 8, -24
 602 0006 0700     		movs	r7, r0
 603 0008 0D00     		movs	r5, r1
 604 000a 1600     		movs	r6, r2
 605 000c 9846     		mov	r8, r3
1519:Generated_Source\PSoC4/CyLib.c ****             uint8  interruptState;
1520:Generated_Source\PSoC4/CyLib.c ****             uint32 regTmp;
1521:Generated_Source\PSoC4/CyLib.c **** 
1522:Generated_Source\PSoC4/CyLib.c ****             interruptState = CyEnterCriticalSection();
 606              		.loc 1 1522 0
 607 000e FFF7FEFF 		bl	CyEnterCriticalSection
 608              	.LVL38:
1523:Generated_Source\PSoC4/CyLib.c **** 
1524:Generated_Source\PSoC4/CyLib.c ****             regTmp  = CY_SYS_CLK_ECO_TRIM0_REG & ~(CY_SYS_CLK_ECO_TRIM0_WDTRIM_MASK | CY_SYS_CLK_EC
 609              		.loc 1 1524 0
 610 0012 114A     		ldr	r2, .L43
 611 0014 1368     		ldr	r3, [r2]
 612 0016 1F21     		movs	r1, #31
 613 0018 8B43     		bics	r3, r1
 614              	.LVL39:
1525:Generated_Source\PSoC4/CyLib.c ****             regTmp |= ((uint32) (wDTrim << CY_SYS_CLK_ECO_TRIM0_WDTRIM_SHIFT) & CY_SYS_CLK_ECO_TRIM
 615              		.loc 1 1525 0
 616 001a 0324     		movs	r4, #3
 617 001c 2740     		ands	r7, r4
 618              	.LVL40:
 619 001e 1F43     		orrs	r7, r3
 620              	.LVL41:
1526:Generated_Source\PSoC4/CyLib.c ****             regTmp |= ((uint32) (aTrim << CY_SYS_CLK_ECO_TRIM0_ATRIM_SHIFT) & CY_SYS_CLK_ECO_TRIM0_
 621              		.loc 1 1526 0
 622 0020 A900     		lsls	r1, r5, #2
 623 0022 1C25     		movs	r5, #28
 624              	.LVL42:
 625 0024 0D40     		ands	r5, r1
 626 0026 3D43     		orrs	r5, r7
 627              	.LVL43:
1527:Generated_Source\PSoC4/CyLib.c ****             CY_SYS_CLK_ECO_TRIM0_REG = regTmp;
ARM GAS  C:\Users\YUANFA~1\AppData\Local\Temp\ccYDlzYT.s 			page 39


 628              		.loc 1 1527 0
 629 0028 1560     		str	r5, [r2]
1528:Generated_Source\PSoC4/CyLib.c **** 
1529:Generated_Source\PSoC4/CyLib.c ****             regTmp  = CY_SYS_CLK_ECO_TRIM1_REG & ~(CY_SYS_CLK_ECO_TRIM1_FTRIM_MASK |
 630              		.loc 1 1529 0
 631 002a 0C4A     		ldr	r2, .L43+4
 632 002c 1368     		ldr	r3, [r2]
 633 002e 3F21     		movs	r1, #63
 634 0030 8B43     		bics	r3, r1
 635              	.LVL44:
1530:Generated_Source\PSoC4/CyLib.c ****                                                    CY_SYS_CLK_ECO_TRIM1_RTRIM_MASK |
1531:Generated_Source\PSoC4/CyLib.c ****                                                    CY_SYS_CLK_ECO_TRIM1_GTRIM_MASK);
1532:Generated_Source\PSoC4/CyLib.c ****             regTmp |= ((uint32) (fTrim << CY_SYS_CLK_ECO_TRIM1_FTRIM_SHIFT) & CY_SYS_CLK_ECO_TRIM1_
 636              		.loc 1 1532 0
 637 0032 2640     		ands	r6, r4
 638              	.LVL45:
 639 0034 3343     		orrs	r3, r6
 640              	.LVL46:
1533:Generated_Source\PSoC4/CyLib.c ****             regTmp |= ((uint32) (rTrim << CY_SYS_CLK_ECO_TRIM1_RTRIM_SHIFT) & CY_SYS_CLK_ECO_TRIM1_
 641              		.loc 1 1533 0
 642 0036 4146     		mov	r1, r8
 643 0038 8900     		lsls	r1, r1, #2
 644 003a 0934     		adds	r4, r4, #9
 645 003c 0C40     		ands	r4, r1
 646 003e 1C43     		orrs	r4, r3
 647              	.LVL47:
1534:Generated_Source\PSoC4/CyLib.c ****             regTmp |= ((uint32) (gTrim << CY_SYS_CLK_ECO_TRIM1_GTRIM_SHIFT) & CY_SYS_CLK_ECO_TRIM1_
 648              		.loc 1 1534 0
 649 0040 069B     		ldr	r3, [sp, #24]
 650 0042 1901     		lsls	r1, r3, #4
 651 0044 3023     		movs	r3, #48
 652 0046 1940     		ands	r1, r3
 653 0048 2300     		movs	r3, r4
 654 004a 0B43     		orrs	r3, r1
 655              	.LVL48:
1535:Generated_Source\PSoC4/CyLib.c **** 
1536:Generated_Source\PSoC4/CyLib.c ****             CY_SYS_CLK_ECO_TRIM1_REG = regTmp;
 656              		.loc 1 1536 0
 657 004c 1360     		str	r3, [r2]
1537:Generated_Source\PSoC4/CyLib.c **** 
1538:Generated_Source\PSoC4/CyLib.c ****             CyExitCriticalSection(interruptState);
 658              		.loc 1 1538 0
 659 004e FFF7FEFF 		bl	CyExitCriticalSection
 660              	.LVL49:
1539:Generated_Source\PSoC4/CyLib.c ****         }
 661              		.loc 1 1539 0
 662              		@ sp needed
 663              	.LVL50:
 664 0052 04BC     		pop	{r2}
 665 0054 9046     		mov	r8, r2
 666 0056 F0BD     		pop	{r4, r5, r6, r7, pc}
 667              	.L44:
 668              		.align	2
 669              	.L43:
 670 0058 00FF2F40 		.word	1076887296
 671 005c 04FF2F40 		.word	1076887300
 672              		.cfi_endproc
ARM GAS  C:\Users\YUANFA~1\AppData\Local\Temp\ccYDlzYT.s 			page 40


 673              	.LFE15:
 674              		.size	CySysClkConfigureEcoTrim, .-CySysClkConfigureEcoTrim
 675              		.global	__aeabi_uidiv
 676              		.section	.text.CySysClkConfigureEcoDrive,"ax",%progbits
 677              		.align	2
 678              		.global	CySysClkConfigureEcoDrive
 679              		.code	16
 680              		.thumb_func
 681              		.type	CySysClkConfigureEcoDrive, %function
 682              	CySysClkConfigureEcoDrive:
 683              	.LFB16:
1540:Generated_Source\PSoC4/CyLib.c **** 
1541:Generated_Source\PSoC4/CyLib.c **** 
1542:Generated_Source\PSoC4/CyLib.c ****         /*******************************************************************************
1543:Generated_Source\PSoC4/CyLib.c ****         * Function Name: CySysClkConfigureEcoDrive
1544:Generated_Source\PSoC4/CyLib.c ****         ****************************************************************************//**
1545:Generated_Source\PSoC4/CyLib.c ****         *
1546:Generated_Source\PSoC4/CyLib.c ****         * Selects trim setting values for ECO based on crystal parameters. Use care
1547:Generated_Source\PSoC4/CyLib.c ****         * when setting the driveLevel parameter because driving a crystal beyond its
1548:Generated_Source\PSoC4/CyLib.c ****         * rated limit can permanently damage the crystal.
1549:Generated_Source\PSoC4/CyLib.c ****         *
1550:Generated_Source\PSoC4/CyLib.c ****         * This API is available only for PSoC 4200L / 4100S / 4500 with ECO
1551:Generated_Source\PSoC4/CyLib.c ****         * devices only.
1552:Generated_Source\PSoC4/CyLib.c ****         *
1553:Generated_Source\PSoC4/CyLib.c ****         * \param freq Frequency of the crystal in kHz.
1554:Generated_Source\PSoC4/CyLib.c ****         * \param cLoad Crystal load capacitance in pF.
1555:Generated_Source\PSoC4/CyLib.c ****         * \param esr Equivalent series resistance of the crystal in ohm.
1556:Generated_Source\PSoC4/CyLib.c ****         *  maxAmplitude: maximum amplitude level in mV. Calculate as
1557:Generated_Source\PSoC4/CyLib.c ****         *  ((sqrt(driveLevel in uW / 2 / esr))/(3.14 * freq * cLoad)) * 10^9.
1558:Generated_Source\PSoC4/CyLib.c ****         *
1559:Generated_Source\PSoC4/CyLib.c ****         *  The Automatic Gain Control (AGC) is disabled when the specified maximum
1560:Generated_Source\PSoC4/CyLib.c ****         *  amplitude level equals or above 2. In this case the amplitude is not
1561:Generated_Source\PSoC4/CyLib.c ****         *  explicitly controlled and will grow until it saturates to the supply rail
1562:Generated_Source\PSoC4/CyLib.c ****         *  (1.8V nom). WARNING: use care when disabling AGC because driving a crystal
1563:Generated_Source\PSoC4/CyLib.c ****         *  beyond its rated limit can permanently damage the crystal.
1564:Generated_Source\PSoC4/CyLib.c ****         *
1565:Generated_Source\PSoC4/CyLib.c ****         * \return \ref CYRET_SUCCESS ECO configuration completed successfully.
1566:Generated_Source\PSoC4/CyLib.c ****         * \return \ref CYRET_BAD_PARAM One or more invalid parameters.
1567:Generated_Source\PSoC4/CyLib.c ****         *
1568:Generated_Source\PSoC4/CyLib.c ****         *******************************************************************************/
1569:Generated_Source\PSoC4/CyLib.c ****         cystatus CySysClkConfigureEcoDrive(uint32 freq, uint32 cLoad, uint32 esr, uint32 maxAmplitu
1570:Generated_Source\PSoC4/CyLib.c ****         {
 684              		.loc 1 1570 0
 685              		.cfi_startproc
 686              		@ args = 0, pretend = 0, frame = 8
 687              		@ frame_needed = 0, uses_anonymous_args = 0
 688              	.LVL51:
 689 0000 F0B5     		push	{r4, r5, r6, r7, lr}
 690              		.cfi_def_cfa_offset 20
 691              		.cfi_offset 4, -20
 692              		.cfi_offset 5, -16
 693              		.cfi_offset 6, -12
 694              		.cfi_offset 7, -8
 695              		.cfi_offset 14, -4
 696 0002 5746     		mov	r7, r10
 697 0004 80B4     		push	{r7}
 698              		.cfi_def_cfa_offset 24
ARM GAS  C:\Users\YUANFA~1\AppData\Local\Temp\ccYDlzYT.s 			page 41


 699              		.cfi_offset 10, -24
 700 0006 84B0     		sub	sp, sp, #16
 701              		.cfi_def_cfa_offset 40
 702 0008 0600     		movs	r6, r0
 703 000a 0C00     		movs	r4, r1
 704 000c 1500     		movs	r5, r2
 705 000e 1F00     		movs	r7, r3
 706              	.LVL52:
1571:Generated_Source\PSoC4/CyLib.c ****             cystatus returnStatus = CYRET_SUCCESS;
1572:Generated_Source\PSoC4/CyLib.c **** 
1573:Generated_Source\PSoC4/CyLib.c ****             uint32 wDTrim;
1574:Generated_Source\PSoC4/CyLib.c ****             uint32 aTrim;
1575:Generated_Source\PSoC4/CyLib.c ****             uint32 fTrim;
1576:Generated_Source\PSoC4/CyLib.c ****             uint32 rTrim;
1577:Generated_Source\PSoC4/CyLib.c ****             uint32 gTrim;
1578:Generated_Source\PSoC4/CyLib.c **** 
1579:Generated_Source\PSoC4/CyLib.c ****             uint32 gmMin;
1580:Generated_Source\PSoC4/CyLib.c **** 
1581:Generated_Source\PSoC4/CyLib.c **** 
1582:Generated_Source\PSoC4/CyLib.c ****             if ((maxAmplitude < CY_SYS_CLK_ECO_MAX_AMPL_MIN_mV) ||
 707              		.loc 1 1582 0
 708 0010 F423     		movs	r3, #244
 709              	.LVL53:
 710 0012 FF33     		adds	r3, r3, #255
 711 0014 9F42     		cmp	r7, r3
 712 0016 00D8     		bhi	.LCB592
 713 0018 86E0     		b	.L52	@long jump
 714              	.LCB592:
 715              		.loc 1 1582 0 is_stmt 0 discriminator 1
 716 001a 484B     		ldr	r3, .L68
 717 001c 9842     		cmp	r0, r3
 718 001e 00D8     		bhi	.LCB595
 719 0020 84E0     		b	.L53	@long jump
 720              	.LCB595:
1583:Generated_Source\PSoC4/CyLib.c ****                 (freq < CY_SYS_CLK_ECO_FREQ_KHZ_MIN) || (freq > CY_SYS_CLK_ECO_FREQ_KHZ_MAX))
 721              		.loc 1 1583 0 is_stmt 1
 722 0022 474B     		ldr	r3, .L68+4
 723 0024 9842     		cmp	r0, r3
 724 0026 00D9     		bls	.LCB598
 725 0028 82E0     		b	.L54	@long jump
 726              	.LCB598:
1584:Generated_Source\PSoC4/CyLib.c ****             {
1585:Generated_Source\PSoC4/CyLib.c ****                 returnStatus = CYRET_BAD_PARAM;
1586:Generated_Source\PSoC4/CyLib.c ****             }
1587:Generated_Source\PSoC4/CyLib.c ****             else
1588:Generated_Source\PSoC4/CyLib.c ****             {
1589:Generated_Source\PSoC4/CyLib.c ****                 /* Calculate amplitude trim */
1590:Generated_Source\PSoC4/CyLib.c ****                 aTrim = (maxAmplitude < CY_SYS_CLK_ECO_TRIM_BOUNDARY) ? ((maxAmplitude/100u) - 4u) 
1591:Generated_Source\PSoC4/CyLib.c **** 
1592:Generated_Source\PSoC4/CyLib.c ****                 if (maxAmplitude < CY_SYS_CLK_ECO_AMPL_FOR_ATRIM0)
 727              		.loc 1 1592 0 discriminator 4
 728 002a 464B     		ldr	r3, .L68+8
 729 002c 9F42     		cmp	r7, r3
 730 002e 14D9     		bls	.L55
1593:Generated_Source\PSoC4/CyLib.c ****                 {
1594:Generated_Source\PSoC4/CyLib.c ****                     aTrim = CY_SYS_CLK_ECO_ATRIM0;
1595:Generated_Source\PSoC4/CyLib.c ****                 }
ARM GAS  C:\Users\YUANFA~1\AppData\Local\Temp\ccYDlzYT.s 			page 42


1596:Generated_Source\PSoC4/CyLib.c ****                 else if (maxAmplitude < CY_SYS_CLK_ECO_AMPL_FOR_ATRIM1)
 731              		.loc 1 1596 0
 732 0030 454B     		ldr	r3, .L68+12
 733 0032 9F42     		cmp	r7, r3
 734 0034 14D9     		bls	.L56
1597:Generated_Source\PSoC4/CyLib.c ****                 {
1598:Generated_Source\PSoC4/CyLib.c ****                     aTrim = CY_SYS_CLK_ECO_ATRIM1;
1599:Generated_Source\PSoC4/CyLib.c ****                 }
1600:Generated_Source\PSoC4/CyLib.c ****                 else if (maxAmplitude < CY_SYS_CLK_ECO_AMPL_FOR_ATRIM2)
 735              		.loc 1 1600 0
 736 0036 454B     		ldr	r3, .L68+16
 737 0038 9F42     		cmp	r7, r3
 738 003a 14D9     		bls	.L57
1601:Generated_Source\PSoC4/CyLib.c ****                 {
1602:Generated_Source\PSoC4/CyLib.c ****                     aTrim = CY_SYS_CLK_ECO_ATRIM2;
1603:Generated_Source\PSoC4/CyLib.c ****                 }
1604:Generated_Source\PSoC4/CyLib.c ****                 else if (maxAmplitude < CY_SYS_CLK_ECO_AMPL_FOR_ATRIM3)
 739              		.loc 1 1604 0
 740 003c 444B     		ldr	r3, .L68+20
 741 003e 9F42     		cmp	r7, r3
 742 0040 14D9     		bls	.L58
1605:Generated_Source\PSoC4/CyLib.c ****                 {
1606:Generated_Source\PSoC4/CyLib.c ****                     aTrim = CY_SYS_CLK_ECO_ATRIM3;
1607:Generated_Source\PSoC4/CyLib.c ****                 }
1608:Generated_Source\PSoC4/CyLib.c ****                 else if (maxAmplitude < CY_SYS_CLK_ECO_AMPL_FOR_ATRIM4)
 743              		.loc 1 1608 0
 744 0042 7D33     		adds	r3, r3, #125
 745 0044 9F42     		cmp	r7, r3
 746 0046 14D9     		bls	.L59
1609:Generated_Source\PSoC4/CyLib.c ****                 {
1610:Generated_Source\PSoC4/CyLib.c ****                     aTrim = CY_SYS_CLK_ECO_ATRIM4;
1611:Generated_Source\PSoC4/CyLib.c ****                 }
1612:Generated_Source\PSoC4/CyLib.c ****                 else if (maxAmplitude < CY_SYS_CLK_ECO_AMPL_FOR_ATRIM5)
 747              		.loc 1 1612 0
 748 0048 424B     		ldr	r3, .L68+24
 749 004a 9F42     		cmp	r7, r3
 750 004c 14D9     		bls	.L60
1613:Generated_Source\PSoC4/CyLib.c ****                 {
1614:Generated_Source\PSoC4/CyLib.c ****                     aTrim = CY_SYS_CLK_ECO_ATRIM5;
1615:Generated_Source\PSoC4/CyLib.c ****                 }
1616:Generated_Source\PSoC4/CyLib.c ****                 else if (maxAmplitude < CY_SYS_CLK_ECO_AMPL_FOR_ATRIM6)
 751              		.loc 1 1616 0
 752 004e 424B     		ldr	r3, .L68+28
 753 0050 9F42     		cmp	r7, r3
 754 0052 14D8     		bhi	.L61
1617:Generated_Source\PSoC4/CyLib.c ****                 {
1618:Generated_Source\PSoC4/CyLib.c ****                     aTrim = CY_SYS_CLK_ECO_ATRIM6;
 755              		.loc 1 1618 0
 756 0054 0623     		movs	r3, #6
 757 0056 0393     		str	r3, [sp, #12]
 758 0058 13E0     		b	.L47
 759              	.L55:
1594:Generated_Source\PSoC4/CyLib.c ****                 }
 760              		.loc 1 1594 0
 761 005a 0023     		movs	r3, #0
 762 005c 0393     		str	r3, [sp, #12]
 763 005e 10E0     		b	.L47
ARM GAS  C:\Users\YUANFA~1\AppData\Local\Temp\ccYDlzYT.s 			page 43


 764              	.L56:
1598:Generated_Source\PSoC4/CyLib.c ****                 }
 765              		.loc 1 1598 0
 766 0060 0123     		movs	r3, #1
 767 0062 0393     		str	r3, [sp, #12]
 768 0064 0DE0     		b	.L47
 769              	.L57:
1602:Generated_Source\PSoC4/CyLib.c ****                 }
 770              		.loc 1 1602 0
 771 0066 0223     		movs	r3, #2
 772 0068 0393     		str	r3, [sp, #12]
 773 006a 0AE0     		b	.L47
 774              	.L58:
1606:Generated_Source\PSoC4/CyLib.c ****                 }
 775              		.loc 1 1606 0
 776 006c 0323     		movs	r3, #3
 777 006e 0393     		str	r3, [sp, #12]
 778 0070 07E0     		b	.L47
 779              	.L59:
1610:Generated_Source\PSoC4/CyLib.c ****                 }
 780              		.loc 1 1610 0
 781 0072 0423     		movs	r3, #4
 782 0074 0393     		str	r3, [sp, #12]
 783 0076 04E0     		b	.L47
 784              	.L60:
1614:Generated_Source\PSoC4/CyLib.c ****                 }
 785              		.loc 1 1614 0
 786 0078 0523     		movs	r3, #5
 787 007a 0393     		str	r3, [sp, #12]
 788 007c 01E0     		b	.L47
 789              	.L61:
1619:Generated_Source\PSoC4/CyLib.c ****                 }
1620:Generated_Source\PSoC4/CyLib.c ****                 else
1621:Generated_Source\PSoC4/CyLib.c ****                 {
1622:Generated_Source\PSoC4/CyLib.c ****                     aTrim = CY_SYS_CLK_ECO_ATRIM7;
 790              		.loc 1 1622 0
 791 007e 0723     		movs	r3, #7
 792 0080 0393     		str	r3, [sp, #12]
 793              	.L47:
 794              	.LVL54:
1623:Generated_Source\PSoC4/CyLib.c ****                 }
1624:Generated_Source\PSoC4/CyLib.c **** 
1625:Generated_Source\PSoC4/CyLib.c ****                 /* Calculate Watchdog trim. */
1626:Generated_Source\PSoC4/CyLib.c ****                 wDTrim = (maxAmplitude < CY_SYS_CLK_ECO_TRIM_BOUNDARY) ? ((maxAmplitude/200u) - 2u)
 795              		.loc 1 1626 0
 796 0082 364B     		ldr	r3, .L68+32
 797 0084 9F42     		cmp	r7, r3
 798 0086 06D8     		bhi	.L62
 799              		.loc 1 1626 0 is_stmt 0 discriminator 1
 800 0088 C821     		movs	r1, #200
 801              	.LVL55:
 802 008a 3800     		movs	r0, r7
 803              	.LVL56:
 804 008c FFF7FEFF 		bl	__aeabi_uidiv
 805              	.LVL57:
 806 0090 831E     		subs	r3, r0, #2
 807 0092 0293     		str	r3, [sp, #8]
ARM GAS  C:\Users\YUANFA~1\AppData\Local\Temp\ccYDlzYT.s 			page 44


 808 0094 01E0     		b	.L48
 809              	.LVL58:
 810              	.L62:
 811              		.loc 1 1626 0
 812 0096 0323     		movs	r3, #3
 813 0098 0293     		str	r3, [sp, #8]
 814              	.LVL59:
 815              	.L48:
1627:Generated_Source\PSoC4/CyLib.c **** 
1628:Generated_Source\PSoC4/CyLib.c ****                 /* Calculate amplifier gain trim. */
1629:Generated_Source\PSoC4/CyLib.c ****                 gmMin = (uint32) (((((CY_SYS_CLK_ECO_GMMIN_COEFFICIENT * freq * cLoad) / 1000) * ((
 816              		.loc 1 1629 0 is_stmt 1 discriminator 4
 817 009a 7443     		muls	r4, r6
 818              	.LVL60:
 819 009c A000     		lsls	r0, r4, #2
 820 009e 0019     		adds	r0, r0, r4
 821 00a0 0301     		lsls	r3, r0, #4
 822 00a2 181B     		subs	r0, r3, r4
 823 00a4 FA21     		movs	r1, #250
 824 00a6 8900     		lsls	r1, r1, #2
 825 00a8 FFF7FEFF 		bl	__aeabi_uidiv
 826              	.LVL61:
 827 00ac 8246     		mov	r10, r0
 828 00ae 2800     		movs	r0, r5
 829 00b0 6043     		muls	r0, r4
 830 00b2 FA21     		movs	r1, #250
 831 00b4 8900     		lsls	r1, r1, #2
 832 00b6 FFF7FEFF 		bl	__aeabi_uidiv
 833              	.LVL62:
 834 00ba 5346     		mov	r3, r10
 835 00bc 5843     		muls	r0, r3
 836 00be 2849     		ldr	r1, .L68+36
 837 00c0 FFF7FEFF 		bl	__aeabi_uidiv
 838              	.LVL63:
1630:Generated_Source\PSoC4/CyLib.c ****                 if (gmMin > 3u)
 839              		.loc 1 1630 0 discriminator 4
 840 00c4 0328     		cmp	r0, #3
 841 00c6 07D8     		bhi	.L63
1631:Generated_Source\PSoC4/CyLib.c ****                 {
1632:Generated_Source\PSoC4/CyLib.c ****                     returnStatus = CYRET_BAD_PARAM;
1633:Generated_Source\PSoC4/CyLib.c ****                     gTrim = 0u;
1634:Generated_Source\PSoC4/CyLib.c ****                 }
1635:Generated_Source\PSoC4/CyLib.c ****                 else if (gmMin > 1u)
 842              		.loc 1 1635 0
 843 00c8 0128     		cmp	r0, #1
 844 00ca 08D8     		bhi	.L64
1636:Generated_Source\PSoC4/CyLib.c ****                 {
1637:Generated_Source\PSoC4/CyLib.c ****                     gTrim = gmMin;
1638:Generated_Source\PSoC4/CyLib.c ****                 }
1639:Generated_Source\PSoC4/CyLib.c ****                 else
1640:Generated_Source\PSoC4/CyLib.c ****                 {
1641:Generated_Source\PSoC4/CyLib.c ****                     gTrim = (gmMin == 1u) ? 0u : 1u;
 845              		.loc 1 1641 0
 846 00cc 0138     		subs	r0, r0, #1
 847              	.LVL64:
 848 00ce 431E     		subs	r3, r0, #1
 849 00d0 9841     		sbcs	r0, r0, r3
ARM GAS  C:\Users\YUANFA~1\AppData\Local\Temp\ccYDlzYT.s 			page 45


 850              	.LVL65:
 851 00d2 C0B2     		uxtb	r0, r0
 852              	.LVL66:
1571:Generated_Source\PSoC4/CyLib.c **** 
 853              		.loc 1 1571 0
 854 00d4 0024     		movs	r4, #0
 855 00d6 03E0     		b	.L49
 856              	.LVL67:
 857              	.L63:
1633:Generated_Source\PSoC4/CyLib.c ****                 }
 858              		.loc 1 1633 0
 859 00d8 0020     		movs	r0, #0
 860              	.LVL68:
1632:Generated_Source\PSoC4/CyLib.c ****                     gTrim = 0u;
 861              		.loc 1 1632 0
 862 00da 0124     		movs	r4, #1
 863 00dc 00E0     		b	.L49
 864              	.LVL69:
 865              	.L64:
1571:Generated_Source\PSoC4/CyLib.c **** 
 866              		.loc 1 1571 0
 867 00de 0024     		movs	r4, #0
 868              	.LVL70:
 869              	.L49:
1642:Generated_Source\PSoC4/CyLib.c ****                 }
1643:Generated_Source\PSoC4/CyLib.c **** 
1644:Generated_Source\PSoC4/CyLib.c ****                 /* Calculate feedback resistor trim */
1645:Generated_Source\PSoC4/CyLib.c ****                 if (freq > CY_SYS_CLK_ECO_FREQ_FOR_FTRIM0)
 870              		.loc 1 1645 0
 871 00e0 204B     		ldr	r3, .L68+40
 872 00e2 9E42     		cmp	r6, r3
 873 00e4 07D8     		bhi	.L65
1646:Generated_Source\PSoC4/CyLib.c ****                 {
1647:Generated_Source\PSoC4/CyLib.c ****                     rTrim = CY_SYS_CLK_ECO_FTRIM0;
1648:Generated_Source\PSoC4/CyLib.c ****                 }
1649:Generated_Source\PSoC4/CyLib.c ****                 else if (freq > CY_SYS_CLK_ECO_FREQ_FOR_FTRIM1)
 874              		.loc 1 1649 0
 875 00e6 204B     		ldr	r3, .L68+44
 876 00e8 9E42     		cmp	r6, r3
 877 00ea 06D8     		bhi	.L66
1650:Generated_Source\PSoC4/CyLib.c ****                 {
1651:Generated_Source\PSoC4/CyLib.c ****                     rTrim = CY_SYS_CLK_ECO_FTRIM1;
1652:Generated_Source\PSoC4/CyLib.c ****                 }
1653:Generated_Source\PSoC4/CyLib.c ****                 else if (freq > CY_SYS_CLK_ECO_FREQ_FOR_FTRIM2)
 878              		.loc 1 1653 0
 879 00ec 1F4B     		ldr	r3, .L68+48
 880 00ee 9E42     		cmp	r6, r3
 881 00f0 05D9     		bls	.L67
1654:Generated_Source\PSoC4/CyLib.c ****                 {
1655:Generated_Source\PSoC4/CyLib.c ****                     rTrim = CY_SYS_CLK_ECO_FTRIM2;
 882              		.loc 1 1655 0
 883 00f2 0222     		movs	r2, #2
 884 00f4 04E0     		b	.L50
 885              	.L65:
1647:Generated_Source\PSoC4/CyLib.c ****                 }
 886              		.loc 1 1647 0
 887 00f6 0022     		movs	r2, #0
ARM GAS  C:\Users\YUANFA~1\AppData\Local\Temp\ccYDlzYT.s 			page 46


 888 00f8 02E0     		b	.L50
 889              	.L66:
1651:Generated_Source\PSoC4/CyLib.c ****                 }
 890              		.loc 1 1651 0
 891 00fa 0122     		movs	r2, #1
 892 00fc 00E0     		b	.L50
 893              	.L67:
1656:Generated_Source\PSoC4/CyLib.c ****                 }
1657:Generated_Source\PSoC4/CyLib.c ****                 else
1658:Generated_Source\PSoC4/CyLib.c ****                 {
1659:Generated_Source\PSoC4/CyLib.c ****                     rTrim = CY_SYS_CLK_ECO_FTRIM3;
 894              		.loc 1 1659 0
 895 00fe 0322     		movs	r2, #3
 896              	.L50:
 897              	.LVL71:
1660:Generated_Source\PSoC4/CyLib.c ****                 }
1661:Generated_Source\PSoC4/CyLib.c **** 
1662:Generated_Source\PSoC4/CyLib.c ****                 /* Calculate filter frequency trim */
1663:Generated_Source\PSoC4/CyLib.c ****                 fTrim = rTrim;
1664:Generated_Source\PSoC4/CyLib.c **** 
1665:Generated_Source\PSoC4/CyLib.c ****                 CySysClkConfigureEcoTrim(wDTrim, aTrim, fTrim, rTrim, gTrim);
 898              		.loc 1 1665 0
 899 0100 0090     		str	r0, [sp]
 900 0102 1300     		movs	r3, r2
 901 0104 0399     		ldr	r1, [sp, #12]
 902 0106 0298     		ldr	r0, [sp, #8]
 903              	.LVL72:
 904 0108 FFF7FEFF 		bl	CySysClkConfigureEcoTrim
 905              	.LVL73:
1666:Generated_Source\PSoC4/CyLib.c **** 
1667:Generated_Source\PSoC4/CyLib.c ****                 /* Automatic Gain Control (AGC) enable */
1668:Generated_Source\PSoC4/CyLib.c ****                 if (maxAmplitude < 2u)
 906              		.loc 1 1668 0
 907 010c 012F     		cmp	r7, #1
 908 010e 05D8     		bhi	.L51
1669:Generated_Source\PSoC4/CyLib.c ****                 {
1670:Generated_Source\PSoC4/CyLib.c ****                     /* The oscillation amplitude is controlled to the level selected by amplitude t
1671:Generated_Source\PSoC4/CyLib.c ****                     CY_SYS_CLK_ECO_CONFIG_REG |= CY_SYS_CLK_ECO_CONFIG_AGC_EN;
 909              		.loc 1 1671 0
 910 0110 174A     		ldr	r2, .L68+52
 911 0112 1168     		ldr	r1, [r2]
 912 0114 0223     		movs	r3, #2
 913 0116 0B43     		orrs	r3, r1
 914 0118 1360     		str	r3, [r2]
 915              	.LVL74:
 916 011a 0AE0     		b	.L46
 917              	.LVL75:
 918              	.L51:
1672:Generated_Source\PSoC4/CyLib.c ****                 }
1673:Generated_Source\PSoC4/CyLib.c ****                 else
1674:Generated_Source\PSoC4/CyLib.c ****                 {
1675:Generated_Source\PSoC4/CyLib.c ****                     /* The amplitude is not explicitly controlled and will grow until it saturates 
1676:Generated_Source\PSoC4/CyLib.c ****                     * supply rail (1.8V nom).
1677:Generated_Source\PSoC4/CyLib.c ****                     */
1678:Generated_Source\PSoC4/CyLib.c ****                     CY_SYS_CLK_ECO_CONFIG_REG &= (uint32) ~CY_SYS_CLK_ECO_CONFIG_AGC_EN;
 919              		.loc 1 1678 0
 920 011c 144A     		ldr	r2, .L68+52
ARM GAS  C:\Users\YUANFA~1\AppData\Local\Temp\ccYDlzYT.s 			page 47


 921 011e 1368     		ldr	r3, [r2]
 922 0120 0221     		movs	r1, #2
 923 0122 8B43     		bics	r3, r1
 924 0124 1360     		str	r3, [r2]
 925              	.LVL76:
 926 0126 04E0     		b	.L46
 927              	.LVL77:
 928              	.L52:
1585:Generated_Source\PSoC4/CyLib.c ****             }
 929              		.loc 1 1585 0
 930 0128 0124     		movs	r4, #1
 931 012a 02E0     		b	.L46
 932              	.L53:
 933 012c 0124     		movs	r4, #1
 934 012e 00E0     		b	.L46
 935              	.L54:
 936 0130 0124     		movs	r4, #1
 937              	.LVL78:
 938              	.L46:
1679:Generated_Source\PSoC4/CyLib.c ****                 }
1680:Generated_Source\PSoC4/CyLib.c ****             }
1681:Generated_Source\PSoC4/CyLib.c **** 
1682:Generated_Source\PSoC4/CyLib.c ****             return (returnStatus);
1683:Generated_Source\PSoC4/CyLib.c ****         }
 939              		.loc 1 1683 0
 940 0132 2000     		movs	r0, r4
 941 0134 04B0     		add	sp, sp, #16
 942              		@ sp needed
 943              	.LVL79:
 944              	.LVL80:
 945              	.LVL81:
 946              	.LVL82:
 947 0136 04BC     		pop	{r2}
 948 0138 9246     		mov	r10, r2
 949 013a F0BD     		pop	{r4, r5, r6, r7, pc}
 950              	.L69:
 951              		.align	2
 952              	.L68:
 953 013c 9F0F0000 		.word	3999
 954 0140 35820000 		.word	33333
 955 0144 57020000 		.word	599
 956 0148 BB020000 		.word	699
 957 014c 1F030000 		.word	799
 958 0150 83030000 		.word	899
 959 0154 7D040000 		.word	1149
 960 0158 FA040000 		.word	1274
 961 015c AF040000 		.word	1199
 962 0160 8074D21A 		.word	450000000
 963 0164 30750000 		.word	30000
 964 0168 C05D0000 		.word	24000
 965 016c 68420000 		.word	17000
 966 0170 08002F40 		.word	1076822024
 967              		.cfi_endproc
 968              	.LFE16:
 969              		.size	CySysClkConfigureEcoDrive, .-CySysClkConfigureEcoDrive
 970              		.section	.text.CySysClkPllStop,"ax",%progbits
 971              		.align	2
ARM GAS  C:\Users\YUANFA~1\AppData\Local\Temp\ccYDlzYT.s 			page 48


 972              		.global	CySysClkPllStop
 973              		.code	16
 974              		.thumb_func
 975              		.type	CySysClkPllStop, %function
 976              	CySysClkPllStop:
 977              	.LFB19:
1684:Generated_Source\PSoC4/CyLib.c **** 
1685:Generated_Source\PSoC4/CyLib.c ****     #endif /* CY_IP_ECO_BLESS */
1686:Generated_Source\PSoC4/CyLib.c **** 
1687:Generated_Source\PSoC4/CyLib.c **** #endif /* (CY_IP_ECO) */
1688:Generated_Source\PSoC4/CyLib.c **** 
1689:Generated_Source\PSoC4/CyLib.c **** 
1690:Generated_Source\PSoC4/CyLib.c **** #if (CY_IP_PLL)
1691:Generated_Source\PSoC4/CyLib.c ****     /*******************************************************************************
1692:Generated_Source\PSoC4/CyLib.c ****     * Function Name: CySysClkPllStart
1693:Generated_Source\PSoC4/CyLib.c ****     ****************************************************************************//**
1694:Generated_Source\PSoC4/CyLib.c ****     *
1695:Generated_Source\PSoC4/CyLib.c ****     * Enables the PLL. Optionally waits for it to become stable. Waits at least
1696:Generated_Source\PSoC4/CyLib.c ****     * 250 us or until it is detected that the PLL is stable.
1697:Generated_Source\PSoC4/CyLib.c ****     *
1698:Generated_Source\PSoC4/CyLib.c ****     * Clears the unlock occurred status bit by calling CySysClkPllGetUnlockStatus(),
1699:Generated_Source\PSoC4/CyLib.c ****     * once the PLL is locked if the wait parameter is 1).
1700:Generated_Source\PSoC4/CyLib.c ****     *
1701:Generated_Source\PSoC4/CyLib.c ****     * This API is available only for PSoC 4200L / 4100S / 4500 with PLL devices.
1702:Generated_Source\PSoC4/CyLib.c ****     *
1703:Generated_Source\PSoC4/CyLib.c ****     * \param PLL:
1704:Generated_Source\PSoC4/CyLib.c ****     * 0   PLL#0
1705:Generated_Source\PSoC4/CyLib.c ****     * 1   PLL#1 (available only for PSoC 4200L)
1706:Generated_Source\PSoC4/CyLib.c ****     *
1707:Generated_Source\PSoC4/CyLib.c ****     * \param wait:
1708:Generated_Source\PSoC4/CyLib.c ****     * 0 - Return immediately after configuration.
1709:Generated_Source\PSoC4/CyLib.c ****     * 1 - Wait for PLL lock or timeout. This API shall use the CyDelayUs() to
1710:Generated_Source\PSoC4/CyLib.c ****     * implement the timeout feature.
1711:Generated_Source\PSoC4/CyLib.c ****     *
1712:Generated_Source\PSoC4/CyLib.c ****     * \return CYRET_SUCCESS Completed successfully.
1713:Generated_Source\PSoC4/CyLib.c ****     * \return CYRET_TIMEOUT The timeout occurred without detecting a stable clock.
1714:Generated_Source\PSoC4/CyLib.c ****     * If the input source of the clock is jittery, then the lock indication may
1715:Generated_Source\PSoC4/CyLib.c ****     * not occur. However, after the timeout has expired, the generated PLL clock can
1716:Generated_Source\PSoC4/CyLib.c ****     * still be used.
1717:Generated_Source\PSoC4/CyLib.c ****     * \return CYRET_BAD_PARAM - Either the PLL or wait parameter is invalid.
1718:Generated_Source\PSoC4/CyLib.c ****     *
1719:Generated_Source\PSoC4/CyLib.c ****     *******************************************************************************/
1720:Generated_Source\PSoC4/CyLib.c ****     cystatus CySysClkPllStart(uint32 pll, uint32 wait)
1721:Generated_Source\PSoC4/CyLib.c ****     {
1722:Generated_Source\PSoC4/CyLib.c ****         uint32 counts = CY_SYS_CLK_PLL_MAX_STARTUP_US;
1723:Generated_Source\PSoC4/CyLib.c ****         uint8  interruptState;
1724:Generated_Source\PSoC4/CyLib.c ****         cystatus returnStatus = CYRET_SUCCESS;
1725:Generated_Source\PSoC4/CyLib.c **** 
1726:Generated_Source\PSoC4/CyLib.c ****         if((pll < CY_IP_PLL_NR) && (wait <= 1u))
1727:Generated_Source\PSoC4/CyLib.c ****         {
1728:Generated_Source\PSoC4/CyLib.c ****             interruptState = CyEnterCriticalSection();
1729:Generated_Source\PSoC4/CyLib.c **** 
1730:Generated_Source\PSoC4/CyLib.c ****             /* Isolate PLL outputs */
1731:Generated_Source\PSoC4/CyLib.c ****             CY_SYS_CLK_PLL_BASE.pll[pll].config &= (uint32) ~CY_SYS_CLK_PLL_CONFIG_ISOLATE;
1732:Generated_Source\PSoC4/CyLib.c **** 
1733:Generated_Source\PSoC4/CyLib.c ****             /* Enable PLL */
1734:Generated_Source\PSoC4/CyLib.c ****             CY_SYS_CLK_PLL_BASE.pll[pll].config |= CY_SYS_CLK_PLL_CONFIG_ENABLE;
ARM GAS  C:\Users\YUANFA~1\AppData\Local\Temp\ccYDlzYT.s 			page 49


1735:Generated_Source\PSoC4/CyLib.c **** 
1736:Generated_Source\PSoC4/CyLib.c ****             CyExitCriticalSection(interruptState);
1737:Generated_Source\PSoC4/CyLib.c **** 
1738:Generated_Source\PSoC4/CyLib.c ****             /* De-isolate >= CY_SYS_CLK_PLL_MIN_STARTUP_US after PLL enabled */
1739:Generated_Source\PSoC4/CyLib.c ****             CyDelayUs(CY_SYS_CLK_PLL_MIN_STARTUP_US);
1740:Generated_Source\PSoC4/CyLib.c ****             interruptState = CyEnterCriticalSection();
1741:Generated_Source\PSoC4/CyLib.c ****             CY_SYS_CLK_PLL_BASE.pll[pll].config |= CY_SYS_CLK_PLL_CONFIG_ISOLATE;
1742:Generated_Source\PSoC4/CyLib.c ****             CyExitCriticalSection(interruptState);
1743:Generated_Source\PSoC4/CyLib.c **** 
1744:Generated_Source\PSoC4/CyLib.c ****             if(wait != 0u)
1745:Generated_Source\PSoC4/CyLib.c ****             {
1746:Generated_Source\PSoC4/CyLib.c ****                 returnStatus = CYRET_TIMEOUT;
1747:Generated_Source\PSoC4/CyLib.c **** 
1748:Generated_Source\PSoC4/CyLib.c ****                 while(0u != counts)
1749:Generated_Source\PSoC4/CyLib.c ****                 {
1750:Generated_Source\PSoC4/CyLib.c **** 
1751:Generated_Source\PSoC4/CyLib.c ****                     if(0u != CySysClkPllGetLockStatus(pll))
1752:Generated_Source\PSoC4/CyLib.c ****                     {
1753:Generated_Source\PSoC4/CyLib.c ****                         returnStatus = CYRET_SUCCESS;
1754:Generated_Source\PSoC4/CyLib.c ****                         (void) CySysClkPllGetUnlockStatus(pll);
1755:Generated_Source\PSoC4/CyLib.c ****                         break;
1756:Generated_Source\PSoC4/CyLib.c ****                     }
1757:Generated_Source\PSoC4/CyLib.c **** 
1758:Generated_Source\PSoC4/CyLib.c ****                     CyDelayUs(1u);
1759:Generated_Source\PSoC4/CyLib.c ****                     counts--;
1760:Generated_Source\PSoC4/CyLib.c ****                 }
1761:Generated_Source\PSoC4/CyLib.c ****             }
1762:Generated_Source\PSoC4/CyLib.c ****         }
1763:Generated_Source\PSoC4/CyLib.c ****         else
1764:Generated_Source\PSoC4/CyLib.c ****         {
1765:Generated_Source\PSoC4/CyLib.c ****             returnStatus = CYRET_BAD_PARAM;
1766:Generated_Source\PSoC4/CyLib.c ****         }
1767:Generated_Source\PSoC4/CyLib.c **** 
1768:Generated_Source\PSoC4/CyLib.c ****         return (returnStatus);
1769:Generated_Source\PSoC4/CyLib.c ****     }
1770:Generated_Source\PSoC4/CyLib.c **** 
1771:Generated_Source\PSoC4/CyLib.c **** 
1772:Generated_Source\PSoC4/CyLib.c ****     /*******************************************************************************
1773:Generated_Source\PSoC4/CyLib.c ****     * Function Name: CySysClkPllGetLockStatus
1774:Generated_Source\PSoC4/CyLib.c ****     ****************************************************************************//**
1775:Generated_Source\PSoC4/CyLib.c ****     *
1776:Generated_Source\PSoC4/CyLib.c ****     * Returns non-zero if the output of the specified PLL output is locked.
1777:Generated_Source\PSoC4/CyLib.c ****     *
1778:Generated_Source\PSoC4/CyLib.c ****     * This API is available only for PSoC 4200L / 4100S / 4500 with PLL devices.
1779:Generated_Source\PSoC4/CyLib.c ****     *
1780:Generated_Source\PSoC4/CyLib.c ****     * PLL:
1781:Generated_Source\PSoC4/CyLib.c ****     *  0   PLL#0
1782:Generated_Source\PSoC4/CyLib.c ****     *  1   PLL#1 (available only for PSoC 4200L)
1783:Generated_Source\PSoC4/CyLib.c ****     *
1784:Generated_Source\PSoC4/CyLib.c ****     * \return A non-zero value when the specified PLL is locked.
1785:Generated_Source\PSoC4/CyLib.c ****     *
1786:Generated_Source\PSoC4/CyLib.c ****     *******************************************************************************/
1787:Generated_Source\PSoC4/CyLib.c ****     uint32 CySysClkPllGetLockStatus(uint32 pll)
1788:Generated_Source\PSoC4/CyLib.c ****     {
1789:Generated_Source\PSoC4/CyLib.c ****         uint8  interruptState;
1790:Generated_Source\PSoC4/CyLib.c ****         uint32 returnStatus;
1791:Generated_Source\PSoC4/CyLib.c **** 
ARM GAS  C:\Users\YUANFA~1\AppData\Local\Temp\ccYDlzYT.s 			page 50


1792:Generated_Source\PSoC4/CyLib.c ****         CYASSERT(pll < CY_IP_PLL_NR);
1793:Generated_Source\PSoC4/CyLib.c **** 
1794:Generated_Source\PSoC4/CyLib.c ****         interruptState = CyEnterCriticalSection();
1795:Generated_Source\PSoC4/CyLib.c **** 
1796:Generated_Source\PSoC4/CyLib.c ****         /* PLL is locked if reported so for two consecutive read. */
1797:Generated_Source\PSoC4/CyLib.c ****         returnStatus = CY_SYS_CLK_PLL_BASE.pll[pll].status & CY_SYS_CLK_PLL_STATUS_LOCKED;
1798:Generated_Source\PSoC4/CyLib.c ****         if(0u != returnStatus)
1799:Generated_Source\PSoC4/CyLib.c ****         {
1800:Generated_Source\PSoC4/CyLib.c ****             returnStatus = CY_SYS_CLK_PLL_BASE.pll[pll].status & CY_SYS_CLK_PLL_STATUS_LOCKED;
1801:Generated_Source\PSoC4/CyLib.c ****         }
1802:Generated_Source\PSoC4/CyLib.c **** 
1803:Generated_Source\PSoC4/CyLib.c ****         CyExitCriticalSection(interruptState);
1804:Generated_Source\PSoC4/CyLib.c **** 
1805:Generated_Source\PSoC4/CyLib.c ****         return (returnStatus);
1806:Generated_Source\PSoC4/CyLib.c ****     }
1807:Generated_Source\PSoC4/CyLib.c **** 
1808:Generated_Source\PSoC4/CyLib.c ****     /*******************************************************************************
1809:Generated_Source\PSoC4/CyLib.c ****     * Function Name: CySysClkPllStop
1810:Generated_Source\PSoC4/CyLib.c ****     ****************************************************************************//**
1811:Generated_Source\PSoC4/CyLib.c ****     *
1812:Generated_Source\PSoC4/CyLib.c ****     * Disables the PLL.
1813:Generated_Source\PSoC4/CyLib.c ****     *
1814:Generated_Source\PSoC4/CyLib.c ****     * Ensures that either PLL is not the source of HFCLK before it is disabled,
1815:Generated_Source\PSoC4/CyLib.c ****     * otherwise, the CPU will halt.
1816:Generated_Source\PSoC4/CyLib.c ****     *
1817:Generated_Source\PSoC4/CyLib.c ****     * This API is available only for PSoC 4200L / 4100S / 4500 with PLL devices.
1818:Generated_Source\PSoC4/CyLib.c ****     *
1819:Generated_Source\PSoC4/CyLib.c ****     * PLL:
1820:Generated_Source\PSoC4/CyLib.c ****     *  0   PLL#0
1821:Generated_Source\PSoC4/CyLib.c ****     *  1   PLL#1 (available only for PSoC 4200L)
1822:Generated_Source\PSoC4/CyLib.c ****     *
1823:Generated_Source\PSoC4/CyLib.c ****     *******************************************************************************/
1824:Generated_Source\PSoC4/CyLib.c ****     void CySysClkPllStop(uint32 pll)
1825:Generated_Source\PSoC4/CyLib.c ****     {
 978              		.loc 1 1825 0
 979              		.cfi_startproc
 980              		@ args = 0, pretend = 0, frame = 0
 981              		@ frame_needed = 0, uses_anonymous_args = 0
 982              	.LVL83:
 983 0000 70B5     		push	{r4, r5, r6, lr}
 984              		.cfi_def_cfa_offset 16
 985              		.cfi_offset 4, -16
 986              		.cfi_offset 5, -12
 987              		.cfi_offset 6, -8
 988              		.cfi_offset 14, -4
 989 0002 041E     		subs	r4, r0, #0
1826:Generated_Source\PSoC4/CyLib.c ****         uint8  interruptState;
1827:Generated_Source\PSoC4/CyLib.c **** 
1828:Generated_Source\PSoC4/CyLib.c ****         if (pll < CY_IP_PLL_NR)
 990              		.loc 1 1828 0
 991 0004 0CD1     		bne	.L70
1829:Generated_Source\PSoC4/CyLib.c ****         {
1830:Generated_Source\PSoC4/CyLib.c ****             interruptState = CyEnterCriticalSection();
 992              		.loc 1 1830 0
 993 0006 FFF7FEFF 		bl	CyEnterCriticalSection
 994              	.LVL84:
1831:Generated_Source\PSoC4/CyLib.c ****             CY_SYS_CLK_PLL_BASE.pll[pll].config &= (uint32) ~(CY_SYS_CLK_PLL_CONFIG_ISOLATE | CY_SY
ARM GAS  C:\Users\YUANFA~1\AppData\Local\Temp\ccYDlzYT.s 			page 51


 995              		.loc 1 1831 0
 996 000a 064A     		ldr	r2, .L72
 997 000c 6100     		lsls	r1, r4, #1
 998 000e 0D19     		adds	r5, r1, r4
 999 0010 AB00     		lsls	r3, r5, #2
 1000 0012 9B58     		ldr	r3, [r3, r2]
 1001 0014 9B00     		lsls	r3, r3, #2
 1002 0016 9B08     		lsrs	r3, r3, #2
 1003 0018 A900     		lsls	r1, r5, #2
 1004 001a 8B50     		str	r3, [r1, r2]
1832:Generated_Source\PSoC4/CyLib.c ****             CyExitCriticalSection(interruptState);
 1005              		.loc 1 1832 0
 1006 001c FFF7FEFF 		bl	CyExitCriticalSection
 1007              	.LVL85:
 1008              	.L70:
1833:Generated_Source\PSoC4/CyLib.c ****         }
1834:Generated_Source\PSoC4/CyLib.c ****     }
 1009              		.loc 1 1834 0
 1010              		@ sp needed
 1011              	.LVL86:
 1012 0020 70BD     		pop	{r4, r5, r6, pc}
 1013              	.L73:
 1014 0022 C046     		.align	2
 1015              	.L72:
 1016 0024 14002F40 		.word	1076822036
 1017              		.cfi_endproc
 1018              	.LFE19:
 1019              		.size	CySysClkPllStop, .-CySysClkPllStop
 1020              		.section	.text.CySysClkPllSetBypassMode,"ax",%progbits
 1021              		.align	2
 1022              		.global	CySysClkPllSetBypassMode
 1023              		.code	16
 1024              		.thumb_func
 1025              		.type	CySysClkPllSetBypassMode, %function
 1026              	CySysClkPllSetBypassMode:
 1027              	.LFB21:
1835:Generated_Source\PSoC4/CyLib.c **** 
1836:Generated_Source\PSoC4/CyLib.c **** 
1837:Generated_Source\PSoC4/CyLib.c ****     /*******************************************************************************
1838:Generated_Source\PSoC4/CyLib.c ****     * Function Name: CySysClkPllSetPQ
1839:Generated_Source\PSoC4/CyLib.c ****     ****************************************************************************//**
1840:Generated_Source\PSoC4/CyLib.c ****     *
1841:Generated_Source\PSoC4/CyLib.c ****     * Sets feedback (P) and reference the (Q) divider value. This API also sets the
1842:Generated_Source\PSoC4/CyLib.c ****     * programmable charge pump current value. Note that the PLL has to be disabled
1843:Generated_Source\PSoC4/CyLib.c ****     * before calling this API. If this function is called while any PLL is sourcing,
1844:Generated_Source\PSoC4/CyLib.c ****     * the SYSCLK will return an error.
1845:Generated_Source\PSoC4/CyLib.c ****     *
1846:Generated_Source\PSoC4/CyLib.c ****     * The PLL must not be the system clock source when calling this function. The
1847:Generated_Source\PSoC4/CyLib.c ****     * PLL output will glitch during this function call.
1848:Generated_Source\PSoC4/CyLib.c ****     *
1849:Generated_Source\PSoC4/CyLib.c ****     * This API is available only for PSoC 4200L / 4100S / 4500 with PLL devices.
1850:Generated_Source\PSoC4/CyLib.c ****     *
1851:Generated_Source\PSoC4/CyLib.c ****     * \param PLL:
1852:Generated_Source\PSoC4/CyLib.c ****     *  0   PLL#0
1853:Generated_Source\PSoC4/CyLib.c ****     *  1   PLL#1 (available only for PSoC 4200L)
1854:Generated_Source\PSoC4/CyLib.c ****     *
1855:Generated_Source\PSoC4/CyLib.c ****     * \param feedback The P divider. Range 4 - 259. Control bits for the feedback
ARM GAS  C:\Users\YUANFA~1\AppData\Local\Temp\ccYDlzYT.s 			page 52


1856:Generated_Source\PSoC4/CyLib.c ****     * divider.
1857:Generated_Source\PSoC4/CyLib.c ****     *
1858:Generated_Source\PSoC4/CyLib.c ****     * \param reference The Q divider. Range 1 - 64. Divide by the reference.
1859:Generated_Source\PSoC4/CyLib.c ****     *
1860:Generated_Source\PSoC4/CyLib.c ****     * \param current Charge the pump current in uA. The 2 uA for output frequencies
1861:Generated_Source\PSoC4/CyLib.c ****     * of 67 MHz or less, and 3 uA for higher output frequencies. The default
1862:Generated_Source\PSoC4/CyLib.c ****     * value is 2 uA.
1863:Generated_Source\PSoC4/CyLib.c ****     *
1864:Generated_Source\PSoC4/CyLib.c ****     * \return CYRET_SUCCESS Completed successfully.
1865:Generated_Source\PSoC4/CyLib.c ****     * \return CYRET_BAD_PARAM The parameters are out of range or the specified PLL
1866:Generated_Source\PSoC4/CyLib.c ****     * sources the system clock.
1867:Generated_Source\PSoC4/CyLib.c ****     *
1868:Generated_Source\PSoC4/CyLib.c ****     *******************************************************************************/
1869:Generated_Source\PSoC4/CyLib.c ****     cystatus CySysClkPllSetPQ(uint32 pll, uint32 feedback, uint32 reference, uint32 current)
1870:Generated_Source\PSoC4/CyLib.c ****     {
1871:Generated_Source\PSoC4/CyLib.c ****         uint32   regTmp;
1872:Generated_Source\PSoC4/CyLib.c ****         cystatus tmp;
1873:Generated_Source\PSoC4/CyLib.c ****         uint8    interruptState;
1874:Generated_Source\PSoC4/CyLib.c ****         cystatus returnStatus = CYRET_BAD_PARAM;
1875:Generated_Source\PSoC4/CyLib.c **** 
1876:Generated_Source\PSoC4/CyLib.c ****         interruptState = CyEnterCriticalSection();
1877:Generated_Source\PSoC4/CyLib.c **** 
1878:Generated_Source\PSoC4/CyLib.c ****         tmp = CySysClkPllConfigChangeAllowed(pll);
1879:Generated_Source\PSoC4/CyLib.c **** 
1880:Generated_Source\PSoC4/CyLib.c ****         if ((pll < CY_IP_PLL_NR) &&
1881:Generated_Source\PSoC4/CyLib.c ****             (feedback  >= CY_SYS_CLK_PLL_CONFIG_FEEDBACK_DIV_MIN)  && (feedback  <= CY_SYS_CLK_PLL_
1882:Generated_Source\PSoC4/CyLib.c ****             (reference >= CY_SYS_CLK_PLL_CONFIG_REFERENCE_DIV_MIN) && (reference <= CY_SYS_CLK_PLL_
1883:Generated_Source\PSoC4/CyLib.c ****             (current   >= CY_SYS_CLK_PLL_CONFIG_ICP_SEL_MIN )      && (current   <= CY_SYS_CLK_PLL_
1884:Generated_Source\PSoC4/CyLib.c ****             (CYRET_SUCCESS == tmp))
1885:Generated_Source\PSoC4/CyLib.c ****         {
1886:Generated_Source\PSoC4/CyLib.c ****             /* Set new feedback, reference and current values */
1887:Generated_Source\PSoC4/CyLib.c ****             regTmp  = CY_SYS_CLK_PLL_BASE.pll[pll].config & (uint32) ~(CY_SYS_CLK_PLL_CONFIG_FEEDBA
1888:Generated_Source\PSoC4/CyLib.c ****                                                                        CY_SYS_CLK_PLL_CONFIG_REFERE
1889:Generated_Source\PSoC4/CyLib.c ****                                                                        CY_SYS_CLK_PLL_CONFIG_ICP_SE
1890:Generated_Source\PSoC4/CyLib.c **** 
1891:Generated_Source\PSoC4/CyLib.c ****             regTmp |= ((feedback << CY_SYS_CLK_PLL_CONFIG_FEEDBACK_DIV_SHIFT) & CY_SYS_CLK_PLL_CONF
1892:Generated_Source\PSoC4/CyLib.c ****             regTmp |= (((reference - 1u) << CY_SYS_CLK_PLL_CONFIG_REFERENCE_DIV_SHIFT) & CY_SYS_CLK
1893:Generated_Source\PSoC4/CyLib.c ****             regTmp |= ((current << CY_SYS_CLK_PLL_CONFIG_ICP_SEL_SHIFT) & CY_SYS_CLK_PLL_CONFIG_ICP
1894:Generated_Source\PSoC4/CyLib.c **** 
1895:Generated_Source\PSoC4/CyLib.c ****             CY_SYS_CLK_PLL_BASE.pll[pll].config = regTmp;
1896:Generated_Source\PSoC4/CyLib.c **** 
1897:Generated_Source\PSoC4/CyLib.c ****             returnStatus = CYRET_SUCCESS;
1898:Generated_Source\PSoC4/CyLib.c ****         }
1899:Generated_Source\PSoC4/CyLib.c **** 
1900:Generated_Source\PSoC4/CyLib.c ****         CyExitCriticalSection(interruptState);
1901:Generated_Source\PSoC4/CyLib.c **** 
1902:Generated_Source\PSoC4/CyLib.c ****         return (returnStatus);
1903:Generated_Source\PSoC4/CyLib.c ****     }
1904:Generated_Source\PSoC4/CyLib.c **** 
1905:Generated_Source\PSoC4/CyLib.c **** 
1906:Generated_Source\PSoC4/CyLib.c ****     /*******************************************************************************
1907:Generated_Source\PSoC4/CyLib.c ****     * Function Name: CySysClkPllSetBypassMode
1908:Generated_Source\PSoC4/CyLib.c ****     ****************************************************************************//**
1909:Generated_Source\PSoC4/CyLib.c ****     *
1910:Generated_Source\PSoC4/CyLib.c ****     * Sets the bypass mode for the specified PLL.
1911:Generated_Source\PSoC4/CyLib.c ****     *
1912:Generated_Source\PSoC4/CyLib.c ****     * The PLL must not be the system clock source when calling this function.
ARM GAS  C:\Users\YUANFA~1\AppData\Local\Temp\ccYDlzYT.s 			page 53


1913:Generated_Source\PSoC4/CyLib.c ****     * The PLL output will glitch during this function call.
1914:Generated_Source\PSoC4/CyLib.c ****     *
1915:Generated_Source\PSoC4/CyLib.c ****     * When the PLL's reference input is higher than HFCLK frequency the device may
1916:Generated_Source\PSoC4/CyLib.c ****     * lock due to incorrect flash wait cycle configuration and bypass switches from
1917:Generated_Source\PSoC4/CyLib.c ****     * PLL output to the reference input. See description of
1918:Generated_Source\PSoC4/CyLib.c ****     * CySysFlashSetWaitCycles() for more information.
1919:Generated_Source\PSoC4/CyLib.c ****     *
1920:Generated_Source\PSoC4/CyLib.c ****     * This API is available only for PSoC 4200L / 4100S / 4500 swith PLL devices.
1921:Generated_Source\PSoC4/CyLib.c ****     *
1922:Generated_Source\PSoC4/CyLib.c ****     * \param PLL:
1923:Generated_Source\PSoC4/CyLib.c ****     *  0   PLL#0
1924:Generated_Source\PSoC4/CyLib.c ****     *  1   PLL#1 (available only for PSoC 4200L)
1925:Generated_Source\PSoC4/CyLib.c ****     *
1926:Generated_Source\PSoC4/CyLib.c ****     * \param bypass: The bypass mode.
1927:Generated_Source\PSoC4/CyLib.c ****     * CY_SYS_PLL_BYPASS_AUTO - Automatic usage of the lock indicator. When unlocked,
1928:Generated_Source\PSoC4/CyLib.c ****     * automatically selects PLL the reference input (bypass mode). When locked,
1929:Generated_Source\PSoC4/CyLib.c ****     * automatically selects the PLL output.
1930:Generated_Source\PSoC4/CyLib.c ****     *
1931:Generated_Source\PSoC4/CyLib.c ****     * CY_SYS_PLL_BYPASS_PLL_REF - Selects the PLL reference input (bypass mode).
1932:Generated_Source\PSoC4/CyLib.c ****     * Ignores the lock indicator.
1933:Generated_Source\PSoC4/CyLib.c ****     *
1934:Generated_Source\PSoC4/CyLib.c ****     * CY_SYS_PLL_BYPASS_PLL_OUT - Selects the PLL output.  Ignores the lock indicator.
1935:Generated_Source\PSoC4/CyLib.c ****     *
1936:Generated_Source\PSoC4/CyLib.c ****     *******************************************************************************/
1937:Generated_Source\PSoC4/CyLib.c ****     void CySysClkPllSetBypassMode(uint32 pll, uint32 bypass)
1938:Generated_Source\PSoC4/CyLib.c ****     {
 1028              		.loc 1 1938 0
 1029              		.cfi_startproc
 1030              		@ args = 0, pretend = 0, frame = 0
 1031              		@ frame_needed = 0, uses_anonymous_args = 0
 1032              	.LVL87:
 1033 0000 70B5     		push	{r4, r5, r6, lr}
 1034              		.cfi_def_cfa_offset 16
 1035              		.cfi_offset 4, -16
 1036              		.cfi_offset 5, -12
 1037              		.cfi_offset 6, -8
 1038              		.cfi_offset 14, -4
 1039 0002 0400     		movs	r4, r0
 1040 0004 0D00     		movs	r5, r1
1939:Generated_Source\PSoC4/CyLib.c ****         uint32 regTmp;
1940:Generated_Source\PSoC4/CyLib.c ****         uint8  interruptState;
1941:Generated_Source\PSoC4/CyLib.c **** 
1942:Generated_Source\PSoC4/CyLib.c ****         interruptState = CyEnterCriticalSection();
 1041              		.loc 1 1942 0
 1042 0006 FFF7FEFF 		bl	CyEnterCriticalSection
 1043              	.LVL88:
1943:Generated_Source\PSoC4/CyLib.c **** 
1944:Generated_Source\PSoC4/CyLib.c ****         if ((pll < CY_IP_PLL_NR) && (bypass <= CY_SYS_PLL_BYPASS_PLL_OUT))
 1044              		.loc 1 1944 0
 1045 000a 002C     		cmp	r4, #0
 1046 000c 0DD1     		bne	.L75
 1047              		.loc 1 1944 0 is_stmt 0 discriminator 1
 1048 000e 032D     		cmp	r5, #3
 1049 0010 0BD8     		bhi	.L75
1945:Generated_Source\PSoC4/CyLib.c ****         {
1946:Generated_Source\PSoC4/CyLib.c ****             regTmp  = CY_SYS_CLK_PLL_BASE.pll[pll].config & (uint32) ~CY_SYS_CLK_PLL_CONFIG_BYPASS_
 1050              		.loc 1 1946 0 is_stmt 1
ARM GAS  C:\Users\YUANFA~1\AppData\Local\Temp\ccYDlzYT.s 			page 54


 1051 0012 074A     		ldr	r2, .L76
 1052 0014 6100     		lsls	r1, r4, #1
 1053 0016 0E19     		adds	r6, r1, r4
 1054 0018 B300     		lsls	r3, r6, #2
 1055 001a 9E58     		ldr	r6, [r3, r2]
 1056 001c 054B     		ldr	r3, .L76+4
 1057 001e 3340     		ands	r3, r6
 1058              	.LVL89:
1947:Generated_Source\PSoC4/CyLib.c ****             regTmp |=  (uint32)(bypass << CY_SYS_CLK_PLL_CONFIG_BYPASS_SEL_SHIFT);
 1059              		.loc 1 1947 0
 1060 0020 2D05     		lsls	r5, r5, #20
 1061              	.LVL90:
 1062 0022 1D43     		orrs	r5, r3
 1063              	.LVL91:
1948:Generated_Source\PSoC4/CyLib.c ****             CY_SYS_CLK_PLL_BASE.pll[pll].config = regTmp;
 1064              		.loc 1 1948 0
 1065 0024 0C19     		adds	r4, r1, r4
 1066              	.LVL92:
 1067 0026 A300     		lsls	r3, r4, #2
 1068 0028 9D50     		str	r5, [r3, r2]
 1069              	.LVL93:
 1070              	.L75:
1949:Generated_Source\PSoC4/CyLib.c ****         }
1950:Generated_Source\PSoC4/CyLib.c **** 
1951:Generated_Source\PSoC4/CyLib.c ****         CyExitCriticalSection(interruptState);
 1071              		.loc 1 1951 0
 1072 002a FFF7FEFF 		bl	CyExitCriticalSection
 1073              	.LVL94:
1952:Generated_Source\PSoC4/CyLib.c ****     }
 1074              		.loc 1 1952 0
 1075              		@ sp needed
 1076 002e 70BD     		pop	{r4, r5, r6, pc}
 1077              	.L77:
 1078              		.align	2
 1079              	.L76:
 1080 0030 14002F40 		.word	1076822036
 1081 0034 FFFFCFFF 		.word	-3145729
 1082              		.cfi_endproc
 1083              	.LFE21:
 1084              		.size	CySysClkPllSetBypassMode, .-CySysClkPllSetBypassMode
 1085              		.section	.text.CySysClkPllGetUnlockStatus,"ax",%progbits
 1086              		.align	2
 1087              		.global	CySysClkPllGetUnlockStatus
 1088              		.code	16
 1089              		.thumb_func
 1090              		.type	CySysClkPllGetUnlockStatus, %function
 1091              	CySysClkPllGetUnlockStatus:
 1092              	.LFB24:
1953:Generated_Source\PSoC4/CyLib.c **** 
1954:Generated_Source\PSoC4/CyLib.c **** 
1955:Generated_Source\PSoC4/CyLib.c ****     /*******************************************************************************
1956:Generated_Source\PSoC4/CyLib.c ****     * Function Name: CySysClkPllGetBypassMode
1957:Generated_Source\PSoC4/CyLib.c ****     ****************************************************************************//**
1958:Generated_Source\PSoC4/CyLib.c ****     *
1959:Generated_Source\PSoC4/CyLib.c ****     *  Gets the bypass mode for the specified PLL.
1960:Generated_Source\PSoC4/CyLib.c ****     *  This API is available only for PSoC 4200L / 4100S / 4500 with PLL devices.
1961:Generated_Source\PSoC4/CyLib.c ****     *
ARM GAS  C:\Users\YUANFA~1\AppData\Local\Temp\ccYDlzYT.s 			page 55


1962:Generated_Source\PSoC4/CyLib.c ****     *  \return bypass: Bypass mode.
1963:Generated_Source\PSoC4/CyLib.c ****     *   The same as the parameter of the CySysClkPllSetBypassMode().
1964:Generated_Source\PSoC4/CyLib.c ****     *
1965:Generated_Source\PSoC4/CyLib.c ****     *******************************************************************************/
1966:Generated_Source\PSoC4/CyLib.c ****     static uint32 CySysClkPllGetBypassMode(uint32 pll)
1967:Generated_Source\PSoC4/CyLib.c ****     {
1968:Generated_Source\PSoC4/CyLib.c ****         uint32 returnValue;
1969:Generated_Source\PSoC4/CyLib.c ****         uint8  interruptState;
1970:Generated_Source\PSoC4/CyLib.c **** 
1971:Generated_Source\PSoC4/CyLib.c ****         CYASSERT(pll < CY_IP_PLL_NR);
1972:Generated_Source\PSoC4/CyLib.c **** 
1973:Generated_Source\PSoC4/CyLib.c ****         interruptState = CyEnterCriticalSection();
1974:Generated_Source\PSoC4/CyLib.c **** 
1975:Generated_Source\PSoC4/CyLib.c ****         returnValue = CY_SYS_CLK_PLL_BASE.pll[pll].config & CY_SYS_CLK_PLL_CONFIG_BYPASS_SEL_MASK;
1976:Generated_Source\PSoC4/CyLib.c ****         returnValue =  returnValue >> CY_SYS_CLK_PLL_CONFIG_BYPASS_SEL_SHIFT;
1977:Generated_Source\PSoC4/CyLib.c **** 
1978:Generated_Source\PSoC4/CyLib.c ****         CyExitCriticalSection(interruptState);
1979:Generated_Source\PSoC4/CyLib.c **** 
1980:Generated_Source\PSoC4/CyLib.c ****         return (returnValue);
1981:Generated_Source\PSoC4/CyLib.c ****     }
1982:Generated_Source\PSoC4/CyLib.c **** 
1983:Generated_Source\PSoC4/CyLib.c **** 
1984:Generated_Source\PSoC4/CyLib.c ****     /*******************************************************************************
1985:Generated_Source\PSoC4/CyLib.c ****     * Function Name: CySysClkPllConfigChangeAllowed
1986:Generated_Source\PSoC4/CyLib.c ****     ****************************************************************************//**
1987:Generated_Source\PSoC4/CyLib.c ****     *
1988:Generated_Source\PSoC4/CyLib.c ****     *  The function returns non-zero value if the specified PLL sources the System
1989:Generated_Source\PSoC4/CyLib.c ****     *  clock and the PLL is not in the bypass mode.
1990:Generated_Source\PSoC4/CyLib.c ****     *
1991:Generated_Source\PSoC4/CyLib.c ****     *  This API is available only for PSoC 4200L / 4100S / 4500 with PLL devices.
1992:Generated_Source\PSoC4/CyLib.c ****     *
1993:Generated_Source\PSoC4/CyLib.c ****     *  \param PLL:
1994:Generated_Source\PSoC4/CyLib.c ****     *   0   PLL#0
1995:Generated_Source\PSoC4/CyLib.c ****     *   1   PLL#1 (available only for PSoC 4200L)
1996:Generated_Source\PSoC4/CyLib.c ****     *
1997:Generated_Source\PSoC4/CyLib.c ****     * \return Non-zero value when the specified PLL sources the System clock and
1998:Generated_Source\PSoC4/CyLib.c ****     * the PLL is not in the bypass mode.
1999:Generated_Source\PSoC4/CyLib.c ****     *
2000:Generated_Source\PSoC4/CyLib.c ****     *******************************************************************************/
2001:Generated_Source\PSoC4/CyLib.c ****     static cystatus CySysClkPllConfigChangeAllowed(uint32 pll)
2002:Generated_Source\PSoC4/CyLib.c ****     {
2003:Generated_Source\PSoC4/CyLib.c ****         uint32   pllBypassMode;
2004:Generated_Source\PSoC4/CyLib.c ****         uint32   sysclkSource;
2005:Generated_Source\PSoC4/CyLib.c ****         cystatus returnValue = CYRET_INVALID_STATE;
2006:Generated_Source\PSoC4/CyLib.c **** 
2007:Generated_Source\PSoC4/CyLib.c ****         sysclkSource  = CySysClkGetSysclkSource();
2008:Generated_Source\PSoC4/CyLib.c ****         pllBypassMode = CySysClkPllGetBypassMode(pll);
2009:Generated_Source\PSoC4/CyLib.c **** 
2010:Generated_Source\PSoC4/CyLib.c ****         if ((CY_SYS_PLL_BYPASS_PLL_REF == pllBypassMode)             ||
2011:Generated_Source\PSoC4/CyLib.c ****             ((CY_SYS_CLK_HFCLK_PLL0 != sysclkSource) && (0u == pll))
2012:Generated_Source\PSoC4/CyLib.c ****         #if (CY_IP_SRSSV2)
2013:Generated_Source\PSoC4/CyLib.c ****             || ((CY_SYS_CLK_HFCLK_PLL1 != sysclkSource) && (1u == pll))
2014:Generated_Source\PSoC4/CyLib.c ****         #endif /* (CY_IP_SRSSV2) */
2015:Generated_Source\PSoC4/CyLib.c ****             )
2016:Generated_Source\PSoC4/CyLib.c ****         {
2017:Generated_Source\PSoC4/CyLib.c ****             returnValue = CYRET_SUCCESS;
2018:Generated_Source\PSoC4/CyLib.c ****         }
ARM GAS  C:\Users\YUANFA~1\AppData\Local\Temp\ccYDlzYT.s 			page 56


2019:Generated_Source\PSoC4/CyLib.c **** 
2020:Generated_Source\PSoC4/CyLib.c ****         return (returnValue);
2021:Generated_Source\PSoC4/CyLib.c ****     }
2022:Generated_Source\PSoC4/CyLib.c **** 
2023:Generated_Source\PSoC4/CyLib.c **** 
2024:Generated_Source\PSoC4/CyLib.c ****     /*******************************************************************************
2025:Generated_Source\PSoC4/CyLib.c ****     * Function Name: CySysClkPllGetUnlockStatus
2026:Generated_Source\PSoC4/CyLib.c ****     ****************************************************************************//**
2027:Generated_Source\PSoC4/CyLib.c ****     *
2028:Generated_Source\PSoC4/CyLib.c ****     *  Returns a non-zero value if the specified PLL output was unlocked.
2029:Generated_Source\PSoC4/CyLib.c ****     *  The unlock status is an indicator that the PLL has lost a lock at least once
2030:Generated_Source\PSoC4/CyLib.c ****     *  during its operation. The unlock status is cleared once it is read using
2031:Generated_Source\PSoC4/CyLib.c ****     *  this API.
2032:Generated_Source\PSoC4/CyLib.c ****     *
2033:Generated_Source\PSoC4/CyLib.c ****     *  This API is available only for PSoC 4200L / 4100S / 4500 with PLL devices.
2034:Generated_Source\PSoC4/CyLib.c ****     *
2035:Generated_Source\PSoC4/CyLib.c ****     *  \param PLL:
2036:Generated_Source\PSoC4/CyLib.c ****     *   0   PLL#0
2037:Generated_Source\PSoC4/CyLib.c ****     *   1   PLL#1 (available only for PSoC 4200L)
2038:Generated_Source\PSoC4/CyLib.c ****     *
2039:Generated_Source\PSoC4/CyLib.c ****     * \return Non-zero value when the specified PLL was unlocked.
2040:Generated_Source\PSoC4/CyLib.c ****     *
2041:Generated_Source\PSoC4/CyLib.c ****     *******************************************************************************/
2042:Generated_Source\PSoC4/CyLib.c ****     uint32 CySysClkPllGetUnlockStatus(uint32 pll)
2043:Generated_Source\PSoC4/CyLib.c ****     {
 1093              		.loc 1 2043 0
 1094              		.cfi_startproc
 1095              		@ args = 0, pretend = 0, frame = 0
 1096              		@ frame_needed = 0, uses_anonymous_args = 0
 1097              	.LVL95:
 1098 0000 70B5     		push	{r4, r5, r6, lr}
 1099              		.cfi_def_cfa_offset 16
 1100              		.cfi_offset 4, -16
 1101              		.cfi_offset 5, -12
 1102              		.cfi_offset 6, -8
 1103              		.cfi_offset 14, -4
 1104 0002 0400     		movs	r4, r0
 1105              	.LVL96:
2044:Generated_Source\PSoC4/CyLib.c ****         uint32 returnStatus = 0u;
2045:Generated_Source\PSoC4/CyLib.c ****         uint8  interruptState;
2046:Generated_Source\PSoC4/CyLib.c **** 
2047:Generated_Source\PSoC4/CyLib.c ****         interruptState = CyEnterCriticalSection();
 1106              		.loc 1 2047 0
 1107 0004 FFF7FEFF 		bl	CyEnterCriticalSection
 1108              	.LVL97:
2048:Generated_Source\PSoC4/CyLib.c **** 
2049:Generated_Source\PSoC4/CyLib.c ****         returnStatus = CY_SYS_CLK_PLL_BASE.pll[pll].test & CY_SYS_CLK_PLL_TEST_UNLOCK_OCCURRED_MASK
 1109              		.loc 1 2049 0
 1110 0008 6100     		lsls	r1, r4, #1
 1111 000a 0A19     		adds	r2, r1, r4
 1112 000c 9300     		lsls	r3, r2, #2
 1113 000e 084A     		ldr	r2, .L79
 1114 0010 9446     		mov	ip, r2
 1115 0012 6344     		add	r3, r3, ip
 1116 0014 9D68     		ldr	r5, [r3, #8]
 1117 0016 1022     		movs	r2, #16
 1118 0018 1540     		ands	r5, r2
ARM GAS  C:\Users\YUANFA~1\AppData\Local\Temp\ccYDlzYT.s 			page 57


 1119              	.LVL98:
2050:Generated_Source\PSoC4/CyLib.c ****         CY_SYS_CLK_PLL_BASE.pll[pll].test |= CY_SYS_CLK_PLL_TEST_UNLOCK_OCCURRED_MASK;
 1120              		.loc 1 2050 0
 1121 001a 9B68     		ldr	r3, [r3, #8]
 1122 001c 1A43     		orrs	r2, r3
 1123 001e 0C19     		adds	r4, r1, r4
 1124              	.LVL99:
 1125 0020 A300     		lsls	r3, r4, #2
 1126 0022 6344     		add	r3, r3, ip
 1127 0024 9A60     		str	r2, [r3, #8]
2051:Generated_Source\PSoC4/CyLib.c **** 
2052:Generated_Source\PSoC4/CyLib.c ****         CyExitCriticalSection(interruptState);
 1128              		.loc 1 2052 0
 1129 0026 FFF7FEFF 		bl	CyExitCriticalSection
 1130              	.LVL100:
2053:Generated_Source\PSoC4/CyLib.c **** 
2054:Generated_Source\PSoC4/CyLib.c ****         return (returnStatus);
2055:Generated_Source\PSoC4/CyLib.c ****     }
 1131              		.loc 1 2055 0
 1132 002a 2800     		movs	r0, r5
 1133              		@ sp needed
 1134              	.LVL101:
 1135 002c 70BD     		pop	{r4, r5, r6, pc}
 1136              	.L80:
 1137 002e C046     		.align	2
 1138              	.L79:
 1139 0030 14002F40 		.word	1076822036
 1140              		.cfi_endproc
 1141              	.LFE24:
 1142              		.size	CySysClkPllGetUnlockStatus, .-CySysClkPllGetUnlockStatus
 1143              		.section	.text.CySysClkPllSetSource,"ax",%progbits
 1144              		.align	2
 1145              		.global	CySysClkPllSetSource
 1146              		.code	16
 1147              		.thumb_func
 1148              		.type	CySysClkPllSetSource, %function
 1149              	CySysClkPllSetSource:
 1150              	.LFB26:
2056:Generated_Source\PSoC4/CyLib.c **** 
2057:Generated_Source\PSoC4/CyLib.c **** 
2058:Generated_Source\PSoC4/CyLib.c ****     /*******************************************************************************
2059:Generated_Source\PSoC4/CyLib.c ****     * Function Name: CySysClkPllSetFrequency
2060:Generated_Source\PSoC4/CyLib.c ****     ****************************************************************************//**
2061:Generated_Source\PSoC4/CyLib.c ****     *
2062:Generated_Source\PSoC4/CyLib.c ****     * Configures either PLL#0 or PLL#1 for the requested input/output frequencies.
2063:Generated_Source\PSoC4/CyLib.c ****     * The input frequency is the frequency of the source to the PLL. The source is
2064:Generated_Source\PSoC4/CyLib.c ****     * set using the CySysClkPllSetSource() function.
2065:Generated_Source\PSoC4/CyLib.c ****     *
2066:Generated_Source\PSoC4/CyLib.c ****     * The PLL must not be the system clock source when calling this function. The
2067:Generated_Source\PSoC4/CyLib.c ****     * PLL output will glitch during this function call.
2068:Generated_Source\PSoC4/CyLib.c ****     *
2069:Generated_Source\PSoC4/CyLib.c ****     * This API is available only for PSoC 4200L / 4100S / 4500 with PLL devices.
2070:Generated_Source\PSoC4/CyLib.c ****     *
2071:Generated_Source\PSoC4/CyLib.c ****     * \param pll:
2072:Generated_Source\PSoC4/CyLib.c ****     *  0   PLL#0
2073:Generated_Source\PSoC4/CyLib.c ****     *  1   PLL#1 (available only for PSoC 4200L)
2074:Generated_Source\PSoC4/CyLib.c ****     *
ARM GAS  C:\Users\YUANFA~1\AppData\Local\Temp\ccYDlzYT.s 			page 58


2075:Generated_Source\PSoC4/CyLib.c ****     * \param inputFreq The reference frequency in KHz. The valid range is from 1000 to 49152 KHz.
2076:Generated_Source\PSoC4/CyLib.c ****     *
2077:Generated_Source\PSoC4/CyLib.c ****     * \param pllFreq The target frequency in KHz. The valid range is from 22500 to 49152 KHz.
2078:Generated_Source\PSoC4/CyLib.c ****     *
2079:Generated_Source\PSoC4/CyLib.c ****     * \param divider The output clock divider for the PLL:
2080:Generated_Source\PSoC4/CyLib.c ****     * CY_SYS_PLL_OUTPUT_DIVPASS    Pass Through
2081:Generated_Source\PSoC4/CyLib.c ****     * CY_SYS_PLL_OUTPUT_DIV2       Divide by 2
2082:Generated_Source\PSoC4/CyLib.c ****     * CY_SYS_PLL_OUTPUT_DIV4       Divide by 4
2083:Generated_Source\PSoC4/CyLib.c ****     * CY_SYS_PLL_OUTPUT_DIV8       Divide by 8
2084:Generated_Source\PSoC4/CyLib.c ****     *
2085:Generated_Source\PSoC4/CyLib.c ****     * \param freqTol The tolerance in ppm, 10 ppm is equal to 0.001%.
2086:Generated_Source\PSoC4/CyLib.c ****     *
2087:Generated_Source\PSoC4/CyLib.c ****     * \return CYRET_SUCCESS The PLL was successfully configured for the requested
2088:Generated_Source\PSoC4/CyLib.c ****     * frequency.
2089:Generated_Source\PSoC4/CyLib.c ****     *
2090:Generated_Source\PSoC4/CyLib.c ****     * \return CYRET_BAD_PARAM The PLL was not able to successfully configure for the
2091:Generated_Source\PSoC4/CyLib.c ****     * requested frequency.
2092:Generated_Source\PSoC4/CyLib.c ****     *
2093:Generated_Source\PSoC4/CyLib.c ****     *******************************************************************************/
2094:Generated_Source\PSoC4/CyLib.c ****     cystatus CySysClkPllSetFrequency(uint32 pll, uint32 inputFreq, uint32 pllFreq, uint32 divider, 
2095:Generated_Source\PSoC4/CyLib.c ****     {
2096:Generated_Source\PSoC4/CyLib.c ****         uint32 qMin;
2097:Generated_Source\PSoC4/CyLib.c ****         uint32 qMax;
2098:Generated_Source\PSoC4/CyLib.c **** 
2099:Generated_Source\PSoC4/CyLib.c ****         uint32 qVal = CY_SYS_CLK_PLL_INVALID;
2100:Generated_Source\PSoC4/CyLib.c ****         uint32 pVal = CY_SYS_CLK_PLL_INVALID;
2101:Generated_Source\PSoC4/CyLib.c **** 
2102:Generated_Source\PSoC4/CyLib.c ****         uint32 q;
2103:Generated_Source\PSoC4/CyLib.c ****         uint32 p;
2104:Generated_Source\PSoC4/CyLib.c **** 
2105:Generated_Source\PSoC4/CyLib.c ****         uint32 fvco;
2106:Generated_Source\PSoC4/CyLib.c ****         int32 ferr;
2107:Generated_Source\PSoC4/CyLib.c **** 
2108:Generated_Source\PSoC4/CyLib.c ****         cystatus tmp;
2109:Generated_Source\PSoC4/CyLib.c ****         cystatus returnStatus = CYRET_BAD_PARAM;
2110:Generated_Source\PSoC4/CyLib.c **** 
2111:Generated_Source\PSoC4/CyLib.c **** 
2112:Generated_Source\PSoC4/CyLib.c ****         tmp = CySysClkPllConfigChangeAllowed(pll);
2113:Generated_Source\PSoC4/CyLib.c **** 
2114:Generated_Source\PSoC4/CyLib.c ****         if ((pll < CY_IP_PLL_NR) &&
2115:Generated_Source\PSoC4/CyLib.c ****             (inputFreq  >= CY_SYS_CLK_PLL_INPUT_FREQ_MIN )  && (inputFreq  <= CY_SYS_CLK_PLL_INPUT_
2116:Generated_Source\PSoC4/CyLib.c ****             (pllFreq >= CY_SYS_CLK_PLL_OUTPUT_FREQ_MIN ) && (pllFreq <= CY_SYS_CLK_PLL_OUTPUT_FREQ_
2117:Generated_Source\PSoC4/CyLib.c ****             (divider <= CY_SYS_PLL_OUTPUT_DIV8) &&
2118:Generated_Source\PSoC4/CyLib.c ****             (CYRET_SUCCESS == tmp))
2119:Generated_Source\PSoC4/CyLib.c ****         {
2120:Generated_Source\PSoC4/CyLib.c **** 
2121:Generated_Source\PSoC4/CyLib.c ****             /* Minimum feed forward loop divisor */
2122:Generated_Source\PSoC4/CyLib.c ****             qMin = (inputFreq + (CY_SYS_CLK_PLL_FPFDMAX - 1u)) / CY_SYS_CLK_PLL_FPFDMAX;
2123:Generated_Source\PSoC4/CyLib.c ****             qMin = (qMin < CY_SYS_CLK_PLL_QMINIP) ? CY_SYS_CLK_PLL_QMINIP : qMin;
2124:Generated_Source\PSoC4/CyLib.c **** 
2125:Generated_Source\PSoC4/CyLib.c ****             /* Maximum feed forward loop divisor */
2126:Generated_Source\PSoC4/CyLib.c ****             qMax = inputFreq / CY_SYS_CLK_PLL_FPFDMIN;
2127:Generated_Source\PSoC4/CyLib.c ****             qMax = (qMax > CY_SYS_CLK_PLL_QMAXIP) ? CY_SYS_CLK_PLL_QMAXIP : qMax;
2128:Generated_Source\PSoC4/CyLib.c **** 
2129:Generated_Source\PSoC4/CyLib.c ****             if (qMin <= qMax)
2130:Generated_Source\PSoC4/CyLib.c ****             {
2131:Generated_Source\PSoC4/CyLib.c ****                 for(q = qMin; q <= qMax; q++)
ARM GAS  C:\Users\YUANFA~1\AppData\Local\Temp\ccYDlzYT.s 			page 59


2132:Generated_Source\PSoC4/CyLib.c ****                 {
2133:Generated_Source\PSoC4/CyLib.c ****                     /* Solve for the feedback divisor value */
2134:Generated_Source\PSoC4/CyLib.c **** 
2135:Generated_Source\PSoC4/CyLib.c ****                     /* INT((pllFreq * q ) / inputFreq), where INT is normal rounding  */
2136:Generated_Source\PSoC4/CyLib.c ****                     p = ((pllFreq * q) + (inputFreq / 2u)) / inputFreq;
2137:Generated_Source\PSoC4/CyLib.c **** 
2138:Generated_Source\PSoC4/CyLib.c ****                     /* Calculate the actual VCO frequency (FVCO) */
2139:Generated_Source\PSoC4/CyLib.c ****                     fvco = ((inputFreq * p) / q);
2140:Generated_Source\PSoC4/CyLib.c **** 
2141:Generated_Source\PSoC4/CyLib.c ****                     /* Calculate the frequency error (FERR) */
2142:Generated_Source\PSoC4/CyLib.c ****                     ferr = ((1000000 * ((int32) fvco - (int32) pllFreq))/ (int32) pllFreq);
2143:Generated_Source\PSoC4/CyLib.c **** 
2144:Generated_Source\PSoC4/CyLib.c ****                     /* Bound check the frequency error and decide next action */
2145:Generated_Source\PSoC4/CyLib.c ****                     if ((( -1 * (int32) freqTol) <= ferr) && (ferr <= (int32) freqTol))
2146:Generated_Source\PSoC4/CyLib.c ****                     {
2147:Generated_Source\PSoC4/CyLib.c ****                         qVal = q;
2148:Generated_Source\PSoC4/CyLib.c ****                         pVal = p;
2149:Generated_Source\PSoC4/CyLib.c ****                         break;
2150:Generated_Source\PSoC4/CyLib.c ****                     }
2151:Generated_Source\PSoC4/CyLib.c ****                 }
2152:Generated_Source\PSoC4/CyLib.c **** 
2153:Generated_Source\PSoC4/CyLib.c **** 
2154:Generated_Source\PSoC4/CyLib.c ****                 if ((pVal != CY_SYS_CLK_PLL_INVALID) && (qVal != CY_SYS_CLK_PLL_INVALID))
2155:Generated_Source\PSoC4/CyLib.c ****                 {
2156:Generated_Source\PSoC4/CyLib.c ****                     if (CySysClkPllSetPQ(pll, pVal, qVal, CY_SYS_CLK_PLL_CURRENT_DEFAULT) == CYRET_
2157:Generated_Source\PSoC4/CyLib.c ****                     {
2158:Generated_Source\PSoC4/CyLib.c ****                         returnStatus = CySysClkPllSetOutputDivider(pll, divider);
2159:Generated_Source\PSoC4/CyLib.c ****                     }
2160:Generated_Source\PSoC4/CyLib.c ****                 }
2161:Generated_Source\PSoC4/CyLib.c ****             }
2162:Generated_Source\PSoC4/CyLib.c **** 
2163:Generated_Source\PSoC4/CyLib.c ****         }
2164:Generated_Source\PSoC4/CyLib.c **** 
2165:Generated_Source\PSoC4/CyLib.c ****         return (returnStatus);
2166:Generated_Source\PSoC4/CyLib.c ****     }
2167:Generated_Source\PSoC4/CyLib.c **** 
2168:Generated_Source\PSoC4/CyLib.c ****     /*******************************************************************************
2169:Generated_Source\PSoC4/CyLib.c ****     * Function Name: CySysClkPllSetSource
2170:Generated_Source\PSoC4/CyLib.c ****     ****************************************************************************//**
2171:Generated_Source\PSoC4/CyLib.c ****     *
2172:Generated_Source\PSoC4/CyLib.c ****     *  Sets the input clock source to the PLL. The PLL must be disabled before
2173:Generated_Source\PSoC4/CyLib.c ****     *  calling this function.
2174:Generated_Source\PSoC4/CyLib.c ****     *
2175:Generated_Source\PSoC4/CyLib.c ****     *  This API is available only for PSoC 4200L / 4100S /4500 with PLL devices.
2176:Generated_Source\PSoC4/CyLib.c ****     *
2177:Generated_Source\PSoC4/CyLib.c ****     *  \param PLL:
2178:Generated_Source\PSoC4/CyLib.c ****     *  0   PLL#0
2179:Generated_Source\PSoC4/CyLib.c ****     *  1   PLL#1 (available only for PSoC 4200L)
2180:Generated_Source\PSoC4/CyLib.c ****     *
2181:Generated_Source\PSoC4/CyLib.c ****     * \param source:
2182:Generated_Source\PSoC4/CyLib.c ****     *  CY_SYS_PLL_SOURCE_IMO        IMO
2183:Generated_Source\PSoC4/CyLib.c ****     *  CY_SYS_PLL_SOURCE_EXTCLK     External Clock (available only for PSoC 4200L
2184:Generated_Source\PSoC4/CyLib.c ****     *  and PSoC 4500 with PLL devices)
2185:Generated_Source\PSoC4/CyLib.c ****     *  CY_SYS_PLL_SOURCE_ECO        ECO
2186:Generated_Source\PSoC4/CyLib.c ****     *  CY_SYS_PLL_SOURCE_DSI0       DSI_OUT[0] (available only for PSoC 4200L)
2187:Generated_Source\PSoC4/CyLib.c ****     *  CY_SYS_PLL_SOURCE_DSI1       DSI_OUT[1] (available only for PSoC 4200L)
2188:Generated_Source\PSoC4/CyLib.c ****     *  CY_SYS_PLL_SOURCE_DSI2       DSI_OUT[2] (available only for PSoC 4200L)
ARM GAS  C:\Users\YUANFA~1\AppData\Local\Temp\ccYDlzYT.s 			page 60


2189:Generated_Source\PSoC4/CyLib.c ****     *  CY_SYS_PLL_SOURCE_DSI3       DSI_OUT[3] (available only for PSoC 4200L)
2190:Generated_Source\PSoC4/CyLib.c ****     *
2191:Generated_Source\PSoC4/CyLib.c ****     *******************************************************************************/
2192:Generated_Source\PSoC4/CyLib.c ****     void CySysClkPllSetSource(uint32 pll, uint32 source)
2193:Generated_Source\PSoC4/CyLib.c ****     {
 1151              		.loc 1 2193 0
 1152              		.cfi_startproc
 1153              		@ args = 0, pretend = 0, frame = 0
 1154              		@ frame_needed = 0, uses_anonymous_args = 0
 1155              	.LVL102:
 1156 0000 70B5     		push	{r4, r5, r6, lr}
 1157              		.cfi_def_cfa_offset 16
 1158              		.cfi_offset 4, -16
 1159              		.cfi_offset 5, -12
 1160              		.cfi_offset 6, -8
 1161              		.cfi_offset 14, -4
 1162 0002 0500     		movs	r5, r0
 1163 0004 0C00     		movs	r4, r1
 1164              	.LVL103:
2194:Generated_Source\PSoC4/CyLib.c ****         uint8  interruptState;
2195:Generated_Source\PSoC4/CyLib.c **** 
2196:Generated_Source\PSoC4/CyLib.c ****         #if (CY_IP_SRSSLT)
2197:Generated_Source\PSoC4/CyLib.c ****             uint8 i = 0u;
2198:Generated_Source\PSoC4/CyLib.c ****         #else
2199:Generated_Source\PSoC4/CyLib.c ****             uint32 regTmp;
2200:Generated_Source\PSoC4/CyLib.c ****         #endif /* (CY_IP_SRSSLT) */
2201:Generated_Source\PSoC4/CyLib.c **** 
2202:Generated_Source\PSoC4/CyLib.c ****         interruptState = CyEnterCriticalSection();
 1165              		.loc 1 2202 0
 1166 0006 FFF7FEFF 		bl	CyEnterCriticalSection
 1167              	.LVL104:
2203:Generated_Source\PSoC4/CyLib.c **** 
2204:Generated_Source\PSoC4/CyLib.c ****         if (pll < CY_IP_PLL_NR)
 1168              		.loc 1 2204 0
 1169 000a 002D     		cmp	r5, #0
 1170 000c 29D1     		bne	.L82
2205:Generated_Source\PSoC4/CyLib.c ****         {
2206:Generated_Source\PSoC4/CyLib.c ****             #if(CY_IP_SRSSV2)
2207:Generated_Source\PSoC4/CyLib.c ****                 regTmp = CY_SYS_CLK_SELECT_REG & (uint32) ~CY_SYS_CLK_SELECT_PLL_MASK(pll);
2208:Generated_Source\PSoC4/CyLib.c ****                 regTmp |= ((source << CY_SYS_CLK_SELECT_PLL_SHIFT(pll)) & CY_SYS_CLK_SELECT_PLL_MAS
2209:Generated_Source\PSoC4/CyLib.c ****                 CY_SYS_CLK_SELECT_REG = regTmp;
2210:Generated_Source\PSoC4/CyLib.c ****             #else
2211:Generated_Source\PSoC4/CyLib.c ****                 CY_SET_REG32_FIELD(CYREG_EXCO_CLK_SELECT, CYFLD_EXCO_REF_SEL, source);
 1171              		.loc 1 2211 0
 1172 000e 1649     		ldr	r1, .L86
 1173 0010 0A68     		ldr	r2, [r1]
 1174 0012 0235     		adds	r5, r5, #2
 1175              	.LVL105:
 1176 0014 AA43     		bics	r2, r5
 1177 0016 6300     		lsls	r3, r4, #1
 1178 0018 2C00     		movs	r4, r5
 1179              	.LVL106:
 1180 001a 1C40     		ands	r4, r3
 1181 001c 1443     		orrs	r4, r2
 1182 001e 0C60     		str	r4, [r1]
2212:Generated_Source\PSoC4/CyLib.c **** 
2213:Generated_Source\PSoC4/CyLib.c ****                 /* Check if ECO is enabled and running */
ARM GAS  C:\Users\YUANFA~1\AppData\Local\Temp\ccYDlzYT.s 			page 61


2214:Generated_Source\PSoC4/CyLib.c ****                 if ((0UL == (CY_SYS_CLK_ECO_CONFIG_REG & CY_SYS_CLK_ECO_CONFIG_ENABLE)) ||
 1183              		.loc 1 2214 0
 1184 0020 124B     		ldr	r3, .L86+4
 1185 0022 1B68     		ldr	r3, [r3]
 1186 0024 002B     		cmp	r3, #0
 1187 0026 03DA     		bge	.L83
2215:Generated_Source\PSoC4/CyLib.c ****                     (0UL != (CY_SYS_CLK_ECO_STATUS_REG & CY_SYS_CLK_ECO_STATUS_WATCHDOG_ERROR)))
 1188              		.loc 1 2215 0 discriminator 1
 1189 0028 114B     		ldr	r3, .L86+8
 1190 002a 1B68     		ldr	r3, [r3]
2214:Generated_Source\PSoC4/CyLib.c ****                     (0UL != (CY_SYS_CLK_ECO_STATUS_REG & CY_SYS_CLK_ECO_STATUS_WATCHDOG_ERROR)))
 1191              		.loc 1 2214 0 discriminator 1
 1192 002c DB07     		lsls	r3, r3, #31
 1193 002e 18D5     		bpl	.L82
 1194              	.L83:
2216:Generated_Source\PSoC4/CyLib.c ****                 {
2217:Generated_Source\PSoC4/CyLib.c ****                     /* Generate clock sequence to change clock source in CY_SYS_ECO_CLK_SELECT_REG 
2218:Generated_Source\PSoC4/CyLib.c ****                     CY_SYS_EXCO_PGM_CLK_REG |= CY_SYS_EXCO_PGM_CLK_ENABLE_MASK;
 1195              		.loc 1 2218 0
 1196 0030 104A     		ldr	r2, .L86+12
 1197 0032 1368     		ldr	r3, [r2]
 1198 0034 8021     		movs	r1, #128
 1199 0036 0906     		lsls	r1, r1, #24
 1200 0038 0B43     		orrs	r3, r1
 1201 003a 1360     		str	r3, [r2]
2219:Generated_Source\PSoC4/CyLib.c **** 
2220:Generated_Source\PSoC4/CyLib.c ****                     for(i = 0u; i < CY_SYS_EXCO_PGM_CLK_SEQ_GENERATOR; i++)
 1202              		.loc 1 2220 0
 1203 003c 0023     		movs	r3, #0
 1204 003e 09E0     		b	.L84
 1205              	.LVL107:
 1206              	.L85:
2221:Generated_Source\PSoC4/CyLib.c ****                     {
2222:Generated_Source\PSoC4/CyLib.c ****                         CY_SYS_EXCO_PGM_CLK_REG |= CY_SYS_EXCO_PGM_CLK_CLK_ECO_MASK;
 1207              		.loc 1 2222 0 discriminator 3
 1208 0040 0C4A     		ldr	r2, .L86+12
 1209 0042 1168     		ldr	r1, [r2]
 1210 0044 0224     		movs	r4, #2
 1211 0046 2143     		orrs	r1, r4
 1212 0048 1160     		str	r1, [r2]
2223:Generated_Source\PSoC4/CyLib.c ****                         CY_SYS_EXCO_PGM_CLK_REG &= ~CY_SYS_EXCO_PGM_CLK_CLK_ECO_MASK;
 1213              		.loc 1 2223 0 discriminator 3
 1214 004a 1168     		ldr	r1, [r2]
 1215 004c A143     		bics	r1, r4
 1216 004e 1160     		str	r1, [r2]
2220:Generated_Source\PSoC4/CyLib.c ****                     {
 1217              		.loc 1 2220 0 discriminator 3
 1218 0050 0133     		adds	r3, r3, #1
 1219              	.LVL108:
 1220 0052 DBB2     		uxtb	r3, r3
 1221              	.LVL109:
 1222              	.L84:
2220:Generated_Source\PSoC4/CyLib.c ****                     {
 1223              		.loc 1 2220 0 is_stmt 0 discriminator 1
 1224 0054 042B     		cmp	r3, #4
 1225 0056 F3D9     		bls	.L85
2224:Generated_Source\PSoC4/CyLib.c ****                     }
ARM GAS  C:\Users\YUANFA~1\AppData\Local\Temp\ccYDlzYT.s 			page 62


2225:Generated_Source\PSoC4/CyLib.c **** 
2226:Generated_Source\PSoC4/CyLib.c ****                     CY_SYS_EXCO_PGM_CLK_REG &= ~CY_SYS_EXCO_PGM_CLK_ENABLE_MASK;
 1226              		.loc 1 2226 0 is_stmt 1
 1227 0058 064A     		ldr	r2, .L86+12
 1228 005a 1368     		ldr	r3, [r2]
 1229              	.LVL110:
 1230 005c 5B00     		lsls	r3, r3, #1
 1231 005e 5B08     		lsrs	r3, r3, #1
 1232 0060 1360     		str	r3, [r2]
 1233              	.LVL111:
 1234              	.L82:
2227:Generated_Source\PSoC4/CyLib.c ****                 }
2228:Generated_Source\PSoC4/CyLib.c **** 
2229:Generated_Source\PSoC4/CyLib.c ****             #endif /* (CY_IP_SRSSV2) */
2230:Generated_Source\PSoC4/CyLib.c ****         }
2231:Generated_Source\PSoC4/CyLib.c **** 
2232:Generated_Source\PSoC4/CyLib.c ****         CyExitCriticalSection(interruptState);
 1235              		.loc 1 2232 0
 1236 0062 FFF7FEFF 		bl	CyExitCriticalSection
 1237              	.LVL112:
2233:Generated_Source\PSoC4/CyLib.c ****     }
 1238              		.loc 1 2233 0
 1239              		@ sp needed
 1240 0066 70BD     		pop	{r4, r5, r6, pc}
 1241              	.L87:
 1242              		.align	2
 1243              	.L86:
 1244 0068 00002F40 		.word	1076822016
 1245 006c 08002F40 		.word	1076822024
 1246 0070 0C002F40 		.word	1076822028
 1247 0074 20002F40 		.word	1076822048
 1248              		.cfi_endproc
 1249              	.LFE26:
 1250              		.size	CySysClkPllSetSource, .-CySysClkPllSetSource
 1251              		.section	.text.CySysGetResetReason,"ax",%progbits
 1252              		.align	2
 1253              		.global	CySysGetResetReason
 1254              		.code	16
 1255              		.thumb_func
 1256              		.type	CySysGetResetReason, %function
 1257              	CySysGetResetReason:
 1258              	.LFB28:
2234:Generated_Source\PSoC4/CyLib.c **** 
2235:Generated_Source\PSoC4/CyLib.c **** 
2236:Generated_Source\PSoC4/CyLib.c ****     /*******************************************************************************
2237:Generated_Source\PSoC4/CyLib.c ****     * Function Name: CySysClkPllSetOutputDivider
2238:Generated_Source\PSoC4/CyLib.c ****     ****************************************************************************//**
2239:Generated_Source\PSoC4/CyLib.c ****     *
2240:Generated_Source\PSoC4/CyLib.c ****     *  Sets the output clock divider for the PLL.
2241:Generated_Source\PSoC4/CyLib.c ****     *
2242:Generated_Source\PSoC4/CyLib.c ****     *  The PLL must not be the System Clock source when calling this function. The
2243:Generated_Source\PSoC4/CyLib.c ****     *  PLL output will glitch during this function call.
2244:Generated_Source\PSoC4/CyLib.c ****     *
2245:Generated_Source\PSoC4/CyLib.c ****     *  This API is available only for PSoC 4200L / 4100S / 4500 with PLL devices.
2246:Generated_Source\PSoC4/CyLib.c ****     *
2247:Generated_Source\PSoC4/CyLib.c ****     *  \param PLL:
2248:Generated_Source\PSoC4/CyLib.c ****     *   0   PLL#0
ARM GAS  C:\Users\YUANFA~1\AppData\Local\Temp\ccYDlzYT.s 			page 63


2249:Generated_Source\PSoC4/CyLib.c ****     *   1   PLL#1 (available only for PSoC 4200L)
2250:Generated_Source\PSoC4/CyLib.c ****     *
2251:Generated_Source\PSoC4/CyLib.c ****     * \param divider:
2252:Generated_Source\PSoC4/CyLib.c ****     *  CY_SYS_PLL_OUTPUT_DIVPASS    Pass through
2253:Generated_Source\PSoC4/CyLib.c ****     *  CY_SYS_PLL_OUTPUT_DIV2       Divide by 2
2254:Generated_Source\PSoC4/CyLib.c ****     *  CY_SYS_PLL_OUTPUT_DIV4       Divide by 4
2255:Generated_Source\PSoC4/CyLib.c ****     *  CY_SYS_PLL_OUTPUT_DIV8       Divide by 8
2256:Generated_Source\PSoC4/CyLib.c ****     *
2257:Generated_Source\PSoC4/CyLib.c ****     * \return \ref CYRET_SUCCESS    Completed successfully.
2258:Generated_Source\PSoC4/CyLib.c ****     * \return \ref CYRET_BAD_PARAM  The parameters are out of range or the
2259:Generated_Source\PSoC4/CyLib.c ****     * specified PLL sources the System clock.
2260:Generated_Source\PSoC4/CyLib.c ****     *
2261:Generated_Source\PSoC4/CyLib.c ****     *******************************************************************************/
2262:Generated_Source\PSoC4/CyLib.c ****     cystatus CySysClkPllSetOutputDivider(uint32 pll, uint32 divider)
2263:Generated_Source\PSoC4/CyLib.c ****     {
2264:Generated_Source\PSoC4/CyLib.c ****         uint32   tmpReg;
2265:Generated_Source\PSoC4/CyLib.c ****         uint8    interruptState;
2266:Generated_Source\PSoC4/CyLib.c ****         cystatus returnStatus = CYRET_BAD_PARAM;
2267:Generated_Source\PSoC4/CyLib.c ****         cystatus tmp;
2268:Generated_Source\PSoC4/CyLib.c **** 
2269:Generated_Source\PSoC4/CyLib.c **** 
2270:Generated_Source\PSoC4/CyLib.c ****         interruptState = CyEnterCriticalSection();
2271:Generated_Source\PSoC4/CyLib.c **** 
2272:Generated_Source\PSoC4/CyLib.c ****         tmp = CySysClkPllConfigChangeAllowed(pll);
2273:Generated_Source\PSoC4/CyLib.c **** 
2274:Generated_Source\PSoC4/CyLib.c ****         if ((pll < CY_IP_PLL_NR) && (CYRET_SUCCESS == tmp) && (divider <= CY_SYS_PLL_OUTPUT_DIV8))
2275:Generated_Source\PSoC4/CyLib.c ****         {
2276:Generated_Source\PSoC4/CyLib.c ****             tmpReg  = CY_SYS_CLK_PLL_BASE.pll[pll].config & (uint32) ~(CY_SYS_CLK_PLL_CONFIG_OUTPUT
2277:Generated_Source\PSoC4/CyLib.c ****             tmpReg |= ((divider << CY_SYS_CLK_PLL_CONFIG_OUTPUT_DIV_SHIFT) & CY_SYS_CLK_PLL_CONFIG_
2278:Generated_Source\PSoC4/CyLib.c **** 
2279:Generated_Source\PSoC4/CyLib.c ****             CY_SYS_CLK_PLL_BASE.pll[pll].config = tmpReg;
2280:Generated_Source\PSoC4/CyLib.c **** 
2281:Generated_Source\PSoC4/CyLib.c ****             returnStatus = CYRET_SUCCESS;
2282:Generated_Source\PSoC4/CyLib.c ****         }
2283:Generated_Source\PSoC4/CyLib.c **** 
2284:Generated_Source\PSoC4/CyLib.c ****         CyExitCriticalSection(interruptState);
2285:Generated_Source\PSoC4/CyLib.c **** 
2286:Generated_Source\PSoC4/CyLib.c ****         return (returnStatus);
2287:Generated_Source\PSoC4/CyLib.c ****     }
2288:Generated_Source\PSoC4/CyLib.c **** 
2289:Generated_Source\PSoC4/CyLib.c **** 
2290:Generated_Source\PSoC4/CyLib.c ****     #if (CY_IP_ECOV2_SRSSLT)
2291:Generated_Source\PSoC4/CyLib.c ****         /*******************************************************************************
2292:Generated_Source\PSoC4/CyLib.c ****         * Function Name: CySysClkPllGetInterruptCauseMasked
2293:Generated_Source\PSoC4/CyLib.c ****         ****************************************************************************//**
2294:Generated_Source\PSoC4/CyLib.c ****         *
2295:Generated_Source\PSoC4/CyLib.c ****         *  Returns a non-zero value that reflects a bit-wise AND between interrupt
2296:Generated_Source\PSoC4/CyLib.c ****         *  request and mask registers. The API allows firmware to read the status of
2297:Generated_Source\PSoC4/CyLib.c ****         *  all mask enabled interrupt causes with a single load operation.
2298:Generated_Source\PSoC4/CyLib.c ****         *
2299:Generated_Source\PSoC4/CyLib.c ****         *  This API is available only for PSoC 4500 with PLL devices.
2300:Generated_Source\PSoC4/CyLib.c ****         *
2301:Generated_Source\PSoC4/CyLib.c ****         * \return A set bit indicates the source of the interrupt:
2302:Generated_Source\PSoC4/CyLib.c ****         *  *CY_SYS_PLL_INTR_PLL_LOCK
2303:Generated_Source\PSoC4/CyLib.c ****         *  *CY_SYS_PLL_INTR_WD_ERR
2304:Generated_Source\PSoC4/CyLib.c ****         *  *CY_SYS_PLL_INTR_CSV_CLK_SW
2305:Generated_Source\PSoC4/CyLib.c ****         *
ARM GAS  C:\Users\YUANFA~1\AppData\Local\Temp\ccYDlzYT.s 			page 64


2306:Generated_Source\PSoC4/CyLib.c ****         *******************************************************************************/
2307:Generated_Source\PSoC4/CyLib.c ****         uint32 CySysClkPllGetInterruptCauseMasked(void)
2308:Generated_Source\PSoC4/CyLib.c ****         {
2309:Generated_Source\PSoC4/CyLib.c ****             return ((uint32)CY_GET_REG32(CYREG_EXCO_INTR_MASKED));
2310:Generated_Source\PSoC4/CyLib.c ****         }
2311:Generated_Source\PSoC4/CyLib.c **** 
2312:Generated_Source\PSoC4/CyLib.c **** 
2313:Generated_Source\PSoC4/CyLib.c ****         /*******************************************************************************
2314:Generated_Source\PSoC4/CyLib.c ****         * Function Name: CySysClkPllGetInterruptCause
2315:Generated_Source\PSoC4/CyLib.c ****         ****************************************************************************//**
2316:Generated_Source\PSoC4/CyLib.c ****         *
2317:Generated_Source\PSoC4/CyLib.c ****         *  Returns a non-zero value that reflects the interrupt request registers.
2318:Generated_Source\PSoC4/CyLib.c ****         *
2319:Generated_Source\PSoC4/CyLib.c ****         *  This API is available only for PSoC 4500 with PLL devices.
2320:Generated_Source\PSoC4/CyLib.c ****         *
2321:Generated_Source\PSoC4/CyLib.c ****         * \return A set bit indicates the source of the interrupt:
2322:Generated_Source\PSoC4/CyLib.c ****         *  *CY_SYS_PLL_INTR_PLL_LOCK
2323:Generated_Source\PSoC4/CyLib.c ****         *  *CY_SYS_PLL_INTR_WD_ERR
2324:Generated_Source\PSoC4/CyLib.c ****         *  *CY_SYS_PLL_INTR_CSV_CLK_SW
2325:Generated_Source\PSoC4/CyLib.c ****         *
2326:Generated_Source\PSoC4/CyLib.c ****         *******************************************************************************/
2327:Generated_Source\PSoC4/CyLib.c ****         uint32 CySysClkPllGetInterruptCause(void)
2328:Generated_Source\PSoC4/CyLib.c ****         {
2329:Generated_Source\PSoC4/CyLib.c ****             return ((uint32)CY_GET_REG32(CYREG_EXCO_INTR));
2330:Generated_Source\PSoC4/CyLib.c ****         }
2331:Generated_Source\PSoC4/CyLib.c **** 
2332:Generated_Source\PSoC4/CyLib.c **** 
2333:Generated_Source\PSoC4/CyLib.c ****         /*******************************************************************************
2334:Generated_Source\PSoC4/CyLib.c ****         * Function Name: CySysClkPllClearPendingInterrupt
2335:Generated_Source\PSoC4/CyLib.c ****         ****************************************************************************//**
2336:Generated_Source\PSoC4/CyLib.c ****         *
2337:Generated_Source\PSoC4/CyLib.c ****         *  Clears the pending interrupt.
2338:Generated_Source\PSoC4/CyLib.c ****         *
2339:Generated_Source\PSoC4/CyLib.c ****         *  This API is available only for PSoC 4500 with PLL devices.
2340:Generated_Source\PSoC4/CyLib.c ****         *
2341:Generated_Source\PSoC4/CyLib.c ****         * \param interrupt:
2342:Generated_Source\PSoC4/CyLib.c ****         *  CY_SYS_PLL_INTR_PLL_LOCK
2343:Generated_Source\PSoC4/CyLib.c ****         *  CY_SYS_PLL_INTR_WD_ERR
2344:Generated_Source\PSoC4/CyLib.c ****         *  CY_SYS_PLL_INTR_CSV_CLK_SW
2345:Generated_Source\PSoC4/CyLib.c ****         *  A logical OR of above can be used as input parameter.
2346:Generated_Source\PSoC4/CyLib.c ****         *
2347:Generated_Source\PSoC4/CyLib.c ****         *******************************************************************************/
2348:Generated_Source\PSoC4/CyLib.c ****         void CySysClkPllClearPendingInterrupt(uint32 interrupt)
2349:Generated_Source\PSoC4/CyLib.c ****         {
2350:Generated_Source\PSoC4/CyLib.c ****             CY_SET_REG32(CYREG_EXCO_INTR, interrupt);
2351:Generated_Source\PSoC4/CyLib.c ****         }
2352:Generated_Source\PSoC4/CyLib.c **** 
2353:Generated_Source\PSoC4/CyLib.c **** 
2354:Generated_Source\PSoC4/CyLib.c ****         /*******************************************************************************
2355:Generated_Source\PSoC4/CyLib.c ****         * Function Name: CySysClkPllSetInterruptMask
2356:Generated_Source\PSoC4/CyLib.c ****         ****************************************************************************//**
2357:Generated_Source\PSoC4/CyLib.c ****         *
2358:Generated_Source\PSoC4/CyLib.c ****         *  This API sets the interrupt mask bit for the corresponding interrupts.
2359:Generated_Source\PSoC4/CyLib.c ****         *
2360:Generated_Source\PSoC4/CyLib.c ****         *  This API is available only for PSoC 4500 with PLL devices.
2361:Generated_Source\PSoC4/CyLib.c ****         *
2362:Generated_Source\PSoC4/CyLib.c ****         * \param intrMask:
ARM GAS  C:\Users\YUANFA~1\AppData\Local\Temp\ccYDlzYT.s 			page 65


2363:Generated_Source\PSoC4/CyLib.c ****         *  CY_SYS_PLL_INTR_PLL_LOCK
2364:Generated_Source\PSoC4/CyLib.c ****         *  CY_SYS_PLL_INTR_WD_ERR
2365:Generated_Source\PSoC4/CyLib.c ****         *  CY_SYS_PLL_INTR_CSV_CLK_SW
2366:Generated_Source\PSoC4/CyLib.c ****         *  A logical OR of above can be used as input parameter.
2367:Generated_Source\PSoC4/CyLib.c ****         *
2368:Generated_Source\PSoC4/CyLib.c ****         *******************************************************************************/
2369:Generated_Source\PSoC4/CyLib.c ****         void CySysClkPllSetInterruptMask(uint32 intrMask)
2370:Generated_Source\PSoC4/CyLib.c ****         {
2371:Generated_Source\PSoC4/CyLib.c ****             CY_SET_REG32(CYREG_EXCO_INTR_MASK, intrMask);
2372:Generated_Source\PSoC4/CyLib.c ****         }
2373:Generated_Source\PSoC4/CyLib.c **** 
2374:Generated_Source\PSoC4/CyLib.c **** 
2375:Generated_Source\PSoC4/CyLib.c ****         /*******************************************************************************
2376:Generated_Source\PSoC4/CyLib.c ****         * Function Name: CySysClkPllGetInterruptMask
2377:Generated_Source\PSoC4/CyLib.c ****         ****************************************************************************//**
2378:Generated_Source\PSoC4/CyLib.c ****         *
2379:Generated_Source\PSoC4/CyLib.c ****         *  This API returns the current interrupt mask register value.
2380:Generated_Source\PSoC4/CyLib.c ****         *
