ARM GAS  C:\Users\YUANFA~1\AppData\Local\Temp\ccYDlzYT.s 			page 1


   1              		.syntax unified
   2              		.cpu cortex-m0plus
   3              		.fpu softvfp
   4              		.eabi_attribute 20, 1
   5              		.eabi_attribute 21, 1
   6              		.eabi_attribute 23, 3
   7              		.eabi_attribute 24, 1
   8              		.eabi_attribute 25, 1
   9              		.eabi_attribute 26, 1
  10              		.eabi_attribute 30, 1
  11              		.eabi_attribute 34, 0
  12              		.eabi_attribute 18, 4
  13              		.thumb
  14              		.syntax unified
  15              		.file	"CyLib.c"
  16              		.text
  17              	.Ltext0:
  18              		.cfi_sections	.debug_frame
  19              		.section	.text.CySysClkImoStart,"ax",%progbits
  20              		.align	2
  21              		.global	CySysClkImoStart
  22              		.code	16
  23              		.thumb_func
  24              		.type	CySysClkImoStart, %function
  25              	CySysClkImoStart:
  26              	.LFB1:
  27              		.file 1 "Generated_Source\\PSoC4\\CyLib.c"
   1:Generated_Source\PSoC4/CyLib.c **** /***************************************************************************//**
   2:Generated_Source\PSoC4/CyLib.c **** * \file CyLib.c
   3:Generated_Source\PSoC4/CyLib.c **** * \version 6.0
   4:Generated_Source\PSoC4/CyLib.c **** *
   5:Generated_Source\PSoC4/CyLib.c **** * \brief Provides a system API for the Clocking, Interrupts, SysTick, and
   6:Generated_Source\PSoC4/CyLib.c **** * Voltage Detect.
   7:Generated_Source\PSoC4/CyLib.c **** *
   8:Generated_Source\PSoC4/CyLib.c **** * \note Documentation of the API's in this file is located in the PSoC 4 System
   9:Generated_Source\PSoC4/CyLib.c **** * Reference Guide provided with PSoC Creator.
  10:Generated_Source\PSoC4/CyLib.c **** *
  11:Generated_Source\PSoC4/CyLib.c **** ********************************************************************************
  12:Generated_Source\PSoC4/CyLib.c **** * \copyright
  13:Generated_Source\PSoC4/CyLib.c **** * Copyright 2010-2020, Cypress Semiconductor Corporation.  All rights reserved.
  14:Generated_Source\PSoC4/CyLib.c **** * You may use this file only in accordance with the license, terms, conditions,
  15:Generated_Source\PSoC4/CyLib.c **** * disclaimers, and limitations in the end user license agreement accompanying
  16:Generated_Source\PSoC4/CyLib.c **** * the software package with which this file was provided.
  17:Generated_Source\PSoC4/CyLib.c **** *******************************************************************************/
  18:Generated_Source\PSoC4/CyLib.c **** 
  19:Generated_Source\PSoC4/CyLib.c **** #include "CyLib.h"
  20:Generated_Source\PSoC4/CyLib.c **** 
  21:Generated_Source\PSoC4/CyLib.c **** /* CySysClkWriteImoFreq() || CySysClkImoEnableWcoLock() */
  22:Generated_Source\PSoC4/CyLib.c **** #if ((CY_IP_SRSSV2 && CY_IP_FMLT) || CY_IP_IMO_TRIMMABLE_BY_WCO)
  23:Generated_Source\PSoC4/CyLib.c ****     #include "CyFlash.h"
  24:Generated_Source\PSoC4/CyLib.c **** #endif /* (CY_IP_SRSSV2 && CY_IP_FMLT) */
  25:Generated_Source\PSoC4/CyLib.c **** 
  26:Generated_Source\PSoC4/CyLib.c **** /* Do not use these definitions directly in your application */
  27:Generated_Source\PSoC4/CyLib.c **** uint32 cydelayFreqHz  = CYDEV_BCLK__SYSCLK__HZ;
  28:Generated_Source\PSoC4/CyLib.c **** uint32 cydelayFreqKhz = (CYDEV_BCLK__SYSCLK__HZ + CY_DELAY_1K_MINUS_1_THRESHOLD) / CY_DELAY_1K_THRE
  29:Generated_Source\PSoC4/CyLib.c **** uint8  cydelayFreqMhz = (uint8)((CYDEV_BCLK__SYSCLK__HZ + CY_DELAY_1M_MINUS_1_THRESHOLD) / CY_DELAY
  30:Generated_Source\PSoC4/CyLib.c **** uint32 cydelay32kMs   = CY_DELAY_MS_OVERFLOW * ((CYDEV_BCLK__SYSCLK__HZ + CY_DELAY_1K_MINUS_1_THRES
ARM GAS  C:\Users\YUANFA~1\AppData\Local\Temp\ccYDlzYT.s 			page 2


  31:Generated_Source\PSoC4/CyLib.c ****                         CY_DELAY_1K_THRESHOLD);
  32:Generated_Source\PSoC4/CyLib.c **** 
  33:Generated_Source\PSoC4/CyLib.c **** 
  34:Generated_Source\PSoC4/CyLib.c **** static cySysTickCallback CySysTickCallbacks[CY_SYS_SYST_NUM_OF_CALLBACKS];
  35:Generated_Source\PSoC4/CyLib.c **** static void CySysTickServiceCallbacks(void);
  36:Generated_Source\PSoC4/CyLib.c **** 
  37:Generated_Source\PSoC4/CyLib.c **** #if (CY_IP_PLL)
  38:Generated_Source\PSoC4/CyLib.c ****     static uint32 CySysClkPllGetBypassMode(uint32 pll);
  39:Generated_Source\PSoC4/CyLib.c ****     static cystatus CySysClkPllConfigChangeAllowed(uint32 pll);
  40:Generated_Source\PSoC4/CyLib.c **** #endif /* (CY_IP_PLL) */
  41:Generated_Source\PSoC4/CyLib.c **** 
  42:Generated_Source\PSoC4/CyLib.c **** 
  43:Generated_Source\PSoC4/CyLib.c **** /***************************************************************************//**
  44:Generated_Source\PSoC4/CyLib.c **** * Indicates whether or not the SysTick has been initialized. The variable is
  45:Generated_Source\PSoC4/CyLib.c **** * initialized to 0 and set to 1 the first time CySysTickStart() is called.
  46:Generated_Source\PSoC4/CyLib.c **** *
  47:Generated_Source\PSoC4/CyLib.c **** * This allows the component to restart without reinitialization after the first
  48:Generated_Source\PSoC4/CyLib.c **** * call to the CySysTickStart() routine.
  49:Generated_Source\PSoC4/CyLib.c **** *
  50:Generated_Source\PSoC4/CyLib.c **** * If reinitialization of the SysTick is required, call CySysTickInit() before
  51:Generated_Source\PSoC4/CyLib.c **** * calling CySysTickStart(). Alternatively, the SysTick can be reinitialized by
  52:Generated_Source\PSoC4/CyLib.c **** * calling the CySysTickInit() and CySysTickEnable() functions.
  53:Generated_Source\PSoC4/CyLib.c **** *******************************************************************************/
  54:Generated_Source\PSoC4/CyLib.c **** uint32 CySysTickInitVar = 0u;
  55:Generated_Source\PSoC4/CyLib.c **** 
  56:Generated_Source\PSoC4/CyLib.c **** 
  57:Generated_Source\PSoC4/CyLib.c **** #if(CY_IP_SRSSV2)
  58:Generated_Source\PSoC4/CyLib.c ****         /* Conversion between CySysClkWriteImoFreq() parameter and register's value */
  59:Generated_Source\PSoC4/CyLib.c ****         const uint8 cyImoFreqMhz2Reg[CY_SYS_CLK_IMO_FREQ_TABLE_SIZE] = {
  60:Generated_Source\PSoC4/CyLib.c ****             /*  3 MHz */ 0x03u,  /*  4 MHz */ 0x04u,  /*  5 MHz */ 0x05u,  /*  6 MHz */ 0x06u,
  61:Generated_Source\PSoC4/CyLib.c ****             /*  7 MHz */ 0x07u,  /*  8 MHz */ 0x08u,  /*  9 MHz */ 0x09u,  /* 10 MHz */ 0x0Au,
  62:Generated_Source\PSoC4/CyLib.c ****             /* 11 MHz */ 0x0Bu,  /* 12 MHz */ 0x0Cu,  /* 13 MHz */ 0x0Eu,  /* 14 MHz */ 0x0Fu,
  63:Generated_Source\PSoC4/CyLib.c ****             /* 15 MHz */ 0x10u,  /* 16 MHz */ 0x11u,  /* 17 MHz */ 0x12u,  /* 18 MHz */ 0x13u,
  64:Generated_Source\PSoC4/CyLib.c ****             /* 19 MHz */ 0x14u,  /* 20 MHz */ 0x15u,  /* 21 MHz */ 0x16u,  /* 22 MHz */ 0x17u,
  65:Generated_Source\PSoC4/CyLib.c ****             /* 23 MHz */ 0x18u,  /* 24 MHz */ 0x19u,  /* 25 MHz */ 0x1Bu,  /* 26 MHz */ 0x1Cu,
  66:Generated_Source\PSoC4/CyLib.c ****             /* 27 MHz */ 0x1Du,  /* 28 MHz */ 0x1Eu,  /* 29 MHz */ 0x1Fu,  /* 30 MHz */ 0x20u,
  67:Generated_Source\PSoC4/CyLib.c ****             /* 31 MHz */ 0x21u,  /* 32 MHz */ 0x22u,  /* 33 MHz */ 0x23u,  /* 34 MHz */ 0x25u,
  68:Generated_Source\PSoC4/CyLib.c ****             /* 35 MHz */ 0x26u,  /* 36 MHz */ 0x27u,  /* 37 MHz */ 0x28u,  /* 38 MHz */ 0x29u,
  69:Generated_Source\PSoC4/CyLib.c ****             /* 39 MHz */ 0x2Au,  /* 40 MHz */ 0x2Bu,  /* 41 MHz */ 0x2Eu,  /* 42 MHz */ 0x2Fu,
  70:Generated_Source\PSoC4/CyLib.c ****             /* 43 MHz */ 0x30u,  /* 44 MHz */ 0x31u,  /* 45 MHz */ 0x32u,  /* 46 MHz */ 0x33u,
  71:Generated_Source\PSoC4/CyLib.c ****             /* 47 MHz */ 0x34u,  /* 48 MHz */ 0x35u };
  72:Generated_Source\PSoC4/CyLib.c **** #endif /* (CY_IP_SRSSV2) */
  73:Generated_Source\PSoC4/CyLib.c **** 
  74:Generated_Source\PSoC4/CyLib.c **** #if (CY_IP_IMO_TRIMMABLE_BY_USB && CY_IP_SRSSV2)
  75:Generated_Source\PSoC4/CyLib.c ****     #define CY_CRI_TESTPGM_6_REV            (6u)
  76:Generated_Source\PSoC4/CyLib.c ****     #define CY_CRI_TESTPGM_9_REV            (9u)
  77:Generated_Source\PSoC4/CyLib.c ****     #define CYSFLASH_CRI_testpgm_rev_MASK   (0x0000003Fu)
  78:Generated_Source\PSoC4/CyLib.c **** 
  79:Generated_Source\PSoC4/CyLib.c ****     /* Stored CY_SYS_CLK_IMO_TRIM4_REG when modified for USB lock */
  80:Generated_Source\PSoC4/CyLib.c ****     uint32 CySysClkImoTrim4 = 0u;
  81:Generated_Source\PSoC4/CyLib.c ****     uint32 CySysClkImoTrim5 = 0u;
  82:Generated_Source\PSoC4/CyLib.c **** 
  83:Generated_Source\PSoC4/CyLib.c ****     static void CySysClkImoSetPwrBgTrim5(void);
  84:Generated_Source\PSoC4/CyLib.c ****     static void CySysClkImoSetImoTrims(void);
  85:Generated_Source\PSoC4/CyLib.c **** #endif /* (CY_IP_IMO_TRIMMABLE_BY_USB && CY_IP_SRSSV2) */
  86:Generated_Source\PSoC4/CyLib.c **** 
  87:Generated_Source\PSoC4/CyLib.c **** /* Stored PUMP_SEL configuration during disable (IMO output by default) */
ARM GAS  C:\Users\YUANFA~1\AppData\Local\Temp\ccYDlzYT.s 			page 3


  88:Generated_Source\PSoC4/CyLib.c **** uint32 CySysClkPumpConfig = CY_SYS_CLK_PUMP_ENABLE;
  89:Generated_Source\PSoC4/CyLib.c **** 
  90:Generated_Source\PSoC4/CyLib.c **** 
  91:Generated_Source\PSoC4/CyLib.c **** /*******************************************************************************
  92:Generated_Source\PSoC4/CyLib.c **** * Function Name: CySysClkImoStart
  93:Generated_Source\PSoC4/CyLib.c **** ****************************************************************************//**
  94:Generated_Source\PSoC4/CyLib.c **** *
  95:Generated_Source\PSoC4/CyLib.c **** * Enables the IMO.
  96:Generated_Source\PSoC4/CyLib.c **** *
  97:Generated_Source\PSoC4/CyLib.c **** * For PSoC 4100M / PSoC 4200M / PSoC 4000S / PSoC 4100S / PSoC 4500 / PSoC Analog
  98:Generated_Source\PSoC4/CyLib.c **** * Coprocessor devices, this function will also enable WCO lock if selected in
  99:Generated_Source\PSoC4/CyLib.c **** * the Design Wide Resources tab.
 100:Generated_Source\PSoC4/CyLib.c **** *
 101:Generated_Source\PSoC4/CyLib.c **** * For PSoC 4200L devices, this function will also enable USB lock if selected
 102:Generated_Source\PSoC4/CyLib.c **** * in the Design Wide Resources tab.
 103:Generated_Source\PSoC4/CyLib.c **** *
 104:Generated_Source\PSoC4/CyLib.c **** *******************************************************************************/
 105:Generated_Source\PSoC4/CyLib.c **** void CySysClkImoStart(void)
 106:Generated_Source\PSoC4/CyLib.c **** {
  28              		.loc 1 106 0
  29              		.cfi_startproc
  30              		@ args = 0, pretend = 0, frame = 0
  31              		@ frame_needed = 0, uses_anonymous_args = 0
  32              		@ link register save eliminated.
 107:Generated_Source\PSoC4/CyLib.c ****     CY_SYS_CLK_IMO_CONFIG_REG |= CY_SYS_CLK_IMO_CONFIG_ENABLE;
  33              		.loc 1 107 0
  34 0000 034A     		ldr	r2, .L2
  35 0002 1368     		ldr	r3, [r2]
  36 0004 8021     		movs	r1, #128
  37 0006 0906     		lsls	r1, r1, #24
  38 0008 0B43     		orrs	r3, r1
  39 000a 1360     		str	r3, [r2]
 108:Generated_Source\PSoC4/CyLib.c **** 
 109:Generated_Source\PSoC4/CyLib.c ****     #if (CY_IP_IMO_TRIMMABLE_BY_WCO)
 110:Generated_Source\PSoC4/CyLib.c ****         #if (CYDEV_IMO_TRIMMED_BY_WCO == 1u)
 111:Generated_Source\PSoC4/CyLib.c ****             CySysClkImoEnableWcoLock();
 112:Generated_Source\PSoC4/CyLib.c ****         #endif  /* (CYDEV_IMO_TRIMMED_BY_WCO == 1u) */
 113:Generated_Source\PSoC4/CyLib.c ****     #endif  /* (CY_IP_IMO_TRIMMABLE_BY_WCO) */
 114:Generated_Source\PSoC4/CyLib.c **** 
 115:Generated_Source\PSoC4/CyLib.c **** 
 116:Generated_Source\PSoC4/CyLib.c ****     #if (CY_IP_IMO_TRIMMABLE_BY_USB)
 117:Generated_Source\PSoC4/CyLib.c ****         #if (CYDEV_IMO_TRIMMED_BY_USB == 1u)
 118:Generated_Source\PSoC4/CyLib.c ****             CySysClkImoEnableUsbLock();
 119:Generated_Source\PSoC4/CyLib.c ****         #endif  /* (CYDEV_IMO_TRIMMED_BY_USB == 1u) */
 120:Generated_Source\PSoC4/CyLib.c ****     #endif  /* (CY_IP_IMO_TRIMMABLE_BY_USB) */
 121:Generated_Source\PSoC4/CyLib.c **** 
 122:Generated_Source\PSoC4/CyLib.c **** }
  40              		.loc 1 122 0
  41              		@ sp needed
  42 000c 7047     		bx	lr
  43              	.L3:
  44 000e C046     		.align	2
  45              	.L2:
  46 0010 30000340 		.word	1073938480
  47              		.cfi_endproc
  48              	.LFE1:
  49              		.size	CySysClkImoStart, .-CySysClkImoStart
ARM GAS  C:\Users\YUANFA~1\AppData\Local\Temp\ccYDlzYT.s 			page 4


  50              		.section	.text.CySysClkImoDisableWcoLock,"ax",%progbits
  51              		.align	2
  52              		.global	CySysClkImoDisableWcoLock
  53              		.code	16
  54              		.thumb_func
  55              		.type	CySysClkImoDisableWcoLock, %function
  56              	CySysClkImoDisableWcoLock:
  57              	.LFB4:
 123:Generated_Source\PSoC4/CyLib.c **** 
 124:Generated_Source\PSoC4/CyLib.c **** 
 125:Generated_Source\PSoC4/CyLib.c **** /*******************************************************************************
 126:Generated_Source\PSoC4/CyLib.c **** * Function Name: CySysClkImoStop
 127:Generated_Source\PSoC4/CyLib.c **** ****************************************************************************//**
 128:Generated_Source\PSoC4/CyLib.c **** *
 129:Generated_Source\PSoC4/CyLib.c **** * Disables the IMO.
 130:Generated_Source\PSoC4/CyLib.c **** *
 131:Generated_Source\PSoC4/CyLib.c **** * For PSoC 4100M / PSoC 4200M / PSoC 4200L / PSoC 4000S / PSoC 4100S /
 132:Generated_Source\PSoC4/CyLib.c **** * PSoC 4500 / PSoC Analog Coprocessor devices, this function will also
 133:Generated_Source\PSoC4/CyLib.c **** * disable WCO lock.
 134:Generated_Source\PSoC4/CyLib.c **** *
 135:Generated_Source\PSoC4/CyLib.c **** * For PSoC PSoC 4200L devices, this function will also disable USB lock.
 136:Generated_Source\PSoC4/CyLib.c **** *
 137:Generated_Source\PSoC4/CyLib.c **** *******************************************************************************/
 138:Generated_Source\PSoC4/CyLib.c **** void CySysClkImoStop(void)
 139:Generated_Source\PSoC4/CyLib.c **** {
 140:Generated_Source\PSoC4/CyLib.c ****     #if (CY_IP_IMO_TRIMMABLE_BY_WCO)
 141:Generated_Source\PSoC4/CyLib.c ****         CySysClkImoDisableWcoLock();
 142:Generated_Source\PSoC4/CyLib.c ****     #endif  /* (CY_IP_IMO_TRIMMABLE_BY_WCO) */
 143:Generated_Source\PSoC4/CyLib.c **** 
 144:Generated_Source\PSoC4/CyLib.c ****     #if (CY_IP_IMO_TRIMMABLE_BY_USB)
 145:Generated_Source\PSoC4/CyLib.c ****         CySysClkImoDisableUsbLock();
 146:Generated_Source\PSoC4/CyLib.c ****     #endif  /* (CY_IP_IMO_TRIMMABLE_BY_USB) */
 147:Generated_Source\PSoC4/CyLib.c **** 
 148:Generated_Source\PSoC4/CyLib.c ****     CY_SYS_CLK_IMO_CONFIG_REG &= ( uint32 ) ( ~( uint32 )CY_SYS_CLK_IMO_CONFIG_ENABLE);
 149:Generated_Source\PSoC4/CyLib.c **** }
 150:Generated_Source\PSoC4/CyLib.c **** 
 151:Generated_Source\PSoC4/CyLib.c **** #if (CY_IP_IMO_TRIMMABLE_BY_WCO)
 152:Generated_Source\PSoC4/CyLib.c **** 
 153:Generated_Source\PSoC4/CyLib.c ****     /*******************************************************************************
 154:Generated_Source\PSoC4/CyLib.c ****     * Function Name: CySysClkImoEnableWcoLock
 155:Generated_Source\PSoC4/CyLib.c ****     ****************************************************************************//**
 156:Generated_Source\PSoC4/CyLib.c ****     *
 157:Generated_Source\PSoC4/CyLib.c ****     * Enables the IMO to WCO lock feature. This function works only if the WCO is
 158:Generated_Source\PSoC4/CyLib.c ****     * already enabled. If the WCO is not enabled then this function returns
 159:Generated_Source\PSoC4/CyLib.c ****     * without enabling the lock feature.
 160:Generated_Source\PSoC4/CyLib.c ****     *
 161:Generated_Source\PSoC4/CyLib.c ****     * It takes up to 20 ms for the IMO to stabilize. The delay is implemented with
 162:Generated_Source\PSoC4/CyLib.c ****     * CyDelay() function. The delay interval is measured based on the system
 163:Generated_Source\PSoC4/CyLib.c ****     * frequency defined by PSoC Creator at build time. If System clock frequency
 164:Generated_Source\PSoC4/CyLib.c ****     * is changed in runtime, the CyDelayFreq() with the appropriate parameter
 165:Generated_Source\PSoC4/CyLib.c ****     * should be called.
 166:Generated_Source\PSoC4/CyLib.c ****     *
 167:Generated_Source\PSoC4/CyLib.c ****     * For PSoC 4200L devices, note that the IMO can lock to either WCO or USB
 168:Generated_Source\PSoC4/CyLib.c ****     * but not both.
 169:Generated_Source\PSoC4/CyLib.c ****     *
 170:Generated_Source\PSoC4/CyLib.c ****     * This function is applicable for PSoC 4100M / PSoC 4200M / PSoC 4000S /
 171:Generated_Source\PSoC4/CyLib.c ****     * PSoC 4100S / PSoC 4500 / PSoC Analog Coprocessor / PSoC 4200L.
ARM GAS  C:\Users\YUANFA~1\AppData\Local\Temp\ccYDlzYT.s 			page 5


 172:Generated_Source\PSoC4/CyLib.c ****     *
 173:Generated_Source\PSoC4/CyLib.c ****     *******************************************************************************/
 174:Generated_Source\PSoC4/CyLib.c ****     void CySysClkImoEnableWcoLock(void)
 175:Generated_Source\PSoC4/CyLib.c ****     {
 176:Generated_Source\PSoC4/CyLib.c ****         #if(CY_IP_SRSSV2)
 177:Generated_Source\PSoC4/CyLib.c ****             uint32 i;
 178:Generated_Source\PSoC4/CyLib.c ****         #endif  /* (CY_IP_SRSSV2) */
 179:Generated_Source\PSoC4/CyLib.c **** 
 180:Generated_Source\PSoC4/CyLib.c ****         uint32 freq;
 181:Generated_Source\PSoC4/CyLib.c ****         uint8  interruptState;
 182:Generated_Source\PSoC4/CyLib.c ****         uint32 regTmp;
 183:Generated_Source\PSoC4/CyLib.c ****         uint32 lfLimit = 0u;
 184:Generated_Source\PSoC4/CyLib.c ****         volatile uint32 flashCtlReg;
 185:Generated_Source\PSoC4/CyLib.c **** 
 186:Generated_Source\PSoC4/CyLib.c ****         if (0u != CySysClkWcoEnabled())
 187:Generated_Source\PSoC4/CyLib.c ****         {
 188:Generated_Source\PSoC4/CyLib.c ****             interruptState = CyEnterCriticalSection();
 189:Generated_Source\PSoC4/CyLib.c **** 
 190:Generated_Source\PSoC4/CyLib.c ****             /* Set oscillator interface control port to WCO */
 191:Generated_Source\PSoC4/CyLib.c ****             #if (CY_IP_IMO_TRIMMABLE_BY_WCO && CY_IP_IMO_TRIMMABLE_BY_USB)
 192:Generated_Source\PSoC4/CyLib.c ****                 CY_SYS_CLK_OSCINTF_CTL_REG =
 193:Generated_Source\PSoC4/CyLib.c ****                     (CY_SYS_CLK_OSCINTF_CTL_REG & (uint32) ~CY_SYS_CLK_OSCINTF_CTL_PORT_SEL_MASK) |
 194:Generated_Source\PSoC4/CyLib.c ****                     CY_SYS_CLK_OSCINTF_CTL_PORT_SEL_WCO;
 195:Generated_Source\PSoC4/CyLib.c ****             #endif /* (CY_IP_IMO_TRIMMABLE_BY_WCO && CY_IP_IMO_TRIMMABLE_BY_USB) */
 196:Generated_Source\PSoC4/CyLib.c **** 
 197:Generated_Source\PSoC4/CyLib.c ****             /* Get current IMO frequency based on the register value */
 198:Generated_Source\PSoC4/CyLib.c ****             #if(CY_IP_SRSSV2)
 199:Generated_Source\PSoC4/CyLib.c ****                 freq = CY_SYS_CLK_IMO_MIN_FREQ_MHZ;
 200:Generated_Source\PSoC4/CyLib.c ****                 for(i = 0u; i < CY_SYS_CLK_IMO_FREQ_TABLE_SIZE; i++)
 201:Generated_Source\PSoC4/CyLib.c ****                 {
 202:Generated_Source\PSoC4/CyLib.c ****                     if ((uint8) (CY_SYS_CLK_IMO_TRIM2_REG & CY_SYS_CLK_IMO_FREQ_BITS_MASK) == cyImo
 203:Generated_Source\PSoC4/CyLib.c ****                     {
 204:Generated_Source\PSoC4/CyLib.c ****                         freq = i + CY_SYS_CLK_IMO_FREQ_TABLE_OFFSET;
 205:Generated_Source\PSoC4/CyLib.c ****                         break;
 206:Generated_Source\PSoC4/CyLib.c ****                     }
 207:Generated_Source\PSoC4/CyLib.c ****                 }
 208:Generated_Source\PSoC4/CyLib.c ****             #else
 209:Generated_Source\PSoC4/CyLib.c ****                 /* Calculate frequency by shifting register field value and adding constant. */
 210:Generated_Source\PSoC4/CyLib.c ****                 #if(CY_IP_SRSSLT)
 211:Generated_Source\PSoC4/CyLib.c ****                     freq = (((uint32) ((CY_SYS_CLK_IMO_SELECT_REG & ((uint32) CY_SYS_CLK_IMO_SELECT
 212:Generated_Source\PSoC4/CyLib.c ****                                         CY_SYS_CLK_IMO_SELECT_FREQ_SHIFT) + CY_SYS_CLK_IMO_MIN_FREQ
 213:Generated_Source\PSoC4/CyLib.c ****                                       ((CY_SYS_CLK_SELECT_REG >> CY_SYS_CLK_SELECT_HFCLK_DIV_SHIFT)
 214:Generated_Source\PSoC4/CyLib.c ****                                        (uint32) CY_SYS_CLK_SELECT_HFCLK_DIV_MASK));
 215:Generated_Source\PSoC4/CyLib.c ****                 #else
 216:Generated_Source\PSoC4/CyLib.c ****                     freq = ((uint32) ((CY_SYS_CLK_IMO_SELECT_REG & ((uint32) CY_SYS_CLK_IMO_SELECT_
 217:Generated_Source\PSoC4/CyLib.c ****                                        CY_SYS_CLK_IMO_SELECT_FREQ_SHIFT) + CY_SYS_CLK_IMO_MIN_FREQ_
 218:Generated_Source\PSoC4/CyLib.c ****                 #endif  /* (CY_IP_SRSSLT) */
 219:Generated_Source\PSoC4/CyLib.c **** 
 220:Generated_Source\PSoC4/CyLib.c ****             #endif  /* (CY_IP_SRSSV2) */
 221:Generated_Source\PSoC4/CyLib.c **** 
 222:Generated_Source\PSoC4/CyLib.c ****             CY_SYS_CLK_IMO_TRIM1_REG = 0;
 223:Generated_Source\PSoC4/CyLib.c **** 
 224:Generated_Source\PSoC4/CyLib.c ****             /* For the WCO locking mode, the IMO gain needs to be CY_SYS_CLK_IMO_TRIM4_GAIN */
 225:Generated_Source\PSoC4/CyLib.c ****             #if(CY_IP_SRSSV2)
 226:Generated_Source\PSoC4/CyLib.c ****                 if ((CY_SYS_CLK_IMO_TRIM4_REG & CY_SYS_CLK_IMO_TRIM4_GAIN_MASK) == 0u)
 227:Generated_Source\PSoC4/CyLib.c ****                 {
 228:Generated_Source\PSoC4/CyLib.c ****                      CY_SYS_CLK_IMO_TRIM4_REG = (CY_SYS_CLK_IMO_TRIM4_REG & (uint32) ~CY_SYS_CLK_IM
ARM GAS  C:\Users\YUANFA~1\AppData\Local\Temp\ccYDlzYT.s 			page 6


 229:Generated_Source\PSoC4/CyLib.c ****                                                  CY_SYS_CLK_IMO_TRIM4_WCO_GAIN;
 230:Generated_Source\PSoC4/CyLib.c ****                 }
 231:Generated_Source\PSoC4/CyLib.c ****             #endif /* (CY_IP_SRSSV2) */
 232:Generated_Source\PSoC4/CyLib.c **** 
 233:Generated_Source\PSoC4/CyLib.c ****             regTmp  = CY_SYS_CLK_WCO_DPLL_REG & ~(CY_SYS_CLK_WCO_DPLL_MULT_MASK |
 234:Generated_Source\PSoC4/CyLib.c ****                                                   CY_SYS_CLK_WCO_CONFIG_DPLL_LF_IGAIN_MASK |
 235:Generated_Source\PSoC4/CyLib.c ****                                                   CY_SYS_CLK_WCO_CONFIG_DPLL_LF_PGAIN_MASK |
 236:Generated_Source\PSoC4/CyLib.c ****                                                   CY_SYS_CLK_WCO_CONFIG_DPLL_LF_LIMIT_MASK);
 237:Generated_Source\PSoC4/CyLib.c **** 
 238:Generated_Source\PSoC4/CyLib.c ****             /* Set multiplier to determine IMO frequency in multiples of the WCO frequency */
 239:Generated_Source\PSoC4/CyLib.c ****             regTmp |= (CY_SYS_CLK_WCO_DPLL_MULT_VALUE(freq) & CY_SYS_CLK_WCO_DPLL_MULT_MASK);
 240:Generated_Source\PSoC4/CyLib.c **** 
 241:Generated_Source\PSoC4/CyLib.c ****             /* Set DPLL Loop Filter Integral and Proportional Gains Setting */
 242:Generated_Source\PSoC4/CyLib.c ****             regTmp |= (CY_SYS_CLK_WCO_CONFIG_DPLL_LF_IGAIN | CY_SYS_CLK_WCO_CONFIG_DPLL_LF_PGAIN);
 243:Generated_Source\PSoC4/CyLib.c **** 
 244:Generated_Source\PSoC4/CyLib.c ****             CY_SYS_CLK_WCO_DPLL_REG = regTmp;
 245:Generated_Source\PSoC4/CyLib.c **** 
 246:Generated_Source\PSoC4/CyLib.c ****             flashCtlReg = CY_FLASH_CTL_REG;
 247:Generated_Source\PSoC4/CyLib.c ****             CySysFlashSetWaitCycles(CY_SYS_CLK_IMO_MAX_FREQ_MHZ);
 248:Generated_Source\PSoC4/CyLib.c ****             CY_SYS_CLK_WCO_CONFIG_REG |= CY_SYS_CLK_WCO_CONFIG_DPLL_ENABLE;
 249:Generated_Source\PSoC4/CyLib.c **** 
 250:Generated_Source\PSoC4/CyLib.c ****             regTmp  = CY_SYS_CLK_WCO_DPLL_REG & ~(CY_SYS_CLK_WCO_CONFIG_DPLL_LF_LIMIT_MASK);
 251:Generated_Source\PSoC4/CyLib.c **** 
 252:Generated_Source\PSoC4/CyLib.c ****             while (lfLimit < (CY_SYS_CLK_WCO_CONFIG_DPLL_LF_LIMIT_MAX - CY_SYS_CLK_WCO_CONFIG_DPLL_
 253:Generated_Source\PSoC4/CyLib.c ****             {
 254:Generated_Source\PSoC4/CyLib.c ****                 CyDelay(CY_SYS_CLK_WCO_DPLL_TIMEOUT_MS);
 255:Generated_Source\PSoC4/CyLib.c ****                 lfLimit += CY_SYS_CLK_WCO_CONFIG_DPLL_LF_LIMIT_STEP;
 256:Generated_Source\PSoC4/CyLib.c ****                 CY_SYS_CLK_WCO_DPLL_REG = (regTmp | (lfLimit << CY_SYS_CLK_WCO_CONFIG_DPLL_LF_LIMIT
 257:Generated_Source\PSoC4/CyLib.c ****             }
 258:Generated_Source\PSoC4/CyLib.c **** 
 259:Generated_Source\PSoC4/CyLib.c ****             CyDelay(CY_SYS_CLK_WCO_DPLL_TIMEOUT_MS);
 260:Generated_Source\PSoC4/CyLib.c ****             CY_SYS_CLK_WCO_DPLL_REG = (regTmp | (CY_SYS_CLK_WCO_CONFIG_DPLL_LF_LIMIT_MAX <<
 261:Generated_Source\PSoC4/CyLib.c ****                                                  CY_SYS_CLK_WCO_CONFIG_DPLL_LF_LIMIT_SHIFT));
 262:Generated_Source\PSoC4/CyLib.c **** 
 263:Generated_Source\PSoC4/CyLib.c ****             CY_FLASH_CTL_REG = flashCtlReg;
 264:Generated_Source\PSoC4/CyLib.c **** 
 265:Generated_Source\PSoC4/CyLib.c ****             CyExitCriticalSection(interruptState);
 266:Generated_Source\PSoC4/CyLib.c ****         }
 267:Generated_Source\PSoC4/CyLib.c ****     }
 268:Generated_Source\PSoC4/CyLib.c **** 
 269:Generated_Source\PSoC4/CyLib.c **** 
 270:Generated_Source\PSoC4/CyLib.c ****     /*******************************************************************************
 271:Generated_Source\PSoC4/CyLib.c ****     * Function Name: CySysClkImoDisableWcoLock
 272:Generated_Source\PSoC4/CyLib.c ****     ****************************************************************************//**
 273:Generated_Source\PSoC4/CyLib.c ****     *
 274:Generated_Source\PSoC4/CyLib.c ****     * Disables the IMO to WCO lock feature.
 275:Generated_Source\PSoC4/CyLib.c ****     *
 276:Generated_Source\PSoC4/CyLib.c ****     * For PSoC 4200L devices, note that the IMO can lock to either WCO or USB
 277:Generated_Source\PSoC4/CyLib.c ****     * but not both.
 278:Generated_Source\PSoC4/CyLib.c ****     *
 279:Generated_Source\PSoC4/CyLib.c ****     * This function is applicable for PSoC 4100M / PSoC 4200M / PSoC 4000S /
 280:Generated_Source\PSoC4/CyLib.c ****     * PSoC 4100S / PSoC 4500 / PSoC Analog Coprocessor / PSoC 4200L.
 281:Generated_Source\PSoC4/CyLib.c ****     *
 282:Generated_Source\PSoC4/CyLib.c ****     *******************************************************************************/
 283:Generated_Source\PSoC4/CyLib.c ****     void CySysClkImoDisableWcoLock(void)
 284:Generated_Source\PSoC4/CyLib.c ****     {
  58              		.loc 1 284 0
ARM GAS  C:\Users\YUANFA~1\AppData\Local\Temp\ccYDlzYT.s 			page 7


  59              		.cfi_startproc
  60              		@ args = 0, pretend = 0, frame = 0
  61              		@ frame_needed = 0, uses_anonymous_args = 0
  62              		@ link register save eliminated.
 285:Generated_Source\PSoC4/CyLib.c ****         #if(CY_IP_SRSSV2)
 286:Generated_Source\PSoC4/CyLib.c ****             uint32 i;
 287:Generated_Source\PSoC4/CyLib.c ****         #endif  /* (CY_IP_SRSSV2) */
 288:Generated_Source\PSoC4/CyLib.c **** 
 289:Generated_Source\PSoC4/CyLib.c ****         uint32 freq;
 290:Generated_Source\PSoC4/CyLib.c **** 
 291:Generated_Source\PSoC4/CyLib.c ****         /* Get current IMO frequency based on the register value */
 292:Generated_Source\PSoC4/CyLib.c ****         #if(CY_IP_SRSSV2)
 293:Generated_Source\PSoC4/CyLib.c ****             freq = CY_SYS_CLK_IMO_MIN_FREQ_MHZ;
 294:Generated_Source\PSoC4/CyLib.c ****             for(i = 0u; i < CY_SYS_CLK_IMO_FREQ_TABLE_SIZE; i++)
 295:Generated_Source\PSoC4/CyLib.c ****             {
 296:Generated_Source\PSoC4/CyLib.c ****                 if ((uint8) (CY_SYS_CLK_IMO_TRIM2_REG & CY_SYS_CLK_IMO_FREQ_BITS_MASK) == cyImoFreq
 297:Generated_Source\PSoC4/CyLib.c ****                 {
 298:Generated_Source\PSoC4/CyLib.c ****                     freq = i + CY_SYS_CLK_IMO_FREQ_TABLE_OFFSET;
 299:Generated_Source\PSoC4/CyLib.c ****                     break;
 300:Generated_Source\PSoC4/CyLib.c ****                 }
 301:Generated_Source\PSoC4/CyLib.c ****             }
 302:Generated_Source\PSoC4/CyLib.c ****         #else
 303:Generated_Source\PSoC4/CyLib.c ****             /* Calculate frequency by shifting register field value and adding constant. */
 304:Generated_Source\PSoC4/CyLib.c ****             #if(CY_IP_SRSSLT)
 305:Generated_Source\PSoC4/CyLib.c ****                 freq = (((uint32) ((CY_SYS_CLK_IMO_SELECT_REG & ((uint32) CY_SYS_CLK_IMO_SELECT_FRE
  63              		.loc 1 305 0
  64 0000 0C4B     		ldr	r3, .L5
  65 0002 1B68     		ldr	r3, [r3]
  66 0004 9B00     		lsls	r3, r3, #2
  67 0006 1C22     		movs	r2, #28
  68 0008 1340     		ands	r3, r2
 306:Generated_Source\PSoC4/CyLib.c ****                                     CY_SYS_CLK_IMO_SELECT_FREQ_SHIFT) + CY_SYS_CLK_IMO_MIN_FREQ_MHZ
  69              		.loc 1 306 0
  70 000a 1833     		adds	r3, r3, #24
 307:Generated_Source\PSoC4/CyLib.c ****                                   ((CY_SYS_CLK_SELECT_REG >> CY_SYS_CLK_SELECT_HFCLK_DIV_SHIFT) &
  71              		.loc 1 307 0
  72 000c 0A4A     		ldr	r2, .L5+4
  73 000e 1268     		ldr	r2, [r2]
  74 0010 9208     		lsrs	r2, r2, #2
  75 0012 0321     		movs	r1, #3
  76 0014 0A40     		ands	r2, r1
 305:Generated_Source\PSoC4/CyLib.c ****                                     CY_SYS_CLK_IMO_SELECT_FREQ_SHIFT) + CY_SYS_CLK_IMO_MIN_FREQ_MHZ
  77              		.loc 1 305 0
  78 0016 D340     		lsrs	r3, r3, r2
  79              	.LVL0:
 308:Generated_Source\PSoC4/CyLib.c ****                                    (uint32) CY_SYS_CLK_SELECT_HFCLK_DIV_MASK));
 309:Generated_Source\PSoC4/CyLib.c ****             #else
 310:Generated_Source\PSoC4/CyLib.c ****                 freq = ((uint32) ((CY_SYS_CLK_IMO_SELECT_REG & ((uint32) CY_SYS_CLK_IMO_SELECT_FREQ
 311:Generated_Source\PSoC4/CyLib.c ****                                    CY_SYS_CLK_IMO_SELECT_FREQ_SHIFT) + CY_SYS_CLK_IMO_MIN_FREQ_MHZ)
 312:Generated_Source\PSoC4/CyLib.c ****             #endif  /* (CY_IP_SRSSLT) */
 313:Generated_Source\PSoC4/CyLib.c **** 
 314:Generated_Source\PSoC4/CyLib.c ****         #endif  /* (CY_IP_SRSSV2) */
 315:Generated_Source\PSoC4/CyLib.c **** 
 316:Generated_Source\PSoC4/CyLib.c ****         CY_SYS_CLK_WCO_CONFIG_REG &= (uint32) ~CY_SYS_CLK_WCO_CONFIG_DPLL_ENABLE;
  80              		.loc 1 316 0
  81 0018 0849     		ldr	r1, .L5+8
  82 001a 0868     		ldr	r0, [r1]
ARM GAS  C:\Users\YUANFA~1\AppData\Local\Temp\ccYDlzYT.s 			page 8


  83 001c 084A     		ldr	r2, .L5+12
  84 001e 0240     		ands	r2, r0
  85 0020 0A60     		str	r2, [r1]
 317:Generated_Source\PSoC4/CyLib.c **** 
 318:Generated_Source\PSoC4/CyLib.c ****         #if(CY_IP_SRSSLT)
 319:Generated_Source\PSoC4/CyLib.c ****             CY_SYS_CLK_IMO_TRIM1_REG = CY_SFLASH_IMO_TRIM_REG(freq - CY_SYS_CLK_IMO_MIN_FREQ_MHZ);
  86              		.loc 1 319 0
  87 0022 084A     		ldr	r2, .L5+16
  88 0024 9446     		mov	ip, r2
  89 0026 6344     		add	r3, r3, ip
  90              	.LVL1:
  91 0028 1B78     		ldrb	r3, [r3]
  92              	.LVL2:
  93 002a DBB2     		uxtb	r3, r3
  94 002c 064A     		ldr	r2, .L5+20
  95 002e 1360     		str	r3, [r2]
 320:Generated_Source\PSoC4/CyLib.c ****         #else
 321:Generated_Source\PSoC4/CyLib.c ****             CY_SYS_CLK_IMO_TRIM1_REG = CY_SFLASH_IMO_TRIM_REG(freq - CY_SYS_CLK_IMO_FREQ_TABLE_OFFS
 322:Generated_Source\PSoC4/CyLib.c ****         #endif
 323:Generated_Source\PSoC4/CyLib.c ****     }
  96              		.loc 1 323 0
  97              		@ sp needed
  98 0030 7047     		bx	lr
  99              	.L6:
 100 0032 C046     		.align	2
 101              	.L5:
 102 0034 080F0340 		.word	1073942280
 103 0038 28000340 		.word	1073938472
 104 003c 00002240 		.word	1075970048
 105 0040 FFFFFFBF 		.word	-1073741825
 106 0044 4DF3FF0F 		.word	268432205
 107 0048 0C0F0340 		.word	1073942284
 108              		.cfi_endproc
 109              	.LFE4:
 110              		.size	CySysClkImoDisableWcoLock, .-CySysClkImoDisableWcoLock
 111              		.section	.text.CySysClkImoStop,"ax",%progbits
 112              		.align	2
 113              		.global	CySysClkImoStop
 114              		.code	16
 115              		.thumb_func
 116              		.type	CySysClkImoStop, %function
 117              	CySysClkImoStop:
 118              	.LFB2:
 139:Generated_Source\PSoC4/CyLib.c ****     #if (CY_IP_IMO_TRIMMABLE_BY_WCO)
 119              		.loc 1 139 0
 120              		.cfi_startproc
 121              		@ args = 0, pretend = 0, frame = 0
 122              		@ frame_needed = 0, uses_anonymous_args = 0
 123 0000 10B5     		push	{r4, lr}
 124              		.cfi_def_cfa_offset 8
 125              		.cfi_offset 4, -8
 126              		.cfi_offset 14, -4
 141:Generated_Source\PSoC4/CyLib.c ****     #endif  /* (CY_IP_IMO_TRIMMABLE_BY_WCO) */
 127              		.loc 1 141 0
 128 0002 FFF7FEFF 		bl	CySysClkImoDisableWcoLock
 129              	.LVL3:
 148:Generated_Source\PSoC4/CyLib.c **** }
ARM GAS  C:\Users\YUANFA~1\AppData\Local\Temp\ccYDlzYT.s 			page 9


 130              		.loc 1 148 0
 131 0006 034A     		ldr	r2, .L8
 132 0008 1368     		ldr	r3, [r2]
 133 000a 5B00     		lsls	r3, r3, #1
 134 000c 5B08     		lsrs	r3, r3, #1
 135 000e 1360     		str	r3, [r2]
 149:Generated_Source\PSoC4/CyLib.c **** 
 136              		.loc 1 149 0
 137              		@ sp needed
 138 0010 10BD     		pop	{r4, pc}
 139              	.L9:
 140 0012 C046     		.align	2
 141              	.L8:
 142 0014 30000340 		.word	1073938480
 143              		.cfi_endproc
 144              	.LFE2:
 145              		.size	CySysClkImoStop, .-CySysClkImoStop
 146              		.section	.text.CySysClkImoGetWcoLock,"ax",%progbits
 147              		.align	2
 148              		.global	CySysClkImoGetWcoLock
 149              		.code	16
 150              		.thumb_func
 151              		.type	CySysClkImoGetWcoLock, %function
 152              	CySysClkImoGetWcoLock:
 153              	.LFB5:
 324:Generated_Source\PSoC4/CyLib.c **** 
 325:Generated_Source\PSoC4/CyLib.c **** 
 326:Generated_Source\PSoC4/CyLib.c ****     /*******************************************************************************
 327:Generated_Source\PSoC4/CyLib.c ****     * Function Name: CySysClkImoGetWcoLock
 328:Generated_Source\PSoC4/CyLib.c ****     ****************************************************************************//**
 329:Generated_Source\PSoC4/CyLib.c ****     *
 330:Generated_Source\PSoC4/CyLib.c ****     * Reports the IMO to WCO lock enable state.
 331:Generated_Source\PSoC4/CyLib.c ****     *
 332:Generated_Source\PSoC4/CyLib.c ****     * This function is applicable for PSoC 4100M / PSoC 4200M / PSoC 4000S /
 333:Generated_Source\PSoC4/CyLib.c ****     * PSoC 4100S / PSoC 4500 / PSoC Analog Coprocessor / PSoC 4200L.
 334:Generated_Source\PSoC4/CyLib.c ****     *
 335:Generated_Source\PSoC4/CyLib.c ****     * \return 1 if IMO to WCO lock is enabled.
 336:Generated_Source\PSoC4/CyLib.c ****     * \return 0 if IMO to WCO lock is disabled.
 337:Generated_Source\PSoC4/CyLib.c ****     *
 338:Generated_Source\PSoC4/CyLib.c ****     *******************************************************************************/
 339:Generated_Source\PSoC4/CyLib.c ****     uint32 CySysClkImoGetWcoLock(void)
 340:Generated_Source\PSoC4/CyLib.c ****     {
 154              		.loc 1 340 0
 155              		.cfi_startproc
 156              		@ args = 0, pretend = 0, frame = 0
 157              		@ frame_needed = 0, uses_anonymous_args = 0
 158              		@ link register save eliminated.
 341:Generated_Source\PSoC4/CyLib.c ****         return ((0u != (CY_SYS_CLK_WCO_CONFIG_REG & CY_SYS_CLK_WCO_CONFIG_DPLL_ENABLE)) ?
 159              		.loc 1 341 0
 160 0000 034B     		ldr	r3, .L12
 161 0002 1868     		ldr	r0, [r3]
 162 0004 8023     		movs	r3, #128
 163 0006 DB05     		lsls	r3, r3, #23
 164 0008 1840     		ands	r0, r3
 342:Generated_Source\PSoC4/CyLib.c ****                 (uint32) 1u :
 165              		.loc 1 342 0
 166 000a 00D0     		beq	.L11
ARM GAS  C:\Users\YUANFA~1\AppData\Local\Temp\ccYDlzYT.s 			page 10


 167 000c 0120     		movs	r0, #1
 168              	.L11:
 343:Generated_Source\PSoC4/CyLib.c ****                 (uint32) 0u);
 344:Generated_Source\PSoC4/CyLib.c ****     }
 169              		.loc 1 344 0
 170              		@ sp needed
 171 000e 7047     		bx	lr
 172              	.L13:
 173              		.align	2
 174              	.L12:
 175 0010 00002240 		.word	1075970048
 176              		.cfi_endproc
 177              	.LFE5:
 178              		.size	CySysClkImoGetWcoLock, .-CySysClkImoGetWcoLock
 179              		.section	.text.CySysClkWriteHfclkDirect,"ax",%progbits
 180              		.align	2
 181              		.global	CySysClkWriteHfclkDirect
 182              		.code	16
 183              		.thumb_func
 184              		.type	CySysClkWriteHfclkDirect, %function
 185              	CySysClkWriteHfclkDirect:
 186              	.LFB6:
 345:Generated_Source\PSoC4/CyLib.c **** 
 346:Generated_Source\PSoC4/CyLib.c **** #endif /* (CY_IP_IMO_TRIMMABLE_BY_WCO) */
 347:Generated_Source\PSoC4/CyLib.c **** 
 348:Generated_Source\PSoC4/CyLib.c **** 
 349:Generated_Source\PSoC4/CyLib.c **** #if (CY_IP_IMO_TRIMMABLE_BY_USB)
 350:Generated_Source\PSoC4/CyLib.c **** 
 351:Generated_Source\PSoC4/CyLib.c ****     /*******************************************************************************
 352:Generated_Source\PSoC4/CyLib.c ****     * Function Name: CySysClkImoEnableUsbLock
 353:Generated_Source\PSoC4/CyLib.c ****     ****************************************************************************//**
 354:Generated_Source\PSoC4/CyLib.c ****     *
 355:Generated_Source\PSoC4/CyLib.c ****     * Enables the IMO to USB lock feature.
 356:Generated_Source\PSoC4/CyLib.c ****     *
 357:Generated_Source\PSoC4/CyLib.c ****     * This function must be called before CySysClkWriteImoFreq().
 358:Generated_Source\PSoC4/CyLib.c ****     *
 359:Generated_Source\PSoC4/CyLib.c ****     * This function is called from CySysClkImoStart() function if USB lock
 360:Generated_Source\PSoC4/CyLib.c ****     * selected in the Design Wide Resources tab.
 361:Generated_Source\PSoC4/CyLib.c ****     *
 362:Generated_Source\PSoC4/CyLib.c ****     * This is applicable for PSoC 4200L family of devices only. For PSoC 4200L
 363:Generated_Source\PSoC4/CyLib.c ****     * devices, the IMO can lock to either WCO or USB, but not both.
 364:Generated_Source\PSoC4/CyLib.c ****     *
 365:Generated_Source\PSoC4/CyLib.c ****     *******************************************************************************/
 366:Generated_Source\PSoC4/CyLib.c ****     void CySysClkImoEnableUsbLock(void)
 367:Generated_Source\PSoC4/CyLib.c ****     {
 368:Generated_Source\PSoC4/CyLib.c ****         /* Set oscillator interface control port to USB */
 369:Generated_Source\PSoC4/CyLib.c ****         #if (CY_IP_IMO_TRIMMABLE_BY_WCO && CY_IP_IMO_TRIMMABLE_BY_USB)
 370:Generated_Source\PSoC4/CyLib.c ****             CY_SYS_CLK_OSCINTF_CTL_REG = (CY_SYS_CLK_OSCINTF_CTL_REG & (uint32) ~CY_SYS_CLK_OSCINTF
 371:Generated_Source\PSoC4/CyLib.c ****                                           CY_SYS_CLK_OSCINTF_CTL_PORT_SEL_USB;
 372:Generated_Source\PSoC4/CyLib.c ****         #endif /* (CY_IP_IMO_TRIMMABLE_BY_WCO && CY_IP_IMO_TRIMMABLE_BY_USB) */
 373:Generated_Source\PSoC4/CyLib.c **** 
 374:Generated_Source\PSoC4/CyLib.c ****         #if(CY_IP_SRSSV2)
 375:Generated_Source\PSoC4/CyLib.c **** 
 376:Generated_Source\PSoC4/CyLib.c ****             /* Save trims to restore in CySysClkImoDisableUsbLock() */
 377:Generated_Source\PSoC4/CyLib.c ****             CySysClkImoTrim4 = CY_SYS_CLK_IMO_TRIM4_REG;
 378:Generated_Source\PSoC4/CyLib.c ****             CySysClkImoTrim5 = CY_PWR_BG_TRIM5_REG;
 379:Generated_Source\PSoC4/CyLib.c **** 
ARM GAS  C:\Users\YUANFA~1\AppData\Local\Temp\ccYDlzYT.s 			page 11


 380:Generated_Source\PSoC4/CyLib.c ****             CySysClkImoSetImoTrims();
 381:Generated_Source\PSoC4/CyLib.c ****             CySysClkImoSetPwrBgTrim5();
 382:Generated_Source\PSoC4/CyLib.c **** 
 383:Generated_Source\PSoC4/CyLib.c ****         #endif  /* (CY_IP_SRSSV2) */
 384:Generated_Source\PSoC4/CyLib.c **** 
 385:Generated_Source\PSoC4/CyLib.c ****         CY_SYS_CLK_USBDEVv2_CR1_REG |= CY_SYS_CLK_USBDEVv2_CR1_ENABLE_LOCK;
 386:Generated_Source\PSoC4/CyLib.c ****     }
 387:Generated_Source\PSoC4/CyLib.c **** 
 388:Generated_Source\PSoC4/CyLib.c **** 
 389:Generated_Source\PSoC4/CyLib.c ****     /*******************************************************************************
 390:Generated_Source\PSoC4/CyLib.c ****     * Function Name: CySysClkImoDisableUsbLock
 391:Generated_Source\PSoC4/CyLib.c ****     ****************************************************************************//**
 392:Generated_Source\PSoC4/CyLib.c ****     *
 393:Generated_Source\PSoC4/CyLib.c ****     * Disables the IMO to USB lock feature.
 394:Generated_Source\PSoC4/CyLib.c ****     *
 395:Generated_Source\PSoC4/CyLib.c ****     * This function is called from CySysClkImoStop() function if USB lock selected
 396:Generated_Source\PSoC4/CyLib.c ****     * in the Design Wide Resources tab.
 397:Generated_Source\PSoC4/CyLib.c ****     *
 398:Generated_Source\PSoC4/CyLib.c ****     * This is applicable for PSoC 4200L family of devices only. For PSoC 4200L
 399:Generated_Source\PSoC4/CyLib.c ****     * devices, the IMO can lock to either WCO or USB, but not both.
 400:Generated_Source\PSoC4/CyLib.c ****     *
 401:Generated_Source\PSoC4/CyLib.c ****     *******************************************************************************/
 402:Generated_Source\PSoC4/CyLib.c ****     void CySysClkImoDisableUsbLock(void)
 403:Generated_Source\PSoC4/CyLib.c ****     {
 404:Generated_Source\PSoC4/CyLib.c ****         #if(CY_IP_SRSSV2)
 405:Generated_Source\PSoC4/CyLib.c ****             uint32 i;
 406:Generated_Source\PSoC4/CyLib.c **** 
 407:Generated_Source\PSoC4/CyLib.c ****             /* Get current IMO frequency based on the register value */
 408:Generated_Source\PSoC4/CyLib.c ****             uint32 freq = CY_SYS_CLK_IMO_MIN_FREQ_MHZ;
 409:Generated_Source\PSoC4/CyLib.c **** 
 410:Generated_Source\PSoC4/CyLib.c ****             for(i = 0u; i < CY_SYS_CLK_IMO_FREQ_TABLE_SIZE; i++)
 411:Generated_Source\PSoC4/CyLib.c ****             {
 412:Generated_Source\PSoC4/CyLib.c ****                 if ((uint8) (CY_SYS_CLK_IMO_TRIM2_REG & CY_SYS_CLK_IMO_FREQ_BITS_MASK) == cyImoFreq
 413:Generated_Source\PSoC4/CyLib.c ****                 {
 414:Generated_Source\PSoC4/CyLib.c ****                     freq = i + CY_SYS_CLK_IMO_FREQ_TABLE_OFFSET;
 415:Generated_Source\PSoC4/CyLib.c ****                     break;
 416:Generated_Source\PSoC4/CyLib.c ****                 }
 417:Generated_Source\PSoC4/CyLib.c ****             }
 418:Generated_Source\PSoC4/CyLib.c ****         #endif  /* (CY_IP_SRSSV2) */
 419:Generated_Source\PSoC4/CyLib.c **** 
 420:Generated_Source\PSoC4/CyLib.c ****         CY_SYS_CLK_USBDEVv2_CR1_REG &= (uint32) ~CY_SYS_CLK_USBDEVv2_CR1_ENABLE_LOCK;
 421:Generated_Source\PSoC4/CyLib.c **** 
 422:Generated_Source\PSoC4/CyLib.c ****         #if(CY_IP_SRSSV2)
 423:Generated_Source\PSoC4/CyLib.c ****             /* Restore IMO trim registers saved by CySysClkImoEnableUsbLock() */
 424:Generated_Source\PSoC4/CyLib.c ****             CY_SYS_CLK_IMO_TRIM4_REG = ((CY_SYS_CLK_IMO_TRIM4_REG & (uint32) ~CY_SYS_CLK_IMO_TRIM4_
 425:Generated_Source\PSoC4/CyLib.c ****                                         (CySysClkImoTrim4 & CY_SYS_CLK_IMO_TRIM4_GAIN_MASK));
 426:Generated_Source\PSoC4/CyLib.c ****             CY_PWR_BG_TRIM5_REG = CySysClkImoTrim5;
 427:Generated_Source\PSoC4/CyLib.c **** 
 428:Generated_Source\PSoC4/CyLib.c ****             CY_SYS_CLK_IMO_TRIM1_REG = CY_SFLASH_IMO_TRIM_REG(freq - CY_SYS_CLK_IMO_FREQ_TABLE_OFFS
 429:Generated_Source\PSoC4/CyLib.c **** 
 430:Generated_Source\PSoC4/CyLib.c ****         #endif  /* (CY_IP_SRSSV2) */
 431:Generated_Source\PSoC4/CyLib.c ****     }
 432:Generated_Source\PSoC4/CyLib.c **** 
 433:Generated_Source\PSoC4/CyLib.c **** 
 434:Generated_Source\PSoC4/CyLib.c ****     /*******************************************************************************
 435:Generated_Source\PSoC4/CyLib.c ****     * Function Name: CySysClkImoGetUsbLock
 436:Generated_Source\PSoC4/CyLib.c ****     ****************************************************************************//**
ARM GAS  C:\Users\YUANFA~1\AppData\Local\Temp\ccYDlzYT.s 			page 12


 437:Generated_Source\PSoC4/CyLib.c ****     *
 438:Generated_Source\PSoC4/CyLib.c ****     * Reports the IMO to USB lock enable state.
 439:Generated_Source\PSoC4/CyLib.c ****     *
 440:Generated_Source\PSoC4/CyLib.c ****     * This is applicable for PSoC 4200L family of devices only. For PSoC 4200L
 441:Generated_Source\PSoC4/CyLib.c ****     * devices, the IMO can lock to either WCO or USB, but not both.
 442:Generated_Source\PSoC4/CyLib.c ****     *
 443:Generated_Source\PSoC4/CyLib.c ****     * \return 1 if IMO to USB lock is enabled.
 444:Generated_Source\PSoC4/CyLib.c ****     * \return 0 if IMO to USB lock is disabled.
 445:Generated_Source\PSoC4/CyLib.c ****     *
 446:Generated_Source\PSoC4/CyLib.c ****     *******************************************************************************/
 447:Generated_Source\PSoC4/CyLib.c ****     uint32 CySysClkImoGetUsbLock(void)
 448:Generated_Source\PSoC4/CyLib.c ****     {
 449:Generated_Source\PSoC4/CyLib.c ****         return ((0u != (CY_SYS_CLK_USBDEVv2_CR1_REG & CY_SYS_CLK_USBDEVv2_CR1_ENABLE_LOCK)) ?
 450:Generated_Source\PSoC4/CyLib.c ****                 (uint32) 1u :
 451:Generated_Source\PSoC4/CyLib.c ****                 (uint32) 0u);
 452:Generated_Source\PSoC4/CyLib.c ****     }
 453:Generated_Source\PSoC4/CyLib.c **** 
 454:Generated_Source\PSoC4/CyLib.c **** #if (CY_IP_SRSSV2)
 455:Generated_Source\PSoC4/CyLib.c **** 
 456:Generated_Source\PSoC4/CyLib.c ****     /*******************************************************************************
 457:Generated_Source\PSoC4/CyLib.c ****     * Function Name: CySysClkImoSetPwrBgTrim5
 458:Generated_Source\PSoC4/CyLib.c ****     ****************************************************************************//**
 459:Generated_Source\PSoC4/CyLib.c ****     *
 460:Generated_Source\PSoC4/CyLib.c ****     * Updates Bandgap trim register based on the test program revision.
 461:Generated_Source\PSoC4/CyLib.c ****     *
 462:Generated_Source\PSoC4/CyLib.c ****     *******************************************************************************/
 463:Generated_Source\PSoC4/CyLib.c ****     static void CySysClkImoSetPwrBgTrim5(void)
 464:Generated_Source\PSoC4/CyLib.c ****     {
 465:Generated_Source\PSoC4/CyLib.c ****         /* Get sort test revision number */
 466:Generated_Source\PSoC4/CyLib.c ****         uint32  testRev = ((CY_SFLASH_CRI_TESTPGM_REV_REG >> CYSFLASH_CRI_testpgm_rev__OFFSET) &
 467:Generated_Source\PSoC4/CyLib.c ****                             CYSFLASH_CRI_testpgm_rev_MASK);
 468:Generated_Source\PSoC4/CyLib.c **** 
 469:Generated_Source\PSoC4/CyLib.c ****         if(testRev <= CY_CRI_TESTPGM_9_REV)
 470:Generated_Source\PSoC4/CyLib.c ****         {
 471:Generated_Source\PSoC4/CyLib.c ****             CY_PWR_BG_TRIM5_REG = CY_SFLASH_IMO_TMPCO0_REG;
 472:Generated_Source\PSoC4/CyLib.c ****         }
 473:Generated_Source\PSoC4/CyLib.c ****         else
 474:Generated_Source\PSoC4/CyLib.c ****         {
 475:Generated_Source\PSoC4/CyLib.c ****             CY_PWR_BG_TRIM5_REG = CY_SFLASH_USBMODE_IMO_TEMPCO_REG;
 476:Generated_Source\PSoC4/CyLib.c ****         }
 477:Generated_Source\PSoC4/CyLib.c ****     }
 478:Generated_Source\PSoC4/CyLib.c **** 
 479:Generated_Source\PSoC4/CyLib.c ****     /*******************************************************************************
 480:Generated_Source\PSoC4/CyLib.c ****     * Function Name: CySysClkImoSetImoTrims
 481:Generated_Source\PSoC4/CyLib.c ****     ****************************************************************************//**
 482:Generated_Source\PSoC4/CyLib.c ****     *
 483:Generated_Source\PSoC4/CyLib.c ****     * Updates IMO trim registers based on the IMO frequency and test program
 484:Generated_Source\PSoC4/CyLib.c ****     * revision.
 485:Generated_Source\PSoC4/CyLib.c ****     *
 486:Generated_Source\PSoC4/CyLib.c ****     *******************************************************************************/
 487:Generated_Source\PSoC4/CyLib.c ****     static void CySysClkImoSetImoTrims(void)
 488:Generated_Source\PSoC4/CyLib.c ****     {
 489:Generated_Source\PSoC4/CyLib.c ****         uint32 i;
 490:Generated_Source\PSoC4/CyLib.c **** 
 491:Generated_Source\PSoC4/CyLib.c ****         /* Get current IMO frequency based on the register value */
 492:Generated_Source\PSoC4/CyLib.c ****         uint32 freq = CY_SYS_CLK_IMO_MIN_FREQ_MHZ;
 493:Generated_Source\PSoC4/CyLib.c **** 
ARM GAS  C:\Users\YUANFA~1\AppData\Local\Temp\ccYDlzYT.s 			page 13


 494:Generated_Source\PSoC4/CyLib.c ****         for(i = 0u; i < CY_SYS_CLK_IMO_FREQ_TABLE_SIZE; i++)
 495:Generated_Source\PSoC4/CyLib.c ****         {
 496:Generated_Source\PSoC4/CyLib.c ****             if ((uint8) (CY_SYS_CLK_IMO_TRIM2_REG & CY_SYS_CLK_IMO_FREQ_BITS_MASK) == cyImoFreqMhz2
 497:Generated_Source\PSoC4/CyLib.c ****             {
 498:Generated_Source\PSoC4/CyLib.c ****                 freq = i + CY_SYS_CLK_IMO_FREQ_TABLE_OFFSET;
 499:Generated_Source\PSoC4/CyLib.c ****                 break;
 500:Generated_Source\PSoC4/CyLib.c ****             }
 501:Generated_Source\PSoC4/CyLib.c ****         }
 502:Generated_Source\PSoC4/CyLib.c **** 
 503:Generated_Source\PSoC4/CyLib.c ****         /* Get sort test revision number */
 504:Generated_Source\PSoC4/CyLib.c ****         uint32  testRev = ((CY_SFLASH_CRI_TESTPGM_REV_REG >> CYSFLASH_CRI_testpgm_rev__OFFSET) &
 505:Generated_Source\PSoC4/CyLib.c ****             CYSFLASH_CRI_testpgm_rev_MASK);
 506:Generated_Source\PSoC4/CyLib.c **** 
 507:Generated_Source\PSoC4/CyLib.c ****         if(testRev <= CY_CRI_TESTPGM_6_REV)
 508:Generated_Source\PSoC4/CyLib.c ****         {
 509:Generated_Source\PSoC4/CyLib.c ****             if (48u == freq)
 510:Generated_Source\PSoC4/CyLib.c ****             {
 511:Generated_Source\PSoC4/CyLib.c ****                 CY_SYS_CLK_IMO_TRIM1_REG = (uint32) CY_SFLASH_IMO_TRIM_USBMODE_48_REG;
 512:Generated_Source\PSoC4/CyLib.c ****             }
 513:Generated_Source\PSoC4/CyLib.c ****             else if (24u == freq)
 514:Generated_Source\PSoC4/CyLib.c ****             {
 515:Generated_Source\PSoC4/CyLib.c ****                 CY_SYS_CLK_IMO_TRIM1_REG = (uint32) CY_SFLASH_IMO_TRIM_USBMODE_24_REG;
 516:Generated_Source\PSoC4/CyLib.c ****             }
 517:Generated_Source\PSoC4/CyLib.c ****             else
 518:Generated_Source\PSoC4/CyLib.c ****             {
 519:Generated_Source\PSoC4/CyLib.c ****                 /* Do nothing */
 520:Generated_Source\PSoC4/CyLib.c ****             }
 521:Generated_Source\PSoC4/CyLib.c **** 
 522:Generated_Source\PSoC4/CyLib.c ****             /* Set IMO Gain in IMO Trim Register 4 */
 523:Generated_Source\PSoC4/CyLib.c ****             CY_SYS_CLK_IMO_TRIM4_REG = (CY_SYS_CLK_IMO_TRIM4_REG & (uint32) ~CY_SYS_CLK_IMO_TRIM4_G
 524:Generated_Source\PSoC4/CyLib.c ****                                         CY_SYS_CLK_IMO_TRIM4_USB_GAIN;
 525:Generated_Source\PSoC4/CyLib.c ****         }
 526:Generated_Source\PSoC4/CyLib.c ****         else
 527:Generated_Source\PSoC4/CyLib.c ****         {
 528:Generated_Source\PSoC4/CyLib.c ****             if (48u == freq)
 529:Generated_Source\PSoC4/CyLib.c ****             {
 530:Generated_Source\PSoC4/CyLib.c ****                 CY_SYS_CLK_IMO_TRIM1_REG = (uint32) CY_SFLASH_CU_IMO_TRIM_USBMODE_48_REG;
 531:Generated_Source\PSoC4/CyLib.c ****             }
 532:Generated_Source\PSoC4/CyLib.c ****             else if (24u == freq)
 533:Generated_Source\PSoC4/CyLib.c ****             {
 534:Generated_Source\PSoC4/CyLib.c ****                 CY_SYS_CLK_IMO_TRIM1_REG = (uint32) CY_SFLASH_CU_IMO_TRIM_USBMODE_24_REG;
 535:Generated_Source\PSoC4/CyLib.c ****             }
 536:Generated_Source\PSoC4/CyLib.c ****             else
 537:Generated_Source\PSoC4/CyLib.c ****             {
 538:Generated_Source\PSoC4/CyLib.c ****                 /* Do nothing */
 539:Generated_Source\PSoC4/CyLib.c ****             }
 540:Generated_Source\PSoC4/CyLib.c **** 
 541:Generated_Source\PSoC4/CyLib.c ****             /* Set IMO Gain in IMO Trim Register 4 */
 542:Generated_Source\PSoC4/CyLib.c ****             CY_SYS_CLK_IMO_TRIM4_REG = (CY_SYS_CLK_IMO_TRIM4_REG & (uint32) ~CY_SYS_CLK_IMO_TRIM4_G
 543:Generated_Source\PSoC4/CyLib.c ****                                         CY_SFLASH_USBMODE_IMO_GAIN_TRIM_REG;
 544:Generated_Source\PSoC4/CyLib.c ****         }
 545:Generated_Source\PSoC4/CyLib.c ****     }
 546:Generated_Source\PSoC4/CyLib.c ****     #endif /* (CY_IP_SRSSV2) */
 547:Generated_Source\PSoC4/CyLib.c **** 
 548:Generated_Source\PSoC4/CyLib.c **** #endif  /* (CY_IP_IMO_TRIMMABLE_BY_USB) */
 549:Generated_Source\PSoC4/CyLib.c **** 
 550:Generated_Source\PSoC4/CyLib.c **** 
ARM GAS  C:\Users\YUANFA~1\AppData\Local\Temp\ccYDlzYT.s 			page 14


 551:Generated_Source\PSoC4/CyLib.c **** /*******************************************************************************
 552:Generated_Source\PSoC4/CyLib.c **** * Function Name: CySysClkWriteHfclkDirect
 553:Generated_Source\PSoC4/CyLib.c **** ****************************************************************************//**
 554:Generated_Source\PSoC4/CyLib.c **** *
 555:Generated_Source\PSoC4/CyLib.c **** * Selects the direct source for the HFCLK.
 556:Generated_Source\PSoC4/CyLib.c **** *
 557:Generated_Source\PSoC4/CyLib.c **** * The new source must be running and stable before calling this function.
 558:Generated_Source\PSoC4/CyLib.c **** *
 559:Generated_Source\PSoC4/CyLib.c **** * PSoC 4000:
 560:Generated_Source\PSoC4/CyLib.c **** * The SYSCLK has a maximum speed of 16 MHz, so HFCLK and SYSCLK dividers should
 561:Generated_Source\PSoC4/CyLib.c **** * be selected in a way to not to exceed 16 MHz for the System clock.
 562:Generated_Source\PSoC4/CyLib.c **** *
 563:Generated_Source\PSoC4/CyLib.c **** * If the SYSCLK clock frequency increases during device operation, call
 564:Generated_Source\PSoC4/CyLib.c **** * CySysFlashSetWaitCycles() with the appropriate parameter to adjust the number
 565:Generated_Source\PSoC4/CyLib.c **** * of clock cycles the cache will wait before sampling data comes back from
 566:Generated_Source\PSoC4/CyLib.c **** * Flash. If the SYSCLK clock frequency decreases, you can call
 567:Generated_Source\PSoC4/CyLib.c **** * CySysFlashSetWaitCycles() to improve the CPU performance. See
 568:Generated_Source\PSoC4/CyLib.c **** * CySysFlashSetWaitCycles() description for more information.
 569:Generated_Source\PSoC4/CyLib.c **** *
 570:Generated_Source\PSoC4/CyLib.c **** * Do not select PLL as the source for HFCLK if PLL output frequency exceeds
 571:Generated_Source\PSoC4/CyLib.c **** * maximum permissible value for HFCLK.
 572:Generated_Source\PSoC4/CyLib.c **** *
 573:Generated_Source\PSoC4/CyLib.c **** * \param clkSelect One of the available HFCLK direct sources.
 574:Generated_Source\PSoC4/CyLib.c **** * CY_SYS_CLK_HFCLK_IMO     IMO.
 575:Generated_Source\PSoC4/CyLib.c **** * CY_SYS_CLK_HFCLK_EXTCLK  External clock pin.
 576:Generated_Source\PSoC4/CyLib.c **** * CY_SYS_CLK_HFCLK_ECO     External crystal oscillator. Applicable for
 577:Generated_Source\PSoC4/CyLib.c **** *                          PSoC 4100 BLE / PSoC 4200 BLE / PSoC 4200L /
 578:Generated_Source\PSoC4/CyLib.c **** *                          4100S / 4500 with ECO.
 579:Generated_Source\PSoC4/CyLib.c **** * CY_SYS_CLK_HFCLK_PLL0    PLL#0. Applicable for PSoC 4200L /
 580:Generated_Source\PSoC4/CyLib.c **** *                          4100S / 4500 with PLL.
 581:Generated_Source\PSoC4/CyLib.c **** * CY_SYS_CLK_HFCLK_PLL1    PLL#1. Applicable for PSoC 4200L.
 582:Generated_Source\PSoC4/CyLib.c **** *
 583:Generated_Source\PSoC4/CyLib.c **** *******************************************************************************/
 584:Generated_Source\PSoC4/CyLib.c **** void CySysClkWriteHfclkDirect(uint32 clkSelect)
 585:Generated_Source\PSoC4/CyLib.c **** {
 187              		.loc 1 585 0
 188              		.cfi_startproc
 189              		@ args = 0, pretend = 0, frame = 0
 190              		@ frame_needed = 0, uses_anonymous_args = 0
 191              	.LVL4:
 192 0000 70B5     		push	{r4, r5, r6, lr}
 193              		.cfi_def_cfa_offset 16
 194              		.cfi_offset 4, -16
 195              		.cfi_offset 5, -12
 196              		.cfi_offset 6, -8
 197              		.cfi_offset 14, -4
 198 0002 0400     		movs	r4, r0
 199              	.LVL5:
 586:Generated_Source\PSoC4/CyLib.c ****     uint8  interruptState;
 587:Generated_Source\PSoC4/CyLib.c ****     uint32 tmpReg;
 588:Generated_Source\PSoC4/CyLib.c **** 
 589:Generated_Source\PSoC4/CyLib.c ****     #if (CY_IP_SRSSLT && CY_IP_PLL)
 590:Generated_Source\PSoC4/CyLib.c ****         uint8 i = 0u;
 591:Generated_Source\PSoC4/CyLib.c ****     #endif /* (CY_IP_SRSSLT && CY_IP_PLL) */
 592:Generated_Source\PSoC4/CyLib.c **** 
 593:Generated_Source\PSoC4/CyLib.c ****     interruptState = CyEnterCriticalSection();
 200              		.loc 1 593 0
ARM GAS  C:\Users\YUANFA~1\AppData\Local\Temp\ccYDlzYT.s 			page 15


 201 0004 FFF7FEFF 		bl	CyEnterCriticalSection
 202              	.LVL6:
 594:Generated_Source\PSoC4/CyLib.c **** 
 595:Generated_Source\PSoC4/CyLib.c **** #if (CY_IP_SRSSLT && CY_IP_PLL)
 596:Generated_Source\PSoC4/CyLib.c ****     if ((CY_SYS_CLK_HFCLK_PLL0 == clkSelect) || (CY_SYS_CLK_HFCLK_ECO == clkSelect))
 203              		.loc 1 596 0
 204 0008 062C     		cmp	r4, #6
 205 000a 01D0     		beq	.L15
 206              		.loc 1 596 0 is_stmt 0 discriminator 1
 207 000c 022C     		cmp	r4, #2
 208 000e 2DD1     		bne	.L16
 209              	.L15:
 597:Generated_Source\PSoC4/CyLib.c ****     {
 598:Generated_Source\PSoC4/CyLib.c ****         tmpReg = CY_SYS_CLK_SELECT_REG & ~CY_SYS_CLK_SELECT_DIRECT_SEL_MASK;
 210              		.loc 1 598 0 is_stmt 1
 211 0010 1B4A     		ldr	r2, .L20
 212 0012 1368     		ldr	r3, [r2]
 213 0014 0321     		movs	r1, #3
 214 0016 8B43     		bics	r3, r1
 215              	.LVL7:
 599:Generated_Source\PSoC4/CyLib.c ****         tmpReg |= CY_SYS_CLK_HFCLK_IMO;
 600:Generated_Source\PSoC4/CyLib.c ****         CY_SYS_CLK_SELECT_REG = tmpReg;
 216              		.loc 1 600 0
 217 0018 1360     		str	r3, [r2]
 601:Generated_Source\PSoC4/CyLib.c **** 
 602:Generated_Source\PSoC4/CyLib.c ****         /* SRSSLT block does not have registers to select PLL. It is part of EXCO */
 603:Generated_Source\PSoC4/CyLib.c ****         tmpReg = CY_SYS_ECO_CLK_SELECT_REG & ~CY_SYS_ECO_CLK_SELECT_ECO_PLL_MASK;
 218              		.loc 1 603 0
 219 001a 1A4D     		ldr	r5, .L20+4
 220 001c 2968     		ldr	r1, [r5]
 221 001e 0123     		movs	r3, #1
 222              	.LVL8:
 223 0020 9943     		bics	r1, r3
 224              	.LVL9:
 604:Generated_Source\PSoC4/CyLib.c ****         tmpReg |= ((clkSelect & CY_SYS_CLK_SELECT_HFCLK_SEL_PLL_MASK) >> CY_SYS_CLK_SELECT_HFCLK_PL
 225              		.loc 1 604 0
 226 0022 A208     		lsrs	r2, r4, #2
 227 0024 1340     		ands	r3, r2
 228 0026 0B43     		orrs	r3, r1
 229              	.LVL10:
 605:Generated_Source\PSoC4/CyLib.c ****         CY_SYS_ECO_CLK_SELECT_REG = tmpReg;
 230              		.loc 1 605 0
 231 0028 2B60     		str	r3, [r5]
 606:Generated_Source\PSoC4/CyLib.c **** 
 607:Generated_Source\PSoC4/CyLib.c ****         /* Check if ECO is enabled and running */
 608:Generated_Source\PSoC4/CyLib.c ****         if ((0UL == (CY_SYS_CLK_ECO_CONFIG_REG & CY_SYS_CLK_ECO_CONFIG_ENABLE)) ||
 232              		.loc 1 608 0
 233 002a 174B     		ldr	r3, .L20+8
 234              	.LVL11:
 235 002c 1B68     		ldr	r3, [r3]
 236 002e 002B     		cmp	r3, #0
 237 0030 03DA     		bge	.L17
 609:Generated_Source\PSoC4/CyLib.c ****             (0UL != (CY_SYS_CLK_ECO_STATUS_REG & CY_SYS_CLK_ECO_STATUS_WATCHDOG_ERROR)))
 238              		.loc 1 609 0 discriminator 1
 239 0032 164B     		ldr	r3, .L20+12
 240 0034 1B68     		ldr	r3, [r3]
 608:Generated_Source\PSoC4/CyLib.c ****             (0UL != (CY_SYS_CLK_ECO_STATUS_REG & CY_SYS_CLK_ECO_STATUS_WATCHDOG_ERROR)))
ARM GAS  C:\Users\YUANFA~1\AppData\Local\Temp\ccYDlzYT.s 			page 16


 241              		.loc 1 608 0 discriminator 1
 242 0036 DB07     		lsls	r3, r3, #31
 243 0038 18D5     		bpl	.L16
 244              	.L17:
 610:Generated_Source\PSoC4/CyLib.c ****         {
 611:Generated_Source\PSoC4/CyLib.c ****             /* Generate clock sequence to change clock source in CY_SYS_ECO_CLK_SELECT_REG */
 612:Generated_Source\PSoC4/CyLib.c ****             CY_SYS_EXCO_PGM_CLK_REG |= CY_SYS_EXCO_PGM_CLK_ENABLE_MASK;
 245              		.loc 1 612 0
 246 003a 154A     		ldr	r2, .L20+16
 247 003c 1368     		ldr	r3, [r2]
 248 003e 8021     		movs	r1, #128
 249 0040 0906     		lsls	r1, r1, #24
 250 0042 0B43     		orrs	r3, r1
 251 0044 1360     		str	r3, [r2]
 252              	.LVL12:
 613:Generated_Source\PSoC4/CyLib.c **** 
 614:Generated_Source\PSoC4/CyLib.c ****             for(i = 0u; i < CY_SYS_EXCO_PGM_CLK_SEQ_GENERATOR; i++)
 253              		.loc 1 614 0
 254 0046 0023     		movs	r3, #0
 255 0048 09E0     		b	.L18
 256              	.LVL13:
 257              	.L19:
 615:Generated_Source\PSoC4/CyLib.c ****             {
 616:Generated_Source\PSoC4/CyLib.c ****                 CY_SYS_EXCO_PGM_CLK_REG |= CY_SYS_EXCO_PGM_CLK_CLK_ECO_MASK;
 258              		.loc 1 616 0 discriminator 3
 259 004a 114A     		ldr	r2, .L20+16
 260 004c 1168     		ldr	r1, [r2]
 261 004e 0225     		movs	r5, #2
 262 0050 2943     		orrs	r1, r5
 263 0052 1160     		str	r1, [r2]
 617:Generated_Source\PSoC4/CyLib.c ****                 CY_SYS_EXCO_PGM_CLK_REG &= ~CY_SYS_EXCO_PGM_CLK_CLK_ECO_MASK;
 264              		.loc 1 617 0 discriminator 3
 265 0054 1168     		ldr	r1, [r2]
 266 0056 A943     		bics	r1, r5
 267 0058 1160     		str	r1, [r2]
 614:Generated_Source\PSoC4/CyLib.c ****             {
 268              		.loc 1 614 0 discriminator 3
 269 005a 0133     		adds	r3, r3, #1
 270              	.LVL14:
 271 005c DBB2     		uxtb	r3, r3
 272              	.LVL15:
 273              	.L18:
 614:Generated_Source\PSoC4/CyLib.c ****             {
 274              		.loc 1 614 0 is_stmt 0 discriminator 1
 275 005e 042B     		cmp	r3, #4
 276 0060 F3D9     		bls	.L19
 618:Generated_Source\PSoC4/CyLib.c ****             }
 619:Generated_Source\PSoC4/CyLib.c **** 
 620:Generated_Source\PSoC4/CyLib.c ****             CY_SYS_EXCO_PGM_CLK_REG &= ~CY_SYS_EXCO_PGM_CLK_ENABLE_MASK;
 277              		.loc 1 620 0 is_stmt 1
 278 0062 0B4A     		ldr	r2, .L20+16
 279 0064 1368     		ldr	r3, [r2]
 280              	.LVL16:
 281 0066 5B00     		lsls	r3, r3, #1
 282 0068 5B08     		lsrs	r3, r3, #1
 283 006a 1360     		str	r3, [r2]
 284              	.L16:
ARM GAS  C:\Users\YUANFA~1\AppData\Local\Temp\ccYDlzYT.s 			page 17


 621:Generated_Source\PSoC4/CyLib.c ****         }
 622:Generated_Source\PSoC4/CyLib.c ****     }
 623:Generated_Source\PSoC4/CyLib.c **** #endif /* (CY_IP_SRSSLT && CY_IP_PLL) */
 624:Generated_Source\PSoC4/CyLib.c **** 
 625:Generated_Source\PSoC4/CyLib.c ****     tmpReg = CY_SYS_CLK_SELECT_REG & ~(CY_SYS_CLK_SELECT_DIRECT_SEL_MASK |
 285              		.loc 1 625 0
 286 006c 044A     		ldr	r2, .L20
 287 006e 1368     		ldr	r3, [r2]
 288 0070 0321     		movs	r1, #3
 289 0072 8B43     		bics	r3, r1
 290              	.LVL17:
 626:Generated_Source\PSoC4/CyLib.c ****                                        CY_SYS_CLK_SELECT_HFCLK_SEL_MASK);
 627:Generated_Source\PSoC4/CyLib.c **** 
 628:Generated_Source\PSoC4/CyLib.c **** #if (CY_IP_SRSSV2 && CY_IP_PLL)
 629:Generated_Source\PSoC4/CyLib.c ****     if ((CY_SYS_CLK_HFCLK_PLL0 == clkSelect) || (CY_SYS_CLK_HFCLK_PLL1 == clkSelect))
 630:Generated_Source\PSoC4/CyLib.c ****     {
 631:Generated_Source\PSoC4/CyLib.c ****         tmpReg |= (clkSelect & CY_SYS_CLK_SELECT_HFCLK_SEL_MASK);
 632:Generated_Source\PSoC4/CyLib.c ****     }
 633:Generated_Source\PSoC4/CyLib.c ****     else
 634:Generated_Source\PSoC4/CyLib.c **** #endif /* (CY_IP_SRSSV2 && CY_IP_PLL) */
 635:Generated_Source\PSoC4/CyLib.c ****     {
 636:Generated_Source\PSoC4/CyLib.c ****         tmpReg |= (clkSelect & CY_SYS_CLK_SELECT_DIRECT_SEL_MASK);
 291              		.loc 1 636 0
 292 0074 0C40     		ands	r4, r1
 293              	.LVL18:
 294 0076 1C43     		orrs	r4, r3
 295              	.LVL19:
 637:Generated_Source\PSoC4/CyLib.c ****     }
 638:Generated_Source\PSoC4/CyLib.c **** 
 639:Generated_Source\PSoC4/CyLib.c ****     CY_SYS_CLK_SELECT_REG = tmpReg;
 296              		.loc 1 639 0
 297 0078 1460     		str	r4, [r2]
 640:Generated_Source\PSoC4/CyLib.c **** 
 641:Generated_Source\PSoC4/CyLib.c ****     CyExitCriticalSection(interruptState);
 298              		.loc 1 641 0
 299 007a FFF7FEFF 		bl	CyExitCriticalSection
 300              	.LVL20:
 642:Generated_Source\PSoC4/CyLib.c **** }
 301              		.loc 1 642 0
 302              		@ sp needed
 303              	.LVL21:
 304 007e 70BD     		pop	{r4, r5, r6, pc}
 305              	.L21:
 306              		.align	2
 307              	.L20:
 308 0080 28000340 		.word	1073938472
 309 0084 00002F40 		.word	1076822016
 310 0088 08002F40 		.word	1076822024
 311 008c 0C002F40 		.word	1076822028
 312 0090 20002F40 		.word	1076822048
 313              		.cfi_endproc
 314              	.LFE6:
 315              		.size	CySysClkWriteHfclkDirect, .-CySysClkWriteHfclkDirect
 316              		.section	.text.CySysEnablePumpClock,"ax",%progbits
 317              		.align	2
 318              		.global	CySysEnablePumpClock
 319              		.code	16
ARM GAS  C:\Users\YUANFA~1\AppData\Local\Temp\ccYDlzYT.s 			page 18


 320              		.thumb_func
 321              		.type	CySysEnablePumpClock, %function
 322              	CySysEnablePumpClock:
 323              	.LFB7:
 643:Generated_Source\PSoC4/CyLib.c **** 
 644:Generated_Source\PSoC4/CyLib.c **** 
 645:Generated_Source\PSoC4/CyLib.c **** /*******************************************************************************
 646:Generated_Source\PSoC4/CyLib.c **** * Function Name: CySysEnablePumpClock
 647:Generated_Source\PSoC4/CyLib.c **** ****************************************************************************//**
 648:Generated_Source\PSoC4/CyLib.c **** *
 649:Generated_Source\PSoC4/CyLib.c **** * Enables / disables the pump clock.
 650:Generated_Source\PSoC4/CyLib.c **** *
 651:Generated_Source\PSoC4/CyLib.c **** * \param enable
 652:Generated_Source\PSoC4/CyLib.c **** * CY_SYS_CLK_PUMP_DISABLE - Disables the pump clock
 653:Generated_Source\PSoC4/CyLib.c **** * CY_SYS_CLK_PUMP_ENABLE - Enables and restores the operating source of
 654:Generated_Source\PSoC4/CyLib.c **** * the pump clock.
 655:Generated_Source\PSoC4/CyLib.c **** *
 656:Generated_Source\PSoC4/CyLib.c **** * \sideeffect
 657:Generated_Source\PSoC4/CyLib.c **** *  Enabling/disabling the pump clock does not guarantee glitch free operation
 658:Generated_Source\PSoC4/CyLib.c **** *  when changing the IMO parameters or clock divider settings.
 659:Generated_Source\PSoC4/CyLib.c **** *
 660:Generated_Source\PSoC4/CyLib.c **** *******************************************************************************/
 661:Generated_Source\PSoC4/CyLib.c **** void CySysEnablePumpClock(uint32 enable)
 662:Generated_Source\PSoC4/CyLib.c **** {
 324              		.loc 1 662 0
 325              		.cfi_startproc
 326              		@ args = 0, pretend = 0, frame = 0
 327              		@ frame_needed = 0, uses_anonymous_args = 0
 328              		@ link register save eliminated.
 329              	.LVL22:
 663:Generated_Source\PSoC4/CyLib.c ****     #if(CY_IP_SRSSV2)
 664:Generated_Source\PSoC4/CyLib.c ****         if (0u != (CY_SYS_CLK_PUMP_ENABLE & enable))
 665:Generated_Source\PSoC4/CyLib.c ****         {
 666:Generated_Source\PSoC4/CyLib.c ****             CY_SYS_CLK_IMO_CONFIG_REG |= (CySysClkPumpConfig << CY_SYS_CLK_IMO_CONFIG_PUMP_SEL_SHIF
 667:Generated_Source\PSoC4/CyLib.c ****         }
 668:Generated_Source\PSoC4/CyLib.c ****         else
 669:Generated_Source\PSoC4/CyLib.c ****         {
 670:Generated_Source\PSoC4/CyLib.c ****             CySysClkPumpConfig = (CY_SYS_CLK_IMO_CONFIG_REG >> CY_SYS_CLK_IMO_CONFIG_PUMP_SEL_SHIFT
 671:Generated_Source\PSoC4/CyLib.c ****                                   CY_SYS_CLK_IMO_CONFIG_PUMP_SEL_MASK;
 672:Generated_Source\PSoC4/CyLib.c ****             CY_SYS_CLK_IMO_CONFIG_REG &= ~(CY_SYS_CLK_IMO_CONFIG_PUMP_SEL_MASK << CY_SYS_CLK_IMO_CO
 673:Generated_Source\PSoC4/CyLib.c ****         }
 674:Generated_Source\PSoC4/CyLib.c ****     #else /* CY_IP_SRSSLT */
 675:Generated_Source\PSoC4/CyLib.c ****         if (0u != (CY_SYS_CLK_PUMP_ENABLE & enable))
 330              		.loc 1 675 0
 331 0000 C307     		lsls	r3, r0, #31
 332 0002 07D5     		bpl	.L23
 676:Generated_Source\PSoC4/CyLib.c ****         {
 677:Generated_Source\PSoC4/CyLib.c ****             CY_SYS_CLK_SELECT_REG |= (CySysClkPumpConfig << CY_SYS_CLK_SELECT_PUMP_SEL_SHIFT);
 333              		.loc 1 677 0
 334 0004 094A     		ldr	r2, .L25
 335 0006 1168     		ldr	r1, [r2]
 336 0008 094B     		ldr	r3, .L25+4
 337 000a 1B68     		ldr	r3, [r3]
 338 000c 1B01     		lsls	r3, r3, #4
 339 000e 0B43     		orrs	r3, r1
 340 0010 1360     		str	r3, [r2]
 341 0012 0AE0     		b	.L22
ARM GAS  C:\Users\YUANFA~1\AppData\Local\Temp\ccYDlzYT.s 			page 19


 342              	.L23:
 678:Generated_Source\PSoC4/CyLib.c ****         }
 679:Generated_Source\PSoC4/CyLib.c ****         else
 680:Generated_Source\PSoC4/CyLib.c ****         {
 681:Generated_Source\PSoC4/CyLib.c ****             CySysClkPumpConfig = (CY_SYS_CLK_SELECT_REG >> CY_SYS_CLK_SELECT_PUMP_SEL_SHIFT) &
 343              		.loc 1 681 0
 344 0014 054A     		ldr	r2, .L25
 345 0016 1368     		ldr	r3, [r2]
 346 0018 1B09     		lsrs	r3, r3, #4
 347 001a 0321     		movs	r1, #3
 348 001c 0B40     		ands	r3, r1
 349 001e 0449     		ldr	r1, .L25+4
 350 0020 0B60     		str	r3, [r1]
 682:Generated_Source\PSoC4/CyLib.c ****                                   CY_SYS_CLK_SELECT_PUMP_SEL_MASK;
 683:Generated_Source\PSoC4/CyLib.c ****             CY_SYS_CLK_SELECT_REG &= ~(CY_SYS_CLK_SELECT_PUMP_SEL_MASK << CY_SYS_CLK_SELECT_PUMP_SE
 351              		.loc 1 683 0
 352 0022 1368     		ldr	r3, [r2]
 353 0024 3021     		movs	r1, #48
 354 0026 8B43     		bics	r3, r1
 355 0028 1360     		str	r3, [r2]
 356              	.L22:
 684:Generated_Source\PSoC4/CyLib.c ****         }
 685:Generated_Source\PSoC4/CyLib.c ****     #endif  /* (CY_IP_SRSSV2) */
 686:Generated_Source\PSoC4/CyLib.c **** }
 357              		.loc 1 686 0
 358              		@ sp needed
 359 002a 7047     		bx	lr
 360              	.L26:
 361              		.align	2
 362              	.L25:
 363 002c 28000340 		.word	1073938472
 364 0030 00000000 		.word	.LANCHOR0
 365              		.cfi_endproc
 366              	.LFE7:
 367              		.size	CySysEnablePumpClock, .-CySysEnablePumpClock
 368              		.section	.text.CySysClkGetSysclkSource,"ax",%progbits
 369              		.align	2
 370              		.global	CySysClkGetSysclkSource
 371              		.code	16
 372              		.thumb_func
 373              		.type	CySysClkGetSysclkSource, %function
 374              	CySysClkGetSysclkSource:
 375              	.LFB8:
 687:Generated_Source\PSoC4/CyLib.c **** 
 688:Generated_Source\PSoC4/CyLib.c **** 
 689:Generated_Source\PSoC4/CyLib.c **** /*******************************************************************************
 690:Generated_Source\PSoC4/CyLib.c **** * Function Name: CySysClkGetSysclkSource
 691:Generated_Source\PSoC4/CyLib.c **** ****************************************************************************//**
 692:Generated_Source\PSoC4/CyLib.c **** *
 693:Generated_Source\PSoC4/CyLib.c **** * Returns the source of the System clock.
 694:Generated_Source\PSoC4/CyLib.c **** *
 695:Generated_Source\PSoC4/CyLib.c **** * \return The same as \ref CySysClkWriteHfclkDirect() function parameters.
 696:Generated_Source\PSoC4/CyLib.c **** *
 697:Generated_Source\PSoC4/CyLib.c **** *******************************************************************************/
 698:Generated_Source\PSoC4/CyLib.c **** uint32 CySysClkGetSysclkSource(void)
 699:Generated_Source\PSoC4/CyLib.c **** {
 376              		.loc 1 699 0
ARM GAS  C:\Users\YUANFA~1\AppData\Local\Temp\ccYDlzYT.s 			page 20


 377              		.cfi_startproc
 378              		@ args = 0, pretend = 0, frame = 0
 379              		@ frame_needed = 0, uses_anonymous_args = 0
 380 0000 10B5     		push	{r4, lr}
 381              		.cfi_def_cfa_offset 8
 382              		.cfi_offset 4, -8
 383              		.cfi_offset 14, -4
 700:Generated_Source\PSoC4/CyLib.c ****     uint8  interruptState;
 701:Generated_Source\PSoC4/CyLib.c ****     uint32 sysclkSource;
 702:Generated_Source\PSoC4/CyLib.c **** 
 703:Generated_Source\PSoC4/CyLib.c ****     interruptState = CyEnterCriticalSection();
 384              		.loc 1 703 0
 385 0002 FFF7FEFF 		bl	CyEnterCriticalSection
 386              	.LVL23:
 704:Generated_Source\PSoC4/CyLib.c **** 
 705:Generated_Source\PSoC4/CyLib.c **** #if (CY_IP_SRSSV2 && CY_IP_PLL)
 706:Generated_Source\PSoC4/CyLib.c ****     if ((CY_SYS_CLK_SELECT_REG & CY_SYS_CLK_SELECT_HFCLK_SEL_MASK) != 0u)
 707:Generated_Source\PSoC4/CyLib.c ****     {
 708:Generated_Source\PSoC4/CyLib.c ****         sysclkSource = (CY_SYS_CLK_SELECT_REG & CY_SYS_CLK_SELECT_HFCLK_SEL_MASK);
 709:Generated_Source\PSoC4/CyLib.c ****     }
 710:Generated_Source\PSoC4/CyLib.c ****     else
 711:Generated_Source\PSoC4/CyLib.c **** #endif /* (CY_IP_SRSSV2 && CY_IP_PLL) */
 712:Generated_Source\PSoC4/CyLib.c ****     {
 713:Generated_Source\PSoC4/CyLib.c ****         sysclkSource = (CY_SYS_CLK_SELECT_REG & CY_SYS_CLK_SELECT_DIRECT_SEL_MASK);
 387              		.loc 1 713 0
 388 0006 074B     		ldr	r3, .L28
 389 0008 1B68     		ldr	r3, [r3]
 390 000a 0324     		movs	r4, #3
 391 000c 2200     		movs	r2, r4
 392 000e 1A40     		ands	r2, r3
 393              	.LVL24:
 714:Generated_Source\PSoC4/CyLib.c **** 
 715:Generated_Source\PSoC4/CyLib.c ****     #if (CY_IP_SRSSLT && CY_IP_PLL)
 716:Generated_Source\PSoC4/CyLib.c ****         sysclkSource |= (((uint32)(CY_SYS_ECO_CLK_SELECT_REG & CY_SYS_ECO_CLK_SELECT_ECO_PLL_MASK))
 394              		.loc 1 716 0
 395 0010 054B     		ldr	r3, .L28+4
 396 0012 1B68     		ldr	r3, [r3]
 397 0014 9B00     		lsls	r3, r3, #2
 398 0016 0134     		adds	r4, r4, #1
 399 0018 1C40     		ands	r4, r3
 400 001a 1443     		orrs	r4, r2
 401              	.LVL25:
 717:Generated_Source\PSoC4/CyLib.c ****                          CY_SYS_CLK_SELECT_HFCLK_PLL_SHIFT);
 718:Generated_Source\PSoC4/CyLib.c ****     #endif /* (CY_IP_SRSSLT && CY_IP_PLL) */
 719:Generated_Source\PSoC4/CyLib.c **** 
 720:Generated_Source\PSoC4/CyLib.c ****     }
 721:Generated_Source\PSoC4/CyLib.c **** 
 722:Generated_Source\PSoC4/CyLib.c ****     CyExitCriticalSection(interruptState);
 402              		.loc 1 722 0
 403 001c FFF7FEFF 		bl	CyExitCriticalSection
 404              	.LVL26:
 723:Generated_Source\PSoC4/CyLib.c **** 
 724:Generated_Source\PSoC4/CyLib.c ****     return (sysclkSource);
 725:Generated_Source\PSoC4/CyLib.c **** }
 405              		.loc 1 725 0
 406 0020 2000     		movs	r0, r4
 407              		@ sp needed
ARM GAS  C:\Users\YUANFA~1\AppData\Local\Temp\ccYDlzYT.s 			page 21


 408              	.LVL27:
 409 0022 10BD     		pop	{r4, pc}
 410              	.L29:
 411              		.align	2
 412              	.L28:
 413 0024 28000340 		.word	1073938472
 414 0028 00002F40 		.word	1076822016
 415              		.cfi_endproc
 416              	.LFE8:
 417              		.size	CySysClkGetSysclkSource, .-CySysClkGetSysclkSource
 418              		.section	.text.CySysClkWriteSysclkDiv,"ax",%progbits
 419              		.align	2
 420              		.global	CySysClkWriteSysclkDiv
 421              		.code	16
 422              		.thumb_func
 423              		.type	CySysClkWriteSysclkDiv, %function
 424              	CySysClkWriteSysclkDiv:
 425              	.LFB9:
 726:Generated_Source\PSoC4/CyLib.c **** 
 727:Generated_Source\PSoC4/CyLib.c **** 
 728:Generated_Source\PSoC4/CyLib.c **** /*******************************************************************************
 729:Generated_Source\PSoC4/CyLib.c **** * Function Name: CySysClkWriteSysclkDiv
 730:Generated_Source\PSoC4/CyLib.c **** ****************************************************************************//**
 731:Generated_Source\PSoC4/CyLib.c **** *
 732:Generated_Source\PSoC4/CyLib.c **** * Selects the prescaler divide amount for SYSCLK from HFCLK.
 733:Generated_Source\PSoC4/CyLib.c **** *
 734:Generated_Source\PSoC4/CyLib.c **** * PSoC 4000: The SYSCLK has the speed of 16 MHz, so HFCLK and SYSCLK dividers
 735:Generated_Source\PSoC4/CyLib.c **** * should be selected in a way, not to exceed 16 MHz for SYSCLK.
 736:Generated_Source\PSoC4/CyLib.c **** *
 737:Generated_Source\PSoC4/CyLib.c **** * PSoC 4100 \ PSoC 4100 BLE \ PSoC 4100M: The SYSCLK has the speed of 24 MHz,
 738:Generated_Source\PSoC4/CyLib.c **** * so HFCLK and SYSCLK dividers should be selected in a way, not to exceed 24 MHz
 739:Generated_Source\PSoC4/CyLib.c **** * for SYSCLK.
 740:Generated_Source\PSoC4/CyLib.c **** *
 741:Generated_Source\PSoC4/CyLib.c **** * If the SYSCLK clock frequency increases during the device operation, call
 742:Generated_Source\PSoC4/CyLib.c **** * \ref CySysFlashSetWaitCycles() with the appropriate parameter to adjust the
 743:Generated_Source\PSoC4/CyLib.c **** * number of clock cycles the cache will wait before sampling data comes back
 744:Generated_Source\PSoC4/CyLib.c **** * from Flash. If the SYSCLK clock frequency decreases, you can call
 745:Generated_Source\PSoC4/CyLib.c **** * \ref CySysFlashSetWaitCycles() to improve the CPU performance. See
 746:Generated_Source\PSoC4/CyLib.c **** * \ref CySysFlashSetWaitCycles() description for more information.
 747:Generated_Source\PSoC4/CyLib.c **** *
 748:Generated_Source\PSoC4/CyLib.c **** * \param divider Power of 2 prescaler selection
 749:Generated_Source\PSoC4/CyLib.c **** *  CY_SYS_CLK_SYSCLK_DIV1        SYSCLK = HFCLK / 1
 750:Generated_Source\PSoC4/CyLib.c **** *  CY_SYS_CLK_SYSCLK_DIV2        SYSCLK = HFCLK / 2
 751:Generated_Source\PSoC4/CyLib.c **** *  CY_SYS_CLK_SYSCLK_DIV4        SYSCLK = HFCLK / 4
 752:Generated_Source\PSoC4/CyLib.c **** *  CY_SYS_CLK_SYSCLK_DIV8        SYSCLK = HFCLK / 8
 753:Generated_Source\PSoC4/CyLib.c **** *  CY_SYS_CLK_SYSCLK_DIV16       SYSCLK = HFCLK / 16  (N/A for 4000 Family)
 754:Generated_Source\PSoC4/CyLib.c **** *  CY_SYS_CLK_SYSCLK_DIV32       SYSCLK = HFCLK / 32  (N/A for 4000 Family)
 755:Generated_Source\PSoC4/CyLib.c **** *  CY_SYS_CLK_SYSCLK_DIV64       SYSCLK = HFCLK / 64  (N/A for 4000 Family)
 756:Generated_Source\PSoC4/CyLib.c **** *  CY_SYS_CLK_SYSCLK_DIV128      SYSCLK = HFCLK / 128 (N/A for 4000 Family)
 757:Generated_Source\PSoC4/CyLib.c **** *
 758:Generated_Source\PSoC4/CyLib.c **** *******************************************************************************/
 759:Generated_Source\PSoC4/CyLib.c **** void CySysClkWriteSysclkDiv(uint32 divider)
 760:Generated_Source\PSoC4/CyLib.c **** {
 426              		.loc 1 760 0
 427              		.cfi_startproc
 428              		@ args = 0, pretend = 0, frame = 0
 429              		@ frame_needed = 0, uses_anonymous_args = 0
ARM GAS  C:\Users\YUANFA~1\AppData\Local\Temp\ccYDlzYT.s 			page 22


 430              	.LVL28:
 431 0000 10B5     		push	{r4, lr}
 432              		.cfi_def_cfa_offset 8
 433              		.cfi_offset 4, -8
 434              		.cfi_offset 14, -4
 435 0002 0400     		movs	r4, r0
 761:Generated_Source\PSoC4/CyLib.c ****     uint8  interruptState;
 762:Generated_Source\PSoC4/CyLib.c **** 
 763:Generated_Source\PSoC4/CyLib.c ****     interruptState = CyEnterCriticalSection();
 436              		.loc 1 763 0
 437 0004 FFF7FEFF 		bl	CyEnterCriticalSection
 438              	.LVL29:
 764:Generated_Source\PSoC4/CyLib.c **** 
 765:Generated_Source\PSoC4/CyLib.c ****     CY_SYS_CLK_SELECT_REG = ((uint32)(((uint32)divider & CY_SYS_CLK_SELECT_SYSCLK_DIV_MASK) <<
 439              		.loc 1 765 0
 440 0008 A401     		lsls	r4, r4, #6
 441              	.LVL30:
 442 000a FF23     		movs	r3, #255
 443 000c 2340     		ands	r3, r4
 766:Generated_Source\PSoC4/CyLib.c ****                                     CY_SYS_CLK_SELECT_SYSCLK_DIV_SHIFT)) |
 767:Generated_Source\PSoC4/CyLib.c ****                             (CY_SYS_CLK_SELECT_REG & ((uint32)(~(uint32)(CY_SYS_CLK_SELECT_SYSCLK_D
 444              		.loc 1 767 0
 445 000e 0449     		ldr	r1, .L31
 446 0010 0A68     		ldr	r2, [r1]
 447 0012 C024     		movs	r4, #192
 448 0014 A243     		bics	r2, r4
 766:Generated_Source\PSoC4/CyLib.c ****                                     CY_SYS_CLK_SELECT_SYSCLK_DIV_SHIFT)) |
 449              		.loc 1 766 0
 450 0016 1343     		orrs	r3, r2
 765:Generated_Source\PSoC4/CyLib.c ****                                     CY_SYS_CLK_SELECT_SYSCLK_DIV_SHIFT)) |
 451              		.loc 1 765 0
 452 0018 0B60     		str	r3, [r1]
 768:Generated_Source\PSoC4/CyLib.c ****                                     CY_SYS_CLK_SELECT_SYSCLK_DIV_SHIFT))));
 769:Generated_Source\PSoC4/CyLib.c **** 
 770:Generated_Source\PSoC4/CyLib.c ****     CyExitCriticalSection(interruptState);
 453              		.loc 1 770 0
 454 001a FFF7FEFF 		bl	CyExitCriticalSection
 455              	.LVL31:
 771:Generated_Source\PSoC4/CyLib.c **** }
 456              		.loc 1 771 0
 457              		@ sp needed
 458 001e 10BD     		pop	{r4, pc}
 459              	.L32:
 460              		.align	2
 461              	.L31:
 462 0020 28000340 		.word	1073938472
 463              		.cfi_endproc
 464              	.LFE9:
 465              		.size	CySysClkWriteSysclkDiv, .-CySysClkWriteSysclkDiv
 466              		.section	.text.CySysClkWriteHfclkDiv,"ax",%progbits
 467              		.align	2
 468              		.global	CySysClkWriteHfclkDiv
 469              		.code	16
 470              		.thumb_func
 471              		.type	CySysClkWriteHfclkDiv, %function
 472              	CySysClkWriteHfclkDiv:
 473              	.LFB11:
ARM GAS  C:\Users\YUANFA~1\AppData\Local\Temp\ccYDlzYT.s 			page 23


 772:Generated_Source\PSoC4/CyLib.c **** 
 773:Generated_Source\PSoC4/CyLib.c **** 
 774:Generated_Source\PSoC4/CyLib.c **** /*******************************************************************************
 775:Generated_Source\PSoC4/CyLib.c **** * Function Name: CySysClkWriteImoFreq
 776:Generated_Source\PSoC4/CyLib.c **** ****************************************************************************//**
 777:Generated_Source\PSoC4/CyLib.c **** *
 778:Generated_Source\PSoC4/CyLib.c **** * Sets the frequency of the IMO.
 779:Generated_Source\PSoC4/CyLib.c **** *
 780:Generated_Source\PSoC4/CyLib.c **** * PSoC 4000: The SYSCLK has the speed of 16 MHz, so HFCLK and SYSCLK dividers
 781:Generated_Source\PSoC4/CyLib.c **** * should be selected in a way, not to exceed 16 MHz for SYSCLK.
 782:Generated_Source\PSoC4/CyLib.c **** *
 783:Generated_Source\PSoC4/CyLib.c **** * PSoC 4100 \ PSoC 4100 BLE \ PSoC 4100M: The SYSCLK has the speed of 24 MHz,
 784:Generated_Source\PSoC4/CyLib.c **** * so HFCLK and SYSCLK dividers should be selected in a way, not to exceed 24 MHz
 785:Generated_Source\PSoC4/CyLib.c **** * for SYSCLK.
 786:Generated_Source\PSoC4/CyLib.c **** *
 787:Generated_Source\PSoC4/CyLib.c **** * For PSoC 4200M and PSoC 4200L device families, if WCO lock feature is enabled
 788:Generated_Source\PSoC4/CyLib.c **** * then this API will disable the lock, write the new IMO frequency and then
 789:Generated_Source\PSoC4/CyLib.c **** * re-enable the lock.
 790:Generated_Source\PSoC4/CyLib.c **** *
 791:Generated_Source\PSoC4/CyLib.c **** * For PSoC 4200L device families, this function enables the USB lock when 24 or
 792:Generated_Source\PSoC4/CyLib.c **** * 48 MHz passed as a parameter if the USB lock option is enabled in Design Wide
 793:Generated_Source\PSoC4/CyLib.c **** * Resources tab or CySysClkImoEnableUsbLock() was called before. Note the USB
 794:Generated_Source\PSoC4/CyLib.c **** * lock is disabled during IMO frequency change.
 795:Generated_Source\PSoC4/CyLib.c **** *
 796:Generated_Source\PSoC4/CyLib.c **** * The CPU is halted if new frequency is invalid and project is compiled
 797:Generated_Source\PSoC4/CyLib.c **** * in debug mode.
 798:Generated_Source\PSoC4/CyLib.c **** *
 799:Generated_Source\PSoC4/CyLib.c **** * If the SYSCLK clock frequency increases during the device operation, call
 800:Generated_Source\PSoC4/CyLib.c **** * \ref CySysFlashSetWaitCycles() with the appropriate parameter to adjust the
 801:Generated_Source\PSoC4/CyLib.c **** * number of clock cycles the cache will wait before sampling data comes back
 802:Generated_Source\PSoC4/CyLib.c **** * from Flash. If the SYSCLK clock frequency decreases, you can call
 803:Generated_Source\PSoC4/CyLib.c **** * \ref CySysFlashSetWaitCycles() to improve the CPU performance. See
 804:Generated_Source\PSoC4/CyLib.c **** * \ref CySysFlashSetWaitCycles() description for more information.
 805:Generated_Source\PSoC4/CyLib.c **** *
 806:Generated_Source\PSoC4/CyLib.c **** * PSoC 4000: The System Clock (SYSCLK) has maximum speed of 16 MHz, so HFCLK
 807:Generated_Source\PSoC4/CyLib.c **** * and SYSCLK dividers should be selected in a way, to not to exceed 16 MHz for
 808:Generated_Source\PSoC4/CyLib.c **** * the System clock.
 809:Generated_Source\PSoC4/CyLib.c **** *
 810:Generated_Source\PSoC4/CyLib.c **** * \param freq All PSoC 4 families excluding the following: Valid range [3-48]
 811:Generated_Source\PSoC4/CyLib.c **** * with step size equals 1. PSoC 4000: Valid values are 24, 32, and 48.
 812:Generated_Source\PSoC4/CyLib.c **** * PSoC 4000S / PSoC 4100S / PSoC Analog Coprocessor: Valid range [24-48] with
 813:Generated_Source\PSoC4/CyLib.c **** * step size equals 4.
 814:Generated_Source\PSoC4/CyLib.c **** *
 815:Generated_Source\PSoC4/CyLib.c **** *******************************************************************************/
 816:Generated_Source\PSoC4/CyLib.c **** #if(CY_IP_SRSSV2)
 817:Generated_Source\PSoC4/CyLib.c ****     void CySysClkWriteImoFreq(uint32 freq)
 818:Generated_Source\PSoC4/CyLib.c ****     {
 819:Generated_Source\PSoC4/CyLib.c ****         #if (CY_IP_FMLT)
 820:Generated_Source\PSoC4/CyLib.c ****             volatile uint32   parameters[2u];
 821:Generated_Source\PSoC4/CyLib.c ****             volatile uint32   regValues[4u];
 822:Generated_Source\PSoC4/CyLib.c ****         #else
 823:Generated_Source\PSoC4/CyLib.c ****             uint8  bgTrim4;
 824:Generated_Source\PSoC4/CyLib.c ****             uint8  bgTrim5;
 825:Generated_Source\PSoC4/CyLib.c ****             uint8  newImoTrim2Value;
 826:Generated_Source\PSoC4/CyLib.c ****             uint8  currentImoTrim2Value;
 827:Generated_Source\PSoC4/CyLib.c ****         #endif /* (CY_IP_FM) */
 828:Generated_Source\PSoC4/CyLib.c **** 
ARM GAS  C:\Users\YUANFA~1\AppData\Local\Temp\ccYDlzYT.s 			page 24


 829:Generated_Source\PSoC4/CyLib.c ****         #if (CY_IP_IMO_TRIMMABLE_BY_WCO)
 830:Generated_Source\PSoC4/CyLib.c ****             uint32 wcoLock = 0u;
 831:Generated_Source\PSoC4/CyLib.c ****         #endif  /* (CY_IP_IMO_TRIMMABLE_BY_WCO) */
 832:Generated_Source\PSoC4/CyLib.c **** 
 833:Generated_Source\PSoC4/CyLib.c ****         #if (CY_IP_IMO_TRIMMABLE_BY_USB)
 834:Generated_Source\PSoC4/CyLib.c ****             uint32 usbLock = 0u;
 835:Generated_Source\PSoC4/CyLib.c ****         #endif  /* (CY_IP_IMO_TRIMMABLE_BY_USB) */
 836:Generated_Source\PSoC4/CyLib.c **** 
 837:Generated_Source\PSoC4/CyLib.c ****         uint8  interruptState;
 838:Generated_Source\PSoC4/CyLib.c **** 
 839:Generated_Source\PSoC4/CyLib.c **** 
 840:Generated_Source\PSoC4/CyLib.c ****         interruptState = CyEnterCriticalSection();
 841:Generated_Source\PSoC4/CyLib.c **** 
 842:Generated_Source\PSoC4/CyLib.c ****         #if (CY_IP_IMO_TRIMMABLE_BY_WCO)
 843:Generated_Source\PSoC4/CyLib.c ****             if(0u != CySysClkImoGetWcoLock())
 844:Generated_Source\PSoC4/CyLib.c ****             {
 845:Generated_Source\PSoC4/CyLib.c ****                 wcoLock = 1u;
 846:Generated_Source\PSoC4/CyLib.c ****                 CySysClkImoDisableWcoLock();
 847:Generated_Source\PSoC4/CyLib.c ****             }
 848:Generated_Source\PSoC4/CyLib.c ****         #endif  /* (CY_IP_IMO_TRIMMABLE_BY_WCO) */
 849:Generated_Source\PSoC4/CyLib.c **** 
 850:Generated_Source\PSoC4/CyLib.c **** 
 851:Generated_Source\PSoC4/CyLib.c ****         #if (CY_IP_IMO_TRIMMABLE_BY_USB)
 852:Generated_Source\PSoC4/CyLib.c **** 
 853:Generated_Source\PSoC4/CyLib.c ****             #if (CYDEV_IMO_TRIMMED_BY_USB == 0u)
 854:Generated_Source\PSoC4/CyLib.c ****                 if(0u != CySysClkImoGetUsbLock())
 855:Generated_Source\PSoC4/CyLib.c ****                 {
 856:Generated_Source\PSoC4/CyLib.c ****             #endif  /* (CYDEV_IMO_TRIMMED_BY_USB == 0u) */
 857:Generated_Source\PSoC4/CyLib.c **** 
 858:Generated_Source\PSoC4/CyLib.c ****                 if ((24u == freq) || (48u == freq))
 859:Generated_Source\PSoC4/CyLib.c ****                 {
 860:Generated_Source\PSoC4/CyLib.c ****                     usbLock = 1u;
 861:Generated_Source\PSoC4/CyLib.c ****                     CySysClkImoDisableUsbLock();
 862:Generated_Source\PSoC4/CyLib.c ****                 }
 863:Generated_Source\PSoC4/CyLib.c **** 
 864:Generated_Source\PSoC4/CyLib.c ****             #if (CYDEV_IMO_TRIMMED_BY_USB == 0u)
 865:Generated_Source\PSoC4/CyLib.c ****                 }
 866:Generated_Source\PSoC4/CyLib.c ****             #endif  /* (CYDEV_IMO_TRIMMED_BY_USB == 0u) */
 867:Generated_Source\PSoC4/CyLib.c **** 
 868:Generated_Source\PSoC4/CyLib.c ****         #endif  /* (CYDEV_IMO_TRIMMED_BY_USB == 0u) */
 869:Generated_Source\PSoC4/CyLib.c **** 
 870:Generated_Source\PSoC4/CyLib.c **** 
 871:Generated_Source\PSoC4/CyLib.c ****         #if (CY_IP_FMLT)
 872:Generated_Source\PSoC4/CyLib.c **** 
 873:Generated_Source\PSoC4/CyLib.c ****             /* FM-Lite Clock Restore */
 874:Generated_Source\PSoC4/CyLib.c ****             regValues[0u] = CY_SYS_CLK_IMO_CONFIG_REG;
 875:Generated_Source\PSoC4/CyLib.c ****             regValues[1u] = CY_SYS_CLK_SELECT_REG;
 876:Generated_Source\PSoC4/CyLib.c ****             regValues[2u] = cyImoFreqMhz2Reg[freq - CY_SYS_CLK_IMO_FREQ_TABLE_OFFSET];
 877:Generated_Source\PSoC4/CyLib.c ****             regValues[3u] = CY_FLASH_CTL_REG;
 878:Generated_Source\PSoC4/CyLib.c **** 
 879:Generated_Source\PSoC4/CyLib.c ****             parameters[0u] =
 880:Generated_Source\PSoC4/CyLib.c ****                 (uint32) ((CY_FLASH_KEY_TWO(CY_FLASH_API_OPCODE_CLK_RESTORE) <<  CY_FLASH_PARAM_KEY
 881:Generated_Source\PSoC4/CyLib.c ****                             CY_FLASH_KEY_ONE);
 882:Generated_Source\PSoC4/CyLib.c ****             parameters[1u] = (uint32) &regValues[0u];
 883:Generated_Source\PSoC4/CyLib.c **** 
 884:Generated_Source\PSoC4/CyLib.c ****             CY_FLASH_CPUSS_SYSARG_REG = (uint32) &parameters[0u];
 885:Generated_Source\PSoC4/CyLib.c ****             CY_FLASH_CPUSS_SYSREQ_REG = CY_FLASH_CPUSS_REQ_START | CY_FLASH_API_OPCODE_CLK_RESTORE;
ARM GAS  C:\Users\YUANFA~1\AppData\Local\Temp\ccYDlzYT.s 			page 25


 886:Generated_Source\PSoC4/CyLib.c ****             (void) CY_FLASH_CPUSS_SYSARG_REG;
 887:Generated_Source\PSoC4/CyLib.c **** 
 888:Generated_Source\PSoC4/CyLib.c ****         #else /* (CY_IP_FM) */
 889:Generated_Source\PSoC4/CyLib.c **** 
 890:Generated_Source\PSoC4/CyLib.c ****         if ((freq >= CY_SYS_CLK_IMO_MIN_FREQ_MHZ) && (freq <= CY_SYS_CLK_IMO_MAX_FREQ_MHZ))
 891:Generated_Source\PSoC4/CyLib.c ****         {
 892:Generated_Source\PSoC4/CyLib.c ****             if(freq <= CY_SFLASH_IMO_MAXF0_REG)
 893:Generated_Source\PSoC4/CyLib.c ****             {
 894:Generated_Source\PSoC4/CyLib.c ****                 bgTrim4 = CY_SFLASH_IMO_ABS0_REG;
 895:Generated_Source\PSoC4/CyLib.c ****                 bgTrim5 = CY_SFLASH_IMO_TMPCO0_REG;
 896:Generated_Source\PSoC4/CyLib.c ****             }
 897:Generated_Source\PSoC4/CyLib.c ****             else if(freq <= CY_SFLASH_IMO_MAXF1_REG)
 898:Generated_Source\PSoC4/CyLib.c ****             {
 899:Generated_Source\PSoC4/CyLib.c ****                 bgTrim4 = CY_SFLASH_IMO_ABS1_REG;
 900:Generated_Source\PSoC4/CyLib.c ****                 bgTrim5 = CY_SFLASH_IMO_TMPCO1_REG;
 901:Generated_Source\PSoC4/CyLib.c ****             }
 902:Generated_Source\PSoC4/CyLib.c ****             else if(freq <= CY_SFLASH_IMO_MAXF2_REG)
 903:Generated_Source\PSoC4/CyLib.c ****             {
 904:Generated_Source\PSoC4/CyLib.c ****                 bgTrim4 = CY_SFLASH_IMO_ABS2_REG;
 905:Generated_Source\PSoC4/CyLib.c ****                 bgTrim5 = CY_SFLASH_IMO_TMPCO2_REG;
 906:Generated_Source\PSoC4/CyLib.c ****             }
 907:Generated_Source\PSoC4/CyLib.c ****             else if(freq <= CY_SFLASH_IMO_MAXF3_REG)
 908:Generated_Source\PSoC4/CyLib.c ****             {
 909:Generated_Source\PSoC4/CyLib.c ****                 bgTrim4 = CY_SFLASH_IMO_ABS3_REG;
 910:Generated_Source\PSoC4/CyLib.c ****                 bgTrim5 = CY_SFLASH_IMO_TMPCO3_REG;
 911:Generated_Source\PSoC4/CyLib.c ****             }
 912:Generated_Source\PSoC4/CyLib.c ****             else
 913:Generated_Source\PSoC4/CyLib.c ****             {
 914:Generated_Source\PSoC4/CyLib.c ****                 bgTrim4 = CY_SFLASH_IMO_ABS4_REG;
 915:Generated_Source\PSoC4/CyLib.c ****                 bgTrim5 = CY_SFLASH_IMO_TMPCO4_REG;
 916:Generated_Source\PSoC4/CyLib.c ****             }
 917:Generated_Source\PSoC4/CyLib.c **** 
 918:Generated_Source\PSoC4/CyLib.c ****             /* Get IMO_TRIM2 value for the new frequency */
 919:Generated_Source\PSoC4/CyLib.c ****             newImoTrim2Value = cyImoFreqMhz2Reg[freq - CY_SYS_CLK_IMO_FREQ_TABLE_OFFSET];
 920:Generated_Source\PSoC4/CyLib.c **** 
 921:Generated_Source\PSoC4/CyLib.c **** 
 922:Generated_Source\PSoC4/CyLib.c ****             /****************************************************************************
 923:Generated_Source\PSoC4/CyLib.c ****             * The IMO can have a different trim per frequency. To avoid possible corner
 924:Generated_Source\PSoC4/CyLib.c ****             * cases where a trim change can exceed the maximum frequency, the trim must
 925:Generated_Source\PSoC4/CyLib.c ****             * be applied at a frequency that is low enough.
 926:Generated_Source\PSoC4/CyLib.c ****             *
 927:Generated_Source\PSoC4/CyLib.c ****             * Comparing IMO_TRIM2 values for the current and new frequencies, since
 928:Generated_Source\PSoC4/CyLib.c ****             * IMO_TRIM2 value as a function of IMO frequency is a strictly increasing
 929:Generated_Source\PSoC4/CyLib.c ****             * function and is time-invariant.
 930:Generated_Source\PSoC4/CyLib.c ****             ***************************************************************************/
 931:Generated_Source\PSoC4/CyLib.c ****             if ((newImoTrim2Value >= CY_SYS_CLK_IMO_BOUNDARY_FREQ_TRIM2) && (freq >= CY_SYS_CLK_IMO
 932:Generated_Source\PSoC4/CyLib.c ****             {
 933:Generated_Source\PSoC4/CyLib.c ****                 /* Set boundary IMO frequency: safe for IMO above 48 MHZ trimming */
 934:Generated_Source\PSoC4/CyLib.c ****                 CY_SYS_CLK_IMO_TRIM2_REG = (uint32) cyImoFreqMhz2Reg[CY_SYS_CLK_IMO_TEMP_FREQ_MHZ -
 935:Generated_Source\PSoC4/CyLib.c ****                                                                      CY_SYS_CLK_IMO_FREQ_TABLE_OFFS
 936:Generated_Source\PSoC4/CyLib.c **** 
 937:Generated_Source\PSoC4/CyLib.c ****                 CyDelayCycles(CY_SYS_CLK_IMO_FREQ_TIMEOUT_CYCLES);
 938:Generated_Source\PSoC4/CyLib.c **** 
 939:Generated_Source\PSoC4/CyLib.c ****                 currentImoTrim2Value = CY_SYS_CLK_IMO_TEMP_FREQ_TRIM2;
 940:Generated_Source\PSoC4/CyLib.c ****             }
 941:Generated_Source\PSoC4/CyLib.c ****             else
 942:Generated_Source\PSoC4/CyLib.c ****             {
ARM GAS  C:\Users\YUANFA~1\AppData\Local\Temp\ccYDlzYT.s 			page 26


 943:Generated_Source\PSoC4/CyLib.c ****                 currentImoTrim2Value = (uint8) (CY_SYS_CLK_IMO_TRIM2_REG & CY_SYS_CLK_IMO_FREQ_BITS
 944:Generated_Source\PSoC4/CyLib.c ****             }
 945:Generated_Source\PSoC4/CyLib.c **** 
 946:Generated_Source\PSoC4/CyLib.c **** 
 947:Generated_Source\PSoC4/CyLib.c ****             /***************************************************************************
 948:Generated_Source\PSoC4/CyLib.c ****             * A trim change needs to be allowed to settle (within 5us) before the Freq
 949:Generated_Source\PSoC4/CyLib.c ****             * can be changed to a new frequency.
 950:Generated_Source\PSoC4/CyLib.c ****             *
 951:Generated_Source\PSoC4/CyLib.c ****             * Comparing IMO_TRIM2 values for the current and new frequencies, since
 952:Generated_Source\PSoC4/CyLib.c ****             * IMO_TRIM2 value as a function of IMO frequency is a strictly increasing
 953:Generated_Source\PSoC4/CyLib.c ****             * function and is time-invariant.
 954:Generated_Source\PSoC4/CyLib.c ****             ***************************************************************************/
 955:Generated_Source\PSoC4/CyLib.c ****             if (newImoTrim2Value < currentImoTrim2Value)
 956:Generated_Source\PSoC4/CyLib.c ****             {
 957:Generated_Source\PSoC4/CyLib.c ****                 /* Set new IMO frequency */
 958:Generated_Source\PSoC4/CyLib.c ****                 CY_SYS_CLK_IMO_TRIM2_REG = cyImoFreqMhz2Reg[freq - CY_SYS_CLK_IMO_FREQ_TABLE_OFFSET
 959:Generated_Source\PSoC4/CyLib.c ****                 CyDelayCycles(CY_SYS_CLK_IMO_FREQ_TIMEOUT_CYCLES);
 960:Generated_Source\PSoC4/CyLib.c ****             }
 961:Generated_Source\PSoC4/CyLib.c **** 
 962:Generated_Source\PSoC4/CyLib.c ****             /* Set trims for the new IMO frequency */
 963:Generated_Source\PSoC4/CyLib.c ****             CY_SYS_CLK_IMO_TRIM1_REG = (uint32) CY_SFLASH_IMO_TRIM_REG(freq - CY_SYS_CLK_IMO_FREQ_T
 964:Generated_Source\PSoC4/CyLib.c ****             CY_PWR_BG_TRIM4_REG  = bgTrim4;
 965:Generated_Source\PSoC4/CyLib.c ****             CY_PWR_BG_TRIM5_REG  = bgTrim5;
 966:Generated_Source\PSoC4/CyLib.c ****             CyDelayUs(CY_SYS_CLK_IMO_TRIM_TIMEOUT_US);
 967:Generated_Source\PSoC4/CyLib.c **** 
 968:Generated_Source\PSoC4/CyLib.c ****             if (newImoTrim2Value > currentImoTrim2Value)
 969:Generated_Source\PSoC4/CyLib.c ****             {
 970:Generated_Source\PSoC4/CyLib.c ****                 /* Set new IMO frequency */
 971:Generated_Source\PSoC4/CyLib.c ****                 CY_SYS_CLK_IMO_TRIM2_REG = cyImoFreqMhz2Reg[freq - CY_SYS_CLK_IMO_FREQ_TABLE_OFFSET
 972:Generated_Source\PSoC4/CyLib.c ****                 CyDelayCycles(CY_SYS_CLK_IMO_FREQ_TIMEOUT_CYCLES);
 973:Generated_Source\PSoC4/CyLib.c ****             }
 974:Generated_Source\PSoC4/CyLib.c ****         }
 975:Generated_Source\PSoC4/CyLib.c ****         else
 976:Generated_Source\PSoC4/CyLib.c ****         {
 977:Generated_Source\PSoC4/CyLib.c ****             /* Halt CPU in debug mode if new frequency is invalid */
 978:Generated_Source\PSoC4/CyLib.c ****             CYASSERT(0u != 0u);
 979:Generated_Source\PSoC4/CyLib.c ****         }
 980:Generated_Source\PSoC4/CyLib.c **** 
 981:Generated_Source\PSoC4/CyLib.c ****         #endif /* (CY_IP_FMLT) */
 982:Generated_Source\PSoC4/CyLib.c **** 
 983:Generated_Source\PSoC4/CyLib.c ****         #if (CY_IP_IMO_TRIMMABLE_BY_WCO)
 984:Generated_Source\PSoC4/CyLib.c ****             if (1u == wcoLock)
 985:Generated_Source\PSoC4/CyLib.c ****             {
 986:Generated_Source\PSoC4/CyLib.c ****                 CySysClkImoEnableWcoLock();
 987:Generated_Source\PSoC4/CyLib.c ****             }
 988:Generated_Source\PSoC4/CyLib.c ****         #endif  /* (CY_IP_IMO_TRIMMABLE_BY_WCO) */
 989:Generated_Source\PSoC4/CyLib.c **** 
 990:Generated_Source\PSoC4/CyLib.c ****         #if (CY_IP_IMO_TRIMMABLE_BY_USB)
 991:Generated_Source\PSoC4/CyLib.c ****             if (1u == usbLock)
 992:Generated_Source\PSoC4/CyLib.c ****             {
 993:Generated_Source\PSoC4/CyLib.c ****                 CySysClkImoEnableUsbLock();
 994:Generated_Source\PSoC4/CyLib.c ****             }
 995:Generated_Source\PSoC4/CyLib.c ****         #endif  /* (CY_IP_IMO_TRIMMABLE_BY_USB) */
 996:Generated_Source\PSoC4/CyLib.c **** 
 997:Generated_Source\PSoC4/CyLib.c ****         CyExitCriticalSection(interruptState);
 998:Generated_Source\PSoC4/CyLib.c ****     }
 999:Generated_Source\PSoC4/CyLib.c **** 
ARM GAS  C:\Users\YUANFA~1\AppData\Local\Temp\ccYDlzYT.s 			page 27


1000:Generated_Source\PSoC4/CyLib.c **** #else
1001:Generated_Source\PSoC4/CyLib.c **** 
1002:Generated_Source\PSoC4/CyLib.c ****     void CySysClkWriteImoFreq(uint32 freq)
1003:Generated_Source\PSoC4/CyLib.c ****     {
1004:Generated_Source\PSoC4/CyLib.c ****         uint8  interruptState;
1005:Generated_Source\PSoC4/CyLib.c ****         uint8  imoTrim1Value;
1006:Generated_Source\PSoC4/CyLib.c **** 
1007:Generated_Source\PSoC4/CyLib.c ****         #if (CY_IP_IMO_TRIMMABLE_BY_WCO)
1008:Generated_Source\PSoC4/CyLib.c ****             uint32 wcoLock = 0u;
1009:Generated_Source\PSoC4/CyLib.c ****         #endif  /* (CY_IP_IMO_TRIMMABLE_BY_WCO) */
1010:Generated_Source\PSoC4/CyLib.c **** 
1011:Generated_Source\PSoC4/CyLib.c ****         #if (CY_IP_IMO_TRIMMABLE_BY_USB)
1012:Generated_Source\PSoC4/CyLib.c ****             uint32 usbLock = 0u;
1013:Generated_Source\PSoC4/CyLib.c ****         #endif  /* (CY_IP_IMO_TRIMMABLE_BY_USB) */
1014:Generated_Source\PSoC4/CyLib.c **** 
1015:Generated_Source\PSoC4/CyLib.c ****         #if (CY_PSOC4_4000)
1016:Generated_Source\PSoC4/CyLib.c ****             if ((freq == 24u) || (freq == 32u) || (freq == 48u))
1017:Generated_Source\PSoC4/CyLib.c ****         #elif (CY_CCG3)
1018:Generated_Source\PSoC4/CyLib.c ****             if ((freq == 24u) || (freq == 36u) || (freq == 48u))
1019:Generated_Source\PSoC4/CyLib.c ****         #else
1020:Generated_Source\PSoC4/CyLib.c ****             if ((freq == 24u) || (freq == 28u) || (freq == 32u) ||
1021:Generated_Source\PSoC4/CyLib.c ****                 (freq == 36u) || (freq == 40u) || (freq == 44u) ||
1022:Generated_Source\PSoC4/CyLib.c ****                 (freq == 48u))
1023:Generated_Source\PSoC4/CyLib.c ****         #endif /* (CY_PSOC4_4000) */
1024:Generated_Source\PSoC4/CyLib.c ****         {
1025:Generated_Source\PSoC4/CyLib.c ****             interruptState = CyEnterCriticalSection();
1026:Generated_Source\PSoC4/CyLib.c **** 
1027:Generated_Source\PSoC4/CyLib.c ****             #if (CY_IP_IMO_TRIMMABLE_BY_WCO)
1028:Generated_Source\PSoC4/CyLib.c ****                 if(0u != CySysClkImoGetWcoLock())
1029:Generated_Source\PSoC4/CyLib.c ****                 {
1030:Generated_Source\PSoC4/CyLib.c ****                     wcoLock = 1u;
1031:Generated_Source\PSoC4/CyLib.c ****                     CySysClkImoDisableWcoLock();
1032:Generated_Source\PSoC4/CyLib.c ****                 }
1033:Generated_Source\PSoC4/CyLib.c ****             #endif  /* (CY_IP_IMO_TRIMMABLE_BY_WCO) */
1034:Generated_Source\PSoC4/CyLib.c **** 
1035:Generated_Source\PSoC4/CyLib.c ****             #if (CY_IP_IMO_TRIMMABLE_BY_USB)
1036:Generated_Source\PSoC4/CyLib.c **** 
1037:Generated_Source\PSoC4/CyLib.c ****                 #if (CYDEV_IMO_TRIMMED_BY_USB == 0u)
1038:Generated_Source\PSoC4/CyLib.c ****                     if(0u != CySysClkImoGetUsbLock())
1039:Generated_Source\PSoC4/CyLib.c ****                     {
1040:Generated_Source\PSoC4/CyLib.c ****                 #endif  /* (CYDEV_IMO_TRIMMED_BY_USB == 0u) */
1041:Generated_Source\PSoC4/CyLib.c **** 
1042:Generated_Source\PSoC4/CyLib.c ****                     if (48u == freq)
1043:Generated_Source\PSoC4/CyLib.c ****                     {
1044:Generated_Source\PSoC4/CyLib.c ****                         usbLock = 1u;
1045:Generated_Source\PSoC4/CyLib.c ****                         CySysClkImoDisableUsbLock();
1046:Generated_Source\PSoC4/CyLib.c ****                     }
1047:Generated_Source\PSoC4/CyLib.c **** 
1048:Generated_Source\PSoC4/CyLib.c ****                 #if (CYDEV_IMO_TRIMMED_BY_USB == 0u)
1049:Generated_Source\PSoC4/CyLib.c ****                     }
1050:Generated_Source\PSoC4/CyLib.c ****                 #endif  /* (CYDEV_IMO_TRIMMED_BY_USB == 0u) */
1051:Generated_Source\PSoC4/CyLib.c **** 
1052:Generated_Source\PSoC4/CyLib.c ****             #endif  /* (CYDEV_IMO_TRIMMED_BY_USB == 0u) */
1053:Generated_Source\PSoC4/CyLib.c **** 
1054:Generated_Source\PSoC4/CyLib.c **** 
1055:Generated_Source\PSoC4/CyLib.c ****             /* Set IMO to 24 MHz - CLK_IMO_SELECT.FREQ = 0 */
1056:Generated_Source\PSoC4/CyLib.c ****             CY_SYS_CLK_IMO_SELECT_REG &= ((uint32) ~CY_SYS_CLK_IMO_SELECT_FREQ_MASK);
ARM GAS  C:\Users\YUANFA~1\AppData\Local\Temp\ccYDlzYT.s 			page 28


1057:Generated_Source\PSoC4/CyLib.c **** 
1058:Generated_Source\PSoC4/CyLib.c **** 
1059:Generated_Source\PSoC4/CyLib.c ****             /* Apply coarse trim */
1060:Generated_Source\PSoC4/CyLib.c ****             #if (CY_IP_IMO_TRIMMABLE_BY_USB)
1061:Generated_Source\PSoC4/CyLib.c ****                 if ((1u == usbLock) && (48u == freq))
1062:Generated_Source\PSoC4/CyLib.c ****                 {
1063:Generated_Source\PSoC4/CyLib.c ****                     imoTrim1Value = CY_SFLASH_IMO_TRIM_USBMODE_48_REG;
1064:Generated_Source\PSoC4/CyLib.c ****                 }
1065:Generated_Source\PSoC4/CyLib.c ****                 else if ((1u == usbLock) && (24u == freq))
1066:Generated_Source\PSoC4/CyLib.c ****                 {
1067:Generated_Source\PSoC4/CyLib.c ****                     imoTrim1Value = CY_SFLASH_IMO_TRIM_USBMODE_24_REG;
1068:Generated_Source\PSoC4/CyLib.c ****                 }
1069:Generated_Source\PSoC4/CyLib.c ****                 else
1070:Generated_Source\PSoC4/CyLib.c ****                 {
1071:Generated_Source\PSoC4/CyLib.c ****                     imoTrim1Value = (uint8) CY_SFLASH_IMO_TRIM_REG(freq - CY_SYS_CLK_IMO_MIN_FREQ_M
1072:Generated_Source\PSoC4/CyLib.c ****                 }
1073:Generated_Source\PSoC4/CyLib.c ****             #else
1074:Generated_Source\PSoC4/CyLib.c ****                 imoTrim1Value = (uint8) CY_SFLASH_IMO_TRIM_REG(freq - CY_SYS_CLK_IMO_MIN_FREQ_MHZ);
1075:Generated_Source\PSoC4/CyLib.c ****             #endif  /* (CY_IP_IMO_TRIMMABLE_BY_USB) */
1076:Generated_Source\PSoC4/CyLib.c ****             CY_SYS_CLK_IMO_TRIM1_REG = (uint32) imoTrim1Value;
1077:Generated_Source\PSoC4/CyLib.c **** 
1078:Generated_Source\PSoC4/CyLib.c ****             /* Zero out fine trim */
1079:Generated_Source\PSoC4/CyLib.c ****             CY_SYS_CLK_IMO_TRIM2_REG = CY_SYS_CLK_IMO_TRIM2_REG & ((uint32) ~CY_SYS_CLK_IMO_TRIM2_F
1080:Generated_Source\PSoC4/CyLib.c **** 
1081:Generated_Source\PSoC4/CyLib.c ****             /* Apply TC trim */
1082:Generated_Source\PSoC4/CyLib.c ****             CY_SYS_CLK_IMO_TRIM3_REG = (CY_SYS_CLK_IMO_TRIM3_REG & ((uint32) ~CY_SYS_CLK_IMO_TRIM3_
1083:Generated_Source\PSoC4/CyLib.c ****                 (CY_SFLASH_IMO_TCTRIM_REG(freq - CY_SYS_CLK_IMO_MIN_FREQ_MHZ) & CY_SYS_CLK_IMO_TRIM
1084:Generated_Source\PSoC4/CyLib.c **** 
1085:Generated_Source\PSoC4/CyLib.c ****             CyDelayCycles(CY_SYS_CLK_IMO_TRIM_DELAY_CYCLES);
1086:Generated_Source\PSoC4/CyLib.c **** 
1087:Generated_Source\PSoC4/CyLib.c ****             if (freq > CY_SYS_CLK_IMO_MIN_FREQ_MHZ)
1088:Generated_Source\PSoC4/CyLib.c ****             {
1089:Generated_Source\PSoC4/CyLib.c ****                 /* Select nearby intermediate frequency */
1090:Generated_Source\PSoC4/CyLib.c ****                 CY_SYS_CLK_IMO_SELECT_REG = (CY_SYS_CLK_IMO_SELECT_REG & ((uint32) ~CY_SYS_CLK_IMO_
1091:Generated_Source\PSoC4/CyLib.c ****                     (((freq - 4u - CY_SYS_CLK_IMO_MIN_FREQ_MHZ) >> 2u) & CY_SYS_CLK_IMO_SELECT_FREQ
1092:Generated_Source\PSoC4/CyLib.c **** 
1093:Generated_Source\PSoC4/CyLib.c ****                 CyDelayCycles(CY_SYS_CLK_IMO_TRIM_DELAY_CYCLES);
1094:Generated_Source\PSoC4/CyLib.c **** 
1095:Generated_Source\PSoC4/CyLib.c ****                 /* Make small step to final frequency */
1096:Generated_Source\PSoC4/CyLib.c ****                 /* Select nearby intermediate frequency */
1097:Generated_Source\PSoC4/CyLib.c ****                 CY_SYS_CLK_IMO_SELECT_REG = (CY_SYS_CLK_IMO_SELECT_REG & ((uint32) ~CY_SYS_CLK_IMO_
1098:Generated_Source\PSoC4/CyLib.c ****                     (((freq - CY_SYS_CLK_IMO_MIN_FREQ_MHZ) >> 2u) & CY_SYS_CLK_IMO_SELECT_FREQ_MASK
1099:Generated_Source\PSoC4/CyLib.c ****             }
1100:Generated_Source\PSoC4/CyLib.c **** 
1101:Generated_Source\PSoC4/CyLib.c ****             #if (CY_IP_IMO_TRIMMABLE_BY_WCO)
1102:Generated_Source\PSoC4/CyLib.c ****                 if (1u == wcoLock)
1103:Generated_Source\PSoC4/CyLib.c ****                 {
1104:Generated_Source\PSoC4/CyLib.c ****                     CySysClkImoEnableWcoLock();
1105:Generated_Source\PSoC4/CyLib.c ****                 }
1106:Generated_Source\PSoC4/CyLib.c ****             #endif  /* (CY_IP_IMO_TRIMMABLE_BY_WCO) */
1107:Generated_Source\PSoC4/CyLib.c **** 
1108:Generated_Source\PSoC4/CyLib.c **** 
1109:Generated_Source\PSoC4/CyLib.c ****             #if (CY_IP_IMO_TRIMMABLE_BY_USB)
1110:Generated_Source\PSoC4/CyLib.c ****                 if (1u == usbLock)
1111:Generated_Source\PSoC4/CyLib.c ****                 {
1112:Generated_Source\PSoC4/CyLib.c ****                     CySysClkImoEnableUsbLock();
1113:Generated_Source\PSoC4/CyLib.c ****                 }
ARM GAS  C:\Users\YUANFA~1\AppData\Local\Temp\ccYDlzYT.s 			page 29


1114:Generated_Source\PSoC4/CyLib.c ****             #endif  /* (CY_IP_IMO_TRIMMABLE_BY_USB) */
1115:Generated_Source\PSoC4/CyLib.c **** 
1116:Generated_Source\PSoC4/CyLib.c ****             CyExitCriticalSection(interruptState);
1117:Generated_Source\PSoC4/CyLib.c ****         }
1118:Generated_Source\PSoC4/CyLib.c ****         else
1119:Generated_Source\PSoC4/CyLib.c ****         {
1120:Generated_Source\PSoC4/CyLib.c ****             /* Halt CPU in debug mode if new frequency is invalid */
1121:Generated_Source\PSoC4/CyLib.c ****             CYASSERT(0u != 0u);
1122:Generated_Source\PSoC4/CyLib.c ****         }
1123:Generated_Source\PSoC4/CyLib.c ****     }
1124:Generated_Source\PSoC4/CyLib.c **** 
1125:Generated_Source\PSoC4/CyLib.c **** #endif /* (CY_IP_SRSSV2) */
1126:Generated_Source\PSoC4/CyLib.c **** 
1127:Generated_Source\PSoC4/CyLib.c **** 
1128:Generated_Source\PSoC4/CyLib.c **** #if(CY_IP_SRSSLT)
1129:Generated_Source\PSoC4/CyLib.c ****     /*******************************************************************************
1130:Generated_Source\PSoC4/CyLib.c ****     * Function Name: CySysClkWriteHfclkDiv
1131:Generated_Source\PSoC4/CyLib.c ****     ****************************************************************************//**
1132:Generated_Source\PSoC4/CyLib.c ****     *
1133:Generated_Source\PSoC4/CyLib.c ****     * Selects the pre-scaler divider value for HFCLK from IMO.
1134:Generated_Source\PSoC4/CyLib.c ****     *
1135:Generated_Source\PSoC4/CyLib.c ****     * The HFCLK predivider allows the device to divide the HFCLK selection mux
1136:Generated_Source\PSoC4/CyLib.c ****     * input before use as HFCLK. The predivider is capable of dividing the HFCLK by
1137:Generated_Source\PSoC4/CyLib.c ****     * powers of 2 between 1 and 8.
1138:Generated_Source\PSoC4/CyLib.c ****     *
1139:Generated_Source\PSoC4/CyLib.c ****     * PSoC 4000: The SYSCLK has the speed of 16 MHz, so HFCLK and SYSCLK dividers
1140:Generated_Source\PSoC4/CyLib.c ****     * should be selected in a way, not to exceed 16 MHz for SYSCLK.
1141:Generated_Source\PSoC4/CyLib.c ****     *
1142:Generated_Source\PSoC4/CyLib.c ****     * If the SYSCLK clock frequency increases during the device operation, call
1143:Generated_Source\PSoC4/CyLib.c ****     * \ref CySysFlashSetWaitCycles() with the appropriate parameter to adjust the
1144:Generated_Source\PSoC4/CyLib.c ****     * number of clock cycles the cache will wait before sampling data comes back
1145:Generated_Source\PSoC4/CyLib.c ****     * from Flash. If the SYSCLK clock frequency decreases, you can call
1146:Generated_Source\PSoC4/CyLib.c ****     * \ref CySysFlashSetWaitCycles() to improve the CPU performance. See
1147:Generated_Source\PSoC4/CyLib.c ****     * \ref CySysFlashSetWaitCycles() description for more information.
1148:Generated_Source\PSoC4/CyLib.c ****     *
1149:Generated_Source\PSoC4/CyLib.c ****     * \param \ref CY_SYS_CLK_HFCLK_DIV_NODIV    Transparent mode (w/o dividing)
1150:Generated_Source\PSoC4/CyLib.c ****     * \param \ref CY_SYS_CLK_HFCLK_DIV_2        Divide selected clock source by 2
1151:Generated_Source\PSoC4/CyLib.c ****     * \param \ref CY_SYS_CLK_HFCLK_DIV_4        Divide selected clock source by 4
1152:Generated_Source\PSoC4/CyLib.c ****     * \param \ref CY_SYS_CLK_HFCLK_DIV_8        Divide selected clock source by 8
1153:Generated_Source\PSoC4/CyLib.c ****     *
1154:Generated_Source\PSoC4/CyLib.c ****     *******************************************************************************/
1155:Generated_Source\PSoC4/CyLib.c ****     void CySysClkWriteHfclkDiv(uint32 divider)
1156:Generated_Source\PSoC4/CyLib.c ****     {
 474              		.loc 1 1156 0
 475              		.cfi_startproc
 476              		@ args = 0, pretend = 0, frame = 0
 477              		@ frame_needed = 0, uses_anonymous_args = 0
 478              	.LVL32:
 479 0000 70B5     		push	{r4, r5, r6, lr}
 480              		.cfi_def_cfa_offset 16
 481              		.cfi_offset 4, -16
 482              		.cfi_offset 5, -12
 483              		.cfi_offset 6, -8
 484              		.cfi_offset 14, -4
 485 0002 0400     		movs	r4, r0
1157:Generated_Source\PSoC4/CyLib.c ****         uint8  interruptState;
1158:Generated_Source\PSoC4/CyLib.c **** 
ARM GAS  C:\Users\YUANFA~1\AppData\Local\Temp\ccYDlzYT.s 			page 30


1159:Generated_Source\PSoC4/CyLib.c ****         interruptState = CyEnterCriticalSection();
 486              		.loc 1 1159 0
 487 0004 FFF7FEFF 		bl	CyEnterCriticalSection
 488              	.LVL33:
1160:Generated_Source\PSoC4/CyLib.c **** 
1161:Generated_Source\PSoC4/CyLib.c ****         CY_SYS_CLK_SELECT_REG = ((CY_SYS_CLK_SELECT_REG & ((uint32) (~(CY_SYS_CLK_SELECT_HFCLK_DIV_
 489              		.loc 1 1161 0
 490 0008 0549     		ldr	r1, .L34
 491 000a 0A68     		ldr	r2, [r1]
 492 000c 0C25     		movs	r5, #12
 493 000e AA43     		bics	r2, r5
1162:Generated_Source\PSoC4/CyLib.c ****                                         CY_SYS_CLK_SELECT_HFCLK_DIV_SHIFT)))) |
1163:Generated_Source\PSoC4/CyLib.c ****                     ((uint32)((divider & CY_SYS_CLK_SELECT_HFCLK_DIV_MASK) << CY_SYS_CLK_SELECT_HFC
 494              		.loc 1 1163 0
 495 0010 A300     		lsls	r3, r4, #2
 496 0012 2C00     		movs	r4, r5
 497              	.LVL34:
 498 0014 1C40     		ands	r4, r3
1162:Generated_Source\PSoC4/CyLib.c ****                                         CY_SYS_CLK_SELECT_HFCLK_DIV_SHIFT)))) |
 499              		.loc 1 1162 0
 500 0016 1443     		orrs	r4, r2
1161:Generated_Source\PSoC4/CyLib.c ****                                         CY_SYS_CLK_SELECT_HFCLK_DIV_SHIFT)))) |
 501              		.loc 1 1161 0
 502 0018 0C60     		str	r4, [r1]
1164:Generated_Source\PSoC4/CyLib.c **** 
1165:Generated_Source\PSoC4/CyLib.c ****         CyExitCriticalSection(interruptState);
 503              		.loc 1 1165 0
 504 001a FFF7FEFF 		bl	CyExitCriticalSection
 505              	.LVL35:
1166:Generated_Source\PSoC4/CyLib.c ****     }
 506              		.loc 1 1166 0
 507              		@ sp needed
 508 001e 70BD     		pop	{r4, r5, r6, pc}
 509              	.L35:
 510              		.align	2
 511              	.L34:
 512 0020 28000340 		.word	1073938472
 513              		.cfi_endproc
 514              	.LFE11:
 515              		.size	CySysClkWriteHfclkDiv, .-CySysClkWriteHfclkDiv
 516              		.section	.text.CySysClkEcoStop,"ax",%progbits
 517              		.align	2
 518              		.global	CySysClkEcoStop
 519              		.code	16
 520              		.thumb_func
 521              		.type	CySysClkEcoStop, %function
 522              	CySysClkEcoStop:
 523              	.LFB13:
1167:Generated_Source\PSoC4/CyLib.c **** #endif /* (CY_IP_SRSSLT) */
1168:Generated_Source\PSoC4/CyLib.c **** 
1169:Generated_Source\PSoC4/CyLib.c **** 
1170:Generated_Source\PSoC4/CyLib.c **** #if (CY_IP_ECO)
1171:Generated_Source\PSoC4/CyLib.c **** 
1172:Generated_Source\PSoC4/CyLib.c ****     /*******************************************************************************
1173:Generated_Source\PSoC4/CyLib.c ****     * Function Name: CySysClkEcoStart
1174:Generated_Source\PSoC4/CyLib.c ****     ****************************************************************************//**
1175:Generated_Source\PSoC4/CyLib.c ****     *
ARM GAS  C:\Users\YUANFA~1\AppData\Local\Temp\ccYDlzYT.s 			page 31


1176:Generated_Source\PSoC4/CyLib.c ****     * Starts the External Crystal Oscillator (ECO). Refer to the device datasheet
1177:Generated_Source\PSoC4/CyLib.c ****     * for the ECO startup time.
1178:Generated_Source\PSoC4/CyLib.c ****     *
1179:Generated_Source\PSoC4/CyLib.c ****     * The timeout interval is measured based on the system frequency defined by
1180:Generated_Source\PSoC4/CyLib.c ****     * PSoC Creator at build time. If System clock frequency is changed in
1181:Generated_Source\PSoC4/CyLib.c ****     * runtime, the \ref CyDelayFreq() with the appropriate parameter should be
1182:Generated_Source\PSoC4/CyLib.c ****     * called.
1183:Generated_Source\PSoC4/CyLib.c ****     *
1184:Generated_Source\PSoC4/CyLib.c ****     * PSoC 4100 BLE / PSoC 4200 BLE: The WCO must be enabled prior to enabling ECO.
1185:Generated_Source\PSoC4/CyLib.c ****     *
1186:Generated_Source\PSoC4/CyLib.c ****     * \param timeoutUs Timeout in microseconds.
1187:Generated_Source\PSoC4/CyLib.c ****     *
1188:Generated_Source\PSoC4/CyLib.c ****     * If zero is specified, the function does not wait for timeout and returns
1189:Generated_Source\PSoC4/CyLib.c ****     * CYRET_SUCCESS. If non-zero is specified, the function waits for the timeout.
1190:Generated_Source\PSoC4/CyLib.c ****     *
1191:Generated_Source\PSoC4/CyLib.c ****     * \return \ref CYRET_SUCCESS Completed successfully. The ECO is oscillating and
1192:Generated_Source\PSoC4/CyLib.c ****     * amplitude reached 60% and it does not mean 24 MHz crystal is within 50 ppm.
1193:Generated_Source\PSoC4/CyLib.c ****     *
1194:Generated_Source\PSoC4/CyLib.c ****     * \return \ref CYRET_TIMEOUT Timeout occurred. If the crystal is not oscillating
1195:Generated_Source\PSoC4/CyLib.c ****     * or amplitude didn't reach 60% after specified amount of time, CYRET_TIMEOUT
1196:Generated_Source\PSoC4/CyLib.c ****     * is returned.
1197:Generated_Source\PSoC4/CyLib.c ****     *
1198:Generated_Source\PSoC4/CyLib.c ****     * \return \ref CYRET_BAD_PARAM One or more invalid parameters.
1199:Generated_Source\PSoC4/CyLib.c ****     *
1200:Generated_Source\PSoC4/CyLib.c ****     *******************************************************************************/
1201:Generated_Source\PSoC4/CyLib.c ****     cystatus CySysClkEcoStart(uint32 timeoutUs)
1202:Generated_Source\PSoC4/CyLib.c ****     {
1203:Generated_Source\PSoC4/CyLib.c ****         cystatus returnStatus = CYRET_SUCCESS;
1204:Generated_Source\PSoC4/CyLib.c **** 
1205:Generated_Source\PSoC4/CyLib.c ****         #if (CY_IP_ECO_BLESS)
1206:Generated_Source\PSoC4/CyLib.c ****             /* Enable the RF oscillator band gap */
1207:Generated_Source\PSoC4/CyLib.c ****             CY_SYS_XTAL_BLESS_RF_CONFIG_REG |= CY_SYS_XTAL_BLESS_RF_CONFIG_RF_ENABLE;
1208:Generated_Source\PSoC4/CyLib.c **** 
1209:Generated_Source\PSoC4/CyLib.c ****             /* Update trimming register */
1210:Generated_Source\PSoC4/CyLib.c ****             CY_SYS_XTAL_BLERD_BB_XO_REG = CY_SYS_XTAL_BLERD_BB_XO_TRIM;
1211:Generated_Source\PSoC4/CyLib.c **** 
1212:Generated_Source\PSoC4/CyLib.c ****             /* Enable the Crystal */
1213:Generated_Source\PSoC4/CyLib.c ****             CY_SYS_XTAL_BLERD_DBUS_REG |= CY_SYS_XTAL_BLERD_DBUS_XTAL_ENABLE;
1214:Generated_Source\PSoC4/CyLib.c **** 
1215:Generated_Source\PSoC4/CyLib.c ****         #elif (CY_IP_ECO_BLESSV3)
1216:Generated_Source\PSoC4/CyLib.c ****             uint32 regConfig;
1217:Generated_Source\PSoC4/CyLib.c ****             uint32 intrRegMaskStore = 0u;
1218:Generated_Source\PSoC4/CyLib.c **** 
1219:Generated_Source\PSoC4/CyLib.c ****             if (0u != (CY_SYS_BLESS_MT_CFG_REG & (CY_SYS_BLESS_MT_CFG_ENABLE_BLERD <<  CYFLD_BLE_BL
1220:Generated_Source\PSoC4/CyLib.c ****             {
1221:Generated_Source\PSoC4/CyLib.c ****                 CY_SYS_BLESS_MT_CFG_REG |= (CY_SYS_BLESS_MT_CFG_DPSLP_ECO_ON  <<  CYFLD_BLE_BLESS_D
1222:Generated_Source\PSoC4/CyLib.c ****             }
1223:Generated_Source\PSoC4/CyLib.c ****             else
1224:Generated_Source\PSoC4/CyLib.c ****             {
1225:Generated_Source\PSoC4/CyLib.c ****                 /* Init BLE core */
1226:Generated_Source\PSoC4/CyLib.c ****                 CY_SYS_BLESS_MT_DELAY_CFG_REG = CY_SYS_BLESS_MT_DELAY_CFG_INIT;
1227:Generated_Source\PSoC4/CyLib.c ****                 CY_SYS_BLESS_MT_DELAY_CFG2_REG = CY_SYS_BLESS_MT_DELAY_CFG2_INIT;
1228:Generated_Source\PSoC4/CyLib.c ****                 CY_SYS_BLESS_MT_DELAY_CFG3_REG = CY_SYS_BLESS_MT_DELAY_CFG3_INIT;
1229:Generated_Source\PSoC4/CyLib.c **** 
1230:Generated_Source\PSoC4/CyLib.c ****                 /* RCB init */
1231:Generated_Source\PSoC4/CyLib.c ****                 regConfig = CY_SYS_RCB_CTRL_REG;
1232:Generated_Source\PSoC4/CyLib.c ****                 regConfig &= CY_SYS_RCB_CTRL_CLEAR;
ARM GAS  C:\Users\YUANFA~1\AppData\Local\Temp\ccYDlzYT.s 			page 32


1233:Generated_Source\PSoC4/CyLib.c ****                 regConfig |= CY_SYS_RCB_CTRL_INIT;
1234:Generated_Source\PSoC4/CyLib.c ****                 CY_SYS_RCB_CTRL_REG = regConfig;
1235:Generated_Source\PSoC4/CyLib.c **** 
1236:Generated_Source\PSoC4/CyLib.c ****                 intrRegMaskStore = CY_SYS_BLESS_INTR_MASK_REG;
1237:Generated_Source\PSoC4/CyLib.c ****                 if(0u != (CY_SYS_BLESS_BLERD_ACTIVE_INTR_MASK & intrRegMaskStore))
1238:Generated_Source\PSoC4/CyLib.c ****                 {
1239:Generated_Source\PSoC4/CyLib.c ****                     CY_SYS_BLESS_INTR_MASK_REG &= ~CY_SYS_BLESS_BLERD_ACTIVE_INTR_MASK;
1240:Generated_Source\PSoC4/CyLib.c ****                 }
1241:Generated_Source\PSoC4/CyLib.c **** 
1242:Generated_Source\PSoC4/CyLib.c ****                 /* Enable BLE core */
1243:Generated_Source\PSoC4/CyLib.c ****                 regConfig = CY_SYS_BLESS_MT_CFG_REG;
1244:Generated_Source\PSoC4/CyLib.c ****                 regConfig &= CY_SYS_BLESS_MT_CFG_CLEAR;
1245:Generated_Source\PSoC4/CyLib.c ****                 regConfig |= CY_SYS_BLESS_MT_CFG_INIT;
1246:Generated_Source\PSoC4/CyLib.c ****                 CY_SYS_BLESS_MT_CFG_REG = regConfig;
1247:Generated_Source\PSoC4/CyLib.c **** 
1248:Generated_Source\PSoC4/CyLib.c ****                 while(0u == ((CY_SYS_BLESS_BLERD_ACTIVE_INTR_STAT & CY_SYS_BLESS_INTR_STAT_REG)))
1249:Generated_Source\PSoC4/CyLib.c ****                 {
1250:Generated_Source\PSoC4/CyLib.c ****                     /* Wait until BLERD55 moves to active state */
1251:Generated_Source\PSoC4/CyLib.c ****                 }
1252:Generated_Source\PSoC4/CyLib.c **** 
1253:Generated_Source\PSoC4/CyLib.c ****                 if(0u != (CY_SYS_BLESS_BLERD_ACTIVE_INTR_MASK & intrRegMaskStore))
1254:Generated_Source\PSoC4/CyLib.c ****                 {
1255:Generated_Source\PSoC4/CyLib.c ****                     CY_SYS_BLESS_INTR_MASK_REG |= CY_SYS_BLESS_BLERD_ACTIVE_INTR_MASK;
1256:Generated_Source\PSoC4/CyLib.c ****                 }
1257:Generated_Source\PSoC4/CyLib.c **** 
1258:Generated_Source\PSoC4/CyLib.c ****                 /* Send write commands to RBUS */
1259:Generated_Source\PSoC4/CyLib.c ****                 CY_SYS_RCB_TX_FIFO_WR_REG = CY_SYS_RCB_RBUS_FREQ_NRST_SET;
1260:Generated_Source\PSoC4/CyLib.c ****                 CY_SYS_RCB_TX_FIFO_WR_REG = CY_SYS_RCB_RBUS_DIG_CLK_SET;
1261:Generated_Source\PSoC4/CyLib.c **** 
1262:Generated_Source\PSoC4/CyLib.c ****                 #if (CY_SYS_BLE_CLK_ECO_FREQ_32MHZ == CYDEV_ECO_CLK_MHZ)
1263:Generated_Source\PSoC4/CyLib.c ****                     CY_SYS_RCB_TX_FIFO_WR_REG = CY_SYS_RCB_RBUS_FREQ_XTAL_DIV_SET;
1264:Generated_Source\PSoC4/CyLib.c ****                     CY_SYS_RCB_TX_FIFO_WR_REG = (CY_SYS_RCB_RBUS_RF_DCXO_CFG_SET | CY_SYS_RCB_RBUS_
1265:Generated_Source\PSoC4/CyLib.c ****                 #else
1266:Generated_Source\PSoC4/CyLib.c ****                     CY_SYS_RCB_TX_FIFO_WR_REG = CY_SYS_RCB_RBUS_FREQ_XTAL_NODIV_SET;
1267:Generated_Source\PSoC4/CyLib.c ****                 #endif
1268:Generated_Source\PSoC4/CyLib.c **** 
1269:Generated_Source\PSoC4/CyLib.c ****                 intrRegMaskStore = CY_SYS_BLESS_INTR_MASK_REG;
1270:Generated_Source\PSoC4/CyLib.c ****                 if(0u != (CY_SYS_RCB_INTR_RCB_DONE & intrRegMaskStore))
1271:Generated_Source\PSoC4/CyLib.c ****                 {
1272:Generated_Source\PSoC4/CyLib.c ****                     CY_SYS_BLESS_INTR_MASK_REG &= ~(CY_SYS_RCB_INTR_RCB_DONE | CY_SYS_RCB_INTR_RCB_
1273:Generated_Source\PSoC4/CyLib.c ****                 }
1274:Generated_Source\PSoC4/CyLib.c **** 
1275:Generated_Source\PSoC4/CyLib.c ****                 /* Send read commands to RBUS */
1276:Generated_Source\PSoC4/CyLib.c ****                 CY_SYS_RCB_TX_FIFO_WR_REG = (CY_SYS_RCB_RBUS_RD_CMD |
1277:Generated_Source\PSoC4/CyLib.c ****                                             (CY_SYS_RCB_RBUS_RF_DCXO_CFG_SET & ~CY_SYS_RCB_RBUS_VAL
1278:Generated_Source\PSoC4/CyLib.c **** 
1279:Generated_Source\PSoC4/CyLib.c ****                 while (0u == (CY_SYS_RCB_INTR_RCB_RX_FIFO_NOT_EMPTY & CY_SYS_RCB_INTR_REG))
1280:Generated_Source\PSoC4/CyLib.c ****                 {
1281:Generated_Source\PSoC4/CyLib.c ****                     /* Wait until RX_FIFO_NOT_EMPTY state */
1282:Generated_Source\PSoC4/CyLib.c ****                 }
1283:Generated_Source\PSoC4/CyLib.c **** 
1284:Generated_Source\PSoC4/CyLib.c ****                 CY_SYS_RCB_INTR_REG |= CY_SYS_RCB_INTR_RCB_DONE;
1285:Generated_Source\PSoC4/CyLib.c **** 
1286:Generated_Source\PSoC4/CyLib.c ****                 regConfig = CY_SYS_RCB_RX_FIFO_RD_REG & CY_SYS_RCB_RBUS_TRIM_MASK;
1287:Generated_Source\PSoC4/CyLib.c **** 
1288:Generated_Source\PSoC4/CyLib.c ****                 /* Send write commands to RBUS */
1289:Generated_Source\PSoC4/CyLib.c ****                 CY_SYS_RCB_TX_FIFO_WR_REG = (CY_SYS_RCB_RBUS_RF_DCXO_CFG_SET | regConfig | CY_SYS_R
ARM GAS  C:\Users\YUANFA~1\AppData\Local\Temp\ccYDlzYT.s 			page 33


1290:Generated_Source\PSoC4/CyLib.c **** 
1291:Generated_Source\PSoC4/CyLib.c ****                 while (0u == (CY_SYS_RCB_INTR_RCB_DONE & CY_SYS_RCB_INTR_REG))
1292:Generated_Source\PSoC4/CyLib.c ****                 {
1293:Generated_Source\PSoC4/CyLib.c ****                     /* Wait until RCB_DONE state */
1294:Generated_Source\PSoC4/CyLib.c ****                 }
1295:Generated_Source\PSoC4/CyLib.c **** 
1296:Generated_Source\PSoC4/CyLib.c ****                 /* Clear Interrupt */
1297:Generated_Source\PSoC4/CyLib.c ****                 CY_SYS_RCB_INTR_REG = CY_SYS_RCB_INTR_CLEAR;
1298:Generated_Source\PSoC4/CyLib.c **** 
1299:Generated_Source\PSoC4/CyLib.c ****                 if(0u != ((CY_SYS_RCB_INTR_RCB_DONE | CY_SYS_RCB_INTR_RCB_RX_FIFO_NOT_EMPTY) & intr
1300:Generated_Source\PSoC4/CyLib.c ****                 {
1301:Generated_Source\PSoC4/CyLib.c ****                     CY_SYS_BLESS_INTR_MASK_REG |= intrRegMaskStore;
1302:Generated_Source\PSoC4/CyLib.c ****                 }
1303:Generated_Source\PSoC4/CyLib.c **** 
1304:Generated_Source\PSoC4/CyLib.c ****             }
1305:Generated_Source\PSoC4/CyLib.c ****         #else /* CY_IP_ECO_SRSSV2 || CY_IP_ECO_SRSSLT */
1306:Generated_Source\PSoC4/CyLib.c ****             CY_SYS_CLK_ECO_CONFIG_REG |= CY_SYS_CLK_ECO_CONFIG_ENABLE;
1307:Generated_Source\PSoC4/CyLib.c ****             CyDelayUs(CY_SYS_CLK_ECO_CONFIG_CLK_EN_TIMEOUT_US);
1308:Generated_Source\PSoC4/CyLib.c ****             #if (CY_IP_ECOV2_SRSSLT)
1309:Generated_Source\PSoC4/CyLib.c ****                 CySysClkPllClearPendingInterrupt(CY_SYS_PLL_INTR_WD_ERR);
1310:Generated_Source\PSoC4/CyLib.c ****             #endif /* (CY_IP_ECOV2_SRSSLT) */
1311:Generated_Source\PSoC4/CyLib.c ****             CY_SYS_CLK_ECO_CONFIG_REG |= CY_SYS_CLK_ECO_CONFIG_CLK_EN;
1312:Generated_Source\PSoC4/CyLib.c ****         #endif /* (CY_IP_ECO_BLESS) */
1313:Generated_Source\PSoC4/CyLib.c **** 
1314:Generated_Source\PSoC4/CyLib.c ****         if(timeoutUs > 0u)
1315:Generated_Source\PSoC4/CyLib.c ****         {
1316:Generated_Source\PSoC4/CyLib.c ****             returnStatus = CYRET_TIMEOUT;
1317:Generated_Source\PSoC4/CyLib.c **** 
1318:Generated_Source\PSoC4/CyLib.c ****             for( ; timeoutUs > 0u; timeoutUs--)
1319:Generated_Source\PSoC4/CyLib.c ****             {
1320:Generated_Source\PSoC4/CyLib.c ****                 CyDelayUs(1u);
1321:Generated_Source\PSoC4/CyLib.c **** 
1322:Generated_Source\PSoC4/CyLib.c ****                 if(0u != CySysClkEcoReadStatus())
1323:Generated_Source\PSoC4/CyLib.c ****                 {
1324:Generated_Source\PSoC4/CyLib.c ****                     returnStatus = CYRET_SUCCESS;
1325:Generated_Source\PSoC4/CyLib.c ****                     break;
1326:Generated_Source\PSoC4/CyLib.c ****                 }
1327:Generated_Source\PSoC4/CyLib.c ****             }
1328:Generated_Source\PSoC4/CyLib.c **** 
1329:Generated_Source\PSoC4/CyLib.c ****         }
1330:Generated_Source\PSoC4/CyLib.c **** 
1331:Generated_Source\PSoC4/CyLib.c ****         return(returnStatus);
1332:Generated_Source\PSoC4/CyLib.c ****     }
1333:Generated_Source\PSoC4/CyLib.c **** 
1334:Generated_Source\PSoC4/CyLib.c **** 
1335:Generated_Source\PSoC4/CyLib.c ****     /*******************************************************************************
1336:Generated_Source\PSoC4/CyLib.c ****     * Function Name: CySysClkEcoStop
1337:Generated_Source\PSoC4/CyLib.c ****     ****************************************************************************//**
1338:Generated_Source\PSoC4/CyLib.c ****     *
1339:Generated_Source\PSoC4/CyLib.c ****     * Stops the megahertz crystal.
1340:Generated_Source\PSoC4/CyLib.c ****     *
1341:Generated_Source\PSoC4/CyLib.c ****     * If ECO is disabled when it is sourcing HFCLK, the CPU will halt. In addition,
1342:Generated_Source\PSoC4/CyLib.c ****     * for PSoC 4100 BLE / PSoC 4200 BLE devices, the BLE sub-system will stop
1343:Generated_Source\PSoC4/CyLib.c ****     * functioning.
1344:Generated_Source\PSoC4/CyLib.c ****     *
1345:Generated_Source\PSoC4/CyLib.c ****     *******************************************************************************/
1346:Generated_Source\PSoC4/CyLib.c ****     void CySysClkEcoStop(void)
ARM GAS  C:\Users\YUANFA~1\AppData\Local\Temp\ccYDlzYT.s 			page 34


1347:Generated_Source\PSoC4/CyLib.c ****     {
 524              		.loc 1 1347 0
 525              		.cfi_startproc
 526              		@ args = 0, pretend = 0, frame = 0
 527              		@ frame_needed = 0, uses_anonymous_args = 0
 528              		@ link register save eliminated.
1348:Generated_Source\PSoC4/CyLib.c ****         #if (CY_IP_WCO_BLESS)
1349:Generated_Source\PSoC4/CyLib.c ****             /* Disable the RF oscillator band gap */
1350:Generated_Source\PSoC4/CyLib.c ****             CY_SYS_XTAL_BLESS_RF_CONFIG_REG &= (uint32) ~CY_SYS_XTAL_BLESS_RF_CONFIG_RF_ENABLE;
1351:Generated_Source\PSoC4/CyLib.c **** 
1352:Generated_Source\PSoC4/CyLib.c ****             /* Disable the Crystal */
1353:Generated_Source\PSoC4/CyLib.c ****             CY_SYS_XTAL_BLERD_DBUS_REG &= (uint32) ~CY_SYS_XTAL_BLERD_DBUS_XTAL_ENABLE;
1354:Generated_Source\PSoC4/CyLib.c ****         #elif (CY_IP_ECO_BLESSV3)
1355:Generated_Source\PSoC4/CyLib.c ****             CY_SYS_BLESS_MT_CFG_REG &= ~(CY_SYS_BLESS_MT_CFG_DPSLP_ECO_ON  <<  CYFLD_BLE_BLESS_DPSL
1356:Generated_Source\PSoC4/CyLib.c ****         #else
1357:Generated_Source\PSoC4/CyLib.c ****             CY_SYS_CLK_ECO_CONFIG_REG &= (uint32) ~(CY_SYS_CLK_ECO_CONFIG_ENABLE | CY_SYS_CLK_ECO_C
 529              		.loc 1 1357 0
 530 0000 024A     		ldr	r2, .L37
 531 0002 1168     		ldr	r1, [r2]
 532 0004 024B     		ldr	r3, .L37+4
 533 0006 0B40     		ands	r3, r1
 534 0008 1360     		str	r3, [r2]
1358:Generated_Source\PSoC4/CyLib.c ****         #endif /* (CY_IP_WCO_BLESS) */
1359:Generated_Source\PSoC4/CyLib.c ****     }
 535              		.loc 1 1359 0
 536              		@ sp needed
 537 000a 7047     		bx	lr
 538              	.L38:
 539              		.align	2
 540              	.L37:
 541 000c 08002F40 		.word	1076822024
 542 0010 FEFFFF7F 		.word	2147483646
 543              		.cfi_endproc
 544              	.LFE13:
 545              		.size	CySysClkEcoStop, .-CySysClkEcoStop
 546              		.section	.text.CySysClkEcoReadStatus,"ax",%progbits
 547              		.align	2
 548              		.global	CySysClkEcoReadStatus
 549              		.code	16
 550              		.thumb_func
 551              		.type	CySysClkEcoReadStatus, %function
 552              	CySysClkEcoReadStatus:
 553              	.LFB14:
1360:Generated_Source\PSoC4/CyLib.c **** 
1361:Generated_Source\PSoC4/CyLib.c **** 
1362:Generated_Source\PSoC4/CyLib.c ****     /*******************************************************************************
1363:Generated_Source\PSoC4/CyLib.c ****     * Function Name: CySysClkEcoReadStatus
1364:Generated_Source\PSoC4/CyLib.c ****     ****************************************************************************//**
1365:Generated_Source\PSoC4/CyLib.c ****     *
1366:Generated_Source\PSoC4/CyLib.c ****     * Reads the status bit for the megahertz crystal.
1367:Generated_Source\PSoC4/CyLib.c ****     *
1368:Generated_Source\PSoC4/CyLib.c ****     * For PSoC 4100 BLE / PSoC 4200 BLE devices, the status bit is the
1369:Generated_Source\PSoC4/CyLib.c ****     * XO_AMP_DETECT bit in FSM register.
1370:Generated_Source\PSoC4/CyLib.c ****     *
1371:Generated_Source\PSoC4/CyLib.c ****     * For PSoC 4200L / 4100S / 4500 with ECO devices, the error status bit is
1372:Generated_Source\PSoC4/CyLib.c ****     * the WATCHDOG_ERROR bit in ECO_STATUS register.
1373:Generated_Source\PSoC4/CyLib.c ****     *
ARM GAS  C:\Users\YUANFA~1\AppData\Local\Temp\ccYDlzYT.s 			page 35


1374:Generated_Source\PSoC4/CyLib.c ****     * \return PSoC 4100 BLE/PSoC 4200 BLE: Non-zero indicates that ECO output
1375:Generated_Source\PSoC4/CyLib.c ****     * reached 50 ppm and is oscillating in valid range.
1376:Generated_Source\PSoC4/CyLib.c ****     *
1377:Generated_Source\PSoC4/CyLib.c ****     * \return PSoC 4200L / 4100S / 4500 with ECO: Non-zero indicates that ECO
1378:Generated_Source\PSoC4/CyLib.c ****     * is running.
1379:Generated_Source\PSoC4/CyLib.c ****     *
1380:Generated_Source\PSoC4/CyLib.c ****     *******************************************************************************/
1381:Generated_Source\PSoC4/CyLib.c ****     uint32 CySysClkEcoReadStatus(void)
1382:Generated_Source\PSoC4/CyLib.c ****     {
 554              		.loc 1 1382 0
 555              		.cfi_startproc
 556              		@ args = 0, pretend = 0, frame = 0
 557              		@ frame_needed = 0, uses_anonymous_args = 0
 558              		@ link register save eliminated.
1383:Generated_Source\PSoC4/CyLib.c ****         uint32 returnValue;
1384:Generated_Source\PSoC4/CyLib.c **** 
1385:Generated_Source\PSoC4/CyLib.c ****         #if (CY_IP_WCO_BLESS)
1386:Generated_Source\PSoC4/CyLib.c ****             returnValue = CY_SYS_XTAL_BLERD_FSM_REG & CY_SYS_XTAL_BLERD_FSM_XO_AMP_DETECT;
1387:Generated_Source\PSoC4/CyLib.c ****         #elif (CY_IP_ECO_BLESSV3)
1388:Generated_Source\PSoC4/CyLib.c ****             returnValue = (CY_SYS_BLESS_MT_STATUS_REG & CY_SYS_BLESS_MT_STATUS_CURR_STATE_MASK) >> 
1389:Generated_Source\PSoC4/CyLib.c **** 
1390:Generated_Source\PSoC4/CyLib.c ****             returnValue =  ((CY_SYS_BLESS_MT_STATUS_BLERD_IDLE == returnValue) ||
1391:Generated_Source\PSoC4/CyLib.c ****                             (CY_SYS_BLESS_MT_STATUS_SWITCH_EN  == returnValue) ||
1392:Generated_Source\PSoC4/CyLib.c ****                             (CY_SYS_BLESS_MT_STATUS_ACTIVE  ==  returnValue) ||
1393:Generated_Source\PSoC4/CyLib.c ****                             (CY_SYS_BLESS_MT_STATUS_ISOLATE == returnValue));
1394:Generated_Source\PSoC4/CyLib.c ****         #else
1395:Generated_Source\PSoC4/CyLib.c ****             returnValue = (0u != (CY_SYS_CLK_ECO_STATUS_REG & CY_SYS_CLK_ECO_STATUS_WATCHDOG_ERROR)
 559              		.loc 1 1395 0
 560 0000 034B     		ldr	r3, .L40
 561 0002 1B68     		ldr	r3, [r3]
 562 0004 0120     		movs	r0, #1
 563 0006 1840     		ands	r0, r3
 564 0008 4342     		rsbs	r3, r0, #0
 565 000a 5841     		adcs	r0, r0, r3
 566 000c C0B2     		uxtb	r0, r0
 567              	.LVL36:
1396:Generated_Source\PSoC4/CyLib.c ****         #endif /* (CY_IP_WCO_BLESS) */
1397:Generated_Source\PSoC4/CyLib.c **** 
1398:Generated_Source\PSoC4/CyLib.c ****         return (returnValue);
1399:Generated_Source\PSoC4/CyLib.c ****     }
 568              		.loc 1 1399 0
 569              		@ sp needed
 570 000e 7047     		bx	lr
 571              	.L41:
 572              		.align	2
 573              	.L40:
 574 0010 0C002F40 		.word	1076822028
 575              		.cfi_endproc
 576              	.LFE14:
 577              		.size	CySysClkEcoReadStatus, .-CySysClkEcoReadStatus
 578              		.section	.text.CySysClkConfigureEcoTrim,"ax",%progbits
 579              		.align	2
 580              		.global	CySysClkConfigureEcoTrim
 581              		.code	16
 582              		.thumb_func
 583              		.type	CySysClkConfigureEcoTrim, %function
 584              	CySysClkConfigureEcoTrim:
ARM GAS  C:\Users\YUANFA~1\AppData\Local\Temp\ccYDlzYT.s 			page 36


 585              	.LFB15:
1400:Generated_Source\PSoC4/CyLib.c **** 
1401:Generated_Source\PSoC4/CyLib.c ****     #if (CY_IP_ECO_BLESS || CY_IP_ECO_BLESSV3)
1402:Generated_Source\PSoC4/CyLib.c ****         /*******************************************************************************
1403:Generated_Source\PSoC4/CyLib.c ****         * Function Name: CySysClkWriteEcoDiv
1404:Generated_Source\PSoC4/CyLib.c ****         ****************************************************************************//**
1405:Generated_Source\PSoC4/CyLib.c ****         *
1406:Generated_Source\PSoC4/CyLib.c ****         * Selects value for the ECO divider.
1407:Generated_Source\PSoC4/CyLib.c ****         *
1408:Generated_Source\PSoC4/CyLib.c ****         * The ECO must not be the HFCLK clock source when this function is called.
1409:Generated_Source\PSoC4/CyLib.c ****         * The HFCLK source can be changed to the other clock source by call to the
1410:Generated_Source\PSoC4/CyLib.c ****         * CySysClkWriteHfclkDirect() function. If the ECO sources the HFCLK this
1411:Generated_Source\PSoC4/CyLib.c ****         * function will not have any effect if compiler in release mode, and halt the
1412:Generated_Source\PSoC4/CyLib.c ****         * CPU when compiler in debug mode.
1413:Generated_Source\PSoC4/CyLib.c ****         *
1414:Generated_Source\PSoC4/CyLib.c ****         * If the SYSCLK clock frequency increases during the device operation, call
1415:Generated_Source\PSoC4/CyLib.c ****         * CySysFlashSetWaitCycles() with the appropriate parameter to adjust the number
1416:Generated_Source\PSoC4/CyLib.c ****         * of clock cycles the cache will wait before sampling data comes back from
1417:Generated_Source\PSoC4/CyLib.c ****         * Flash. If the SYSCLK clock frequency decreases, you can call
1418:Generated_Source\PSoC4/CyLib.c ****         * CySysFlashSetWaitCycles() to improve the CPU performance. See
1419:Generated_Source\PSoC4/CyLib.c ****         * CySysFlashSetWaitCycles() description for more information.
1420:Generated_Source\PSoC4/CyLib.c ****         *
1421:Generated_Source\PSoC4/CyLib.c ****         * \param divider Power of 2 divider selection.
1422:Generated_Source\PSoC4/CyLib.c ****         * - \ref CY_SYS_CLK_ECO_DIV1
1423:Generated_Source\PSoC4/CyLib.c ****         * - \ref CY_SYS_CLK_ECO_DIV2
1424:Generated_Source\PSoC4/CyLib.c ****         * - \ref CY_SYS_CLK_ECO_DIV4
1425:Generated_Source\PSoC4/CyLib.c ****         * - \ref CY_SYS_CLK_ECO_DIV8
1426:Generated_Source\PSoC4/CyLib.c ****         *
1427:Generated_Source\PSoC4/CyLib.c ****         *******************************************************************************/
1428:Generated_Source\PSoC4/CyLib.c ****         void CySysClkWriteEcoDiv(uint32 divider)
1429:Generated_Source\PSoC4/CyLib.c ****         {
1430:Generated_Source\PSoC4/CyLib.c ****             uint8  interruptState;
1431:Generated_Source\PSoC4/CyLib.c **** 
1432:Generated_Source\PSoC4/CyLib.c ****             if (CY_SYS_CLK_HFCLK_ECO != (CY_SYS_CLK_SELECT_REG & CY_SYS_CLK_SELECT_DIRECT_SEL_MASK)
1433:Generated_Source\PSoC4/CyLib.c ****             {
1434:Generated_Source\PSoC4/CyLib.c ****                 interruptState = CyEnterCriticalSection();
1435:Generated_Source\PSoC4/CyLib.c **** 
1436:Generated_Source\PSoC4/CyLib.c ****                 CY_SYS_CLK_XTAL_CLK_DIV_CONFIG_REG =  (divider & CY_SYS_CLK_XTAL_CLK_DIV_MASK) |
1437:Generated_Source\PSoC4/CyLib.c ****                                                       (CY_SYS_CLK_XTAL_CLK_DIV_CONFIG_REG & ((uint3
1438:Generated_Source\PSoC4/CyLib.c **** 
1439:Generated_Source\PSoC4/CyLib.c ****                 CyExitCriticalSection(interruptState);
1440:Generated_Source\PSoC4/CyLib.c ****             }
1441:Generated_Source\PSoC4/CyLib.c ****             else
1442:Generated_Source\PSoC4/CyLib.c ****             {
1443:Generated_Source\PSoC4/CyLib.c ****                 /* Halt CPU in debug mode if ECO sources HFCLK */
1444:Generated_Source\PSoC4/CyLib.c ****                 CYASSERT(0u != 0u);
1445:Generated_Source\PSoC4/CyLib.c ****             }
1446:Generated_Source\PSoC4/CyLib.c ****         }
1447:Generated_Source\PSoC4/CyLib.c **** 
1448:Generated_Source\PSoC4/CyLib.c ****     #else
1449:Generated_Source\PSoC4/CyLib.c **** 
1450:Generated_Source\PSoC4/CyLib.c ****         /*******************************************************************************
1451:Generated_Source\PSoC4/CyLib.c ****         * Function Name: CySysClkConfigureEcoTrim
1452:Generated_Source\PSoC4/CyLib.c ****         ****************************************************************************//**
1453:Generated_Source\PSoC4/CyLib.c ****         *
1454:Generated_Source\PSoC4/CyLib.c ****         * Selects trim setting values for ECO. This API is available only for PSoC
1455:Generated_Source\PSoC4/CyLib.c ****         * 4200L / 4100S /4500 with ECO devices only.
ARM GAS  C:\Users\YUANFA~1\AppData\Local\Temp\ccYDlzYT.s 			page 37


1456:Generated_Source\PSoC4/CyLib.c ****         *
1457:Generated_Source\PSoC4/CyLib.c ****         * The following parameters can be trimmed for ECO. The affected registers are
1458:Generated_Source\PSoC4/CyLib.c ****         * ECO_TRIM0 and ECO_TRIM1.
1459:Generated_Source\PSoC4/CyLib.c ****         *
1460:Generated_Source\PSoC4/CyLib.c ****         * Watchdog trim - This bit field sets the error threshold below the steady
1461:Generated_Source\PSoC4/CyLib.c ****         * state amplitude level.
1462:Generated_Source\PSoC4/CyLib.c ****         *
1463:Generated_Source\PSoC4/CyLib.c ****         * Amplitude trim - This bit field is to set the crystal drive level when
1464:Generated_Source\PSoC4/CyLib.c ****         * ECO_CONFIG.AGC_EN = 1. WARNING: use care when setting this field because
1465:Generated_Source\PSoC4/CyLib.c ****         * driving a crystal beyond its rated limit can permanently damage the crystal.
1466:Generated_Source\PSoC4/CyLib.c ****         *
1467:Generated_Source\PSoC4/CyLib.c ****         * Filter frequency trim - This bit field sets LPF frequency trim and affects
1468:Generated_Source\PSoC4/CyLib.c ****         * the 3rd harmonic content.
1469:Generated_Source\PSoC4/CyLib.c ****         *
1470:Generated_Source\PSoC4/CyLib.c ****         * Feedback resistor trim - This bit field sets the feedback resistor trim and
1471:Generated_Source\PSoC4/CyLib.c ****         * impacts the oscillation amplitude.
1472:Generated_Source\PSoC4/CyLib.c ****         *
1473:Generated_Source\PSoC4/CyLib.c ****         * Amplifier gain trim - This bit field sets the amplifier gain trim and affects
1474:Generated_Source\PSoC4/CyLib.c ****         * the startup time of the crystal.
1475:Generated_Source\PSoC4/CyLib.c ****         *
1476:Generated_Source\PSoC4/CyLib.c ****         * Use care when setting the amplitude trim field because driving a crystal
1477:Generated_Source\PSoC4/CyLib.c ****         * beyond its rated limit can permanently damage the crystal.
1478:Generated_Source\PSoC4/CyLib.c ****         *
1479:Generated_Source\PSoC4/CyLib.c ****         * \param wDTrim: Watchdog trim
1480:Generated_Source\PSoC4/CyLib.c ****         * - \ref CY_SYS_CLK_ECO_WDTRIM0      Error threshold is 0.05 V
1481:Generated_Source\PSoC4/CyLib.c ****         * - \ref CY_SYS_CLK_ECO_WDTRIM1      Error threshold is 0.10 V
1482:Generated_Source\PSoC4/CyLib.c ****         * - \ref CY_SYS_CLK_ECO_WDTRIM2      Error threshold is 0.15 V
1483:Generated_Source\PSoC4/CyLib.c ****         * - \ref CY_SYS_CLK_ECO_WDTRIM3      Error threshold is 0.20 V
1484:Generated_Source\PSoC4/CyLib.c ****         *
1485:Generated_Source\PSoC4/CyLib.c ****         * \param aTrim: Amplitude trim
1486:Generated_Source\PSoC4/CyLib.c ****         * - \ref CY_SYS_CLK_ECO_ATRIM0       Amplitude is 0.3 Vpp
1487:Generated_Source\PSoC4/CyLib.c ****         * - \ref CY_SYS_CLK_ECO_ATRIM1       Amplitude is 0.4 Vpp
1488:Generated_Source\PSoC4/CyLib.c ****         * - \ref CY_SYS_CLK_ECO_ATRIM2       Amplitude is 0.5 Vpp
1489:Generated_Source\PSoC4/CyLib.c ****         * - \ref CY_SYS_CLK_ECO_ATRIM3       Amplitude is 0.6 Vpp
1490:Generated_Source\PSoC4/CyLib.c ****         * - \ref CY_SYS_CLK_ECO_ATRIM4       Amplitude is 0.7 Vpp
1491:Generated_Source\PSoC4/CyLib.c ****         * - \ref CY_SYS_CLK_ECO_ATRIM5       Amplitude is 0.8 Vpp
1492:Generated_Source\PSoC4/CyLib.c ****         * - \ref CY_SYS_CLK_ECO_ATRIM6       Amplitude is 0.9 Vpp
1493:Generated_Source\PSoC4/CyLib.c ****         * - \ref CY_SYS_CLK_ECO_ATRIM7       Amplitude is 1.0 Vpp
1494:Generated_Source\PSoC4/CyLib.c ****         *
1495:Generated_Source\PSoC4/CyLib.c ****         * \param fTrim: Filter frequency trim
1496:Generated_Source\PSoC4/CyLib.c ****         * - \ref CY_SYS_CLK_ECO_FTRIM0       Crystal frequency > 30 MHz
1497:Generated_Source\PSoC4/CyLib.c ****         * - \ref CY_SYS_CLK_ECO_FTRIM1       24 MHz < Crystal frequency <= 30 MHz
1498:Generated_Source\PSoC4/CyLib.c ****         * - \ref CY_SYS_CLK_ECO_FTRIM2       17 MHz < Crystal frequency <= 24 MHz
1499:Generated_Source\PSoC4/CyLib.c ****         * - \ref CY_SYS_CLK_ECO_FTRIM3       Crystal frequency <= 17 MHz
1500:Generated_Source\PSoC4/CyLib.c ****         *
1501:Generated_Source\PSoC4/CyLib.c ****         * \param rTrim: Feedback resistor trim
1502:Generated_Source\PSoC4/CyLib.c ****         * - \ref CY_SYS_CLK_ECO_RTRIM0       Crystal frequency > 30 MHz
1503:Generated_Source\PSoC4/CyLib.c ****         * - \ref CY_SYS_CLK_ECO_RTRIM1       24 MHz < Crystal frequency <= 30 MHz
1504:Generated_Source\PSoC4/CyLib.c ****         * - \ref CY_SYS_CLK_ECO_RTRIM2       17 MHz < Crystal frequency <= 24 MHz
1505:Generated_Source\PSoC4/CyLib.c ****         * - \ref CY_SYS_CLK_ECO_RTRIM3       Crystal frequency <= 17 MHz
1506:Generated_Source\PSoC4/CyLib.c ****         *
1507:Generated_Source\PSoC4/CyLib.c ****         * \param gTrim: Amplifier gain trim. Calculate the minimum required gm
1508:Generated_Source\PSoC4/CyLib.c ****         * (trans-conductance value). Divide the calculated gm value by 4.5 to
1509:Generated_Source\PSoC4/CyLib.c ****         * obtain an integer value 'result'. For more information please refer
1510:Generated_Source\PSoC4/CyLib.c ****         * to the device TRM.
1511:Generated_Source\PSoC4/CyLib.c ****         * - \ref CY_SYS_CLK_ECO_GTRIM0       If result = 1
1512:Generated_Source\PSoC4/CyLib.c ****         * - \ref CY_SYS_CLK_ECO_GTRIM1       If result = 0
ARM GAS  C:\Users\YUANFA~1\AppData\Local\Temp\ccYDlzYT.s 			page 38


1513:Generated_Source\PSoC4/CyLib.c ****         * - \ref CY_SYS_CLK_ECO_GTRIM2       If result = 2
1514:Generated_Source\PSoC4/CyLib.c ****         * - \ref CY_SYS_CLK_ECO_GTRIM2       If result = 3
1515:Generated_Source\PSoC4/CyLib.c ****         *
1516:Generated_Source\PSoC4/CyLib.c ****         *******************************************************************************/
1517:Generated_Source\PSoC4/CyLib.c ****         void CySysClkConfigureEcoTrim(uint32 wDTrim, uint32 aTrim, uint32 fTrim, uint32 rTrim, uint
1518:Generated_Source\PSoC4/CyLib.c ****         {
 586              		.loc 1 1518 0
 587              		.cfi_startproc
 588              		@ args = 4, pretend = 0, frame = 0
 589              		@ frame_needed = 0, uses_anonymous_args = 0
 590              	.LVL37:
 591 0000 F0B5     		push	{r4, r5, r6, r7, lr}
 592              		.cfi_def_cfa_offset 20
 593              		.cfi_offset 4, -20
 594              		.cfi_offset 5, -16
 595              		.cfi_offset 6, -12
 596              		.cfi_offset 7, -8
 597              		.cfi_offset 14, -4
 598 0002 4746     		mov	r7, r8
 599 0004 80B4     		push	{r7}
 600              		.cfi_def_cfa_offset 24
 601              		.cfi_offset 8, -24
 602 0006 0700     		movs	r7, r0
 603 0008 0D00     		movs	r5, r1
 604 000a 1600     		movs	r6, r2
 605 000c 9846     		mov	r8, r3
1519:Generated_Source\PSoC4/CyLib.c ****             uint8  interruptState;
1520:Generated_Source\PSoC4/CyLib.c ****             uint32 regTmp;
1521:Generated_Source\PSoC4/CyLib.c **** 
1522:Generated_Source\PSoC4/CyLib.c ****             interruptState = CyEnterCriticalSection();
 606              		.loc 1 1522 0
 607 000e FFF7FEFF 		bl	CyEnterCriticalSection
 608              	.LVL38:
1523:Generated_Source\PSoC4/CyLib.c **** 
1524:Generated_Source\PSoC4/CyLib.c ****             regTmp  = CY_SYS_CLK_ECO_TRIM0_REG & ~(CY_SYS_CLK_ECO_TRIM0_WDTRIM_MASK | CY_SYS_CLK_EC
 609              		.loc 1 1524 0
 610 0012 114A     		ldr	r2, .L43
 611 0014 1368     		ldr	r3, [r2]
 612 0016 1F21     		movs	r1, #31
 613 0018 8B43     		bics	r3, r1
 614              	.LVL39:
1525:Generated_Source\PSoC4/CyLib.c ****             regTmp |= ((uint32) (wDTrim << CY_SYS_CLK_ECO_TRIM0_WDTRIM_SHIFT) & CY_SYS_CLK_ECO_TRIM
 615              		.loc 1 1525 0
 616 001a 0324     		movs	r4, #3
 617 001c 2740     		ands	r7, r4
 618              	.LVL40:
 619 001e 1F43     		orrs	r7, r3
 620              	.LVL41:
1526:Generated_Source\PSoC4/CyLib.c ****             regTmp |= ((uint32) (aTrim << CY_SYS_CLK_ECO_TRIM0_ATRIM_SHIFT) & CY_SYS_CLK_ECO_TRIM0_
 621              		.loc 1 1526 0
 622 0020 A900     		lsls	r1, r5, #2
 623 0022 1C25     		movs	r5, #28
 624              	.LVL42:
 625 0024 0D40     		ands	r5, r1
 626 0026 3D43     		orrs	r5, r7
 627              	.LVL43:
1527:Generated_Source\PSoC4/CyLib.c ****             CY_SYS_CLK_ECO_TRIM0_REG = regTmp;
ARM GAS  C:\Users\YUANFA~1\AppData\Local\Temp\ccYDlzYT.s 			page 39


 628              		.loc 1 1527 0
 629 0028 1560     		str	r5, [r2]
1528:Generated_Source\PSoC4/CyLib.c **** 
1529:Generated_Source\PSoC4/CyLib.c ****             regTmp  = CY_SYS_CLK_ECO_TRIM1_REG & ~(CY_SYS_CLK_ECO_TRIM1_FTRIM_MASK |
 630              		.loc 1 1529 0
 631 002a 0C4A     		ldr	r2, .L43+4
 632 002c 1368     		ldr	r3, [r2]
 633 002e 3F21     		movs	r1, #63
 634 0030 8B43     		bics	r3, r1
 635              	.LVL44:
1530:Generated_Source\PSoC4/CyLib.c ****                                                    CY_SYS_CLK_ECO_TRIM1_RTRIM_MASK |
1531:Generated_Source\PSoC4/CyLib.c ****                                                    CY_SYS_CLK_ECO_TRIM1_GTRIM_MASK);
1532:Generated_Source\PSoC4/CyLib.c ****             regTmp |= ((uint32) (fTrim << CY_SYS_CLK_ECO_TRIM1_FTRIM_SHIFT) & CY_SYS_CLK_ECO_TRIM1_
 636              		.loc 1 1532 0
 637 0032 2640     		ands	r6, r4
 638              	.LVL45:
 639 0034 3343     		orrs	r3, r6
 640              	.LVL46:
1533:Generated_Source\PSoC4/CyLib.c ****             regTmp |= ((uint32) (rTrim << CY_SYS_CLK_ECO_TRIM1_RTRIM_SHIFT) & CY_SYS_CLK_ECO_TRIM1_
 641              		.loc 1 1533 0
 642 0036 4146     		mov	r1, r8
 643 0038 8900     		lsls	r1, r1, #2
 644 003a 0934     		adds	r4, r4, #9
 645 003c 0C40     		ands	r4, r1
 646 003e 1C43     		orrs	r4, r3
 647              	.LVL47:
1534:Generated_Source\PSoC4/CyLib.c ****             regTmp |= ((uint32) (gTrim << CY_SYS_CLK_ECO_TRIM1_GTRIM_SHIFT) & CY_SYS_CLK_ECO_TRIM1_
 648              		.loc 1 1534 0
 649 0040 069B     		ldr	r3, [sp, #24]
 650 0042 1901     		lsls	r1, r3, #4
 651 0044 3023     		movs	r3, #48
 652 0046 1940     		ands	r1, r3
 653 0048 2300     		movs	r3, r4
 654 004a 0B43     		orrs	r3, r1
 655              	.LVL48:
1535:Generated_Source\PSoC4/CyLib.c **** 
1536:Generated_Source\PSoC4/CyLib.c ****             CY_SYS_CLK_ECO_TRIM1_REG = regTmp;
 656              		.loc 1 1536 0
 657 004c 1360     		str	r3, [r2]
1537:Generated_Source\PSoC4/CyLib.c **** 
1538:Generated_Source\PSoC4/CyLib.c ****             CyExitCriticalSection(interruptState);
 658              		.loc 1 1538 0
 659 004e FFF7FEFF 		bl	CyExitCriticalSection
 660              	.LVL49:
1539:Generated_Source\PSoC4/CyLib.c ****         }
 661              		.loc 1 1539 0
 662              		@ sp needed
 663              	.LVL50:
 664 0052 04BC     		pop	{r2}
 665 0054 9046     		mov	r8, r2
 666 0056 F0BD     		pop	{r4, r5, r6, r7, pc}
 667              	.L44:
 668              		.align	2
 669              	.L43:
 670 0058 00FF2F40 		.word	1076887296
 671 005c 04FF2F40 		.word	1076887300
 672              		.cfi_endproc
ARM GAS  C:\Users\YUANFA~1\AppData\Local\Temp\ccYDlzYT.s 			page 40


 673              	.LFE15:
 674              		.size	CySysClkConfigureEcoTrim, .-CySysClkConfigureEcoTrim
 675              		.global	__aeabi_uidiv
 676              		.section	.text.CySysClkConfigureEcoDrive,"ax",%progbits
 677              		.align	2
 678              		.global	CySysClkConfigureEcoDrive
 679              		.code	16
 680              		.thumb_func
 681              		.type	CySysClkConfigureEcoDrive, %function
 682              	CySysClkConfigureEcoDrive:
 683              	.LFB16:
1540:Generated_Source\PSoC4/CyLib.c **** 
1541:Generated_Source\PSoC4/CyLib.c **** 
1542:Generated_Source\PSoC4/CyLib.c ****         /*******************************************************************************
1543:Generated_Source\PSoC4/CyLib.c ****         * Function Name: CySysClkConfigureEcoDrive
1544:Generated_Source\PSoC4/CyLib.c ****         ****************************************************************************//**
1545:Generated_Source\PSoC4/CyLib.c ****         *
1546:Generated_Source\PSoC4/CyLib.c ****         * Selects trim setting values for ECO based on crystal parameters. Use care
1547:Generated_Source\PSoC4/CyLib.c ****         * when setting the driveLevel parameter because driving a crystal beyond its
1548:Generated_Source\PSoC4/CyLib.c ****         * rated limit can permanently damage the crystal.
1549:Generated_Source\PSoC4/CyLib.c ****         *
1550:Generated_Source\PSoC4/CyLib.c ****         * This API is available only for PSoC 4200L / 4100S / 4500 with ECO
1551:Generated_Source\PSoC4/CyLib.c ****         * devices only.
1552:Generated_Source\PSoC4/CyLib.c ****         *
1553:Generated_Source\PSoC4/CyLib.c ****         * \param freq Frequency of the crystal in kHz.
1554:Generated_Source\PSoC4/CyLib.c ****         * \param cLoad Crystal load capacitance in pF.
1555:Generated_Source\PSoC4/CyLib.c ****         * \param esr Equivalent series resistance of the crystal in ohm.
1556:Generated_Source\PSoC4/CyLib.c ****         *  maxAmplitude: maximum amplitude level in mV. Calculate as
1557:Generated_Source\PSoC4/CyLib.c ****         *  ((sqrt(driveLevel in uW / 2 / esr))/(3.14 * freq * cLoad)) * 10^9.
1558:Generated_Source\PSoC4/CyLib.c ****         *
1559:Generated_Source\PSoC4/CyLib.c ****         *  The Automatic Gain Control (AGC) is disabled when the specified maximum
1560:Generated_Source\PSoC4/CyLib.c ****         *  amplitude level equals or above 2. In this case the amplitude is not
1561:Generated_Source\PSoC4/CyLib.c ****         *  explicitly controlled and will grow until it saturates to the supply rail
1562:Generated_Source\PSoC4/CyLib.c ****         *  (1.8V nom). WARNING: use care when disabling AGC because driving a crystal
1563:Generated_Source\PSoC4/CyLib.c ****         *  beyond its rated limit can permanently damage the crystal.
1564:Generated_Source\PSoC4/CyLib.c ****         *
1565:Generated_Source\PSoC4/CyLib.c ****         * \return \ref CYRET_SUCCESS ECO configuration completed successfully.
1566:Generated_Source\PSoC4/CyLib.c ****         * \return \ref CYRET_BAD_PARAM One or more invalid parameters.
1567:Generated_Source\PSoC4/CyLib.c ****         *
1568:Generated_Source\PSoC4/CyLib.c ****         *******************************************************************************/
1569:Generated_Source\PSoC4/CyLib.c ****         cystatus CySysClkConfigureEcoDrive(uint32 freq, uint32 cLoad, uint32 esr, uint32 maxAmplitu
1570:Generated_Source\PSoC4/CyLib.c ****         {
 684              		.loc 1 1570 0
 685              		.cfi_startproc
 686              		@ args = 0, pretend = 0, frame = 8
 687              		@ frame_needed = 0, uses_anonymous_args = 0
 688              	.LVL51:
 689 0000 F0B5     		push	{r4, r5, r6, r7, lr}
 690              		.cfi_def_cfa_offset 20
 691              		.cfi_offset 4, -20
 692              		.cfi_offset 5, -16
 693              		.cfi_offset 6, -12
 694              		.cfi_offset 7, -8
 695              		.cfi_offset 14, -4
 696 0002 5746     		mov	r7, r10
 697 0004 80B4     		push	{r7}
 698              		.cfi_def_cfa_offset 24
ARM GAS  C:\Users\YUANFA~1\AppData\Local\Temp\ccYDlzYT.s 			page 41


 699              		.cfi_offset 10, -24
 700 0006 84B0     		sub	sp, sp, #16
 701              		.cfi_def_cfa_offset 40
 702 0008 0600     		movs	r6, r0
 703 000a 0C00     		movs	r4, r1
 704 000c 1500     		movs	r5, r2
 705 000e 1F00     		movs	r7, r3
 706              	.LVL52:
1571:Generated_Source\PSoC4/CyLib.c ****             cystatus returnStatus = CYRET_SUCCESS;
1572:Generated_Source\PSoC4/CyLib.c **** 
1573:Generated_Source\PSoC4/CyLib.c ****             uint32 wDTrim;
1574:Generated_Source\PSoC4/CyLib.c ****             uint32 aTrim;
1575:Generated_Source\PSoC4/CyLib.c ****             uint32 fTrim;
1576:Generated_Source\PSoC4/CyLib.c ****             uint32 rTrim;
1577:Generated_Source\PSoC4/CyLib.c ****             uint32 gTrim;
1578:Generated_Source\PSoC4/CyLib.c **** 
1579:Generated_Source\PSoC4/CyLib.c ****             uint32 gmMin;
1580:Generated_Source\PSoC4/CyLib.c **** 
1581:Generated_Source\PSoC4/CyLib.c **** 
1582:Generated_Source\PSoC4/CyLib.c ****             if ((maxAmplitude < CY_SYS_CLK_ECO_MAX_AMPL_MIN_mV) ||
 707              		.loc 1 1582 0
 708 0010 F423     		movs	r3, #244
 709              	.LVL53:
 710 0012 FF33     		adds	r3, r3, #255
 711 0014 9F42     		cmp	r7, r3
 712 0016 00D8     		bhi	.LCB592
 713 0018 86E0     		b	.L52	@long jump
 714              	.LCB592:
 715              		.loc 1 1582 0 is_stmt 0 discriminator 1
 716 001a 484B     		ldr	r3, .L68
 717 001c 9842     		cmp	r0, r3
 718 001e 00D8     		bhi	.LCB595
 719 0020 84E0     		b	.L53	@long jump
 720              	.LCB595:
1583:Generated_Source\PSoC4/CyLib.c ****                 (freq < CY_SYS_CLK_ECO_FREQ_KHZ_MIN) || (freq > CY_SYS_CLK_ECO_FREQ_KHZ_MAX))
 721              		.loc 1 1583 0 is_stmt 1
 722 0022 474B     		ldr	r3, .L68+4
 723 0024 9842     		cmp	r0, r3
 724 0026 00D9     		bls	.LCB598
 725 0028 82E0     		b	.L54	@long jump
 726              	.LCB598:
1584:Generated_Source\PSoC4/CyLib.c ****             {
1585:Generated_Source\PSoC4/CyLib.c ****                 returnStatus = CYRET_BAD_PARAM;
1586:Generated_Source\PSoC4/CyLib.c ****             }
1587:Generated_Source\PSoC4/CyLib.c ****             else
1588:Generated_Source\PSoC4/CyLib.c ****             {
1589:Generated_Source\PSoC4/CyLib.c ****                 /* Calculate amplitude trim */
1590:Generated_Source\PSoC4/CyLib.c ****                 aTrim = (maxAmplitude < CY_SYS_CLK_ECO_TRIM_BOUNDARY) ? ((maxAmplitude/100u) - 4u) 
1591:Generated_Source\PSoC4/CyLib.c **** 
1592:Generated_Source\PSoC4/CyLib.c ****                 if (maxAmplitude < CY_SYS_CLK_ECO_AMPL_FOR_ATRIM0)
 727              		.loc 1 1592 0 discriminator 4
 728 002a 464B     		ldr	r3, .L68+8
 729 002c 9F42     		cmp	r7, r3
 730 002e 14D9     		bls	.L55
1593:Generated_Source\PSoC4/CyLib.c ****                 {
1594:Generated_Source\PSoC4/CyLib.c ****                     aTrim = CY_SYS_CLK_ECO_ATRIM0;
1595:Generated_Source\PSoC4/CyLib.c ****                 }
ARM GAS  C:\Users\YUANFA~1\AppData\Local\Temp\ccYDlzYT.s 			page 42


1596:Generated_Source\PSoC4/CyLib.c ****                 else if (maxAmplitude < CY_SYS_CLK_ECO_AMPL_FOR_ATRIM1)
 731              		.loc 1 1596 0
 732 0030 454B     		ldr	r3, .L68+12
 733 0032 9F42     		cmp	r7, r3
 734 0034 14D9     		bls	.L56
1597:Generated_Source\PSoC4/CyLib.c ****                 {
1598:Generated_Source\PSoC4/CyLib.c ****                     aTrim = CY_SYS_CLK_ECO_ATRIM1;
1599:Generated_Source\PSoC4/CyLib.c ****                 }
1600:Generated_Source\PSoC4/CyLib.c ****                 else if (maxAmplitude < CY_SYS_CLK_ECO_AMPL_FOR_ATRIM2)
 735              		.loc 1 1600 0
 736 0036 454B     		ldr	r3, .L68+16
 737 0038 9F42     		cmp	r7, r3
 738 003a 14D9     		bls	.L57
1601:Generated_Source\PSoC4/CyLib.c ****                 {
1602:Generated_Source\PSoC4/CyLib.c ****                     aTrim = CY_SYS_CLK_ECO_ATRIM2;
1603:Generated_Source\PSoC4/CyLib.c ****                 }
1604:Generated_Source\PSoC4/CyLib.c ****                 else if (maxAmplitude < CY_SYS_CLK_ECO_AMPL_FOR_ATRIM3)
 739              		.loc 1 1604 0
 740 003c 444B     		ldr	r3, .L68+20
 741 003e 9F42     		cmp	r7, r3
 742 0040 14D9     		bls	.L58
1605:Generated_Source\PSoC4/CyLib.c ****                 {
1606:Generated_Source\PSoC4/CyLib.c ****                     aTrim = CY_SYS_CLK_ECO_ATRIM3;
1607:Generated_Source\PSoC4/CyLib.c ****                 }
1608:Generated_Source\PSoC4/CyLib.c ****                 else if (maxAmplitude < CY_SYS_CLK_ECO_AMPL_FOR_ATRIM4)
 743              		.loc 1 1608 0
 744 0042 7D33     		adds	r3, r3, #125
 745 0044 9F42     		cmp	r7, r3
 746 0046 14D9     		bls	.L59
1609:Generated_Source\PSoC4/CyLib.c ****                 {
1610:Generated_Source\PSoC4/CyLib.c ****                     aTrim = CY_SYS_CLK_ECO_ATRIM4;
1611:Generated_Source\PSoC4/CyLib.c ****                 }
1612:Generated_Source\PSoC4/CyLib.c ****                 else if (maxAmplitude < CY_SYS_CLK_ECO_AMPL_FOR_ATRIM5)
 747              		.loc 1 1612 0
 748 0048 424B     		ldr	r3, .L68+24
 749 004a 9F42     		cmp	r7, r3
 750 004c 14D9     		bls	.L60
1613:Generated_Source\PSoC4/CyLib.c ****                 {
1614:Generated_Source\PSoC4/CyLib.c ****                     aTrim = CY_SYS_CLK_ECO_ATRIM5;
1615:Generated_Source\PSoC4/CyLib.c ****                 }
1616:Generated_Source\PSoC4/CyLib.c ****                 else if (maxAmplitude < CY_SYS_CLK_ECO_AMPL_FOR_ATRIM6)
 751              		.loc 1 1616 0
 752 004e 424B     		ldr	r3, .L68+28
 753 0050 9F42     		cmp	r7, r3
 754 0052 14D8     		bhi	.L61
1617:Generated_Source\PSoC4/CyLib.c ****                 {
1618:Generated_Source\PSoC4/CyLib.c ****                     aTrim = CY_SYS_CLK_ECO_ATRIM6;
 755              		.loc 1 1618 0
 756 0054 0623     		movs	r3, #6
 757 0056 0393     		str	r3, [sp, #12]
 758 0058 13E0     		b	.L47
 759              	.L55:
1594:Generated_Source\PSoC4/CyLib.c ****                 }
 760              		.loc 1 1594 0
 761 005a 0023     		movs	r3, #0
 762 005c 0393     		str	r3, [sp, #12]
 763 005e 10E0     		b	.L47
ARM GAS  C:\Users\YUANFA~1\AppData\Local\Temp\ccYDlzYT.s 			page 43


 764              	.L56:
1598:Generated_Source\PSoC4/CyLib.c ****                 }
 765              		.loc 1 1598 0
 766 0060 0123     		movs	r3, #1
 767 0062 0393     		str	r3, [sp, #12]
 768 0064 0DE0     		b	.L47
 769              	.L57:
1602:Generated_Source\PSoC4/CyLib.c ****                 }
 770              		.loc 1 1602 0
 771 0066 0223     		movs	r3, #2
 772 0068 0393     		str	r3, [sp, #12]
 773 006a 0AE0     		b	.L47
 774              	.L58:
1606:Generated_Source\PSoC4/CyLib.c ****                 }
 775              		.loc 1 1606 0
 776 006c 0323     		movs	r3, #3
 777 006e 0393     		str	r3, [sp, #12]
 778 0070 07E0     		b	.L47
 779              	.L59:
1610:Generated_Source\PSoC4/CyLib.c ****                 }
 780              		.loc 1 1610 0
 781 0072 0423     		movs	r3, #4
 782 0074 0393     		str	r3, [sp, #12]
 783 0076 04E0     		b	.L47
 784              	.L60:
1614:Generated_Source\PSoC4/CyLib.c ****                 }
 785              		.loc 1 1614 0
 786 0078 0523     		movs	r3, #5
 787 007a 0393     		str	r3, [sp, #12]
 788 007c 01E0     		b	.L47
 789              	.L61:
1619:Generated_Source\PSoC4/CyLib.c ****                 }
1620:Generated_Source\PSoC4/CyLib.c ****                 else
1621:Generated_Source\PSoC4/CyLib.c ****                 {
1622:Generated_Source\PSoC4/CyLib.c ****                     aTrim = CY_SYS_CLK_ECO_ATRIM7;
 790              		.loc 1 1622 0
 791 007e 0723     		movs	r3, #7
 792 0080 0393     		str	r3, [sp, #12]
 793              	.L47:
 794              	.LVL54:
1623:Generated_Source\PSoC4/CyLib.c ****                 }
1624:Generated_Source\PSoC4/CyLib.c **** 
1625:Generated_Source\PSoC4/CyLib.c ****                 /* Calculate Watchdog trim. */
1626:Generated_Source\PSoC4/CyLib.c ****                 wDTrim = (maxAmplitude < CY_SYS_CLK_ECO_TRIM_BOUNDARY) ? ((maxAmplitude/200u) - 2u)
 795              		.loc 1 1626 0
 796 0082 364B     		ldr	r3, .L68+32
 797 0084 9F42     		cmp	r7, r3
 798 0086 06D8     		bhi	.L62
 799              		.loc 1 1626 0 is_stmt 0 discriminator 1
 800 0088 C821     		movs	r1, #200
 801              	.LVL55:
 802 008a 3800     		movs	r0, r7
 803              	.LVL56:
 804 008c FFF7FEFF 		bl	__aeabi_uidiv
 805              	.LVL57:
 806 0090 831E     		subs	r3, r0, #2
 807 0092 0293     		str	r3, [sp, #8]
ARM GAS  C:\Users\YUANFA~1\AppData\Local\Temp\ccYDlzYT.s 			page 44


 808 0094 01E0     		b	.L48
 809              	.LVL58:
 810              	.L62:
 811              		.loc 1 1626 0
 812 0096 0323     		movs	r3, #3
 813 0098 0293     		str	r3, [sp, #8]
 814              	.LVL59:
 815              	.L48:
1627:Generated_Source\PSoC4/CyLib.c **** 
1628:Generated_Source\PSoC4/CyLib.c ****                 /* Calculate amplifier gain trim. */
1629:Generated_Source\PSoC4/CyLib.c ****                 gmMin = (uint32) (((((CY_SYS_CLK_ECO_GMMIN_COEFFICIENT * freq * cLoad) / 1000) * ((
 816              		.loc 1 1629 0 is_stmt 1 discriminator 4
 817 009a 7443     		muls	r4, r6
 818              	.LVL60:
 819 009c A000     		lsls	r0, r4, #2
 820 009e 0019     		adds	r0, r0, r4
 821 00a0 0301     		lsls	r3, r0, #4
 822 00a2 181B     		subs	r0, r3, r4
 823 00a4 FA21     		movs	r1, #250
 824 00a6 8900     		lsls	r1, r1, #2
 825 00a8 FFF7FEFF 		bl	__aeabi_uidiv
 826              	.LVL61:
 827 00ac 8246     		mov	r10, r0
 828 00ae 2800     		movs	r0, r5
 829 00b0 6043     		muls	r0, r4
 830 00b2 FA21     		movs	r1, #250
 831 00b4 8900     		lsls	r1, r1, #2
 832 00b6 FFF7FEFF 		bl	__aeabi_uidiv
 833              	.LVL62:
 834 00ba 5346     		mov	r3, r10
 835 00bc 5843     		muls	r0, r3
 836 00be 2849     		ldr	r1, .L68+36
 837 00c0 FFF7FEFF 		bl	__aeabi_uidiv
 838              	.LVL63:
1630:Generated_Source\PSoC4/CyLib.c ****                 if (gmMin > 3u)
 839              		.loc 1 1630 0 discriminator 4
 840 00c4 0328     		cmp	r0, #3
 841 00c6 07D8     		bhi	.L63
1631:Generated_Source\PSoC4/CyLib.c ****                 {
1632:Generated_Source\PSoC4/CyLib.c ****                     returnStatus = CYRET_BAD_PARAM;
1633:Generated_Source\PSoC4/CyLib.c ****                     gTrim = 0u;
1634:Generated_Source\PSoC4/CyLib.c ****                 }
1635:Generated_Source\PSoC4/CyLib.c ****                 else if (gmMin > 1u)
 842              		.loc 1 1635 0
 843 00c8 0128     		cmp	r0, #1
 844 00ca 08D8     		bhi	.L64
1636:Generated_Source\PSoC4/CyLib.c ****                 {
1637:Generated_Source\PSoC4/CyLib.c ****                     gTrim = gmMin;
1638:Generated_Source\PSoC4/CyLib.c ****                 }
1639:Generated_Source\PSoC4/CyLib.c ****                 else
1640:Generated_Source\PSoC4/CyLib.c ****                 {
1641:Generated_Source\PSoC4/CyLib.c ****                     gTrim = (gmMin == 1u) ? 0u : 1u;
 845              		.loc 1 1641 0
 846 00cc 0138     		subs	r0, r0, #1
 847              	.LVL64:
 848 00ce 431E     		subs	r3, r0, #1
 849 00d0 9841     		sbcs	r0, r0, r3
ARM GAS  C:\Users\YUANFA~1\AppData\Local\Temp\ccYDlzYT.s 			page 45


 850              	.LVL65:
 851 00d2 C0B2     		uxtb	r0, r0
 852              	.LVL66:
1571:Generated_Source\PSoC4/CyLib.c **** 
 853              		.loc 1 1571 0
 854 00d4 0024     		movs	r4, #0
 855 00d6 03E0     		b	.L49
 856              	.LVL67:
 857              	.L63:
1633:Generated_Source\PSoC4/CyLib.c ****                 }
 858              		.loc 1 1633 0
 859 00d8 0020     		movs	r0, #0
 860              	.LVL68:
1632:Generated_Source\PSoC4/CyLib.c ****                     gTrim = 0u;
 861              		.loc 1 1632 0
 862 00da 0124     		movs	r4, #1
 863 00dc 00E0     		b	.L49
 864              	.LVL69:
 865              	.L64:
1571:Generated_Source\PSoC4/CyLib.c **** 
 866              		.loc 1 1571 0
 867 00de 0024     		movs	r4, #0
 868              	.LVL70:
 869              	.L49:
1642:Generated_Source\PSoC4/CyLib.c ****                 }
1643:Generated_Source\PSoC4/CyLib.c **** 
1644:Generated_Source\PSoC4/CyLib.c ****                 /* Calculate feedback resistor trim */
1645:Generated_Source\PSoC4/CyLib.c ****                 if (freq > CY_SYS_CLK_ECO_FREQ_FOR_FTRIM0)
 870              		.loc 1 1645 0
 871 00e0 204B     		ldr	r3, .L68+40
 872 00e2 9E42     		cmp	r6, r3
 873 00e4 07D8     		bhi	.L65
1646:Generated_Source\PSoC4/CyLib.c ****                 {
1647:Generated_Source\PSoC4/CyLib.c ****                     rTrim = CY_SYS_CLK_ECO_FTRIM0;
1648:Generated_Source\PSoC4/CyLib.c ****                 }
1649:Generated_Source\PSoC4/CyLib.c ****                 else if (freq > CY_SYS_CLK_ECO_FREQ_FOR_FTRIM1)
 874              		.loc 1 1649 0
 875 00e6 204B     		ldr	r3, .L68+44
 876 00e8 9E42     		cmp	r6, r3
 877 00ea 06D8     		bhi	.L66
1650:Generated_Source\PSoC4/CyLib.c ****                 {
1651:Generated_Source\PSoC4/CyLib.c ****                     rTrim = CY_SYS_CLK_ECO_FTRIM1;
1652:Generated_Source\PSoC4/CyLib.c ****                 }
1653:Generated_Source\PSoC4/CyLib.c ****                 else if (freq > CY_SYS_CLK_ECO_FREQ_FOR_FTRIM2)
 878              		.loc 1 1653 0
 879 00ec 1F4B     		ldr	r3, .L68+48
 880 00ee 9E42     		cmp	r6, r3
 881 00f0 05D9     		bls	.L67
1654:Generated_Source\PSoC4/CyLib.c ****                 {
1655:Generated_Source\PSoC4/CyLib.c ****                     rTrim = CY_SYS_CLK_ECO_FTRIM2;
 882              		.loc 1 1655 0
 883 00f2 0222     		movs	r2, #2
 884 00f4 04E0     		b	.L50
 885              	.L65:
1647:Generated_Source\PSoC4/CyLib.c ****                 }
 886              		.loc 1 1647 0
 887 00f6 0022     		movs	r2, #0
ARM GAS  C:\Users\YUANFA~1\AppData\Local\Temp\ccYDlzYT.s 			page 46


 888 00f8 02E0     		b	.L50
 889              	.L66:
1651:Generated_Source\PSoC4/CyLib.c ****                 }
 890              		.loc 1 1651 0
 891 00fa 0122     		movs	r2, #1
 892 00fc 00E0     		b	.L50
 893              	.L67:
1656:Generated_Source\PSoC4/CyLib.c ****                 }
1657:Generated_Source\PSoC4/CyLib.c ****                 else
1658:Generated_Source\PSoC4/CyLib.c ****                 {
1659:Generated_Source\PSoC4/CyLib.c ****                     rTrim = CY_SYS_CLK_ECO_FTRIM3;
 894              		.loc 1 1659 0
 895 00fe 0322     		movs	r2, #3
 896              	.L50:
 897              	.LVL71:
1660:Generated_Source\PSoC4/CyLib.c ****                 }
1661:Generated_Source\PSoC4/CyLib.c **** 
1662:Generated_Source\PSoC4/CyLib.c ****                 /* Calculate filter frequency trim */
1663:Generated_Source\PSoC4/CyLib.c ****                 fTrim = rTrim;
1664:Generated_Source\PSoC4/CyLib.c **** 
1665:Generated_Source\PSoC4/CyLib.c ****                 CySysClkConfigureEcoTrim(wDTrim, aTrim, fTrim, rTrim, gTrim);
 898              		.loc 1 1665 0
 899 0100 0090     		str	r0, [sp]
 900 0102 1300     		movs	r3, r2
 901 0104 0399     		ldr	r1, [sp, #12]
 902 0106 0298     		ldr	r0, [sp, #8]
 903              	.LVL72:
 904 0108 FFF7FEFF 		bl	CySysClkConfigureEcoTrim
 905              	.LVL73:
1666:Generated_Source\PSoC4/CyLib.c **** 
1667:Generated_Source\PSoC4/CyLib.c ****                 /* Automatic Gain Control (AGC) enable */
1668:Generated_Source\PSoC4/CyLib.c ****                 if (maxAmplitude < 2u)
 906              		.loc 1 1668 0
 907 010c 012F     		cmp	r7, #1
 908 010e 05D8     		bhi	.L51
1669:Generated_Source\PSoC4/CyLib.c ****                 {
1670:Generated_Source\PSoC4/CyLib.c ****                     /* The oscillation amplitude is controlled to the level selected by amplitude t
1671:Generated_Source\PSoC4/CyLib.c ****                     CY_SYS_CLK_ECO_CONFIG_REG |= CY_SYS_CLK_ECO_CONFIG_AGC_EN;
 909              		.loc 1 1671 0
 910 0110 174A     		ldr	r2, .L68+52
 911 0112 1168     		ldr	r1, [r2]
 912 0114 0223     		movs	r3, #2
 913 0116 0B43     		orrs	r3, r1
 914 0118 1360     		str	r3, [r2]
 915              	.LVL74:
 916 011a 0AE0     		b	.L46
 917              	.LVL75:
 918              	.L51:
1672:Generated_Source\PSoC4/CyLib.c ****                 }
1673:Generated_Source\PSoC4/CyLib.c ****                 else
1674:Generated_Source\PSoC4/CyLib.c ****                 {
1675:Generated_Source\PSoC4/CyLib.c ****                     /* The amplitude is not explicitly controlled and will grow until it saturates 
1676:Generated_Source\PSoC4/CyLib.c ****                     * supply rail (1.8V nom).
1677:Generated_Source\PSoC4/CyLib.c ****                     */
1678:Generated_Source\PSoC4/CyLib.c ****                     CY_SYS_CLK_ECO_CONFIG_REG &= (uint32) ~CY_SYS_CLK_ECO_CONFIG_AGC_EN;
 919              		.loc 1 1678 0
 920 011c 144A     		ldr	r2, .L68+52
ARM GAS  C:\Users\YUANFA~1\AppData\Local\Temp\ccYDlzYT.s 			page 47


 921 011e 1368     		ldr	r3, [r2]
 922 0120 0221     		movs	r1, #2
 923 0122 8B43     		bics	r3, r1
 924 0124 1360     		str	r3, [r2]
 925              	.LVL76:
 926 0126 04E0     		b	.L46
 927              	.LVL77:
 928              	.L52:
1585:Generated_Source\PSoC4/CyLib.c ****             }
 929              		.loc 1 1585 0
 930 0128 0124     		movs	r4, #1
 931 012a 02E0     		b	.L46
 932              	.L53:
 933 012c 0124     		movs	r4, #1
 934 012e 00E0     		b	.L46
 935              	.L54:
 936 0130 0124     		movs	r4, #1
 937              	.LVL78:
 938              	.L46:
1679:Generated_Source\PSoC4/CyLib.c ****                 }
1680:Generated_Source\PSoC4/CyLib.c ****             }
1681:Generated_Source\PSoC4/CyLib.c **** 
1682:Generated_Source\PSoC4/CyLib.c ****             return (returnStatus);
1683:Generated_Source\PSoC4/CyLib.c ****         }
 939              		.loc 1 1683 0
 940 0132 2000     		movs	r0, r4
 941 0134 04B0     		add	sp, sp, #16
 942              		@ sp needed
 943              	.LVL79:
 944              	.LVL80:
 945              	.LVL81:
 946              	.LVL82:
 947 0136 04BC     		pop	{r2}
 948 0138 9246     		mov	r10, r2
 949 013a F0BD     		pop	{r4, r5, r6, r7, pc}
 950              	.L69:
 951              		.align	2
 952              	.L68:
 953 013c 9F0F0000 		.word	3999
 954 0140 35820000 		.word	33333
 955 0144 57020000 		.word	599
 956 0148 BB020000 		.word	699
 957 014c 1F030000 		.word	799
 958 0150 83030000 		.word	899
 959 0154 7D040000 		.word	1149
 960 0158 FA040000 		.word	1274
 961 015c AF040000 		.word	1199
 962 0160 8074D21A 		.word	450000000
 963 0164 30750000 		.word	30000
 964 0168 C05D0000 		.word	24000
 965 016c 68420000 		.word	17000
 966 0170 08002F40 		.word	1076822024
 967              		.cfi_endproc
 968              	.LFE16:
 969              		.size	CySysClkConfigureEcoDrive, .-CySysClkConfigureEcoDrive
 970              		.section	.text.CySysClkPllStop,"ax",%progbits
 971              		.align	2
ARM GAS  C:\Users\YUANFA~1\AppData\Local\Temp\ccYDlzYT.s 			page 48


 972              		.global	CySysClkPllStop
 973              		.code	16
 974              		.thumb_func
 975              		.type	CySysClkPllStop, %function
 976              	CySysClkPllStop:
 977              	.LFB19:
1684:Generated_Source\PSoC4/CyLib.c **** 
1685:Generated_Source\PSoC4/CyLib.c ****     #endif /* CY_IP_ECO_BLESS */
1686:Generated_Source\PSoC4/CyLib.c **** 
1687:Generated_Source\PSoC4/CyLib.c **** #endif /* (CY_IP_ECO) */
1688:Generated_Source\PSoC4/CyLib.c **** 
1689:Generated_Source\PSoC4/CyLib.c **** 
1690:Generated_Source\PSoC4/CyLib.c **** #if (CY_IP_PLL)
1691:Generated_Source\PSoC4/CyLib.c ****     /*******************************************************************************
1692:Generated_Source\PSoC4/CyLib.c ****     * Function Name: CySysClkPllStart
1693:Generated_Source\PSoC4/CyLib.c ****     ****************************************************************************//**
1694:Generated_Source\PSoC4/CyLib.c ****     *
1695:Generated_Source\PSoC4/CyLib.c ****     * Enables the PLL. Optionally waits for it to become stable. Waits at least
1696:Generated_Source\PSoC4/CyLib.c ****     * 250 us or until it is detected that the PLL is stable.
1697:Generated_Source\PSoC4/CyLib.c ****     *
1698:Generated_Source\PSoC4/CyLib.c ****     * Clears the unlock occurred status bit by calling CySysClkPllGetUnlockStatus(),
1699:Generated_Source\PSoC4/CyLib.c ****     * once the PLL is locked if the wait parameter is 1).
1700:Generated_Source\PSoC4/CyLib.c ****     *
1701:Generated_Source\PSoC4/CyLib.c ****     * This API is available only for PSoC 4200L / 4100S / 4500 with PLL devices.
1702:Generated_Source\PSoC4/CyLib.c ****     *
1703:Generated_Source\PSoC4/CyLib.c ****     * \param PLL:
1704:Generated_Source\PSoC4/CyLib.c ****     * 0   PLL#0
1705:Generated_Source\PSoC4/CyLib.c ****     * 1   PLL#1 (available only for PSoC 4200L)
1706:Generated_Source\PSoC4/CyLib.c ****     *
1707:Generated_Source\PSoC4/CyLib.c ****     * \param wait:
1708:Generated_Source\PSoC4/CyLib.c ****     * 0 - Return immediately after configuration.
1709:Generated_Source\PSoC4/CyLib.c ****     * 1 - Wait for PLL lock or timeout. This API shall use the CyDelayUs() to
1710:Generated_Source\PSoC4/CyLib.c ****     * implement the timeout feature.
1711:Generated_Source\PSoC4/CyLib.c ****     *
1712:Generated_Source\PSoC4/CyLib.c ****     * \return CYRET_SUCCESS Completed successfully.
1713:Generated_Source\PSoC4/CyLib.c ****     * \return CYRET_TIMEOUT The timeout occurred without detecting a stable clock.
1714:Generated_Source\PSoC4/CyLib.c ****     * If the input source of the clock is jittery, then the lock indication may
1715:Generated_Source\PSoC4/CyLib.c ****     * not occur. However, after the timeout has expired, the generated PLL clock can
1716:Generated_Source\PSoC4/CyLib.c ****     * still be used.
1717:Generated_Source\PSoC4/CyLib.c ****     * \return CYRET_BAD_PARAM - Either the PLL or wait parameter is invalid.
1718:Generated_Source\PSoC4/CyLib.c ****     *
1719:Generated_Source\PSoC4/CyLib.c ****     *******************************************************************************/
1720:Generated_Source\PSoC4/CyLib.c ****     cystatus CySysClkPllStart(uint32 pll, uint32 wait)
1721:Generated_Source\PSoC4/CyLib.c ****     {
1722:Generated_Source\PSoC4/CyLib.c ****         uint32 counts = CY_SYS_CLK_PLL_MAX_STARTUP_US;
1723:Generated_Source\PSoC4/CyLib.c ****         uint8  interruptState;
1724:Generated_Source\PSoC4/CyLib.c ****         cystatus returnStatus = CYRET_SUCCESS;
1725:Generated_Source\PSoC4/CyLib.c **** 
1726:Generated_Source\PSoC4/CyLib.c ****         if((pll < CY_IP_PLL_NR) && (wait <= 1u))
1727:Generated_Source\PSoC4/CyLib.c ****         {
1728:Generated_Source\PSoC4/CyLib.c ****             interruptState = CyEnterCriticalSection();
1729:Generated_Source\PSoC4/CyLib.c **** 
1730:Generated_Source\PSoC4/CyLib.c ****             /* Isolate PLL outputs */
1731:Generated_Source\PSoC4/CyLib.c ****             CY_SYS_CLK_PLL_BASE.pll[pll].config &= (uint32) ~CY_SYS_CLK_PLL_CONFIG_ISOLATE;
1732:Generated_Source\PSoC4/CyLib.c **** 
1733:Generated_Source\PSoC4/CyLib.c ****             /* Enable PLL */
1734:Generated_Source\PSoC4/CyLib.c ****             CY_SYS_CLK_PLL_BASE.pll[pll].config |= CY_SYS_CLK_PLL_CONFIG_ENABLE;
ARM GAS  C:\Users\YUANFA~1\AppData\Local\Temp\ccYDlzYT.s 			page 49


1735:Generated_Source\PSoC4/CyLib.c **** 
1736:Generated_Source\PSoC4/CyLib.c ****             CyExitCriticalSection(interruptState);
1737:Generated_Source\PSoC4/CyLib.c **** 
1738:Generated_Source\PSoC4/CyLib.c ****             /* De-isolate >= CY_SYS_CLK_PLL_MIN_STARTUP_US after PLL enabled */
1739:Generated_Source\PSoC4/CyLib.c ****             CyDelayUs(CY_SYS_CLK_PLL_MIN_STARTUP_US);
1740:Generated_Source\PSoC4/CyLib.c ****             interruptState = CyEnterCriticalSection();
1741:Generated_Source\PSoC4/CyLib.c ****             CY_SYS_CLK_PLL_BASE.pll[pll].config |= CY_SYS_CLK_PLL_CONFIG_ISOLATE;
1742:Generated_Source\PSoC4/CyLib.c ****             CyExitCriticalSection(interruptState);
1743:Generated_Source\PSoC4/CyLib.c **** 
1744:Generated_Source\PSoC4/CyLib.c ****             if(wait != 0u)
1745:Generated_Source\PSoC4/CyLib.c ****             {
1746:Generated_Source\PSoC4/CyLib.c ****                 returnStatus = CYRET_TIMEOUT;
1747:Generated_Source\PSoC4/CyLib.c **** 
1748:Generated_Source\PSoC4/CyLib.c ****                 while(0u != counts)
1749:Generated_Source\PSoC4/CyLib.c ****                 {
1750:Generated_Source\PSoC4/CyLib.c **** 
1751:Generated_Source\PSoC4/CyLib.c ****                     if(0u != CySysClkPllGetLockStatus(pll))
1752:Generated_Source\PSoC4/CyLib.c ****                     {
1753:Generated_Source\PSoC4/CyLib.c ****                         returnStatus = CYRET_SUCCESS;
1754:Generated_Source\PSoC4/CyLib.c ****                         (void) CySysClkPllGetUnlockStatus(pll);
1755:Generated_Source\PSoC4/CyLib.c ****                         break;
1756:Generated_Source\PSoC4/CyLib.c ****                     }
1757:Generated_Source\PSoC4/CyLib.c **** 
1758:Generated_Source\PSoC4/CyLib.c ****                     CyDelayUs(1u);
1759:Generated_Source\PSoC4/CyLib.c ****                     counts--;
1760:Generated_Source\PSoC4/CyLib.c ****                 }
1761:Generated_Source\PSoC4/CyLib.c ****             }
1762:Generated_Source\PSoC4/CyLib.c ****         }
1763:Generated_Source\PSoC4/CyLib.c ****         else
1764:Generated_Source\PSoC4/CyLib.c ****         {
1765:Generated_Source\PSoC4/CyLib.c ****             returnStatus = CYRET_BAD_PARAM;
1766:Generated_Source\PSoC4/CyLib.c ****         }
1767:Generated_Source\PSoC4/CyLib.c **** 
1768:Generated_Source\PSoC4/CyLib.c ****         return (returnStatus);
1769:Generated_Source\PSoC4/CyLib.c ****     }
1770:Generated_Source\PSoC4/CyLib.c **** 
1771:Generated_Source\PSoC4/CyLib.c **** 
1772:Generated_Source\PSoC4/CyLib.c ****     /*******************************************************************************
1773:Generated_Source\PSoC4/CyLib.c ****     * Function Name: CySysClkPllGetLockStatus
1774:Generated_Source\PSoC4/CyLib.c ****     ****************************************************************************//**
1775:Generated_Source\PSoC4/CyLib.c ****     *
1776:Generated_Source\PSoC4/CyLib.c ****     * Returns non-zero if the output of the specified PLL output is locked.
1777:Generated_Source\PSoC4/CyLib.c ****     *
1778:Generated_Source\PSoC4/CyLib.c ****     * This API is available only for PSoC 4200L / 4100S / 4500 with PLL devices.
1779:Generated_Source\PSoC4/CyLib.c ****     *
1780:Generated_Source\PSoC4/CyLib.c ****     * PLL:
1781:Generated_Source\PSoC4/CyLib.c ****     *  0   PLL#0
1782:Generated_Source\PSoC4/CyLib.c ****     *  1   PLL#1 (available only for PSoC 4200L)
1783:Generated_Source\PSoC4/CyLib.c ****     *
1784:Generated_Source\PSoC4/CyLib.c ****     * \return A non-zero value when the specified PLL is locked.
1785:Generated_Source\PSoC4/CyLib.c ****     *
1786:Generated_Source\PSoC4/CyLib.c ****     *******************************************************************************/
1787:Generated_Source\PSoC4/CyLib.c ****     uint32 CySysClkPllGetLockStatus(uint32 pll)
1788:Generated_Source\PSoC4/CyLib.c ****     {
1789:Generated_Source\PSoC4/CyLib.c ****         uint8  interruptState;
1790:Generated_Source\PSoC4/CyLib.c ****         uint32 returnStatus;
1791:Generated_Source\PSoC4/CyLib.c **** 
ARM GAS  C:\Users\YUANFA~1\AppData\Local\Temp\ccYDlzYT.s 			page 50


1792:Generated_Source\PSoC4/CyLib.c ****         CYASSERT(pll < CY_IP_PLL_NR);
1793:Generated_Source\PSoC4/CyLib.c **** 
1794:Generated_Source\PSoC4/CyLib.c ****         interruptState = CyEnterCriticalSection();
1795:Generated_Source\PSoC4/CyLib.c **** 
1796:Generated_Source\PSoC4/CyLib.c ****         /* PLL is locked if reported so for two consecutive read. */
1797:Generated_Source\PSoC4/CyLib.c ****         returnStatus = CY_SYS_CLK_PLL_BASE.pll[pll].status & CY_SYS_CLK_PLL_STATUS_LOCKED;
1798:Generated_Source\PSoC4/CyLib.c ****         if(0u != returnStatus)
1799:Generated_Source\PSoC4/CyLib.c ****         {
1800:Generated_Source\PSoC4/CyLib.c ****             returnStatus = CY_SYS_CLK_PLL_BASE.pll[pll].status & CY_SYS_CLK_PLL_STATUS_LOCKED;
1801:Generated_Source\PSoC4/CyLib.c ****         }
1802:Generated_Source\PSoC4/CyLib.c **** 
1803:Generated_Source\PSoC4/CyLib.c ****         CyExitCriticalSection(interruptState);
1804:Generated_Source\PSoC4/CyLib.c **** 
1805:Generated_Source\PSoC4/CyLib.c ****         return (returnStatus);
1806:Generated_Source\PSoC4/CyLib.c ****     }
1807:Generated_Source\PSoC4/CyLib.c **** 
1808:Generated_Source\PSoC4/CyLib.c ****     /*******************************************************************************
1809:Generated_Source\PSoC4/CyLib.c ****     * Function Name: CySysClkPllStop
1810:Generated_Source\PSoC4/CyLib.c ****     ****************************************************************************//**
1811:Generated_Source\PSoC4/CyLib.c ****     *
1812:Generated_Source\PSoC4/CyLib.c ****     * Disables the PLL.
1813:Generated_Source\PSoC4/CyLib.c ****     *
1814:Generated_Source\PSoC4/CyLib.c ****     * Ensures that either PLL is not the source of HFCLK before it is disabled,
1815:Generated_Source\PSoC4/CyLib.c ****     * otherwise, the CPU will halt.
1816:Generated_Source\PSoC4/CyLib.c ****     *
1817:Generated_Source\PSoC4/CyLib.c ****     * This API is available only for PSoC 4200L / 4100S / 4500 with PLL devices.
1818:Generated_Source\PSoC4/CyLib.c ****     *
1819:Generated_Source\PSoC4/CyLib.c ****     * PLL:
1820:Generated_Source\PSoC4/CyLib.c ****     *  0   PLL#0
1821:Generated_Source\PSoC4/CyLib.c ****     *  1   PLL#1 (available only for PSoC 4200L)
1822:Generated_Source\PSoC4/CyLib.c ****     *
1823:Generated_Source\PSoC4/CyLib.c ****     *******************************************************************************/
1824:Generated_Source\PSoC4/CyLib.c ****     void CySysClkPllStop(uint32 pll)
1825:Generated_Source\PSoC4/CyLib.c ****     {
 978              		.loc 1 1825 0
 979              		.cfi_startproc
 980              		@ args = 0, pretend = 0, frame = 0
 981              		@ frame_needed = 0, uses_anonymous_args = 0
 982              	.LVL83:
 983 0000 70B5     		push	{r4, r5, r6, lr}
 984              		.cfi_def_cfa_offset 16
 985              		.cfi_offset 4, -16
 986              		.cfi_offset 5, -12
 987              		.cfi_offset 6, -8
 988              		.cfi_offset 14, -4
 989 0002 041E     		subs	r4, r0, #0
1826:Generated_Source\PSoC4/CyLib.c ****         uint8  interruptState;
1827:Generated_Source\PSoC4/CyLib.c **** 
1828:Generated_Source\PSoC4/CyLib.c ****         if (pll < CY_IP_PLL_NR)
 990              		.loc 1 1828 0
 991 0004 0CD1     		bne	.L70
1829:Generated_Source\PSoC4/CyLib.c ****         {
1830:Generated_Source\PSoC4/CyLib.c ****             interruptState = CyEnterCriticalSection();
 992              		.loc 1 1830 0
 993 0006 FFF7FEFF 		bl	CyEnterCriticalSection
 994              	.LVL84:
1831:Generated_Source\PSoC4/CyLib.c ****             CY_SYS_CLK_PLL_BASE.pll[pll].config &= (uint32) ~(CY_SYS_CLK_PLL_CONFIG_ISOLATE | CY_SY
ARM GAS  C:\Users\YUANFA~1\AppData\Local\Temp\ccYDlzYT.s 			page 51


 995              		.loc 1 1831 0
 996 000a 064A     		ldr	r2, .L72
 997 000c 6100     		lsls	r1, r4, #1
 998 000e 0D19     		adds	r5, r1, r4
 999 0010 AB00     		lsls	r3, r5, #2
 1000 0012 9B58     		ldr	r3, [r3, r2]
 1001 0014 9B00     		lsls	r3, r3, #2
 1002 0016 9B08     		lsrs	r3, r3, #2
 1003 0018 A900     		lsls	r1, r5, #2
 1004 001a 8B50     		str	r3, [r1, r2]
1832:Generated_Source\PSoC4/CyLib.c ****             CyExitCriticalSection(interruptState);
 1005              		.loc 1 1832 0
 1006 001c FFF7FEFF 		bl	CyExitCriticalSection
 1007              	.LVL85:
 1008              	.L70:
1833:Generated_Source\PSoC4/CyLib.c ****         }
1834:Generated_Source\PSoC4/CyLib.c ****     }
 1009              		.loc 1 1834 0
 1010              		@ sp needed
 1011              	.LVL86:
 1012 0020 70BD     		pop	{r4, r5, r6, pc}
 1013              	.L73:
 1014 0022 C046     		.align	2
 1015              	.L72:
 1016 0024 14002F40 		.word	1076822036
 1017              		.cfi_endproc
 1018              	.LFE19:
 1019              		.size	CySysClkPllStop, .-CySysClkPllStop
 1020              		.section	.text.CySysClkPllSetBypassMode,"ax",%progbits
 1021              		.align	2
 1022              		.global	CySysClkPllSetBypassMode
 1023              		.code	16
 1024              		.thumb_func
 1025              		.type	CySysClkPllSetBypassMode, %function
 1026              	CySysClkPllSetBypassMode:
 1027              	.LFB21:
1835:Generated_Source\PSoC4/CyLib.c **** 
1836:Generated_Source\PSoC4/CyLib.c **** 
1837:Generated_Source\PSoC4/CyLib.c ****     /*******************************************************************************
1838:Generated_Source\PSoC4/CyLib.c ****     * Function Name: CySysClkPllSetPQ
1839:Generated_Source\PSoC4/CyLib.c ****     ****************************************************************************//**
1840:Generated_Source\PSoC4/CyLib.c ****     *
1841:Generated_Source\PSoC4/CyLib.c ****     * Sets feedback (P) and reference the (Q) divider value. This API also sets the
1842:Generated_Source\PSoC4/CyLib.c ****     * programmable charge pump current value. Note that the PLL has to be disabled
1843:Generated_Source\PSoC4/CyLib.c ****     * before calling this API. If this function is called while any PLL is sourcing,
1844:Generated_Source\PSoC4/CyLib.c ****     * the SYSCLK will return an error.
1845:Generated_Source\PSoC4/CyLib.c ****     *
1846:Generated_Source\PSoC4/CyLib.c ****     * The PLL must not be the system clock source when calling this function. The
1847:Generated_Source\PSoC4/CyLib.c ****     * PLL output will glitch during this function call.
1848:Generated_Source\PSoC4/CyLib.c ****     *
1849:Generated_Source\PSoC4/CyLib.c ****     * This API is available only for PSoC 4200L / 4100S / 4500 with PLL devices.
1850:Generated_Source\PSoC4/CyLib.c ****     *
1851:Generated_Source\PSoC4/CyLib.c ****     * \param PLL:
1852:Generated_Source\PSoC4/CyLib.c ****     *  0   PLL#0
1853:Generated_Source\PSoC4/CyLib.c ****     *  1   PLL#1 (available only for PSoC 4200L)
1854:Generated_Source\PSoC4/CyLib.c ****     *
1855:Generated_Source\PSoC4/CyLib.c ****     * \param feedback The P divider. Range 4 - 259. Control bits for the feedback
ARM GAS  C:\Users\YUANFA~1\AppData\Local\Temp\ccYDlzYT.s 			page 52


1856:Generated_Source\PSoC4/CyLib.c ****     * divider.
1857:Generated_Source\PSoC4/CyLib.c ****     *
1858:Generated_Source\PSoC4/CyLib.c ****     * \param reference The Q divider. Range 1 - 64. Divide by the reference.
1859:Generated_Source\PSoC4/CyLib.c ****     *
1860:Generated_Source\PSoC4/CyLib.c ****     * \param current Charge the pump current in uA. The 2 uA for output frequencies
1861:Generated_Source\PSoC4/CyLib.c ****     * of 67 MHz or less, and 3 uA for higher output frequencies. The default
1862:Generated_Source\PSoC4/CyLib.c ****     * value is 2 uA.
1863:Generated_Source\PSoC4/CyLib.c ****     *
1864:Generated_Source\PSoC4/CyLib.c ****     * \return CYRET_SUCCESS Completed successfully.
1865:Generated_Source\PSoC4/CyLib.c ****     * \return CYRET_BAD_PARAM The parameters are out of range or the specified PLL
1866:Generated_Source\PSoC4/CyLib.c ****     * sources the system clock.
1867:Generated_Source\PSoC4/CyLib.c ****     *
1868:Generated_Source\PSoC4/CyLib.c ****     *******************************************************************************/
1869:Generated_Source\PSoC4/CyLib.c ****     cystatus CySysClkPllSetPQ(uint32 pll, uint32 feedback, uint32 reference, uint32 current)
1870:Generated_Source\PSoC4/CyLib.c ****     {
1871:Generated_Source\PSoC4/CyLib.c ****         uint32   regTmp;
1872:Generated_Source\PSoC4/CyLib.c ****         cystatus tmp;
1873:Generated_Source\PSoC4/CyLib.c ****         uint8    interruptState;
1874:Generated_Source\PSoC4/CyLib.c ****         cystatus returnStatus = CYRET_BAD_PARAM;
1875:Generated_Source\PSoC4/CyLib.c **** 
1876:Generated_Source\PSoC4/CyLib.c ****         interruptState = CyEnterCriticalSection();
1877:Generated_Source\PSoC4/CyLib.c **** 
1878:Generated_Source\PSoC4/CyLib.c ****         tmp = CySysClkPllConfigChangeAllowed(pll);
1879:Generated_Source\PSoC4/CyLib.c **** 
1880:Generated_Source\PSoC4/CyLib.c ****         if ((pll < CY_IP_PLL_NR) &&
1881:Generated_Source\PSoC4/CyLib.c ****             (feedback  >= CY_SYS_CLK_PLL_CONFIG_FEEDBACK_DIV_MIN)  && (feedback  <= CY_SYS_CLK_PLL_
1882:Generated_Source\PSoC4/CyLib.c ****             (reference >= CY_SYS_CLK_PLL_CONFIG_REFERENCE_DIV_MIN) && (reference <= CY_SYS_CLK_PLL_
1883:Generated_Source\PSoC4/CyLib.c ****             (current   >= CY_SYS_CLK_PLL_CONFIG_ICP_SEL_MIN )      && (current   <= CY_SYS_CLK_PLL_
1884:Generated_Source\PSoC4/CyLib.c ****             (CYRET_SUCCESS == tmp))
1885:Generated_Source\PSoC4/CyLib.c ****         {
1886:Generated_Source\PSoC4/CyLib.c ****             /* Set new feedback, reference and current values */
1887:Generated_Source\PSoC4/CyLib.c ****             regTmp  = CY_SYS_CLK_PLL_BASE.pll[pll].config & (uint32) ~(CY_SYS_CLK_PLL_CONFIG_FEEDBA
1888:Generated_Source\PSoC4/CyLib.c ****                                                                        CY_SYS_CLK_PLL_CONFIG_REFERE
1889:Generated_Source\PSoC4/CyLib.c ****                                                                        CY_SYS_CLK_PLL_CONFIG_ICP_SE
1890:Generated_Source\PSoC4/CyLib.c **** 
1891:Generated_Source\PSoC4/CyLib.c ****             regTmp |= ((feedback << CY_SYS_CLK_PLL_CONFIG_FEEDBACK_DIV_SHIFT) & CY_SYS_CLK_PLL_CONF
1892:Generated_Source\PSoC4/CyLib.c ****             regTmp |= (((reference - 1u) << CY_SYS_CLK_PLL_CONFIG_REFERENCE_DIV_SHIFT) & CY_SYS_CLK
1893:Generated_Source\PSoC4/CyLib.c ****             regTmp |= ((current << CY_SYS_CLK_PLL_CONFIG_ICP_SEL_SHIFT) & CY_SYS_CLK_PLL_CONFIG_ICP
1894:Generated_Source\PSoC4/CyLib.c **** 
1895:Generated_Source\PSoC4/CyLib.c ****             CY_SYS_CLK_PLL_BASE.pll[pll].config = regTmp;
1896:Generated_Source\PSoC4/CyLib.c **** 
1897:Generated_Source\PSoC4/CyLib.c ****             returnStatus = CYRET_SUCCESS;
1898:Generated_Source\PSoC4/CyLib.c ****         }
1899:Generated_Source\PSoC4/CyLib.c **** 
1900:Generated_Source\PSoC4/CyLib.c ****         CyExitCriticalSection(interruptState);
1901:Generated_Source\PSoC4/CyLib.c **** 
1902:Generated_Source\PSoC4/CyLib.c ****         return (returnStatus);
1903:Generated_Source\PSoC4/CyLib.c ****     }
1904:Generated_Source\PSoC4/CyLib.c **** 
1905:Generated_Source\PSoC4/CyLib.c **** 
1906:Generated_Source\PSoC4/CyLib.c ****     /*******************************************************************************
1907:Generated_Source\PSoC4/CyLib.c ****     * Function Name: CySysClkPllSetBypassMode
1908:Generated_Source\PSoC4/CyLib.c ****     ****************************************************************************//**
1909:Generated_Source\PSoC4/CyLib.c ****     *
1910:Generated_Source\PSoC4/CyLib.c ****     * Sets the bypass mode for the specified PLL.
1911:Generated_Source\PSoC4/CyLib.c ****     *
1912:Generated_Source\PSoC4/CyLib.c ****     * The PLL must not be the system clock source when calling this function.
ARM GAS  C:\Users\YUANFA~1\AppData\Local\Temp\ccYDlzYT.s 			page 53


1913:Generated_Source\PSoC4/CyLib.c ****     * The PLL output will glitch during this function call.
1914:Generated_Source\PSoC4/CyLib.c ****     *
1915:Generated_Source\PSoC4/CyLib.c ****     * When the PLL's reference input is higher than HFCLK frequency the device may
1916:Generated_Source\PSoC4/CyLib.c ****     * lock due to incorrect flash wait cycle configuration and bypass switches from
1917:Generated_Source\PSoC4/CyLib.c ****     * PLL output to the reference input. See description of
1918:Generated_Source\PSoC4/CyLib.c ****     * CySysFlashSetWaitCycles() for more information.
1919:Generated_Source\PSoC4/CyLib.c ****     *
1920:Generated_Source\PSoC4/CyLib.c ****     * This API is available only for PSoC 4200L / 4100S / 4500 swith PLL devices.
1921:Generated_Source\PSoC4/CyLib.c ****     *
1922:Generated_Source\PSoC4/CyLib.c ****     * \param PLL:
1923:Generated_Source\PSoC4/CyLib.c ****     *  0   PLL#0
1924:Generated_Source\PSoC4/CyLib.c ****     *  1   PLL#1 (available only for PSoC 4200L)
1925:Generated_Source\PSoC4/CyLib.c ****     *
1926:Generated_Source\PSoC4/CyLib.c ****     * \param bypass: The bypass mode.
1927:Generated_Source\PSoC4/CyLib.c ****     * CY_SYS_PLL_BYPASS_AUTO - Automatic usage of the lock indicator. When unlocked,
1928:Generated_Source\PSoC4/CyLib.c ****     * automatically selects PLL the reference input (bypass mode). When locked,
1929:Generated_Source\PSoC4/CyLib.c ****     * automatically selects the PLL output.
1930:Generated_Source\PSoC4/CyLib.c ****     *
1931:Generated_Source\PSoC4/CyLib.c ****     * CY_SYS_PLL_BYPASS_PLL_REF - Selects the PLL reference input (bypass mode).
1932:Generated_Source\PSoC4/CyLib.c ****     * Ignores the lock indicator.
1933:Generated_Source\PSoC4/CyLib.c ****     *
1934:Generated_Source\PSoC4/CyLib.c ****     * CY_SYS_PLL_BYPASS_PLL_OUT - Selects the PLL output.  Ignores the lock indicator.
1935:Generated_Source\PSoC4/CyLib.c ****     *
1936:Generated_Source\PSoC4/CyLib.c ****     *******************************************************************************/
1937:Generated_Source\PSoC4/CyLib.c ****     void CySysClkPllSetBypassMode(uint32 pll, uint32 bypass)
1938:Generated_Source\PSoC4/CyLib.c ****     {
 1028              		.loc 1 1938 0
 1029              		.cfi_startproc
 1030              		@ args = 0, pretend = 0, frame = 0
 1031              		@ frame_needed = 0, uses_anonymous_args = 0
 1032              	.LVL87:
 1033 0000 70B5     		push	{r4, r5, r6, lr}
 1034              		.cfi_def_cfa_offset 16
 1035              		.cfi_offset 4, -16
 1036              		.cfi_offset 5, -12
 1037              		.cfi_offset 6, -8
 1038              		.cfi_offset 14, -4
 1039 0002 0400     		movs	r4, r0
 1040 0004 0D00     		movs	r5, r1
1939:Generated_Source\PSoC4/CyLib.c ****         uint32 regTmp;
1940:Generated_Source\PSoC4/CyLib.c ****         uint8  interruptState;
1941:Generated_Source\PSoC4/CyLib.c **** 
1942:Generated_Source\PSoC4/CyLib.c ****         interruptState = CyEnterCriticalSection();
 1041              		.loc 1 1942 0
 1042 0006 FFF7FEFF 		bl	CyEnterCriticalSection
 1043              	.LVL88:
1943:Generated_Source\PSoC4/CyLib.c **** 
1944:Generated_Source\PSoC4/CyLib.c ****         if ((pll < CY_IP_PLL_NR) && (bypass <= CY_SYS_PLL_BYPASS_PLL_OUT))
 1044              		.loc 1 1944 0
 1045 000a 002C     		cmp	r4, #0
 1046 000c 0DD1     		bne	.L75
 1047              		.loc 1 1944 0 is_stmt 0 discriminator 1
 1048 000e 032D     		cmp	r5, #3
 1049 0010 0BD8     		bhi	.L75
1945:Generated_Source\PSoC4/CyLib.c ****         {
1946:Generated_Source\PSoC4/CyLib.c ****             regTmp  = CY_SYS_CLK_PLL_BASE.pll[pll].config & (uint32) ~CY_SYS_CLK_PLL_CONFIG_BYPASS_
 1050              		.loc 1 1946 0 is_stmt 1
ARM GAS  C:\Users\YUANFA~1\AppData\Local\Temp\ccYDlzYT.s 			page 54


 1051 0012 074A     		ldr	r2, .L76
 1052 0014 6100     		lsls	r1, r4, #1
 1053 0016 0E19     		adds	r6, r1, r4
 1054 0018 B300     		lsls	r3, r6, #2
 1055 001a 9E58     		ldr	r6, [r3, r2]
 1056 001c 054B     		ldr	r3, .L76+4
 1057 001e 3340     		ands	r3, r6
 1058              	.LVL89:
1947:Generated_Source\PSoC4/CyLib.c ****             regTmp |=  (uint32)(bypass << CY_SYS_CLK_PLL_CONFIG_BYPASS_SEL_SHIFT);
 1059              		.loc 1 1947 0
 1060 0020 2D05     		lsls	r5, r5, #20
 1061              	.LVL90:
 1062 0022 1D43     		orrs	r5, r3
 1063              	.LVL91:
1948:Generated_Source\PSoC4/CyLib.c ****             CY_SYS_CLK_PLL_BASE.pll[pll].config = regTmp;
 1064              		.loc 1 1948 0
 1065 0024 0C19     		adds	r4, r1, r4
 1066              	.LVL92:
 1067 0026 A300     		lsls	r3, r4, #2
 1068 0028 9D50     		str	r5, [r3, r2]
 1069              	.LVL93:
 1070              	.L75:
1949:Generated_Source\PSoC4/CyLib.c ****         }
1950:Generated_Source\PSoC4/CyLib.c **** 
1951:Generated_Source\PSoC4/CyLib.c ****         CyExitCriticalSection(interruptState);
 1071              		.loc 1 1951 0
 1072 002a FFF7FEFF 		bl	CyExitCriticalSection
 1073              	.LVL94:
1952:Generated_Source\PSoC4/CyLib.c ****     }
 1074              		.loc 1 1952 0
 1075              		@ sp needed
 1076 002e 70BD     		pop	{r4, r5, r6, pc}
 1077              	.L77:
 1078              		.align	2
 1079              	.L76:
 1080 0030 14002F40 		.word	1076822036
 1081 0034 FFFFCFFF 		.word	-3145729
 1082              		.cfi_endproc
 1083              	.LFE21:
 1084              		.size	CySysClkPllSetBypassMode, .-CySysClkPllSetBypassMode
 1085              		.section	.text.CySysClkPllGetUnlockStatus,"ax",%progbits
 1086              		.align	2
 1087              		.global	CySysClkPllGetUnlockStatus
 1088              		.code	16
 1089              		.thumb_func
 1090              		.type	CySysClkPllGetUnlockStatus, %function
 1091              	CySysClkPllGetUnlockStatus:
 1092              	.LFB24:
1953:Generated_Source\PSoC4/CyLib.c **** 
1954:Generated_Source\PSoC4/CyLib.c **** 
1955:Generated_Source\PSoC4/CyLib.c ****     /*******************************************************************************
1956:Generated_Source\PSoC4/CyLib.c ****     * Function Name: CySysClkPllGetBypassMode
1957:Generated_Source\PSoC4/CyLib.c ****     ****************************************************************************//**
1958:Generated_Source\PSoC4/CyLib.c ****     *
1959:Generated_Source\PSoC4/CyLib.c ****     *  Gets the bypass mode for the specified PLL.
1960:Generated_Source\PSoC4/CyLib.c ****     *  This API is available only for PSoC 4200L / 4100S / 4500 with PLL devices.
1961:Generated_Source\PSoC4/CyLib.c ****     *
ARM GAS  C:\Users\YUANFA~1\AppData\Local\Temp\ccYDlzYT.s 			page 55


1962:Generated_Source\PSoC4/CyLib.c ****     *  \return bypass: Bypass mode.
1963:Generated_Source\PSoC4/CyLib.c ****     *   The same as the parameter of the CySysClkPllSetBypassMode().
1964:Generated_Source\PSoC4/CyLib.c ****     *
1965:Generated_Source\PSoC4/CyLib.c ****     *******************************************************************************/
1966:Generated_Source\PSoC4/CyLib.c ****     static uint32 CySysClkPllGetBypassMode(uint32 pll)
1967:Generated_Source\PSoC4/CyLib.c ****     {
1968:Generated_Source\PSoC4/CyLib.c ****         uint32 returnValue;
1969:Generated_Source\PSoC4/CyLib.c ****         uint8  interruptState;
1970:Generated_Source\PSoC4/CyLib.c **** 
1971:Generated_Source\PSoC4/CyLib.c ****         CYASSERT(pll < CY_IP_PLL_NR);
1972:Generated_Source\PSoC4/CyLib.c **** 
1973:Generated_Source\PSoC4/CyLib.c ****         interruptState = CyEnterCriticalSection();
1974:Generated_Source\PSoC4/CyLib.c **** 
1975:Generated_Source\PSoC4/CyLib.c ****         returnValue = CY_SYS_CLK_PLL_BASE.pll[pll].config & CY_SYS_CLK_PLL_CONFIG_BYPASS_SEL_MASK;
1976:Generated_Source\PSoC4/CyLib.c ****         returnValue =  returnValue >> CY_SYS_CLK_PLL_CONFIG_BYPASS_SEL_SHIFT;
1977:Generated_Source\PSoC4/CyLib.c **** 
1978:Generated_Source\PSoC4/CyLib.c ****         CyExitCriticalSection(interruptState);
1979:Generated_Source\PSoC4/CyLib.c **** 
1980:Generated_Source\PSoC4/CyLib.c ****         return (returnValue);
1981:Generated_Source\PSoC4/CyLib.c ****     }
1982:Generated_Source\PSoC4/CyLib.c **** 
1983:Generated_Source\PSoC4/CyLib.c **** 
1984:Generated_Source\PSoC4/CyLib.c ****     /*******************************************************************************
1985:Generated_Source\PSoC4/CyLib.c ****     * Function Name: CySysClkPllConfigChangeAllowed
1986:Generated_Source\PSoC4/CyLib.c ****     ****************************************************************************//**
1987:Generated_Source\PSoC4/CyLib.c ****     *
1988:Generated_Source\PSoC4/CyLib.c ****     *  The function returns non-zero value if the specified PLL sources the System
1989:Generated_Source\PSoC4/CyLib.c ****     *  clock and the PLL is not in the bypass mode.
1990:Generated_Source\PSoC4/CyLib.c ****     *
1991:Generated_Source\PSoC4/CyLib.c ****     *  This API is available only for PSoC 4200L / 4100S / 4500 with PLL devices.
1992:Generated_Source\PSoC4/CyLib.c ****     *
1993:Generated_Source\PSoC4/CyLib.c ****     *  \param PLL:
1994:Generated_Source\PSoC4/CyLib.c ****     *   0   PLL#0
1995:Generated_Source\PSoC4/CyLib.c ****     *   1   PLL#1 (available only for PSoC 4200L)
1996:Generated_Source\PSoC4/CyLib.c ****     *
1997:Generated_Source\PSoC4/CyLib.c ****     * \return Non-zero value when the specified PLL sources the System clock and
1998:Generated_Source\PSoC4/CyLib.c ****     * the PLL is not in the bypass mode.
1999:Generated_Source\PSoC4/CyLib.c ****     *
2000:Generated_Source\PSoC4/CyLib.c ****     *******************************************************************************/
2001:Generated_Source\PSoC4/CyLib.c ****     static cystatus CySysClkPllConfigChangeAllowed(uint32 pll)
2002:Generated_Source\PSoC4/CyLib.c ****     {
2003:Generated_Source\PSoC4/CyLib.c ****         uint32   pllBypassMode;
2004:Generated_Source\PSoC4/CyLib.c ****         uint32   sysclkSource;
2005:Generated_Source\PSoC4/CyLib.c ****         cystatus returnValue = CYRET_INVALID_STATE;
2006:Generated_Source\PSoC4/CyLib.c **** 
2007:Generated_Source\PSoC4/CyLib.c ****         sysclkSource  = CySysClkGetSysclkSource();
2008:Generated_Source\PSoC4/CyLib.c ****         pllBypassMode = CySysClkPllGetBypassMode(pll);
2009:Generated_Source\PSoC4/CyLib.c **** 
2010:Generated_Source\PSoC4/CyLib.c ****         if ((CY_SYS_PLL_BYPASS_PLL_REF == pllBypassMode)             ||
2011:Generated_Source\PSoC4/CyLib.c ****             ((CY_SYS_CLK_HFCLK_PLL0 != sysclkSource) && (0u == pll))
2012:Generated_Source\PSoC4/CyLib.c ****         #if (CY_IP_SRSSV2)
2013:Generated_Source\PSoC4/CyLib.c ****             || ((CY_SYS_CLK_HFCLK_PLL1 != sysclkSource) && (1u == pll))
2014:Generated_Source\PSoC4/CyLib.c ****         #endif /* (CY_IP_SRSSV2) */
2015:Generated_Source\PSoC4/CyLib.c ****             )
2016:Generated_Source\PSoC4/CyLib.c ****         {
2017:Generated_Source\PSoC4/CyLib.c ****             returnValue = CYRET_SUCCESS;
2018:Generated_Source\PSoC4/CyLib.c ****         }
ARM GAS  C:\Users\YUANFA~1\AppData\Local\Temp\ccYDlzYT.s 			page 56


2019:Generated_Source\PSoC4/CyLib.c **** 
2020:Generated_Source\PSoC4/CyLib.c ****         return (returnValue);
2021:Generated_Source\PSoC4/CyLib.c ****     }
2022:Generated_Source\PSoC4/CyLib.c **** 
2023:Generated_Source\PSoC4/CyLib.c **** 
2024:Generated_Source\PSoC4/CyLib.c ****     /*******************************************************************************
2025:Generated_Source\PSoC4/CyLib.c ****     * Function Name: CySysClkPllGetUnlockStatus
2026:Generated_Source\PSoC4/CyLib.c ****     ****************************************************************************//**
2027:Generated_Source\PSoC4/CyLib.c ****     *
2028:Generated_Source\PSoC4/CyLib.c ****     *  Returns a non-zero value if the specified PLL output was unlocked.
2029:Generated_Source\PSoC4/CyLib.c ****     *  The unlock status is an indicator that the PLL has lost a lock at least once
2030:Generated_Source\PSoC4/CyLib.c ****     *  during its operation. The unlock status is cleared once it is read using
2031:Generated_Source\PSoC4/CyLib.c ****     *  this API.
2032:Generated_Source\PSoC4/CyLib.c ****     *
2033:Generated_Source\PSoC4/CyLib.c ****     *  This API is available only for PSoC 4200L / 4100S / 4500 with PLL devices.
2034:Generated_Source\PSoC4/CyLib.c ****     *
2035:Generated_Source\PSoC4/CyLib.c ****     *  \param PLL:
2036:Generated_Source\PSoC4/CyLib.c ****     *   0   PLL#0
2037:Generated_Source\PSoC4/CyLib.c ****     *   1   PLL#1 (available only for PSoC 4200L)
2038:Generated_Source\PSoC4/CyLib.c ****     *
2039:Generated_Source\PSoC4/CyLib.c ****     * \return Non-zero value when the specified PLL was unlocked.
2040:Generated_Source\PSoC4/CyLib.c ****     *
2041:Generated_Source\PSoC4/CyLib.c ****     *******************************************************************************/
2042:Generated_Source\PSoC4/CyLib.c ****     uint32 CySysClkPllGetUnlockStatus(uint32 pll)
2043:Generated_Source\PSoC4/CyLib.c ****     {
 1093              		.loc 1 2043 0
 1094              		.cfi_startproc
 1095              		@ args = 0, pretend = 0, frame = 0
 1096              		@ frame_needed = 0, uses_anonymous_args = 0
 1097              	.LVL95:
 1098 0000 70B5     		push	{r4, r5, r6, lr}
 1099              		.cfi_def_cfa_offset 16
 1100              		.cfi_offset 4, -16
 1101              		.cfi_offset 5, -12
 1102              		.cfi_offset 6, -8
 1103              		.cfi_offset 14, -4
 1104 0002 0400     		movs	r4, r0
 1105              	.LVL96:
2044:Generated_Source\PSoC4/CyLib.c ****         uint32 returnStatus = 0u;
2045:Generated_Source\PSoC4/CyLib.c ****         uint8  interruptState;
2046:Generated_Source\PSoC4/CyLib.c **** 
2047:Generated_Source\PSoC4/CyLib.c ****         interruptState = CyEnterCriticalSection();
 1106              		.loc 1 2047 0
 1107 0004 FFF7FEFF 		bl	CyEnterCriticalSection
 1108              	.LVL97:
2048:Generated_Source\PSoC4/CyLib.c **** 
2049:Generated_Source\PSoC4/CyLib.c ****         returnStatus = CY_SYS_CLK_PLL_BASE.pll[pll].test & CY_SYS_CLK_PLL_TEST_UNLOCK_OCCURRED_MASK
 1109              		.loc 1 2049 0
 1110 0008 6100     		lsls	r1, r4, #1
 1111 000a 0A19     		adds	r2, r1, r4
 1112 000c 9300     		lsls	r3, r2, #2
 1113 000e 084A     		ldr	r2, .L79
 1114 0010 9446     		mov	ip, r2
 1115 0012 6344     		add	r3, r3, ip
 1116 0014 9D68     		ldr	r5, [r3, #8]
 1117 0016 1022     		movs	r2, #16
 1118 0018 1540     		ands	r5, r2
ARM GAS  C:\Users\YUANFA~1\AppData\Local\Temp\ccYDlzYT.s 			page 57


 1119              	.LVL98:
2050:Generated_Source\PSoC4/CyLib.c ****         CY_SYS_CLK_PLL_BASE.pll[pll].test |= CY_SYS_CLK_PLL_TEST_UNLOCK_OCCURRED_MASK;
 1120              		.loc 1 2050 0
 1121 001a 9B68     		ldr	r3, [r3, #8]
 1122 001c 1A43     		orrs	r2, r3
 1123 001e 0C19     		adds	r4, r1, r4
 1124              	.LVL99:
 1125 0020 A300     		lsls	r3, r4, #2
 1126 0022 6344     		add	r3, r3, ip
 1127 0024 9A60     		str	r2, [r3, #8]
2051:Generated_Source\PSoC4/CyLib.c **** 
2052:Generated_Source\PSoC4/CyLib.c ****         CyExitCriticalSection(interruptState);
 1128              		.loc 1 2052 0
 1129 0026 FFF7FEFF 		bl	CyExitCriticalSection
 1130              	.LVL100:
2053:Generated_Source\PSoC4/CyLib.c **** 
2054:Generated_Source\PSoC4/CyLib.c ****         return (returnStatus);
2055:Generated_Source\PSoC4/CyLib.c ****     }
 1131              		.loc 1 2055 0
 1132 002a 2800     		movs	r0, r5
 1133              		@ sp needed
 1134              	.LVL101:
 1135 002c 70BD     		pop	{r4, r5, r6, pc}
 1136              	.L80:
 1137 002e C046     		.align	2
 1138              	.L79:
 1139 0030 14002F40 		.word	1076822036
 1140              		.cfi_endproc
 1141              	.LFE24:
 1142              		.size	CySysClkPllGetUnlockStatus, .-CySysClkPllGetUnlockStatus
 1143              		.section	.text.CySysClkPllSetSource,"ax",%progbits
 1144              		.align	2
 1145              		.global	CySysClkPllSetSource
 1146              		.code	16
 1147              		.thumb_func
 1148              		.type	CySysClkPllSetSource, %function
 1149              	CySysClkPllSetSource:
 1150              	.LFB26:
2056:Generated_Source\PSoC4/CyLib.c **** 
2057:Generated_Source\PSoC4/CyLib.c **** 
2058:Generated_Source\PSoC4/CyLib.c ****     /*******************************************************************************
2059:Generated_Source\PSoC4/CyLib.c ****     * Function Name: CySysClkPllSetFrequency
2060:Generated_Source\PSoC4/CyLib.c ****     ****************************************************************************//**
2061:Generated_Source\PSoC4/CyLib.c ****     *
2062:Generated_Source\PSoC4/CyLib.c ****     * Configures either PLL#0 or PLL#1 for the requested input/output frequencies.
2063:Generated_Source\PSoC4/CyLib.c ****     * The input frequency is the frequency of the source to the PLL. The source is
2064:Generated_Source\PSoC4/CyLib.c ****     * set using the CySysClkPllSetSource() function.
2065:Generated_Source\PSoC4/CyLib.c ****     *
2066:Generated_Source\PSoC4/CyLib.c ****     * The PLL must not be the system clock source when calling this function. The
2067:Generated_Source\PSoC4/CyLib.c ****     * PLL output will glitch during this function call.
2068:Generated_Source\PSoC4/CyLib.c ****     *
2069:Generated_Source\PSoC4/CyLib.c ****     * This API is available only for PSoC 4200L / 4100S / 4500 with PLL devices.
2070:Generated_Source\PSoC4/CyLib.c ****     *
2071:Generated_Source\PSoC4/CyLib.c ****     * \param pll:
2072:Generated_Source\PSoC4/CyLib.c ****     *  0   PLL#0
2073:Generated_Source\PSoC4/CyLib.c ****     *  1   PLL#1 (available only for PSoC 4200L)
2074:Generated_Source\PSoC4/CyLib.c ****     *
ARM GAS  C:\Users\YUANFA~1\AppData\Local\Temp\ccYDlzYT.s 			page 58


2075:Generated_Source\PSoC4/CyLib.c ****     * \param inputFreq The reference frequency in KHz. The valid range is from 1000 to 49152 KHz.
2076:Generated_Source\PSoC4/CyLib.c ****     *
2077:Generated_Source\PSoC4/CyLib.c ****     * \param pllFreq The target frequency in KHz. The valid range is from 22500 to 49152 KHz.
2078:Generated_Source\PSoC4/CyLib.c ****     *
2079:Generated_Source\PSoC4/CyLib.c ****     * \param divider The output clock divider for the PLL:
2080:Generated_Source\PSoC4/CyLib.c ****     * CY_SYS_PLL_OUTPUT_DIVPASS    Pass Through
2081:Generated_Source\PSoC4/CyLib.c ****     * CY_SYS_PLL_OUTPUT_DIV2       Divide by 2
2082:Generated_Source\PSoC4/CyLib.c ****     * CY_SYS_PLL_OUTPUT_DIV4       Divide by 4
2083:Generated_Source\PSoC4/CyLib.c ****     * CY_SYS_PLL_OUTPUT_DIV8       Divide by 8
2084:Generated_Source\PSoC4/CyLib.c ****     *
2085:Generated_Source\PSoC4/CyLib.c ****     * \param freqTol The tolerance in ppm, 10 ppm is equal to 0.001%.
2086:Generated_Source\PSoC4/CyLib.c ****     *
2087:Generated_Source\PSoC4/CyLib.c ****     * \return CYRET_SUCCESS The PLL was successfully configured for the requested
2088:Generated_Source\PSoC4/CyLib.c ****     * frequency.
2089:Generated_Source\PSoC4/CyLib.c ****     *
2090:Generated_Source\PSoC4/CyLib.c ****     * \return CYRET_BAD_PARAM The PLL was not able to successfully configure for the
2091:Generated_Source\PSoC4/CyLib.c ****     * requested frequency.
2092:Generated_Source\PSoC4/CyLib.c ****     *
2093:Generated_Source\PSoC4/CyLib.c ****     *******************************************************************************/
2094:Generated_Source\PSoC4/CyLib.c ****     cystatus CySysClkPllSetFrequency(uint32 pll, uint32 inputFreq, uint32 pllFreq, uint32 divider, 
2095:Generated_Source\PSoC4/CyLib.c ****     {
2096:Generated_Source\PSoC4/CyLib.c ****         uint32 qMin;
2097:Generated_Source\PSoC4/CyLib.c ****         uint32 qMax;
2098:Generated_Source\PSoC4/CyLib.c **** 
2099:Generated_Source\PSoC4/CyLib.c ****         uint32 qVal = CY_SYS_CLK_PLL_INVALID;
2100:Generated_Source\PSoC4/CyLib.c ****         uint32 pVal = CY_SYS_CLK_PLL_INVALID;
2101:Generated_Source\PSoC4/CyLib.c **** 
2102:Generated_Source\PSoC4/CyLib.c ****         uint32 q;
2103:Generated_Source\PSoC4/CyLib.c ****         uint32 p;
2104:Generated_Source\PSoC4/CyLib.c **** 
2105:Generated_Source\PSoC4/CyLib.c ****         uint32 fvco;
2106:Generated_Source\PSoC4/CyLib.c ****         int32 ferr;
2107:Generated_Source\PSoC4/CyLib.c **** 
2108:Generated_Source\PSoC4/CyLib.c ****         cystatus tmp;
2109:Generated_Source\PSoC4/CyLib.c ****         cystatus returnStatus = CYRET_BAD_PARAM;
2110:Generated_Source\PSoC4/CyLib.c **** 
2111:Generated_Source\PSoC4/CyLib.c **** 
2112:Generated_Source\PSoC4/CyLib.c ****         tmp = CySysClkPllConfigChangeAllowed(pll);
2113:Generated_Source\PSoC4/CyLib.c **** 
2114:Generated_Source\PSoC4/CyLib.c ****         if ((pll < CY_IP_PLL_NR) &&
2115:Generated_Source\PSoC4/CyLib.c ****             (inputFreq  >= CY_SYS_CLK_PLL_INPUT_FREQ_MIN )  && (inputFreq  <= CY_SYS_CLK_PLL_INPUT_
2116:Generated_Source\PSoC4/CyLib.c ****             (pllFreq >= CY_SYS_CLK_PLL_OUTPUT_FREQ_MIN ) && (pllFreq <= CY_SYS_CLK_PLL_OUTPUT_FREQ_
2117:Generated_Source\PSoC4/CyLib.c ****             (divider <= CY_SYS_PLL_OUTPUT_DIV8) &&
2118:Generated_Source\PSoC4/CyLib.c ****             (CYRET_SUCCESS == tmp))
2119:Generated_Source\PSoC4/CyLib.c ****         {
2120:Generated_Source\PSoC4/CyLib.c **** 
2121:Generated_Source\PSoC4/CyLib.c ****             /* Minimum feed forward loop divisor */
2122:Generated_Source\PSoC4/CyLib.c ****             qMin = (inputFreq + (CY_SYS_CLK_PLL_FPFDMAX - 1u)) / CY_SYS_CLK_PLL_FPFDMAX;
2123:Generated_Source\PSoC4/CyLib.c ****             qMin = (qMin < CY_SYS_CLK_PLL_QMINIP) ? CY_SYS_CLK_PLL_QMINIP : qMin;
2124:Generated_Source\PSoC4/CyLib.c **** 
2125:Generated_Source\PSoC4/CyLib.c ****             /* Maximum feed forward loop divisor */
2126:Generated_Source\PSoC4/CyLib.c ****             qMax = inputFreq / CY_SYS_CLK_PLL_FPFDMIN;
2127:Generated_Source\PSoC4/CyLib.c ****             qMax = (qMax > CY_SYS_CLK_PLL_QMAXIP) ? CY_SYS_CLK_PLL_QMAXIP : qMax;
2128:Generated_Source\PSoC4/CyLib.c **** 
2129:Generated_Source\PSoC4/CyLib.c ****             if (qMin <= qMax)
2130:Generated_Source\PSoC4/CyLib.c ****             {
2131:Generated_Source\PSoC4/CyLib.c ****                 for(q = qMin; q <= qMax; q++)
ARM GAS  C:\Users\YUANFA~1\AppData\Local\Temp\ccYDlzYT.s 			page 59


2132:Generated_Source\PSoC4/CyLib.c ****                 {
2133:Generated_Source\PSoC4/CyLib.c ****                     /* Solve for the feedback divisor value */
2134:Generated_Source\PSoC4/CyLib.c **** 
2135:Generated_Source\PSoC4/CyLib.c ****                     /* INT((pllFreq * q ) / inputFreq), where INT is normal rounding  */
2136:Generated_Source\PSoC4/CyLib.c ****                     p = ((pllFreq * q) + (inputFreq / 2u)) / inputFreq;
2137:Generated_Source\PSoC4/CyLib.c **** 
2138:Generated_Source\PSoC4/CyLib.c ****                     /* Calculate the actual VCO frequency (FVCO) */
2139:Generated_Source\PSoC4/CyLib.c ****                     fvco = ((inputFreq * p) / q);
2140:Generated_Source\PSoC4/CyLib.c **** 
2141:Generated_Source\PSoC4/CyLib.c ****                     /* Calculate the frequency error (FERR) */
2142:Generated_Source\PSoC4/CyLib.c ****                     ferr = ((1000000 * ((int32) fvco - (int32) pllFreq))/ (int32) pllFreq);
2143:Generated_Source\PSoC4/CyLib.c **** 
2144:Generated_Source\PSoC4/CyLib.c ****                     /* Bound check the frequency error and decide next action */
2145:Generated_Source\PSoC4/CyLib.c ****                     if ((( -1 * (int32) freqTol) <= ferr) && (ferr <= (int32) freqTol))
2146:Generated_Source\PSoC4/CyLib.c ****                     {
2147:Generated_Source\PSoC4/CyLib.c ****                         qVal = q;
2148:Generated_Source\PSoC4/CyLib.c ****                         pVal = p;
2149:Generated_Source\PSoC4/CyLib.c ****                         break;
2150:Generated_Source\PSoC4/CyLib.c ****                     }
2151:Generated_Source\PSoC4/CyLib.c ****                 }
2152:Generated_Source\PSoC4/CyLib.c **** 
2153:Generated_Source\PSoC4/CyLib.c **** 
2154:Generated_Source\PSoC4/CyLib.c ****                 if ((pVal != CY_SYS_CLK_PLL_INVALID) && (qVal != CY_SYS_CLK_PLL_INVALID))
2155:Generated_Source\PSoC4/CyLib.c ****                 {
2156:Generated_Source\PSoC4/CyLib.c ****                     if (CySysClkPllSetPQ(pll, pVal, qVal, CY_SYS_CLK_PLL_CURRENT_DEFAULT) == CYRET_
2157:Generated_Source\PSoC4/CyLib.c ****                     {
2158:Generated_Source\PSoC4/CyLib.c ****                         returnStatus = CySysClkPllSetOutputDivider(pll, divider);
2159:Generated_Source\PSoC4/CyLib.c ****                     }
2160:Generated_Source\PSoC4/CyLib.c ****                 }
2161:Generated_Source\PSoC4/CyLib.c ****             }
2162:Generated_Source\PSoC4/CyLib.c **** 
2163:Generated_Source\PSoC4/CyLib.c ****         }
2164:Generated_Source\PSoC4/CyLib.c **** 
2165:Generated_Source\PSoC4/CyLib.c ****         return (returnStatus);
2166:Generated_Source\PSoC4/CyLib.c ****     }
2167:Generated_Source\PSoC4/CyLib.c **** 
2168:Generated_Source\PSoC4/CyLib.c ****     /*******************************************************************************
2169:Generated_Source\PSoC4/CyLib.c ****     * Function Name: CySysClkPllSetSource
2170:Generated_Source\PSoC4/CyLib.c ****     ****************************************************************************//**
2171:Generated_Source\PSoC4/CyLib.c ****     *
2172:Generated_Source\PSoC4/CyLib.c ****     *  Sets the input clock source to the PLL. The PLL must be disabled before
2173:Generated_Source\PSoC4/CyLib.c ****     *  calling this function.
2174:Generated_Source\PSoC4/CyLib.c ****     *
2175:Generated_Source\PSoC4/CyLib.c ****     *  This API is available only for PSoC 4200L / 4100S /4500 with PLL devices.
2176:Generated_Source\PSoC4/CyLib.c ****     *
2177:Generated_Source\PSoC4/CyLib.c ****     *  \param PLL:
2178:Generated_Source\PSoC4/CyLib.c ****     *  0   PLL#0
2179:Generated_Source\PSoC4/CyLib.c ****     *  1   PLL#1 (available only for PSoC 4200L)
2180:Generated_Source\PSoC4/CyLib.c ****     *
2181:Generated_Source\PSoC4/CyLib.c ****     * \param source:
2182:Generated_Source\PSoC4/CyLib.c ****     *  CY_SYS_PLL_SOURCE_IMO        IMO
2183:Generated_Source\PSoC4/CyLib.c ****     *  CY_SYS_PLL_SOURCE_EXTCLK     External Clock (available only for PSoC 4200L
2184:Generated_Source\PSoC4/CyLib.c ****     *  and PSoC 4500 with PLL devices)
2185:Generated_Source\PSoC4/CyLib.c ****     *  CY_SYS_PLL_SOURCE_ECO        ECO
2186:Generated_Source\PSoC4/CyLib.c ****     *  CY_SYS_PLL_SOURCE_DSI0       DSI_OUT[0] (available only for PSoC 4200L)
2187:Generated_Source\PSoC4/CyLib.c ****     *  CY_SYS_PLL_SOURCE_DSI1       DSI_OUT[1] (available only for PSoC 4200L)
2188:Generated_Source\PSoC4/CyLib.c ****     *  CY_SYS_PLL_SOURCE_DSI2       DSI_OUT[2] (available only for PSoC 4200L)
ARM GAS  C:\Users\YUANFA~1\AppData\Local\Temp\ccYDlzYT.s 			page 60


2189:Generated_Source\PSoC4/CyLib.c ****     *  CY_SYS_PLL_SOURCE_DSI3       DSI_OUT[3] (available only for PSoC 4200L)
2190:Generated_Source\PSoC4/CyLib.c ****     *
2191:Generated_Source\PSoC4/CyLib.c ****     *******************************************************************************/
2192:Generated_Source\PSoC4/CyLib.c ****     void CySysClkPllSetSource(uint32 pll, uint32 source)
2193:Generated_Source\PSoC4/CyLib.c ****     {
 1151              		.loc 1 2193 0
 1152              		.cfi_startproc
 1153              		@ args = 0, pretend = 0, frame = 0
 1154              		@ frame_needed = 0, uses_anonymous_args = 0
 1155              	.LVL102:
 1156 0000 70B5     		push	{r4, r5, r6, lr}
 1157              		.cfi_def_cfa_offset 16
 1158              		.cfi_offset 4, -16
 1159              		.cfi_offset 5, -12
 1160              		.cfi_offset 6, -8
 1161              		.cfi_offset 14, -4
 1162 0002 0500     		movs	r5, r0
 1163 0004 0C00     		movs	r4, r1
 1164              	.LVL103:
2194:Generated_Source\PSoC4/CyLib.c ****         uint8  interruptState;
2195:Generated_Source\PSoC4/CyLib.c **** 
2196:Generated_Source\PSoC4/CyLib.c ****         #if (CY_IP_SRSSLT)
2197:Generated_Source\PSoC4/CyLib.c ****             uint8 i = 0u;
2198:Generated_Source\PSoC4/CyLib.c ****         #else
2199:Generated_Source\PSoC4/CyLib.c ****             uint32 regTmp;
2200:Generated_Source\PSoC4/CyLib.c ****         #endif /* (CY_IP_SRSSLT) */
2201:Generated_Source\PSoC4/CyLib.c **** 
2202:Generated_Source\PSoC4/CyLib.c ****         interruptState = CyEnterCriticalSection();
 1165              		.loc 1 2202 0
 1166 0006 FFF7FEFF 		bl	CyEnterCriticalSection
 1167              	.LVL104:
2203:Generated_Source\PSoC4/CyLib.c **** 
2204:Generated_Source\PSoC4/CyLib.c ****         if (pll < CY_IP_PLL_NR)
 1168              		.loc 1 2204 0
 1169 000a 002D     		cmp	r5, #0
 1170 000c 29D1     		bne	.L82
2205:Generated_Source\PSoC4/CyLib.c ****         {
2206:Generated_Source\PSoC4/CyLib.c ****             #if(CY_IP_SRSSV2)
2207:Generated_Source\PSoC4/CyLib.c ****                 regTmp = CY_SYS_CLK_SELECT_REG & (uint32) ~CY_SYS_CLK_SELECT_PLL_MASK(pll);
2208:Generated_Source\PSoC4/CyLib.c ****                 regTmp |= ((source << CY_SYS_CLK_SELECT_PLL_SHIFT(pll)) & CY_SYS_CLK_SELECT_PLL_MAS
2209:Generated_Source\PSoC4/CyLib.c ****                 CY_SYS_CLK_SELECT_REG = regTmp;
2210:Generated_Source\PSoC4/CyLib.c ****             #else
2211:Generated_Source\PSoC4/CyLib.c ****                 CY_SET_REG32_FIELD(CYREG_EXCO_CLK_SELECT, CYFLD_EXCO_REF_SEL, source);
 1171              		.loc 1 2211 0
 1172 000e 1649     		ldr	r1, .L86
 1173 0010 0A68     		ldr	r2, [r1]
 1174 0012 0235     		adds	r5, r5, #2
 1175              	.LVL105:
 1176 0014 AA43     		bics	r2, r5
 1177 0016 6300     		lsls	r3, r4, #1
 1178 0018 2C00     		movs	r4, r5
 1179              	.LVL106:
 1180 001a 1C40     		ands	r4, r3
 1181 001c 1443     		orrs	r4, r2
 1182 001e 0C60     		str	r4, [r1]
2212:Generated_Source\PSoC4/CyLib.c **** 
2213:Generated_Source\PSoC4/CyLib.c ****                 /* Check if ECO is enabled and running */
ARM GAS  C:\Users\YUANFA~1\AppData\Local\Temp\ccYDlzYT.s 			page 61


2214:Generated_Source\PSoC4/CyLib.c ****                 if ((0UL == (CY_SYS_CLK_ECO_CONFIG_REG & CY_SYS_CLK_ECO_CONFIG_ENABLE)) ||
 1183              		.loc 1 2214 0
 1184 0020 124B     		ldr	r3, .L86+4
 1185 0022 1B68     		ldr	r3, [r3]
 1186 0024 002B     		cmp	r3, #0
 1187 0026 03DA     		bge	.L83
2215:Generated_Source\PSoC4/CyLib.c ****                     (0UL != (CY_SYS_CLK_ECO_STATUS_REG & CY_SYS_CLK_ECO_STATUS_WATCHDOG_ERROR)))
 1188              		.loc 1 2215 0 discriminator 1
 1189 0028 114B     		ldr	r3, .L86+8
 1190 002a 1B68     		ldr	r3, [r3]
2214:Generated_Source\PSoC4/CyLib.c ****                     (0UL != (CY_SYS_CLK_ECO_STATUS_REG & CY_SYS_CLK_ECO_STATUS_WATCHDOG_ERROR)))
 1191              		.loc 1 2214 0 discriminator 1
 1192 002c DB07     		lsls	r3, r3, #31
 1193 002e 18D5     		bpl	.L82
 1194              	.L83:
2216:Generated_Source\PSoC4/CyLib.c ****                 {
2217:Generated_Source\PSoC4/CyLib.c ****                     /* Generate clock sequence to change clock source in CY_SYS_ECO_CLK_SELECT_REG 
2218:Generated_Source\PSoC4/CyLib.c ****                     CY_SYS_EXCO_PGM_CLK_REG |= CY_SYS_EXCO_PGM_CLK_ENABLE_MASK;
 1195              		.loc 1 2218 0
 1196 0030 104A     		ldr	r2, .L86+12
 1197 0032 1368     		ldr	r3, [r2]
 1198 0034 8021     		movs	r1, #128
 1199 0036 0906     		lsls	r1, r1, #24
 1200 0038 0B43     		orrs	r3, r1
 1201 003a 1360     		str	r3, [r2]
2219:Generated_Source\PSoC4/CyLib.c **** 
2220:Generated_Source\PSoC4/CyLib.c ****                     for(i = 0u; i < CY_SYS_EXCO_PGM_CLK_SEQ_GENERATOR; i++)
 1202              		.loc 1 2220 0
 1203 003c 0023     		movs	r3, #0
 1204 003e 09E0     		b	.L84
 1205              	.LVL107:
 1206              	.L85:
2221:Generated_Source\PSoC4/CyLib.c ****                     {
2222:Generated_Source\PSoC4/CyLib.c ****                         CY_SYS_EXCO_PGM_CLK_REG |= CY_SYS_EXCO_PGM_CLK_CLK_ECO_MASK;
 1207              		.loc 1 2222 0 discriminator 3
 1208 0040 0C4A     		ldr	r2, .L86+12
 1209 0042 1168     		ldr	r1, [r2]
 1210 0044 0224     		movs	r4, #2
 1211 0046 2143     		orrs	r1, r4
 1212 0048 1160     		str	r1, [r2]
2223:Generated_Source\PSoC4/CyLib.c ****                         CY_SYS_EXCO_PGM_CLK_REG &= ~CY_SYS_EXCO_PGM_CLK_CLK_ECO_MASK;
 1213              		.loc 1 2223 0 discriminator 3
 1214 004a 1168     		ldr	r1, [r2]
 1215 004c A143     		bics	r1, r4
 1216 004e 1160     		str	r1, [r2]
2220:Generated_Source\PSoC4/CyLib.c ****                     {
 1217              		.loc 1 2220 0 discriminator 3
 1218 0050 0133     		adds	r3, r3, #1
 1219              	.LVL108:
 1220 0052 DBB2     		uxtb	r3, r3
 1221              	.LVL109:
 1222              	.L84:
2220:Generated_Source\PSoC4/CyLib.c ****                     {
 1223              		.loc 1 2220 0 is_stmt 0 discriminator 1
 1224 0054 042B     		cmp	r3, #4
 1225 0056 F3D9     		bls	.L85
2224:Generated_Source\PSoC4/CyLib.c ****                     }
ARM GAS  C:\Users\YUANFA~1\AppData\Local\Temp\ccYDlzYT.s 			page 62


2225:Generated_Source\PSoC4/CyLib.c **** 
2226:Generated_Source\PSoC4/CyLib.c ****                     CY_SYS_EXCO_PGM_CLK_REG &= ~CY_SYS_EXCO_PGM_CLK_ENABLE_MASK;
 1226              		.loc 1 2226 0 is_stmt 1
 1227 0058 064A     		ldr	r2, .L86+12
 1228 005a 1368     		ldr	r3, [r2]
 1229              	.LVL110:
 1230 005c 5B00     		lsls	r3, r3, #1
 1231 005e 5B08     		lsrs	r3, r3, #1
 1232 0060 1360     		str	r3, [r2]
 1233              	.LVL111:
 1234              	.L82:
2227:Generated_Source\PSoC4/CyLib.c ****                 }
2228:Generated_Source\PSoC4/CyLib.c **** 
2229:Generated_Source\PSoC4/CyLib.c ****             #endif /* (CY_IP_SRSSV2) */
2230:Generated_Source\PSoC4/CyLib.c ****         }
2231:Generated_Source\PSoC4/CyLib.c **** 
2232:Generated_Source\PSoC4/CyLib.c ****         CyExitCriticalSection(interruptState);
 1235              		.loc 1 2232 0
 1236 0062 FFF7FEFF 		bl	CyExitCriticalSection
 1237              	.LVL112:
2233:Generated_Source\PSoC4/CyLib.c ****     }
 1238              		.loc 1 2233 0
 1239              		@ sp needed
 1240 0066 70BD     		pop	{r4, r5, r6, pc}
 1241              	.L87:
 1242              		.align	2
 1243              	.L86:
 1244 0068 00002F40 		.word	1076822016
 1245 006c 08002F40 		.word	1076822024
 1246 0070 0C002F40 		.word	1076822028
 1247 0074 20002F40 		.word	1076822048
 1248              		.cfi_endproc
 1249              	.LFE26:
 1250              		.size	CySysClkPllSetSource, .-CySysClkPllSetSource
 1251              		.section	.text.CySysGetResetReason,"ax",%progbits
 1252              		.align	2
 1253              		.global	CySysGetResetReason
 1254              		.code	16
 1255              		.thumb_func
 1256              		.type	CySysGetResetReason, %function
 1257              	CySysGetResetReason:
 1258              	.LFB28:
2234:Generated_Source\PSoC4/CyLib.c **** 
2235:Generated_Source\PSoC4/CyLib.c **** 
2236:Generated_Source\PSoC4/CyLib.c ****     /*******************************************************************************
2237:Generated_Source\PSoC4/CyLib.c ****     * Function Name: CySysClkPllSetOutputDivider
2238:Generated_Source\PSoC4/CyLib.c ****     ****************************************************************************//**
2239:Generated_Source\PSoC4/CyLib.c ****     *
2240:Generated_Source\PSoC4/CyLib.c ****     *  Sets the output clock divider for the PLL.
2241:Generated_Source\PSoC4/CyLib.c ****     *
2242:Generated_Source\PSoC4/CyLib.c ****     *  The PLL must not be the System Clock source when calling this function. The
2243:Generated_Source\PSoC4/CyLib.c ****     *  PLL output will glitch during this function call.
2244:Generated_Source\PSoC4/CyLib.c ****     *
2245:Generated_Source\PSoC4/CyLib.c ****     *  This API is available only for PSoC 4200L / 4100S / 4500 with PLL devices.
2246:Generated_Source\PSoC4/CyLib.c ****     *
2247:Generated_Source\PSoC4/CyLib.c ****     *  \param PLL:
2248:Generated_Source\PSoC4/CyLib.c ****     *   0   PLL#0
ARM GAS  C:\Users\YUANFA~1\AppData\Local\Temp\ccYDlzYT.s 			page 63


2249:Generated_Source\PSoC4/CyLib.c ****     *   1   PLL#1 (available only for PSoC 4200L)
2250:Generated_Source\PSoC4/CyLib.c ****     *
2251:Generated_Source\PSoC4/CyLib.c ****     * \param divider:
2252:Generated_Source\PSoC4/CyLib.c ****     *  CY_SYS_PLL_OUTPUT_DIVPASS    Pass through
2253:Generated_Source\PSoC4/CyLib.c ****     *  CY_SYS_PLL_OUTPUT_DIV2       Divide by 2
2254:Generated_Source\PSoC4/CyLib.c ****     *  CY_SYS_PLL_OUTPUT_DIV4       Divide by 4
2255:Generated_Source\PSoC4/CyLib.c ****     *  CY_SYS_PLL_OUTPUT_DIV8       Divide by 8
2256:Generated_Source\PSoC4/CyLib.c ****     *
2257:Generated_Source\PSoC4/CyLib.c ****     * \return \ref CYRET_SUCCESS    Completed successfully.
2258:Generated_Source\PSoC4/CyLib.c ****     * \return \ref CYRET_BAD_PARAM  The parameters are out of range or the
2259:Generated_Source\PSoC4/CyLib.c ****     * specified PLL sources the System clock.
2260:Generated_Source\PSoC4/CyLib.c ****     *
2261:Generated_Source\PSoC4/CyLib.c ****     *******************************************************************************/
2262:Generated_Source\PSoC4/CyLib.c ****     cystatus CySysClkPllSetOutputDivider(uint32 pll, uint32 divider)
2263:Generated_Source\PSoC4/CyLib.c ****     {
2264:Generated_Source\PSoC4/CyLib.c ****         uint32   tmpReg;
2265:Generated_Source\PSoC4/CyLib.c ****         uint8    interruptState;
2266:Generated_Source\PSoC4/CyLib.c ****         cystatus returnStatus = CYRET_BAD_PARAM;
2267:Generated_Source\PSoC4/CyLib.c ****         cystatus tmp;
2268:Generated_Source\PSoC4/CyLib.c **** 
2269:Generated_Source\PSoC4/CyLib.c **** 
2270:Generated_Source\PSoC4/CyLib.c ****         interruptState = CyEnterCriticalSection();
2271:Generated_Source\PSoC4/CyLib.c **** 
2272:Generated_Source\PSoC4/CyLib.c ****         tmp = CySysClkPllConfigChangeAllowed(pll);
2273:Generated_Source\PSoC4/CyLib.c **** 
2274:Generated_Source\PSoC4/CyLib.c ****         if ((pll < CY_IP_PLL_NR) && (CYRET_SUCCESS == tmp) && (divider <= CY_SYS_PLL_OUTPUT_DIV8))
2275:Generated_Source\PSoC4/CyLib.c ****         {
2276:Generated_Source\PSoC4/CyLib.c ****             tmpReg  = CY_SYS_CLK_PLL_BASE.pll[pll].config & (uint32) ~(CY_SYS_CLK_PLL_CONFIG_OUTPUT
2277:Generated_Source\PSoC4/CyLib.c ****             tmpReg |= ((divider << CY_SYS_CLK_PLL_CONFIG_OUTPUT_DIV_SHIFT) & CY_SYS_CLK_PLL_CONFIG_
2278:Generated_Source\PSoC4/CyLib.c **** 
2279:Generated_Source\PSoC4/CyLib.c ****             CY_SYS_CLK_PLL_BASE.pll[pll].config = tmpReg;
2280:Generated_Source\PSoC4/CyLib.c **** 
2281:Generated_Source\PSoC4/CyLib.c ****             returnStatus = CYRET_SUCCESS;
2282:Generated_Source\PSoC4/CyLib.c ****         }
2283:Generated_Source\PSoC4/CyLib.c **** 
2284:Generated_Source\PSoC4/CyLib.c ****         CyExitCriticalSection(interruptState);
2285:Generated_Source\PSoC4/CyLib.c **** 
2286:Generated_Source\PSoC4/CyLib.c ****         return (returnStatus);
2287:Generated_Source\PSoC4/CyLib.c ****     }
2288:Generated_Source\PSoC4/CyLib.c **** 
2289:Generated_Source\PSoC4/CyLib.c **** 
2290:Generated_Source\PSoC4/CyLib.c ****     #if (CY_IP_ECOV2_SRSSLT)
2291:Generated_Source\PSoC4/CyLib.c ****         /*******************************************************************************
2292:Generated_Source\PSoC4/CyLib.c ****         * Function Name: CySysClkPllGetInterruptCauseMasked
2293:Generated_Source\PSoC4/CyLib.c ****         ****************************************************************************//**
2294:Generated_Source\PSoC4/CyLib.c ****         *
2295:Generated_Source\PSoC4/CyLib.c ****         *  Returns a non-zero value that reflects a bit-wise AND between interrupt
2296:Generated_Source\PSoC4/CyLib.c ****         *  request and mask registers. The API allows firmware to read the status of
2297:Generated_Source\PSoC4/CyLib.c ****         *  all mask enabled interrupt causes with a single load operation.
2298:Generated_Source\PSoC4/CyLib.c ****         *
2299:Generated_Source\PSoC4/CyLib.c ****         *  This API is available only for PSoC 4500 with PLL devices.
2300:Generated_Source\PSoC4/CyLib.c ****         *
2301:Generated_Source\PSoC4/CyLib.c ****         * \return A set bit indicates the source of the interrupt:
2302:Generated_Source\PSoC4/CyLib.c ****         *  *CY_SYS_PLL_INTR_PLL_LOCK
2303:Generated_Source\PSoC4/CyLib.c ****         *  *CY_SYS_PLL_INTR_WD_ERR
2304:Generated_Source\PSoC4/CyLib.c ****         *  *CY_SYS_PLL_INTR_CSV_CLK_SW
2305:Generated_Source\PSoC4/CyLib.c ****         *
ARM GAS  C:\Users\YUANFA~1\AppData\Local\Temp\ccYDlzYT.s 			page 64


2306:Generated_Source\PSoC4/CyLib.c ****         *******************************************************************************/
2307:Generated_Source\PSoC4/CyLib.c ****         uint32 CySysClkPllGetInterruptCauseMasked(void)
2308:Generated_Source\PSoC4/CyLib.c ****         {
2309:Generated_Source\PSoC4/CyLib.c ****             return ((uint32)CY_GET_REG32(CYREG_EXCO_INTR_MASKED));
2310:Generated_Source\PSoC4/CyLib.c ****         }
2311:Generated_Source\PSoC4/CyLib.c **** 
2312:Generated_Source\PSoC4/CyLib.c **** 
2313:Generated_Source\PSoC4/CyLib.c ****         /*******************************************************************************
2314:Generated_Source\PSoC4/CyLib.c ****         * Function Name: CySysClkPllGetInterruptCause
2315:Generated_Source\PSoC4/CyLib.c ****         ****************************************************************************//**
2316:Generated_Source\PSoC4/CyLib.c ****         *
2317:Generated_Source\PSoC4/CyLib.c ****         *  Returns a non-zero value that reflects the interrupt request registers.
2318:Generated_Source\PSoC4/CyLib.c ****         *
2319:Generated_Source\PSoC4/CyLib.c ****         *  This API is available only for PSoC 4500 with PLL devices.
2320:Generated_Source\PSoC4/CyLib.c ****         *
2321:Generated_Source\PSoC4/CyLib.c ****         * \return A set bit indicates the source of the interrupt:
2322:Generated_Source\PSoC4/CyLib.c ****         *  *CY_SYS_PLL_INTR_PLL_LOCK
2323:Generated_Source\PSoC4/CyLib.c ****         *  *CY_SYS_PLL_INTR_WD_ERR
2324:Generated_Source\PSoC4/CyLib.c ****         *  *CY_SYS_PLL_INTR_CSV_CLK_SW
2325:Generated_Source\PSoC4/CyLib.c ****         *
2326:Generated_Source\PSoC4/CyLib.c ****         *******************************************************************************/
2327:Generated_Source\PSoC4/CyLib.c ****         uint32 CySysClkPllGetInterruptCause(void)
2328:Generated_Source\PSoC4/CyLib.c ****         {
2329:Generated_Source\PSoC4/CyLib.c ****             return ((uint32)CY_GET_REG32(CYREG_EXCO_INTR));
2330:Generated_Source\PSoC4/CyLib.c ****         }
2331:Generated_Source\PSoC4/CyLib.c **** 
2332:Generated_Source\PSoC4/CyLib.c **** 
2333:Generated_Source\PSoC4/CyLib.c ****         /*******************************************************************************
2334:Generated_Source\PSoC4/CyLib.c ****         * Function Name: CySysClkPllClearPendingInterrupt
2335:Generated_Source\PSoC4/CyLib.c ****         ****************************************************************************//**
2336:Generated_Source\PSoC4/CyLib.c ****         *
2337:Generated_Source\PSoC4/CyLib.c ****         *  Clears the pending interrupt.
2338:Generated_Source\PSoC4/CyLib.c ****         *
2339:Generated_Source\PSoC4/CyLib.c ****         *  This API is available only for PSoC 4500 with PLL devices.
2340:Generated_Source\PSoC4/CyLib.c ****         *
2341:Generated_Source\PSoC4/CyLib.c ****         * \param interrupt:
2342:Generated_Source\PSoC4/CyLib.c ****         *  CY_SYS_PLL_INTR_PLL_LOCK
2343:Generated_Source\PSoC4/CyLib.c ****         *  CY_SYS_PLL_INTR_WD_ERR
2344:Generated_Source\PSoC4/CyLib.c ****         *  CY_SYS_PLL_INTR_CSV_CLK_SW
2345:Generated_Source\PSoC4/CyLib.c ****         *  A logical OR of above can be used as input parameter.
2346:Generated_Source\PSoC4/CyLib.c ****         *
2347:Generated_Source\PSoC4/CyLib.c ****         *******************************************************************************/
2348:Generated_Source\PSoC4/CyLib.c ****         void CySysClkPllClearPendingInterrupt(uint32 interrupt)
2349:Generated_Source\PSoC4/CyLib.c ****         {
2350:Generated_Source\PSoC4/CyLib.c ****             CY_SET_REG32(CYREG_EXCO_INTR, interrupt);
2351:Generated_Source\PSoC4/CyLib.c ****         }
2352:Generated_Source\PSoC4/CyLib.c **** 
2353:Generated_Source\PSoC4/CyLib.c **** 
2354:Generated_Source\PSoC4/CyLib.c ****         /*******************************************************************************
2355:Generated_Source\PSoC4/CyLib.c ****         * Function Name: CySysClkPllSetInterruptMask
2356:Generated_Source\PSoC4/CyLib.c ****         ****************************************************************************//**
2357:Generated_Source\PSoC4/CyLib.c ****         *
2358:Generated_Source\PSoC4/CyLib.c ****         *  This API sets the interrupt mask bit for the corresponding interrupts.
2359:Generated_Source\PSoC4/CyLib.c ****         *
2360:Generated_Source\PSoC4/CyLib.c ****         *  This API is available only for PSoC 4500 with PLL devices.
2361:Generated_Source\PSoC4/CyLib.c ****         *
2362:Generated_Source\PSoC4/CyLib.c ****         * \param intrMask:
ARM GAS  C:\Users\YUANFA~1\AppData\Local\Temp\ccYDlzYT.s 			page 65


2363:Generated_Source\PSoC4/CyLib.c ****         *  CY_SYS_PLL_INTR_PLL_LOCK
2364:Generated_Source\PSoC4/CyLib.c ****         *  CY_SYS_PLL_INTR_WD_ERR
2365:Generated_Source\PSoC4/CyLib.c ****         *  CY_SYS_PLL_INTR_CSV_CLK_SW
2366:Generated_Source\PSoC4/CyLib.c ****         *  A logical OR of above can be used as input parameter.
2367:Generated_Source\PSoC4/CyLib.c ****         *
2368:Generated_Source\PSoC4/CyLib.c ****         *******************************************************************************/
2369:Generated_Source\PSoC4/CyLib.c ****         void CySysClkPllSetInterruptMask(uint32 intrMask)
2370:Generated_Source\PSoC4/CyLib.c ****         {
2371:Generated_Source\PSoC4/CyLib.c ****             CY_SET_REG32(CYREG_EXCO_INTR_MASK, intrMask);
2372:Generated_Source\PSoC4/CyLib.c ****         }
2373:Generated_Source\PSoC4/CyLib.c **** 
2374:Generated_Source\PSoC4/CyLib.c **** 
2375:Generated_Source\PSoC4/CyLib.c ****         /*******************************************************************************
2376:Generated_Source\PSoC4/CyLib.c ****         * Function Name: CySysClkPllGetInterruptMask
2377:Generated_Source\PSoC4/CyLib.c ****         ****************************************************************************//**
2378:Generated_Source\PSoC4/CyLib.c ****         *
2379:Generated_Source\PSoC4/CyLib.c ****         *  This API returns the current interrupt mask register value.
2380:Generated_Source\PSoC4/CyLib.c ****         *
2381:Generated_Source\PSoC4/CyLib.c ****         *  This API is available only for PSoC 4500 with PLL devices.
2382:Generated_Source\PSoC4/CyLib.c ****         *
2383:Generated_Source\PSoC4/CyLib.c ****         * \return A set bit indicates the source of the interrupt:
2384:Generated_Source\PSoC4/CyLib.c ****         *  *CY_SYS_PLL_INTR_PLL_LOCK
2385:Generated_Source\PSoC4/CyLib.c ****         *  *CY_SYS_PLL_INTR_WD_ERR
2386:Generated_Source\PSoC4/CyLib.c ****         *  *CY_SYS_PLL_INTR_CSV_CLK_SW
2387:Generated_Source\PSoC4/CyLib.c ****         *
2388:Generated_Source\PSoC4/CyLib.c ****         *******************************************************************************/
2389:Generated_Source\PSoC4/CyLib.c ****         uint32 CySysClkPllGetInterruptMask(void)
2390:Generated_Source\PSoC4/CyLib.c ****         {
2391:Generated_Source\PSoC4/CyLib.c ****             return ((uint32)CY_GET_REG32(CYREG_EXCO_INTR_MASK));
2392:Generated_Source\PSoC4/CyLib.c ****         }
2393:Generated_Source\PSoC4/CyLib.c **** 
2394:Generated_Source\PSoC4/CyLib.c **** 
2395:Generated_Source\PSoC4/CyLib.c ****         /*******************************************************************************
2396:Generated_Source\PSoC4/CyLib.c ****         * Function Name: CySysClkPllSetInterrupt
2397:Generated_Source\PSoC4/CyLib.c ****         ****************************************************************************//**
2398:Generated_Source\PSoC4/CyLib.c ****         *
2399:Generated_Source\PSoC4/CyLib.c ****         *  This API asserts an interrupt. This can be used for firmware debugging.
2400:Generated_Source\PSoC4/CyLib.c ****         *
2401:Generated_Source\PSoC4/CyLib.c ****         *  This API is available only for PSoC 4500 with PLL devices.
2402:Generated_Source\PSoC4/CyLib.c ****         *
2403:Generated_Source\PSoC4/CyLib.c ****         * \param interrupt:
2404:Generated_Source\PSoC4/CyLib.c ****         *  CY_SYS_PLL_INTR_PLL_LOCK
2405:Generated_Source\PSoC4/CyLib.c ****         *  CY_SYS_PLL_INTR_WD_ERR
2406:Generated_Source\PSoC4/CyLib.c ****         *  CY_SYS_PLL_INTR_CSV_CLK_SW
2407:Generated_Source\PSoC4/CyLib.c ****         *  A logical OR of above can be used as input parameter.
2408:Generated_Source\PSoC4/CyLib.c ****         *
2409:Generated_Source\PSoC4/CyLib.c ****         *******************************************************************************/
2410:Generated_Source\PSoC4/CyLib.c ****         void CySysClkPllSetInterrupt(uint32 interrupt)
2411:Generated_Source\PSoC4/CyLib.c ****         {
2412:Generated_Source\PSoC4/CyLib.c ****             CY_SET_REG32(CYREG_EXCO_INTR_SET, interrupt);
2413:Generated_Source\PSoC4/CyLib.c ****         }
2414:Generated_Source\PSoC4/CyLib.c **** 
2415:Generated_Source\PSoC4/CyLib.c **** 
2416:Generated_Source\PSoC4/CyLib.c ****         /*******************************************************************************
2417:Generated_Source\PSoC4/CyLib.c ****         * Function Name: CySysClkPllCsvEnable
2418:Generated_Source\PSoC4/CyLib.c ****         ****************************************************************************//**
2419:Generated_Source\PSoC4/CyLib.c ****         *
ARM GAS  C:\Users\YUANFA~1\AppData\Local\Temp\ccYDlzYT.s 			page 66


2420:Generated_Source\PSoC4/CyLib.c ****         * This API enables clock supervision on PLL frequency lock and loss.
2421:Generated_Source\PSoC4/CyLib.c ****         *
2422:Generated_Source\PSoC4/CyLib.c ****         * This API is available only for PSoC 4500 with PLL devices.
2423:Generated_Source\PSoC4/CyLib.c ****         *
2424:Generated_Source\PSoC4/CyLib.c ****         *******************************************************************************/
2425:Generated_Source\PSoC4/CyLib.c ****         void CySysClkPllCsvEnable(void)
2426:Generated_Source\PSoC4/CyLib.c ****         {
2427:Generated_Source\PSoC4/CyLib.c ****             CY_SET_REG32_FIELD(CYREG_EXCO_REF_CTL, CYFLD_EXCO_CSV_EN, 0x1uL);
2428:Generated_Source\PSoC4/CyLib.c ****         }
2429:Generated_Source\PSoC4/CyLib.c **** 
2430:Generated_Source\PSoC4/CyLib.c **** 
2431:Generated_Source\PSoC4/CyLib.c ****         /*******************************************************************************
2432:Generated_Source\PSoC4/CyLib.c ****         * Function Name: CySysClkPllCsvDisable
2433:Generated_Source\PSoC4/CyLib.c ****         ****************************************************************************//**
2434:Generated_Source\PSoC4/CyLib.c ****         *
2435:Generated_Source\PSoC4/CyLib.c ****         * This API disables clock supervision on PLL.
2436:Generated_Source\PSoC4/CyLib.c ****         *
2437:Generated_Source\PSoC4/CyLib.c ****         * This API is available only for PSoC 4500 with PLL devices.
2438:Generated_Source\PSoC4/CyLib.c ****         *
2439:Generated_Source\PSoC4/CyLib.c ****         *******************************************************************************/
2440:Generated_Source\PSoC4/CyLib.c ****         void CySysClkPllCsvDisable(void)
2441:Generated_Source\PSoC4/CyLib.c ****         {
2442:Generated_Source\PSoC4/CyLib.c ****             CY_CLEAR_REG32_FIELD(CYREG_EXCO_REF_CTL, CYFLD_EXCO_CSV_EN);
2443:Generated_Source\PSoC4/CyLib.c ****         }
2444:Generated_Source\PSoC4/CyLib.c **** 
2445:Generated_Source\PSoC4/CyLib.c **** 
2446:Generated_Source\PSoC4/CyLib.c ****         /*******************************************************************************
2447:Generated_Source\PSoC4/CyLib.c ****         * Function Name: CySysClkPllCsvSetSpvrCtl
2448:Generated_Source\PSoC4/CyLib.c ****         ****************************************************************************//**
2449:Generated_Source\PSoC4/CyLib.c ****         *
2450:Generated_Source\PSoC4/CyLib.c ****         *  This API enables sets the clock supervision parameters.
2451:Generated_Source\PSoC4/CyLib.c ****         *
2452:Generated_Source\PSoC4/CyLib.c ****         *  This API is available only for PSoC 4500 with PLL devices.
2453:Generated_Source\PSoC4/CyLib.c ****         *
2454:Generated_Source\PSoC4/CyLib.c ****         * \param startupDelay:
2455:Generated_Source\PSoC4/CyLib.c ****         *  startup delay time -1 in reference clock cycles after enable
2456:Generated_Source\PSoC4/CyLib.c ****         *  or deep sleep wake up from reference clock start to monitored clock start
2457:Generated_Source\PSoC4/CyLib.c ****         *
2458:Generated_Source\PSoC4/CyLib.c ****         * \param csvSwitch:
2459:Generated_Source\PSoC4/CyLib.c ****         * CY_SYS_PLL_CSV_INT_EN  Enable INTR.CSV_CLK_SW if a clock switch occurs to IMO
2460:Generated_Source\PSoC4/CyLib.c ****         * CY_SYS_PLL_CSV_TRIG_EN  Enable CSV to cause trigger if a clock switch occurs to IMO
2461:Generated_Source\PSoC4/CyLib.c ****         * CY_SYS_PLL_CSV_CLK_SW_EN  Enable CSV to cause clock switch IMO (enabled by default in 
2462:Generated_Source\PSoC4/CyLib.c ****         *
2463:Generated_Source\PSoC4/CyLib.c ****         *******************************************************************************/
2464:Generated_Source\PSoC4/CyLib.c ****         void CySysClkPllCsvSetSpvrCtl(uint32 startupDelay, uint32 csvSwitch)
2465:Generated_Source\PSoC4/CyLib.c ****         {
2466:Generated_Source\PSoC4/CyLib.c ****             uint32 tmpRegVal = CY_GET_REG32(CYREG_EXCO_REF_CTL);
2467:Generated_Source\PSoC4/CyLib.c **** 
2468:Generated_Source\PSoC4/CyLib.c ****             tmpRegVal &= ~(CY_SYS_PLL_STARTUP_MASK | CY_SYS_PLL_CSV_MASK);
2469:Generated_Source\PSoC4/CyLib.c ****             tmpRegVal |= (startupDelay | csvSwitch);
2470:Generated_Source\PSoC4/CyLib.c **** 
2471:Generated_Source\PSoC4/CyLib.c ****             CY_SET_REG32(CYREG_EXCO_REF_CTL, tmpRegVal);
2472:Generated_Source\PSoC4/CyLib.c ****         }
2473:Generated_Source\PSoC4/CyLib.c **** 
2474:Generated_Source\PSoC4/CyLib.c **** 
2475:Generated_Source\PSoC4/CyLib.c ****         /*******************************************************************************
2476:Generated_Source\PSoC4/CyLib.c ****         * Function Name: CySysClkPllCsvSetRefLimits
ARM GAS  C:\Users\YUANFA~1\AppData\Local\Temp\ccYDlzYT.s 			page 67


2477:Generated_Source\PSoC4/CyLib.c ****         ****************************************************************************//**
2478:Generated_Source\PSoC4/CyLib.c ****         *
2479:Generated_Source\PSoC4/CyLib.c ****         *  This API sets the cycle time lower and upper limits.
2480:Generated_Source\PSoC4/CyLib.c ****         *
2481:Generated_Source\PSoC4/CyLib.c ****         *  This API is available only for PSoC 4500 with PLL devices.
2482:Generated_Source\PSoC4/CyLib.c ****         *
2483:Generated_Source\PSoC4/CyLib.c ****         * \param lower:
2484:Generated_Source\PSoC4/CyLib.c ****         *  Sets the lower limit -1, in reference clock cycles,
2485:Generated_Source\PSoC4/CyLib.c ****         *  before the next monitored clock event is allowed to happen.  If a monitored
2486:Generated_Source\PSoC4/CyLib.c ****         *  clock event happens before this limit is reached a CSV error is detected.
2487:Generated_Source\PSoC4/CyLib.c ****         *
2488:Generated_Source\PSoC4/CyLib.c ****         * \param upper:
2489:Generated_Source\PSoC4/CyLib.c ****         *  Sets the upper limit -1, in reference clock cycles, before (or same time)
2490:Generated_Source\PSoC4/CyLib.c ****         *  the next monitored clock event must happen.  If a monitored clock event
2491:Generated_Source\PSoC4/CyLib.c ****         *  does not happen before this limit is reached, or does not happen at all
2492:Generated_Source\PSoC4/CyLib.c ****         *  (clock loss), a CSV error is detected.
2493:Generated_Source\PSoC4/CyLib.c ****         *
2494:Generated_Source\PSoC4/CyLib.c ****         *******************************************************************************/
2495:Generated_Source\PSoC4/CyLib.c ****         void CySysClkPllCsvSetRefLimits(uint32 lower, uint32 upper)
2496:Generated_Source\PSoC4/CyLib.c ****         {
2497:Generated_Source\PSoC4/CyLib.c ****             uint32 tmpRegVal = CY_GET_REG32(CYREG_EXCO_REF_LIMIT);
2498:Generated_Source\PSoC4/CyLib.c **** 
2499:Generated_Source\PSoC4/CyLib.c ****             tmpRegVal &= ~(CY_SYS_PLL_REF_LIMIT_LOWER_MASK | CY_SYS_PLL_REF_LIMIT_UPPER_MASK);
2500:Generated_Source\PSoC4/CyLib.c ****             tmpRegVal |= (lower | ((uint32)(upper << CY_SYS_PLL_REF_LIMIT_UPPER_OFFSET)));
2501:Generated_Source\PSoC4/CyLib.c **** 
2502:Generated_Source\PSoC4/CyLib.c ****             CY_SET_REG32(CYREG_EXCO_REF_LIMIT, tmpRegVal);
2503:Generated_Source\PSoC4/CyLib.c ****         }
2504:Generated_Source\PSoC4/CyLib.c **** 
2505:Generated_Source\PSoC4/CyLib.c **** 
2506:Generated_Source\PSoC4/CyLib.c ****         /*******************************************************************************
2507:Generated_Source\PSoC4/CyLib.c ****         * Function Name: CySysClkPllCsvGetRefLimits
2508:Generated_Source\PSoC4/CyLib.c ****         ****************************************************************************//**
2509:Generated_Source\PSoC4/CyLib.c ****         *
2510:Generated_Source\PSoC4/CyLib.c ****         *  This API gets the cycle time lower and upper limits.
2511:Generated_Source\PSoC4/CyLib.c ****         *
2512:Generated_Source\PSoC4/CyLib.c ****         *  This API is available only for PSoC 4500 with PLL devices.
2513:Generated_Source\PSoC4/CyLib.c ****         *
2514:Generated_Source\PSoC4/CyLib.c ****         * \return
2515:Generated_Source\PSoC4/CyLib.c ****         *  *Bits 31:16  upper limit
2516:Generated_Source\PSoC4/CyLib.c ****         *  *Bits 15:0  lower limit
2517:Generated_Source\PSoC4/CyLib.c ****         *
2518:Generated_Source\PSoC4/CyLib.c ****         *******************************************************************************/
2519:Generated_Source\PSoC4/CyLib.c ****         uint32 CySysClkPllCsvGetRefLimits(void)
2520:Generated_Source\PSoC4/CyLib.c ****         {
2521:Generated_Source\PSoC4/CyLib.c ****             return ((uint32)CY_GET_REG32(CYREG_EXCO_REF_LIMIT));
2522:Generated_Source\PSoC4/CyLib.c ****         }
2523:Generated_Source\PSoC4/CyLib.c **** 
2524:Generated_Source\PSoC4/CyLib.c **** 
2525:Generated_Source\PSoC4/CyLib.c ****         /*******************************************************************************
2526:Generated_Source\PSoC4/CyLib.c ****         * Function Name: CySysClkPllCsvSetPeriod
2527:Generated_Source\PSoC4/CyLib.c ****         ****************************************************************************//**
2528:Generated_Source\PSoC4/CyLib.c ****         *
2529:Generated_Source\PSoC4/CyLib.c ****         *  This API sets the csv period time.
2530:Generated_Source\PSoC4/CyLib.c ****         *
2531:Generated_Source\PSoC4/CyLib.c ****         *  This API is available only for PSoC 4500 with PLL devices.
2532:Generated_Source\PSoC4/CyLib.c ****         *
2533:Generated_Source\PSoC4/CyLib.c ****         * \param period:
ARM GAS  C:\Users\YUANFA~1\AppData\Local\Temp\ccYDlzYT.s 			page 68


2534:Generated_Source\PSoC4/CyLib.c ****         *  Set the Period -1, in monitored clock cycles, before the next monitored
2535:Generated_Source\PSoC4/CyLib.c ****         *  clock event happens.
2536:Generated_Source\PSoC4/CyLib.c ****         *  PERIOD <=  (UPPER+1) / FREQ_RATIO -1, with
2537:Generated_Source\PSoC4/CyLib.c ****         *  FREQ_RATIO = (Reference frequency / Monitored frequency).
2538:Generated_Source\PSoC4/CyLib.c ****         *  In case the clocks are asynchronous: PERIOD <=  UPPER / FREQ_RATIO -1
2539:Generated_Source\PSoC4/CyLib.c ****         *
2540:Generated_Source\PSoC4/CyLib.c ****         *******************************************************************************/
2541:Generated_Source\PSoC4/CyLib.c ****         void CySysClkPllCsvSetPeriod(uint32 period)
2542:Generated_Source\PSoC4/CyLib.c ****         {
2543:Generated_Source\PSoC4/CyLib.c ****             CY_SET_REG32_FIELD(CYREG_EXCO_MON_CTL, CYFLD_EXCO_PERIOD, period);
2544:Generated_Source\PSoC4/CyLib.c ****         }
2545:Generated_Source\PSoC4/CyLib.c **** 
2546:Generated_Source\PSoC4/CyLib.c **** 
2547:Generated_Source\PSoC4/CyLib.c ****         /*******************************************************************************
2548:Generated_Source\PSoC4/CyLib.c ****         * Function Name: CySysClkPllCsvGetPeriod
2549:Generated_Source\PSoC4/CyLib.c ****         ****************************************************************************//**
2550:Generated_Source\PSoC4/CyLib.c ****         *
2551:Generated_Source\PSoC4/CyLib.c ****         *  This API returns the CSV period time.
2552:Generated_Source\PSoC4/CyLib.c ****         *
2553:Generated_Source\PSoC4/CyLib.c ****         *  This API is available only for PSoC 4500 with PLL devices.
2554:Generated_Source\PSoC4/CyLib.c ****         *
2555:Generated_Source\PSoC4/CyLib.c ****         * \return Period time
2556:Generated_Source\PSoC4/CyLib.c ****         *
2557:Generated_Source\PSoC4/CyLib.c ****         *******************************************************************************/
2558:Generated_Source\PSoC4/CyLib.c ****         uint32 CySysClkPllCsvGetPeriod(void)
2559:Generated_Source\PSoC4/CyLib.c ****         {
2560:Generated_Source\PSoC4/CyLib.c ****             return ((uint32)CY_GET_REG32_FIELD(CYREG_EXCO_MON_CTL, CYFLD_EXCO_PERIOD));
2561:Generated_Source\PSoC4/CyLib.c ****         }
2562:Generated_Source\PSoC4/CyLib.c **** 
2563:Generated_Source\PSoC4/CyLib.c **** 
2564:Generated_Source\PSoC4/CyLib.c ****         /*******************************************************************************
2565:Generated_Source\PSoC4/CyLib.c ****         * Function Name: CySysClkPllCsvEnableReset
2566:Generated_Source\PSoC4/CyLib.c ****         ****************************************************************************//**
2567:Generated_Source\PSoC4/CyLib.c ****         *
2568:Generated_Source\PSoC4/CyLib.c ****         *  This API enables the system reset feature when the clock supervisor switches
2569:Generated_Source\PSoC4/CyLib.c ****         *  the clock source to IMO. A programmable delay counter starts at delay count
2570:Generated_Source\PSoC4/CyLib.c ****         *  value (see CySysClkPllCsvReloadPgmDlyCounter API) and counts down.
2571:Generated_Source\PSoC4/CyLib.c ****         *
2572:Generated_Source\PSoC4/CyLib.c ****         *  The CSV block will assert system reset when the counter reaches zero unless
2573:Generated_Source\PSoC4/CyLib.c ****         *  firmware intervenes and reloads the counter using
2574:Generated_Source\PSoC4/CyLib.c ****         *  CySysClkPllCsvReloadPgmDlyCounter() API.
2575:Generated_Source\PSoC4/CyLib.c ****         *
2576:Generated_Source\PSoC4/CyLib.c ****         *  This API is available only for PSoC 4500 with PLL devices.
2577:Generated_Source\PSoC4/CyLib.c ****         *
2578:Generated_Source\PSoC4/CyLib.c ****         *  Side Effects and Restrictions:
2579:Generated_Source\PSoC4/CyLib.c ****         *  If a clock switch occurs, CSV block will reset the device when the delay
2580:Generated_Source\PSoC4/CyLib.c ****         *  counter reaches zero unless firmware reloads the counter using
2581:Generated_Source\PSoC4/CyLib.c ****         *  CySysClkPllCsvReloadPgmDlyCounter() API.
2582:Generated_Source\PSoC4/CyLib.c ****         *
2583:Generated_Source\PSoC4/CyLib.c ****         *******************************************************************************/
2584:Generated_Source\PSoC4/CyLib.c ****         void CySysClkPllCsvEnableReset(void)
2585:Generated_Source\PSoC4/CyLib.c ****         {
2586:Generated_Source\PSoC4/CyLib.c ****             CY_SET_REG32_FIELD(CYREG_EXCO_RSTDLY_CTL, CYFLD_EXCO_EN, 0x1uL);
2587:Generated_Source\PSoC4/CyLib.c ****         }
2588:Generated_Source\PSoC4/CyLib.c **** 
2589:Generated_Source\PSoC4/CyLib.c **** 
2590:Generated_Source\PSoC4/CyLib.c ****         /*******************************************************************************
ARM GAS  C:\Users\YUANFA~1\AppData\Local\Temp\ccYDlzYT.s 			page 69


2591:Generated_Source\PSoC4/CyLib.c ****         * Function Name: CySysClkPllCsvDisableReset
2592:Generated_Source\PSoC4/CyLib.c ****         ****************************************************************************//**
2593:Generated_Source\PSoC4/CyLib.c ****         *
2594:Generated_Source\PSoC4/CyLib.c ****         *  This API disables the system reset feature when the clock supervisor
2595:Generated_Source\PSoC4/CyLib.c ****         *  switches the clock source to IMO.
2596:Generated_Source\PSoC4/CyLib.c ****         *
2597:Generated_Source\PSoC4/CyLib.c ****         *  This API is available only for PSoC 4500 with PLL devices.
2598:Generated_Source\PSoC4/CyLib.c ****         *
2599:Generated_Source\PSoC4/CyLib.c ****         *******************************************************************************/
2600:Generated_Source\PSoC4/CyLib.c ****         void CySysClkPllCsvDisableReset(void)
2601:Generated_Source\PSoC4/CyLib.c ****         {
2602:Generated_Source\PSoC4/CyLib.c ****             CY_CLEAR_REG32_FIELD(CYREG_EXCO_RSTDLY_CTL, CYFLD_EXCO_EN);
2603:Generated_Source\PSoC4/CyLib.c ****         }
2604:Generated_Source\PSoC4/CyLib.c **** 
2605:Generated_Source\PSoC4/CyLib.c **** 
2606:Generated_Source\PSoC4/CyLib.c ****         /*******************************************************************************
2607:Generated_Source\PSoC4/CyLib.c ****         * Function Name: CySysClkPllCsvReloadPgmDlyCounter
2608:Generated_Source\PSoC4/CyLib.c ****         ****************************************************************************//**
2609:Generated_Source\PSoC4/CyLib.c ****         *
2610:Generated_Source\PSoC4/CyLib.c ****         *  This API reloads the programmable delay counter with the delay count value.
2611:Generated_Source\PSoC4/CyLib.c ****         *
2612:Generated_Source\PSoC4/CyLib.c ****         *  This API is available only for PSoC 4500 with PLL devices.
2613:Generated_Source\PSoC4/CyLib.c ****         *
2614:Generated_Source\PSoC4/CyLib.c ****         * \param delayCount:
2615:Generated_Source\PSoC4/CyLib.c ****         *  Valid range 0-65535, device default value is 256.
2616:Generated_Source\PSoC4/CyLib.c ****         *  Sets the # of counts of IMO clock before system reset is asserted.
2617:Generated_Source\PSoC4/CyLib.c ****         *
2618:Generated_Source\PSoC4/CyLib.c ****         *
2619:Generated_Source\PSoC4/CyLib.c ****         *******************************************************************************/
2620:Generated_Source\PSoC4/CyLib.c ****         void CySysClkPllCsvReloadPgmDlyCounter(uint32 delayCount)
2621:Generated_Source\PSoC4/CyLib.c ****         {
2622:Generated_Source\PSoC4/CyLib.c ****             CY_SET_REG32_FIELD(CYREG_EXCO_RSTDLY, CYFLD_EXCO_DLYCOUNT, delayCount);
2623:Generated_Source\PSoC4/CyLib.c ****             CY_SET_REG32_FIELD(CYREG_EXCO_RSTDLY_CTL, CYFLD_EXCO_LOAD, 0x1uL);
2624:Generated_Source\PSoC4/CyLib.c ****         }
2625:Generated_Source\PSoC4/CyLib.c **** 
2626:Generated_Source\PSoC4/CyLib.c ****     #endif /* (CY_IP_ECOV2_SRSSLT) */
2627:Generated_Source\PSoC4/CyLib.c **** 
2628:Generated_Source\PSoC4/CyLib.c **** #endif /* (CY_IP_PLL) */
2629:Generated_Source\PSoC4/CyLib.c **** 
2630:Generated_Source\PSoC4/CyLib.c **** 
2631:Generated_Source\PSoC4/CyLib.c **** #if(CY_IP_SRSSV2)
2632:Generated_Source\PSoC4/CyLib.c **** 
2633:Generated_Source\PSoC4/CyLib.c ****     /*******************************************************************************
2634:Generated_Source\PSoC4/CyLib.c ****     * Function Name: CySysLvdEnable
2635:Generated_Source\PSoC4/CyLib.c ****     ****************************************************************************//**
2636:Generated_Source\PSoC4/CyLib.c ****     *
2637:Generated_Source\PSoC4/CyLib.c ****     *  Enables the output of the low-voltage monitor when Vddd is at or below the
2638:Generated_Source\PSoC4/CyLib.c ****     *  trip point, configures the device to generate an interrupt, and sets the
2639:Generated_Source\PSoC4/CyLib.c ****     *  voltage trip level.
2640:Generated_Source\PSoC4/CyLib.c ****     *
2641:Generated_Source\PSoC4/CyLib.c ****     *  \param threshold: Threshold selection for Low Voltage Detect circuit.
2642:Generated_Source\PSoC4/CyLib.c ****     *  Threshold variation is +/- 2.5% from these typical voltage choices.
2643:Generated_Source\PSoC4/CyLib.c ****     *         Define                     Voltage threshold
2644:Generated_Source\PSoC4/CyLib.c ****     *    CY_LVD_THRESHOLD_1_75_V       1.7500 V
2645:Generated_Source\PSoC4/CyLib.c ****     *    CY_LVD_THRESHOLD_1_80_V       1.8000 V
2646:Generated_Source\PSoC4/CyLib.c ****     *    CY_LVD_THRESHOLD_1_90_V       1.9000 V
2647:Generated_Source\PSoC4/CyLib.c ****     *    CY_LVD_THRESHOLD_2_00_V       2.0000 V
ARM GAS  C:\Users\YUANFA~1\AppData\Local\Temp\ccYDlzYT.s 			page 70


2648:Generated_Source\PSoC4/CyLib.c ****     *    CY_LVD_THRESHOLD_2_10_V       2.1000 V
2649:Generated_Source\PSoC4/CyLib.c ****     *    CY_LVD_THRESHOLD_2_20_V       2.2000 V
2650:Generated_Source\PSoC4/CyLib.c ****     *    CY_LVD_THRESHOLD_2_30_V       2.3000 V
2651:Generated_Source\PSoC4/CyLib.c ****     *    CY_LVD_THRESHOLD_2_40_V       2.4000 V
2652:Generated_Source\PSoC4/CyLib.c ****     *    CY_LVD_THRESHOLD_2_50_V       2.5000 V
2653:Generated_Source\PSoC4/CyLib.c ****     *    CY_LVD_THRESHOLD_2_60_V       2.6000 V
2654:Generated_Source\PSoC4/CyLib.c ****     *    CY_LVD_THRESHOLD_2_70_V       2.7000 V
2655:Generated_Source\PSoC4/CyLib.c ****     *    CY_LVD_THRESHOLD_2_80_V       2.8000 V
2656:Generated_Source\PSoC4/CyLib.c ****     *    CY_LVD_THRESHOLD_2_90_V       2.9000 V
2657:Generated_Source\PSoC4/CyLib.c ****     *    CY_LVD_THRESHOLD_3_00_V       3.0000 V
2658:Generated_Source\PSoC4/CyLib.c ****     *    CY_LVD_THRESHOLD_3_20_V       3.2000 V
2659:Generated_Source\PSoC4/CyLib.c ****     *    CY_LVD_THRESHOLD_4_50_V       4.5000 V
2660:Generated_Source\PSoC4/CyLib.c ****     *
2661:Generated_Source\PSoC4/CyLib.c ****     *******************************************************************************/
2662:Generated_Source\PSoC4/CyLib.c ****     void CySysLvdEnable(uint32 threshold)
2663:Generated_Source\PSoC4/CyLib.c ****     {
2664:Generated_Source\PSoC4/CyLib.c ****         /* Prevent propagating a false interrupt */
2665:Generated_Source\PSoC4/CyLib.c ****         CY_LVD_PWR_INTR_MASK_REG   &= (uint32) ~CY_LVD_PROPAGATE_INT_TO_CPU;
2666:Generated_Source\PSoC4/CyLib.c **** 
2667:Generated_Source\PSoC4/CyLib.c ****         /* Set specified threshold */
2668:Generated_Source\PSoC4/CyLib.c ****         CY_LVD_PWR_VMON_CONFIG_REG = (CY_LVD_PWR_VMON_CONFIG_REG & ~CY_LVD_PWR_VMON_CONFIG_LVD_SEL_
2669:Generated_Source\PSoC4/CyLib.c ****                 ((threshold << CY_LVD_PWR_VMON_CONFIG_LVD_SEL_SHIFT) & CY_LVD_PWR_VMON_CONFIG_LVD_S
2670:Generated_Source\PSoC4/CyLib.c **** 
2671:Generated_Source\PSoC4/CyLib.c ****         /* Enable the LVD. This may cause a false LVD event. */
2672:Generated_Source\PSoC4/CyLib.c ****         CY_LVD_PWR_VMON_CONFIG_REG |= CY_LVD_PWR_VMON_CONFIG_LVD_EN;
2673:Generated_Source\PSoC4/CyLib.c **** 
2674:Generated_Source\PSoC4/CyLib.c ****         /* Wait for the circuit to stabilize */
2675:Generated_Source\PSoC4/CyLib.c ****         CyDelayUs(CY_LVD_STABILIZE_TIMEOUT_US);
2676:Generated_Source\PSoC4/CyLib.c **** 
2677:Generated_Source\PSoC4/CyLib.c ****         /* Clear the false event */
2678:Generated_Source\PSoC4/CyLib.c ****         CySysLvdClearInterrupt();
2679:Generated_Source\PSoC4/CyLib.c **** 
2680:Generated_Source\PSoC4/CyLib.c ****         /* Unmask the interrupt */
2681:Generated_Source\PSoC4/CyLib.c ****         CY_LVD_PWR_INTR_MASK_REG   |= CY_LVD_PROPAGATE_INT_TO_CPU;
2682:Generated_Source\PSoC4/CyLib.c ****     }
2683:Generated_Source\PSoC4/CyLib.c **** 
2684:Generated_Source\PSoC4/CyLib.c **** 
2685:Generated_Source\PSoC4/CyLib.c ****     /*******************************************************************************
2686:Generated_Source\PSoC4/CyLib.c ****     * Function Name: CySysLvdDisable
2687:Generated_Source\PSoC4/CyLib.c ****     ****************************************************************************//**
2688:Generated_Source\PSoC4/CyLib.c ****     *
2689:Generated_Source\PSoC4/CyLib.c ****     *  Disables the low voltage detection. A low voltage interrupt is disabled.
2690:Generated_Source\PSoC4/CyLib.c ****     *
2691:Generated_Source\PSoC4/CyLib.c ****     *******************************************************************************/
2692:Generated_Source\PSoC4/CyLib.c ****     void CySysLvdDisable(void)
2693:Generated_Source\PSoC4/CyLib.c ****     {
2694:Generated_Source\PSoC4/CyLib.c ****         CY_LVD_PWR_INTR_MASK_REG   &= ~CY_LVD_PROPAGATE_INT_TO_CPU;
2695:Generated_Source\PSoC4/CyLib.c ****         CY_LVD_PWR_VMON_CONFIG_REG &= ~CY_LVD_PWR_VMON_CONFIG_LVD_EN;
2696:Generated_Source\PSoC4/CyLib.c ****     }
2697:Generated_Source\PSoC4/CyLib.c **** 
2698:Generated_Source\PSoC4/CyLib.c **** 
2699:Generated_Source\PSoC4/CyLib.c ****     /*******************************************************************************
2700:Generated_Source\PSoC4/CyLib.c ****     * Function Name: CySysLvdGetInterruptSource
2701:Generated_Source\PSoC4/CyLib.c ****     ****************************************************************************//**
2702:Generated_Source\PSoC4/CyLib.c ****     *
2703:Generated_Source\PSoC4/CyLib.c ****     *  Gets the low voltage detection interrupt status (without clearing).
2704:Generated_Source\PSoC4/CyLib.c ****     *
ARM GAS  C:\Users\YUANFA~1\AppData\Local\Temp\ccYDlzYT.s 			page 71


2705:Generated_Source\PSoC4/CyLib.c ****     * \return
2706:Generated_Source\PSoC4/CyLib.c ****     *  Interrupt request value:
2707:Generated_Source\PSoC4/CyLib.c ****     *    CY_SYS_LVD_INT - Indicates an Low Voltage Detect interrupt
2708:Generated_Source\PSoC4/CyLib.c ****     *
2709:Generated_Source\PSoC4/CyLib.c ****     *******************************************************************************/
2710:Generated_Source\PSoC4/CyLib.c ****     uint32 CySysLvdGetInterruptSource(void)
2711:Generated_Source\PSoC4/CyLib.c ****     {
2712:Generated_Source\PSoC4/CyLib.c ****         return (CY_LVD_PWR_INTR_REG & CY_SYS_LVD_INT);
2713:Generated_Source\PSoC4/CyLib.c ****     }
2714:Generated_Source\PSoC4/CyLib.c **** 
2715:Generated_Source\PSoC4/CyLib.c **** 
2716:Generated_Source\PSoC4/CyLib.c ****     /*******************************************************************************
2717:Generated_Source\PSoC4/CyLib.c ****     * Function Name: CySysLvdClearInterrupt
2718:Generated_Source\PSoC4/CyLib.c ****     ****************************************************************************//**
2719:Generated_Source\PSoC4/CyLib.c ****     *
2720:Generated_Source\PSoC4/CyLib.c ****     *  Clears the low voltage detection interrupt status.
2721:Generated_Source\PSoC4/CyLib.c ****     *
2722:Generated_Source\PSoC4/CyLib.c ****     * \return
2723:Generated_Source\PSoC4/CyLib.c ****     *  None
2724:Generated_Source\PSoC4/CyLib.c ****     *
2725:Generated_Source\PSoC4/CyLib.c ****     *******************************************************************************/
2726:Generated_Source\PSoC4/CyLib.c ****     void CySysLvdClearInterrupt(void)
2727:Generated_Source\PSoC4/CyLib.c ****     {
2728:Generated_Source\PSoC4/CyLib.c ****         CY_LVD_PWR_INTR_REG = CY_SYS_LVD_INT;
2729:Generated_Source\PSoC4/CyLib.c ****     }
2730:Generated_Source\PSoC4/CyLib.c **** 
2731:Generated_Source\PSoC4/CyLib.c **** #endif /* (CY_IP_SRSSV2) */
2732:Generated_Source\PSoC4/CyLib.c **** 
2733:Generated_Source\PSoC4/CyLib.c **** 
2734:Generated_Source\PSoC4/CyLib.c **** /*******************************************************************************
2735:Generated_Source\PSoC4/CyLib.c **** * Function Name: CySysGetResetReason
2736:Generated_Source\PSoC4/CyLib.c **** ****************************************************************************//**
2737:Generated_Source\PSoC4/CyLib.c **** *
2738:Generated_Source\PSoC4/CyLib.c **** *  Reports the cause for the latest reset(s) that occurred in the system. All
2739:Generated_Source\PSoC4/CyLib.c **** *  the bits in the RES_CAUSE register assert when the corresponding reset cause
2740:Generated_Source\PSoC4/CyLib.c **** *  occurs and must be cleared by the firmware. These bits are cleared by the
2741:Generated_Source\PSoC4/CyLib.c **** *  hardware only during XRES, POR, or a detected brown-out.
2742:Generated_Source\PSoC4/CyLib.c **** *
2743:Generated_Source\PSoC4/CyLib.c **** *  \param reason: bits in the RES_CAUSE register to clear.
2744:Generated_Source\PSoC4/CyLib.c **** *   CY_SYS_RESET_WDT       - WDT caused a reset
2745:Generated_Source\PSoC4/CyLib.c **** *   CY_SYS_RESET_PROTFAULT - Occured protection violation that requires reset
2746:Generated_Source\PSoC4/CyLib.c **** *   CY_SYS_RESET_SW        - Cortex-M0 requested a system reset.
2747:Generated_Source\PSoC4/CyLib.c **** *
2748:Generated_Source\PSoC4/CyLib.c **** * \return
2749:Generated_Source\PSoC4/CyLib.c **** *  Status. Same enumerated bit values as used for the reason parameter.
2750:Generated_Source\PSoC4/CyLib.c **** *
2751:Generated_Source\PSoC4/CyLib.c **** *******************************************************************************/
2752:Generated_Source\PSoC4/CyLib.c **** uint32 CySysGetResetReason(uint32 reason)
2753:Generated_Source\PSoC4/CyLib.c **** {
 1259              		.loc 1 2753 0
 1260              		.cfi_startproc
 1261              		@ args = 0, pretend = 0, frame = 0
 1262              		@ frame_needed = 0, uses_anonymous_args = 0
 1263              		@ link register save eliminated.
 1264              	.LVL113:
 1265 0000 0200     		movs	r2, r0
2754:Generated_Source\PSoC4/CyLib.c ****     uint32 returnStatus;
ARM GAS  C:\Users\YUANFA~1\AppData\Local\Temp\ccYDlzYT.s 			page 72


2755:Generated_Source\PSoC4/CyLib.c **** 
2756:Generated_Source\PSoC4/CyLib.c ****     reason &= (CY_SYS_RESET_WDT | CY_SYS_RESET_PROTFAULT | CY_SYS_RESET_SW);
 1266              		.loc 1 2756 0
 1267 0002 1920     		movs	r0, #25
 1268              	.LVL114:
 1269 0004 0240     		ands	r2, r0
 1270              	.LVL115:
2757:Generated_Source\PSoC4/CyLib.c ****     returnStatus = CY_SYS_RES_CAUSE_REG &
 1271              		.loc 1 2757 0
 1272 0006 0249     		ldr	r1, .L89
 1273 0008 0B68     		ldr	r3, [r1]
 1274 000a 1840     		ands	r0, r3
 1275              	.LVL116:
2758:Generated_Source\PSoC4/CyLib.c ****                   (CY_SYS_RESET_WDT | CY_SYS_RESET_PROTFAULT | CY_SYS_RESET_SW);
2759:Generated_Source\PSoC4/CyLib.c ****     CY_SYS_RES_CAUSE_REG = reason;
 1276              		.loc 1 2759 0
 1277 000c 0A60     		str	r2, [r1]
2760:Generated_Source\PSoC4/CyLib.c **** 
2761:Generated_Source\PSoC4/CyLib.c ****     return (returnStatus);
2762:Generated_Source\PSoC4/CyLib.c **** }
 1278              		.loc 1 2762 0
 1279              		@ sp needed
 1280 000e 7047     		bx	lr
 1281              	.L90:
 1282              		.align	2
 1283              	.L89:
 1284 0010 54000340 		.word	1073938516
 1285              		.cfi_endproc
 1286              	.LFE28:
 1287              		.size	CySysGetResetReason, .-CySysGetResetReason
 1288              		.section	.text.CyDisableInts,"ax",%progbits
 1289              		.align	2
 1290              		.global	CyDisableInts
 1291              		.code	16
 1292              		.thumb_func
 1293              		.type	CyDisableInts, %function
 1294              	CyDisableInts:
 1295              	.LFB29:
2763:Generated_Source\PSoC4/CyLib.c **** 
2764:Generated_Source\PSoC4/CyLib.c **** 
2765:Generated_Source\PSoC4/CyLib.c **** /*******************************************************************************
2766:Generated_Source\PSoC4/CyLib.c **** * Function Name: CyDisableInts
2767:Generated_Source\PSoC4/CyLib.c **** ****************************************************************************//**
2768:Generated_Source\PSoC4/CyLib.c **** *
2769:Generated_Source\PSoC4/CyLib.c **** *  Disables all interrupts.
2770:Generated_Source\PSoC4/CyLib.c **** *
2771:Generated_Source\PSoC4/CyLib.c **** * \return
2772:Generated_Source\PSoC4/CyLib.c **** *  32 bit mask of previously enabled interrupts.
2773:Generated_Source\PSoC4/CyLib.c **** *
2774:Generated_Source\PSoC4/CyLib.c **** *******************************************************************************/
2775:Generated_Source\PSoC4/CyLib.c **** uint32 CyDisableInts(void)
2776:Generated_Source\PSoC4/CyLib.c **** {
 1296              		.loc 1 2776 0
 1297              		.cfi_startproc
 1298              		@ args = 0, pretend = 0, frame = 0
 1299              		@ frame_needed = 0, uses_anonymous_args = 0
 1300              		@ link register save eliminated.
ARM GAS  C:\Users\YUANFA~1\AppData\Local\Temp\ccYDlzYT.s 			page 73


2777:Generated_Source\PSoC4/CyLib.c ****     uint32 intState;
2778:Generated_Source\PSoC4/CyLib.c **** 
2779:Generated_Source\PSoC4/CyLib.c ****     /* Get current interrupt state. */
2780:Generated_Source\PSoC4/CyLib.c ****     intState = CY_INT_CLEAR_REG;
 1301              		.loc 1 2780 0
 1302 0000 024B     		ldr	r3, .L92
 1303 0002 1868     		ldr	r0, [r3]
 1304              	.LVL117:
2781:Generated_Source\PSoC4/CyLib.c **** 
2782:Generated_Source\PSoC4/CyLib.c ****     /* Disable all interrupts. */
2783:Generated_Source\PSoC4/CyLib.c ****     CY_INT_CLEAR_REG = CY_INT_CLEAR_DISABLE_ALL;
 1305              		.loc 1 2783 0
 1306 0004 0122     		movs	r2, #1
 1307 0006 5242     		rsbs	r2, r2, #0
 1308 0008 1A60     		str	r2, [r3]
2784:Generated_Source\PSoC4/CyLib.c **** 
2785:Generated_Source\PSoC4/CyLib.c ****     return (intState);
2786:Generated_Source\PSoC4/CyLib.c **** }
 1309              		.loc 1 2786 0
 1310              		@ sp needed
 1311 000a 7047     		bx	lr
 1312              	.L93:
 1313              		.align	2
 1314              	.L92:
 1315 000c 80E100E0 		.word	-536813184
 1316              		.cfi_endproc
 1317              	.LFE29:
 1318              		.size	CyDisableInts, .-CyDisableInts
 1319              		.section	.text.CyEnableInts,"ax",%progbits
 1320              		.align	2
 1321              		.global	CyEnableInts
 1322              		.code	16
 1323              		.thumb_func
 1324              		.type	CyEnableInts, %function
 1325              	CyEnableInts:
 1326              	.LFB30:
2787:Generated_Source\PSoC4/CyLib.c **** 
2788:Generated_Source\PSoC4/CyLib.c **** 
2789:Generated_Source\PSoC4/CyLib.c **** /*******************************************************************************
2790:Generated_Source\PSoC4/CyLib.c **** * Function Name: CyEnableInts
2791:Generated_Source\PSoC4/CyLib.c **** ****************************************************************************//**
2792:Generated_Source\PSoC4/CyLib.c **** *
2793:Generated_Source\PSoC4/CyLib.c **** *  Enables interrupts to a given state.
2794:Generated_Source\PSoC4/CyLib.c **** *
2795:Generated_Source\PSoC4/CyLib.c **** *  \param mask The 32 bit mask of interrupts to enable.
2796:Generated_Source\PSoC4/CyLib.c **** *
2797:Generated_Source\PSoC4/CyLib.c **** *******************************************************************************/
2798:Generated_Source\PSoC4/CyLib.c **** void CyEnableInts(uint32 mask)
2799:Generated_Source\PSoC4/CyLib.c **** {
 1327              		.loc 1 2799 0
 1328              		.cfi_startproc
 1329              		@ args = 0, pretend = 0, frame = 0
 1330              		@ frame_needed = 0, uses_anonymous_args = 0
 1331              		@ link register save eliminated.
 1332              	.LVL118:
2800:Generated_Source\PSoC4/CyLib.c ****     CY_INT_ENABLE_REG = mask;
 1333              		.loc 1 2800 0
ARM GAS  C:\Users\YUANFA~1\AppData\Local\Temp\ccYDlzYT.s 			page 74


 1334 0000 014B     		ldr	r3, .L95
 1335 0002 1860     		str	r0, [r3]
2801:Generated_Source\PSoC4/CyLib.c **** }
 1336              		.loc 1 2801 0
 1337              		@ sp needed
 1338 0004 7047     		bx	lr
 1339              	.L96:
 1340 0006 C046     		.align	2
 1341              	.L95:
 1342 0008 00E100E0 		.word	-536813312
 1343              		.cfi_endproc
 1344              	.LFE30:
 1345              		.size	CyEnableInts, .-CyEnableInts
 1346              		.section	.text.CyIntEnable,"ax",%progbits
 1347              		.align	2
 1348              		.global	CyIntEnable
 1349              		.code	16
 1350              		.thumb_func
 1351              		.type	CyIntEnable, %function
 1352              	CyIntEnable:
 1353              	.LFB37:
2802:Generated_Source\PSoC4/CyLib.c **** 
2803:Generated_Source\PSoC4/CyLib.c **** 
2804:Generated_Source\PSoC4/CyLib.c **** /*******************************************************************************
2805:Generated_Source\PSoC4/CyLib.c **** * Function Name: CyIntSetSysVector
2806:Generated_Source\PSoC4/CyLib.c **** ****************************************************************************//**
2807:Generated_Source\PSoC4/CyLib.c **** *
2808:Generated_Source\PSoC4/CyLib.c **** *  Sets the interrupt vector of the specified system interrupt number. These
2809:Generated_Source\PSoC4/CyLib.c **** *  interrupts are for SysTick, PendSV and others.
2810:Generated_Source\PSoC4/CyLib.c **** *
2811:Generated_Source\PSoC4/CyLib.c **** *  \param number: System interrupt number:
2812:Generated_Source\PSoC4/CyLib.c **** *    CY_INT_NMI_IRQN        - Non Maskable Interrupt
2813:Generated_Source\PSoC4/CyLib.c **** *    CY_INT_HARD_FAULT_IRQN - Hard Fault Interrupt
2814:Generated_Source\PSoC4/CyLib.c **** *    CY_INT_SVCALL_IRQN     - SV Call Interrupt
2815:Generated_Source\PSoC4/CyLib.c **** *    CY_INT_PEND_SV_IRQN    - Pend SV Interrupt
2816:Generated_Source\PSoC4/CyLib.c **** *    CY_INT_SYSTICK_IRQN    - System Tick Interrupt
2817:Generated_Source\PSoC4/CyLib.c **** *
2818:Generated_Source\PSoC4/CyLib.c **** *  \param address Pointer to an interrupt service routine.
2819:Generated_Source\PSoC4/CyLib.c **** *
2820:Generated_Source\PSoC4/CyLib.c **** * \return The old ISR vector at this location.
2821:Generated_Source\PSoC4/CyLib.c **** *
2822:Generated_Source\PSoC4/CyLib.c **** *******************************************************************************/
2823:Generated_Source\PSoC4/CyLib.c **** cyisraddress CyIntSetSysVector(uint8 number, cyisraddress address)
2824:Generated_Source\PSoC4/CyLib.c **** {
2825:Generated_Source\PSoC4/CyLib.c ****     cyisraddress oldIsr;
2826:Generated_Source\PSoC4/CyLib.c ****     cyisraddress *ramVectorTable = (cyisraddress *) CY_INT_VECT_TABLE;
2827:Generated_Source\PSoC4/CyLib.c **** 
2828:Generated_Source\PSoC4/CyLib.c ****     CYASSERT(number < CY_INT_IRQ_BASE);
2829:Generated_Source\PSoC4/CyLib.c **** 
2830:Generated_Source\PSoC4/CyLib.c ****     /* Save old Interrupt service routine. */
2831:Generated_Source\PSoC4/CyLib.c ****     oldIsr = ramVectorTable[number];
2832:Generated_Source\PSoC4/CyLib.c **** 
2833:Generated_Source\PSoC4/CyLib.c ****     /* Set new Interrupt service routine. */
2834:Generated_Source\PSoC4/CyLib.c ****     ramVectorTable[number] = address;
2835:Generated_Source\PSoC4/CyLib.c **** 
2836:Generated_Source\PSoC4/CyLib.c ****     return(oldIsr);
2837:Generated_Source\PSoC4/CyLib.c **** }
ARM GAS  C:\Users\YUANFA~1\AppData\Local\Temp\ccYDlzYT.s 			page 75


2838:Generated_Source\PSoC4/CyLib.c **** 
2839:Generated_Source\PSoC4/CyLib.c **** 
2840:Generated_Source\PSoC4/CyLib.c **** /*******************************************************************************
2841:Generated_Source\PSoC4/CyLib.c **** * Function Name: CyIntGetSysVector
2842:Generated_Source\PSoC4/CyLib.c **** ****************************************************************************//**
2843:Generated_Source\PSoC4/CyLib.c **** *
2844:Generated_Source\PSoC4/CyLib.c **** *   Gets the interrupt vector of the specified system interrupt number. These
2845:Generated_Source\PSoC4/CyLib.c **** *   interrupts are for SysTick, PendSV and others.
2846:Generated_Source\PSoC4/CyLib.c **** *
2847:Generated_Source\PSoC4/CyLib.c **** *  \param number: System interrupt number:
2848:Generated_Source\PSoC4/CyLib.c **** *    CY_INT_NMI_IRQN        - Non Maskable Interrupt
2849:Generated_Source\PSoC4/CyLib.c **** *    CY_INT_HARD_FAULT_IRQN - Hard Fault Interrupt
2850:Generated_Source\PSoC4/CyLib.c **** *    CY_INT_SVCALL_IRQN     - SV Call Interrupt
2851:Generated_Source\PSoC4/CyLib.c **** *    CY_INT_PEND_SV_IRQN    - Pend SV Interrupt
2852:Generated_Source\PSoC4/CyLib.c **** *    CY_INT_SYSTICK_IRQN    - System Tick Interrupt
2853:Generated_Source\PSoC4/CyLib.c **** *
2854:Generated_Source\PSoC4/CyLib.c **** * \return Address of the ISR in the interrupt vector table.
2855:Generated_Source\PSoC4/CyLib.c **** *
2856:Generated_Source\PSoC4/CyLib.c **** *******************************************************************************/
2857:Generated_Source\PSoC4/CyLib.c **** cyisraddress CyIntGetSysVector(uint8 number)
2858:Generated_Source\PSoC4/CyLib.c **** {
2859:Generated_Source\PSoC4/CyLib.c ****     cyisraddress *ramVectorTable = (cyisraddress *) CY_INT_VECT_TABLE;
2860:Generated_Source\PSoC4/CyLib.c **** 
2861:Generated_Source\PSoC4/CyLib.c ****     CYASSERT(number < CY_INT_IRQ_BASE);
2862:Generated_Source\PSoC4/CyLib.c **** 
2863:Generated_Source\PSoC4/CyLib.c ****     return(ramVectorTable[number]);
2864:Generated_Source\PSoC4/CyLib.c **** }
2865:Generated_Source\PSoC4/CyLib.c **** 
2866:Generated_Source\PSoC4/CyLib.c **** 
2867:Generated_Source\PSoC4/CyLib.c **** /*******************************************************************************
2868:Generated_Source\PSoC4/CyLib.c **** * Function Name: CyIntSetVector
2869:Generated_Source\PSoC4/CyLib.c **** ****************************************************************************//**
2870:Generated_Source\PSoC4/CyLib.c **** *
2871:Generated_Source\PSoC4/CyLib.c **** *  Sets the interrupt vector of the specified interrupt number.
2872:Generated_Source\PSoC4/CyLib.c **** *
2873:Generated_Source\PSoC4/CyLib.c **** *  \param number Valid range [0-31].  Interrupt number
2874:Generated_Source\PSoC4/CyLib.c **** *  \param address Pointer to an interrupt service routine
2875:Generated_Source\PSoC4/CyLib.c **** *
2876:Generated_Source\PSoC4/CyLib.c **** * \return Previous interrupt vector value.
2877:Generated_Source\PSoC4/CyLib.c **** *
2878:Generated_Source\PSoC4/CyLib.c **** *******************************************************************************/
2879:Generated_Source\PSoC4/CyLib.c **** cyisraddress CyIntSetVector(uint8 number, cyisraddress address)
2880:Generated_Source\PSoC4/CyLib.c **** {
2881:Generated_Source\PSoC4/CyLib.c ****     cyisraddress oldIsr;
2882:Generated_Source\PSoC4/CyLib.c ****     cyisraddress *ramVectorTable = (cyisraddress *) CY_INT_VECT_TABLE;
2883:Generated_Source\PSoC4/CyLib.c **** 
2884:Generated_Source\PSoC4/CyLib.c ****     CYASSERT(number < CY_NUM_INTERRUPTS);
2885:Generated_Source\PSoC4/CyLib.c **** 
2886:Generated_Source\PSoC4/CyLib.c ****     /* Save old Interrupt service routine. */
2887:Generated_Source\PSoC4/CyLib.c ****     oldIsr = ramVectorTable[CY_INT_IRQ_BASE + number];
2888:Generated_Source\PSoC4/CyLib.c **** 
2889:Generated_Source\PSoC4/CyLib.c ****     /* Set new Interrupt service routine. */
2890:Generated_Source\PSoC4/CyLib.c ****     ramVectorTable[CY_INT_IRQ_BASE + number] = address;
2891:Generated_Source\PSoC4/CyLib.c **** 
2892:Generated_Source\PSoC4/CyLib.c ****     return(oldIsr);
2893:Generated_Source\PSoC4/CyLib.c **** }
2894:Generated_Source\PSoC4/CyLib.c **** 
ARM GAS  C:\Users\YUANFA~1\AppData\Local\Temp\ccYDlzYT.s 			page 76


2895:Generated_Source\PSoC4/CyLib.c **** 
2896:Generated_Source\PSoC4/CyLib.c **** /*******************************************************************************
2897:Generated_Source\PSoC4/CyLib.c **** * Function Name: CyIntGetVector
2898:Generated_Source\PSoC4/CyLib.c **** ****************************************************************************//**
2899:Generated_Source\PSoC4/CyLib.c **** *
2900:Generated_Source\PSoC4/CyLib.c **** *  Gets the interrupt vector of the specified interrupt number.
2901:Generated_Source\PSoC4/CyLib.c **** *
2902:Generated_Source\PSoC4/CyLib.c **** *  \param number: Valid range [0-31].  Interrupt number
2903:Generated_Source\PSoC4/CyLib.c **** *
2904:Generated_Source\PSoC4/CyLib.c **** * \return Address of the ISR in the interrupt vector table.
2905:Generated_Source\PSoC4/CyLib.c **** *
2906:Generated_Source\PSoC4/CyLib.c **** *******************************************************************************/
2907:Generated_Source\PSoC4/CyLib.c **** cyisraddress CyIntGetVector(uint8 number)
2908:Generated_Source\PSoC4/CyLib.c **** {
2909:Generated_Source\PSoC4/CyLib.c ****     cyisraddress *ramVectorTable = (cyisraddress *) CY_INT_VECT_TABLE;
2910:Generated_Source\PSoC4/CyLib.c **** 
2911:Generated_Source\PSoC4/CyLib.c ****     CYASSERT(number < CY_NUM_INTERRUPTS);
2912:Generated_Source\PSoC4/CyLib.c **** 
2913:Generated_Source\PSoC4/CyLib.c ****     return (ramVectorTable[CY_INT_IRQ_BASE + number]);
2914:Generated_Source\PSoC4/CyLib.c **** }
2915:Generated_Source\PSoC4/CyLib.c **** 
2916:Generated_Source\PSoC4/CyLib.c **** /*******************************************************************************
2917:Generated_Source\PSoC4/CyLib.c **** * Function Name: CyIntSetPriority
2918:Generated_Source\PSoC4/CyLib.c **** ****************************************************************************//**
2919:Generated_Source\PSoC4/CyLib.c **** *
2920:Generated_Source\PSoC4/CyLib.c **** *  Sets the priority of the interrupt.
2921:Generated_Source\PSoC4/CyLib.c **** *
2922:Generated_Source\PSoC4/CyLib.c **** *  \param priority: Priority of the interrupt. 0 - 3, 0 being the highest.
2923:Generated_Source\PSoC4/CyLib.c **** *  \param number: The number of the interrupt, 0 - 31.
2924:Generated_Source\PSoC4/CyLib.c **** *
2925:Generated_Source\PSoC4/CyLib.c **** *******************************************************************************/
2926:Generated_Source\PSoC4/CyLib.c **** void CyIntSetPriority(uint8 number, uint8 priority)
2927:Generated_Source\PSoC4/CyLib.c **** {
2928:Generated_Source\PSoC4/CyLib.c ****     uint8 interruptState;
2929:Generated_Source\PSoC4/CyLib.c ****     uint32 shift;
2930:Generated_Source\PSoC4/CyLib.c ****     uint32 value;
2931:Generated_Source\PSoC4/CyLib.c **** 
2932:Generated_Source\PSoC4/CyLib.c ****     CYASSERT(priority <= CY_MIN_PRIORITY);
2933:Generated_Source\PSoC4/CyLib.c ****     CYASSERT(number < CY_NUM_INTERRUPTS);
2934:Generated_Source\PSoC4/CyLib.c **** 
2935:Generated_Source\PSoC4/CyLib.c ****     shift = CY_INT_PRIORITY_SHIFT(number);
2936:Generated_Source\PSoC4/CyLib.c **** 
2937:Generated_Source\PSoC4/CyLib.c ****     interruptState = CyEnterCriticalSection();
2938:Generated_Source\PSoC4/CyLib.c **** 
2939:Generated_Source\PSoC4/CyLib.c ****     value = CY_INT_PRIORITY_REG(number);
2940:Generated_Source\PSoC4/CyLib.c ****     value &= (uint32)(~((uint32)(CY_INT_PRIORITY_MASK << shift)));
2941:Generated_Source\PSoC4/CyLib.c ****     value |= ((uint32)priority << shift);
2942:Generated_Source\PSoC4/CyLib.c ****     CY_INT_PRIORITY_REG(number) = value;
2943:Generated_Source\PSoC4/CyLib.c **** 
2944:Generated_Source\PSoC4/CyLib.c ****     CyExitCriticalSection(interruptState);
2945:Generated_Source\PSoC4/CyLib.c **** }
2946:Generated_Source\PSoC4/CyLib.c **** 
2947:Generated_Source\PSoC4/CyLib.c **** 
2948:Generated_Source\PSoC4/CyLib.c **** /*******************************************************************************
2949:Generated_Source\PSoC4/CyLib.c **** * Function Name: CyIntGetPriority
2950:Generated_Source\PSoC4/CyLib.c **** ****************************************************************************//**
2951:Generated_Source\PSoC4/CyLib.c **** *
ARM GAS  C:\Users\YUANFA~1\AppData\Local\Temp\ccYDlzYT.s 			page 77


2952:Generated_Source\PSoC4/CyLib.c **** *  Gets the priority of the interrupt.
2953:Generated_Source\PSoC4/CyLib.c **** *
2954:Generated_Source\PSoC4/CyLib.c **** *  \param number: The number of the interrupt, 0 - 31.
2955:Generated_Source\PSoC4/CyLib.c **** *
2956:Generated_Source\PSoC4/CyLib.c **** * \return
2957:Generated_Source\PSoC4/CyLib.c **** *  Priority of the interrupt. 0 - 3, 0 being the highest.
2958:Generated_Source\PSoC4/CyLib.c **** *
2959:Generated_Source\PSoC4/CyLib.c **** *******************************************************************************/
2960:Generated_Source\PSoC4/CyLib.c **** uint8 CyIntGetPriority(uint8 number)
2961:Generated_Source\PSoC4/CyLib.c **** {
2962:Generated_Source\PSoC4/CyLib.c ****     uint8 priority;
2963:Generated_Source\PSoC4/CyLib.c **** 
2964:Generated_Source\PSoC4/CyLib.c ****     CYASSERT(number < CY_NUM_INTERRUPTS);
2965:Generated_Source\PSoC4/CyLib.c **** 
2966:Generated_Source\PSoC4/CyLib.c ****     priority = (uint8) (CY_INT_PRIORITY_REG(number) >> CY_INT_PRIORITY_SHIFT(number));
2967:Generated_Source\PSoC4/CyLib.c **** 
2968:Generated_Source\PSoC4/CyLib.c ****     return (priority & (uint8) CY_INT_PRIORITY_MASK);
2969:Generated_Source\PSoC4/CyLib.c **** }
2970:Generated_Source\PSoC4/CyLib.c **** 
2971:Generated_Source\PSoC4/CyLib.c **** 
2972:Generated_Source\PSoC4/CyLib.c **** /*******************************************************************************
2973:Generated_Source\PSoC4/CyLib.c **** * Function Name: CyIntEnable
2974:Generated_Source\PSoC4/CyLib.c **** ****************************************************************************//**
2975:Generated_Source\PSoC4/CyLib.c **** *
2976:Generated_Source\PSoC4/CyLib.c **** *  Enables the specified interrupt number.
2977:Generated_Source\PSoC4/CyLib.c **** *
2978:Generated_Source\PSoC4/CyLib.c **** *  \param number: Valid range [0-31].  Interrupt number
2979:Generated_Source\PSoC4/CyLib.c **** *
2980:Generated_Source\PSoC4/CyLib.c **** *******************************************************************************/
2981:Generated_Source\PSoC4/CyLib.c **** void CyIntEnable(uint8 number)
2982:Generated_Source\PSoC4/CyLib.c **** {
 1354              		.loc 1 2982 0
 1355              		.cfi_startproc
 1356              		@ args = 0, pretend = 0, frame = 0
 1357              		@ frame_needed = 0, uses_anonymous_args = 0
 1358              		@ link register save eliminated.
 1359              	.LVL119:
2983:Generated_Source\PSoC4/CyLib.c ****     CY_INT_ENABLE_REG = ((uint32) 0x01u << (CY_INT_ENABLE_RANGE_MASK & number));
 1360              		.loc 1 2983 0
 1361 0000 1F23     		movs	r3, #31
 1362 0002 1840     		ands	r0, r3
 1363              	.LVL120:
 1364 0004 1E3B     		subs	r3, r3, #30
 1365 0006 8340     		lsls	r3, r3, r0
 1366 0008 014A     		ldr	r2, .L98
 1367 000a 1360     		str	r3, [r2]
2984:Generated_Source\PSoC4/CyLib.c **** }
 1368              		.loc 1 2984 0
 1369              		@ sp needed
 1370 000c 7047     		bx	lr
 1371              	.L99:
 1372 000e C046     		.align	2
 1373              	.L98:
 1374 0010 00E100E0 		.word	-536813312
 1375              		.cfi_endproc
 1376              	.LFE37:
 1377              		.size	CyIntEnable, .-CyIntEnable
ARM GAS  C:\Users\YUANFA~1\AppData\Local\Temp\ccYDlzYT.s 			page 78


 1378              		.section	.text.CyIntGetState,"ax",%progbits
 1379              		.align	2
 1380              		.global	CyIntGetState
 1381              		.code	16
 1382              		.thumb_func
 1383              		.type	CyIntGetState, %function
 1384              	CyIntGetState:
 1385              	.LFB38:
2985:Generated_Source\PSoC4/CyLib.c **** 
2986:Generated_Source\PSoC4/CyLib.c **** 
2987:Generated_Source\PSoC4/CyLib.c **** /*******************************************************************************
2988:Generated_Source\PSoC4/CyLib.c **** * Function Name: CyIntGetState
2989:Generated_Source\PSoC4/CyLib.c **** ****************************************************************************//**
2990:Generated_Source\PSoC4/CyLib.c **** *
2991:Generated_Source\PSoC4/CyLib.c **** *  Gets the enable state of the specified interrupt number.
2992:Generated_Source\PSoC4/CyLib.c **** *
2993:Generated_Source\PSoC4/CyLib.c **** *  \param number: Valid range [0-31].  Interrupt number.
2994:Generated_Source\PSoC4/CyLib.c **** *
2995:Generated_Source\PSoC4/CyLib.c **** * \return
2996:Generated_Source\PSoC4/CyLib.c **** *  Enable status: 1 if enabled, 0 if disabled
2997:Generated_Source\PSoC4/CyLib.c **** *
2998:Generated_Source\PSoC4/CyLib.c **** *******************************************************************************/
2999:Generated_Source\PSoC4/CyLib.c **** uint8 CyIntGetState(uint8 number)
3000:Generated_Source\PSoC4/CyLib.c **** {
 1386              		.loc 1 3000 0
 1387              		.cfi_startproc
 1388              		@ args = 0, pretend = 0, frame = 0
 1389              		@ frame_needed = 0, uses_anonymous_args = 0
 1390              		@ link register save eliminated.
 1391              	.LVL121:
3001:Generated_Source\PSoC4/CyLib.c ****     /* Get state of interrupt. */
3002:Generated_Source\PSoC4/CyLib.c ****     return ((0u != (CY_INT_ENABLE_REG & ((uint32) 0x01u << (CY_INT_ENABLE_RANGE_MASK & number)))) ?
 1392              		.loc 1 3002 0
 1393 0000 044B     		ldr	r3, .L101
 1394 0002 1B68     		ldr	r3, [r3]
 1395 0004 1F22     		movs	r2, #31
 1396 0006 1040     		ands	r0, r2
 1397              	.LVL122:
 1398 0008 C340     		lsrs	r3, r3, r0
 1399 000a 1800     		movs	r0, r3
 1400 000c 0123     		movs	r3, #1
 1401 000e 1840     		ands	r0, r3
3003:Generated_Source\PSoC4/CyLib.c **** }
 1402              		.loc 1 3003 0
 1403              		@ sp needed
 1404 0010 7047     		bx	lr
 1405              	.L102:
 1406 0012 C046     		.align	2
 1407              	.L101:
 1408 0014 00E100E0 		.word	-536813312
 1409              		.cfi_endproc
 1410              	.LFE38:
 1411              		.size	CyIntGetState, .-CyIntGetState
 1412              		.section	.text.CyIntDisable,"ax",%progbits
 1413              		.align	2
 1414              		.global	CyIntDisable
 1415              		.code	16
ARM GAS  C:\Users\YUANFA~1\AppData\Local\Temp\ccYDlzYT.s 			page 79


 1416              		.thumb_func
 1417              		.type	CyIntDisable, %function
 1418              	CyIntDisable:
 1419              	.LFB39:
3004:Generated_Source\PSoC4/CyLib.c **** 
3005:Generated_Source\PSoC4/CyLib.c **** 
3006:Generated_Source\PSoC4/CyLib.c **** /*******************************************************************************
3007:Generated_Source\PSoC4/CyLib.c **** * Function Name: CyIntDisable
3008:Generated_Source\PSoC4/CyLib.c **** ****************************************************************************//**
3009:Generated_Source\PSoC4/CyLib.c **** *
3010:Generated_Source\PSoC4/CyLib.c **** *   Disables the specified interrupt number.
3011:Generated_Source\PSoC4/CyLib.c **** *
3012:Generated_Source\PSoC4/CyLib.c **** *   \param number: Valid range [0-31].  Interrupt number.
3013:Generated_Source\PSoC4/CyLib.c **** *
3014:Generated_Source\PSoC4/CyLib.c **** *******************************************************************************/
3015:Generated_Source\PSoC4/CyLib.c **** void CyIntDisable(uint8 number)
3016:Generated_Source\PSoC4/CyLib.c **** {
 1420              		.loc 1 3016 0
 1421              		.cfi_startproc
 1422              		@ args = 0, pretend = 0, frame = 0
 1423              		@ frame_needed = 0, uses_anonymous_args = 0
 1424              		@ link register save eliminated.
 1425              	.LVL123:
3017:Generated_Source\PSoC4/CyLib.c ****     CY_INT_CLEAR_REG = ((uint32) 0x01u << (CY_INT_ENABLE_RANGE_MASK & number));
 1426              		.loc 1 3017 0
 1427 0000 1F23     		movs	r3, #31
 1428 0002 1840     		ands	r0, r3
 1429              	.LVL124:
 1430 0004 1E3B     		subs	r3, r3, #30
 1431 0006 8340     		lsls	r3, r3, r0
 1432 0008 014A     		ldr	r2, .L104
 1433 000a 1360     		str	r3, [r2]
3018:Generated_Source\PSoC4/CyLib.c **** }
 1434              		.loc 1 3018 0
 1435              		@ sp needed
 1436 000c 7047     		bx	lr
 1437              	.L105:
 1438 000e C046     		.align	2
 1439              	.L104:
 1440 0010 80E100E0 		.word	-536813184
 1441              		.cfi_endproc
 1442              	.LFE39:
 1443              		.size	CyIntDisable, .-CyIntDisable
 1444              		.section	.text.CyIntSetPending,"ax",%progbits
 1445              		.align	2
 1446              		.global	CyIntSetPending
 1447              		.code	16
 1448              		.thumb_func
 1449              		.type	CyIntSetPending, %function
 1450              	CyIntSetPending:
 1451              	.LFB40:
3019:Generated_Source\PSoC4/CyLib.c **** 
3020:Generated_Source\PSoC4/CyLib.c **** /*******************************************************************************
3021:Generated_Source\PSoC4/CyLib.c **** * Function Name: CyIntSetPending
3022:Generated_Source\PSoC4/CyLib.c **** ****************************************************************************//**
3023:Generated_Source\PSoC4/CyLib.c **** *
3024:Generated_Source\PSoC4/CyLib.c **** *  Forces the specified interrupt number to be pending.
ARM GAS  C:\Users\YUANFA~1\AppData\Local\Temp\ccYDlzYT.s 			page 80


3025:Generated_Source\PSoC4/CyLib.c **** *
3026:Generated_Source\PSoC4/CyLib.c **** *  \param number: Valid range [0-31].  Interrupt number.
3027:Generated_Source\PSoC4/CyLib.c **** *
3028:Generated_Source\PSoC4/CyLib.c **** *******************************************************************************/
3029:Generated_Source\PSoC4/CyLib.c **** void CyIntSetPending(uint8 number)
3030:Generated_Source\PSoC4/CyLib.c **** {
 1452              		.loc 1 3030 0
 1453              		.cfi_startproc
 1454              		@ args = 0, pretend = 0, frame = 0
 1455              		@ frame_needed = 0, uses_anonymous_args = 0
 1456              		@ link register save eliminated.
 1457              	.LVL125:
3031:Generated_Source\PSoC4/CyLib.c ****     CY_INT_SET_PEND_REG = ((uint32) 0x01u << (CY_INT_ENABLE_RANGE_MASK & number));
 1458              		.loc 1 3031 0
 1459 0000 1F23     		movs	r3, #31
 1460 0002 1840     		ands	r0, r3
 1461              	.LVL126:
 1462 0004 1E3B     		subs	r3, r3, #30
 1463 0006 8340     		lsls	r3, r3, r0
 1464 0008 014A     		ldr	r2, .L107
 1465 000a 1360     		str	r3, [r2]
3032:Generated_Source\PSoC4/CyLib.c **** }
 1466              		.loc 1 3032 0
 1467              		@ sp needed
 1468 000c 7047     		bx	lr
 1469              	.L108:
 1470 000e C046     		.align	2
 1471              	.L107:
 1472 0010 00E200E0 		.word	-536813056
 1473              		.cfi_endproc
 1474              	.LFE40:
 1475              		.size	CyIntSetPending, .-CyIntSetPending
 1476              		.section	.text.CyIntClearPending,"ax",%progbits
 1477              		.align	2
 1478              		.global	CyIntClearPending
 1479              		.code	16
 1480              		.thumb_func
 1481              		.type	CyIntClearPending, %function
 1482              	CyIntClearPending:
 1483              	.LFB41:
3033:Generated_Source\PSoC4/CyLib.c **** 
3034:Generated_Source\PSoC4/CyLib.c **** 
3035:Generated_Source\PSoC4/CyLib.c **** /*******************************************************************************
3036:Generated_Source\PSoC4/CyLib.c **** * Function Name: CyIntClearPending
3037:Generated_Source\PSoC4/CyLib.c **** ****************************************************************************//**
3038:Generated_Source\PSoC4/CyLib.c **** *
3039:Generated_Source\PSoC4/CyLib.c **** *  Clears any pending interrupt for the specified interrupt number.
3040:Generated_Source\PSoC4/CyLib.c **** *
3041:Generated_Source\PSoC4/CyLib.c **** *  \param number: Valid range [0-31].  Interrupt number.
3042:Generated_Source\PSoC4/CyLib.c **** *
3043:Generated_Source\PSoC4/CyLib.c **** *******************************************************************************/
3044:Generated_Source\PSoC4/CyLib.c **** void CyIntClearPending(uint8 number)
3045:Generated_Source\PSoC4/CyLib.c **** {
 1484              		.loc 1 3045 0
 1485              		.cfi_startproc
 1486              		@ args = 0, pretend = 0, frame = 0
 1487              		@ frame_needed = 0, uses_anonymous_args = 0
ARM GAS  C:\Users\YUANFA~1\AppData\Local\Temp\ccYDlzYT.s 			page 81


 1488              		@ link register save eliminated.
 1489              	.LVL127:
3046:Generated_Source\PSoC4/CyLib.c ****     CY_INT_CLR_PEND_REG = ((uint32) 0x01u << (CY_INT_ENABLE_RANGE_MASK & number));
 1490              		.loc 1 3046 0
 1491 0000 1F23     		movs	r3, #31
 1492 0002 1840     		ands	r0, r3
 1493              	.LVL128:
 1494 0004 1E3B     		subs	r3, r3, #30
 1495 0006 8340     		lsls	r3, r3, r0
 1496 0008 014A     		ldr	r2, .L110
 1497 000a 1360     		str	r3, [r2]
3047:Generated_Source\PSoC4/CyLib.c **** }
 1498              		.loc 1 3047 0
 1499              		@ sp needed
 1500 000c 7047     		bx	lr
 1501              	.L111:
 1502 000e C046     		.align	2
 1503              	.L110:
 1504 0010 80E200E0 		.word	-536812928
 1505              		.cfi_endproc
 1506              	.LFE41:
 1507              		.size	CyIntClearPending, .-CyIntClearPending
 1508              		.section	.text.CyHalt,"ax",%progbits
 1509              		.align	2
 1510              		.global	CyHalt
 1511              		.code	16
 1512              		.thumb_func
 1513              		.type	CyHalt, %function
 1514              	CyHalt:
 1515              	.LFB42:
3048:Generated_Source\PSoC4/CyLib.c **** 
3049:Generated_Source\PSoC4/CyLib.c **** 
3050:Generated_Source\PSoC4/CyLib.c **** /*******************************************************************************
3051:Generated_Source\PSoC4/CyLib.c **** * Function Name: CyHalt
3052:Generated_Source\PSoC4/CyLib.c **** ****************************************************************************//**
3053:Generated_Source\PSoC4/CyLib.c **** *
3054:Generated_Source\PSoC4/CyLib.c **** *  Halts the CPU.
3055:Generated_Source\PSoC4/CyLib.c **** *
3056:Generated_Source\PSoC4/CyLib.c **** *  \param reason: Value to be used during debugging.
3057:Generated_Source\PSoC4/CyLib.c **** *
3058:Generated_Source\PSoC4/CyLib.c **** *******************************************************************************/
3059:Generated_Source\PSoC4/CyLib.c **** void CyHalt(uint8 reason)
3060:Generated_Source\PSoC4/CyLib.c **** {
 1516              		.loc 1 3060 0
 1517              		.cfi_startproc
 1518              		@ args = 0, pretend = 0, frame = 0
 1519              		@ frame_needed = 0, uses_anonymous_args = 0
 1520              		@ link register save eliminated.
 1521              	.LVL129:
3061:Generated_Source\PSoC4/CyLib.c ****     if(0u != reason)
3062:Generated_Source\PSoC4/CyLib.c ****     {
3063:Generated_Source\PSoC4/CyLib.c ****         /* To remove unreferenced local variable warning */
3064:Generated_Source\PSoC4/CyLib.c ****     }
3065:Generated_Source\PSoC4/CyLib.c **** 
3066:Generated_Source\PSoC4/CyLib.c ****     #if defined (__ARMCC_VERSION)
3067:Generated_Source\PSoC4/CyLib.c ****         __breakpoint(0x0);
3068:Generated_Source\PSoC4/CyLib.c ****     #elif defined(__GNUC__) || defined (__ICCARM__)
ARM GAS  C:\Users\YUANFA~1\AppData\Local\Temp\ccYDlzYT.s 			page 82


3069:Generated_Source\PSoC4/CyLib.c ****         __asm("    bkpt    1");
 1522              		.loc 1 3069 0
 1523              		.syntax divided
 1524              	@ 3069 "Generated_Source\PSoC4\CyLib.c" 1
 1525 0000 01BE     		    bkpt    1
 1526              	@ 0 "" 2
3070:Generated_Source\PSoC4/CyLib.c ****     #elif defined(__C51__)
3071:Generated_Source\PSoC4/CyLib.c ****         CYDEV_HALT_CPU;
3072:Generated_Source\PSoC4/CyLib.c ****     #endif  /* (__ARMCC_VERSION) */
3073:Generated_Source\PSoC4/CyLib.c **** }
 1527              		.loc 1 3073 0
 1528              		.thumb
 1529              		.syntax unified
 1530              		@ sp needed
 1531 0002 7047     		bx	lr
 1532              		.cfi_endproc
 1533              	.LFE42:
 1534              		.size	CyHalt, .-CyHalt
 1535              		.section	.text.CySysClkPllGetLockStatus,"ax",%progbits
 1536              		.align	2
 1537              		.global	CySysClkPllGetLockStatus
 1538              		.code	16
 1539              		.thumb_func
 1540              		.type	CySysClkPllGetLockStatus, %function
 1541              	CySysClkPllGetLockStatus:
 1542              	.LFB18:
1788:Generated_Source\PSoC4/CyLib.c ****         uint8  interruptState;
 1543              		.loc 1 1788 0
 1544              		.cfi_startproc
 1545              		@ args = 0, pretend = 0, frame = 0
 1546              		@ frame_needed = 0, uses_anonymous_args = 0
 1547              	.LVL130:
 1548 0000 70B5     		push	{r4, r5, r6, lr}
 1549              		.cfi_def_cfa_offset 16
 1550              		.cfi_offset 4, -16
 1551              		.cfi_offset 5, -12
 1552              		.cfi_offset 6, -8
 1553              		.cfi_offset 14, -4
 1554 0002 041E     		subs	r4, r0, #0
1792:Generated_Source\PSoC4/CyLib.c **** 
 1555              		.loc 1 1792 0
 1556 0004 02D0     		beq	.L114
1792:Generated_Source\PSoC4/CyLib.c **** 
 1557              		.loc 1 1792 0 is_stmt 0 discriminator 1
 1558 0006 0020     		movs	r0, #0
 1559              	.LVL131:
 1560 0008 FFF7FEFF 		bl	CyHalt
 1561              	.LVL132:
 1562              	.L114:
1794:Generated_Source\PSoC4/CyLib.c **** 
 1563              		.loc 1 1794 0 is_stmt 1
 1564 000c FFF7FEFF 		bl	CyEnterCriticalSection
 1565              	.LVL133:
1797:Generated_Source\PSoC4/CyLib.c ****         if(0u != returnStatus)
 1566              		.loc 1 1797 0
 1567 0010 6200     		lsls	r2, r4, #1
 1568 0012 1219     		adds	r2, r2, r4
ARM GAS  C:\Users\YUANFA~1\AppData\Local\Temp\ccYDlzYT.s 			page 83


 1569 0014 9300     		lsls	r3, r2, #2
 1570 0016 094A     		ldr	r2, .L116
 1571 0018 9446     		mov	ip, r2
 1572 001a 6344     		add	r3, r3, ip
 1573 001c 5B68     		ldr	r3, [r3, #4]
 1574 001e 0125     		movs	r5, #1
 1575 0020 1D40     		ands	r5, r3
 1576              	.LVL134:
1798:Generated_Source\PSoC4/CyLib.c ****         {
 1577              		.loc 1 1798 0
 1578 0022 06D0     		beq	.L115
1800:Generated_Source\PSoC4/CyLib.c ****         }
 1579              		.loc 1 1800 0
 1580 0024 6300     		lsls	r3, r4, #1
 1581 0026 1C19     		adds	r4, r3, r4
 1582              	.LVL135:
 1583 0028 A300     		lsls	r3, r4, #2
 1584 002a 6344     		add	r3, r3, ip
 1585 002c 5B68     		ldr	r3, [r3, #4]
 1586 002e 0125     		movs	r5, #1
 1587              	.LVL136:
 1588 0030 1D40     		ands	r5, r3
 1589              	.LVL137:
 1590              	.L115:
1803:Generated_Source\PSoC4/CyLib.c **** 
 1591              		.loc 1 1803 0
 1592 0032 FFF7FEFF 		bl	CyExitCriticalSection
 1593              	.LVL138:
1806:Generated_Source\PSoC4/CyLib.c **** 
 1594              		.loc 1 1806 0
 1595 0036 2800     		movs	r0, r5
 1596              		@ sp needed
 1597              	.LVL139:
 1598 0038 70BD     		pop	{r4, r5, r6, pc}
 1599              	.L117:
 1600 003a C046     		.align	2
 1601              	.L116:
 1602 003c 14002F40 		.word	1076822036
 1603              		.cfi_endproc
 1604              	.LFE18:
 1605              		.size	CySysClkPllGetLockStatus, .-CySysClkPllGetLockStatus
 1606              		.section	.text.CySysClkPllGetBypassMode,"ax",%progbits
 1607              		.align	2
 1608              		.code	16
 1609              		.thumb_func
 1610              		.type	CySysClkPllGetBypassMode, %function
 1611              	CySysClkPllGetBypassMode:
 1612              	.LFB22:
1967:Generated_Source\PSoC4/CyLib.c ****         uint32 returnValue;
 1613              		.loc 1 1967 0
 1614              		.cfi_startproc
 1615              		@ args = 0, pretend = 0, frame = 0
 1616              		@ frame_needed = 0, uses_anonymous_args = 0
 1617              	.LVL140:
 1618 0000 10B5     		push	{r4, lr}
 1619              		.cfi_def_cfa_offset 8
 1620              		.cfi_offset 4, -8
ARM GAS  C:\Users\YUANFA~1\AppData\Local\Temp\ccYDlzYT.s 			page 84


 1621              		.cfi_offset 14, -4
 1622 0002 041E     		subs	r4, r0, #0
1971:Generated_Source\PSoC4/CyLib.c **** 
 1623              		.loc 1 1971 0
 1624 0004 02D0     		beq	.L119
1971:Generated_Source\PSoC4/CyLib.c **** 
 1625              		.loc 1 1971 0 is_stmt 0 discriminator 1
 1626 0006 0020     		movs	r0, #0
 1627              	.LVL141:
 1628 0008 FFF7FEFF 		bl	CyHalt
 1629              	.LVL142:
 1630              	.L119:
1973:Generated_Source\PSoC4/CyLib.c **** 
 1631              		.loc 1 1973 0 is_stmt 1
 1632 000c FFF7FEFF 		bl	CyEnterCriticalSection
 1633              	.LVL143:
1975:Generated_Source\PSoC4/CyLib.c ****         returnValue =  returnValue >> CY_SYS_CLK_PLL_CONFIG_BYPASS_SEL_SHIFT;
 1634              		.loc 1 1975 0
 1635 0010 6300     		lsls	r3, r4, #1
 1636 0012 1C19     		adds	r4, r3, r4
 1637              	.LVL144:
 1638 0014 A300     		lsls	r3, r4, #2
 1639 0016 044A     		ldr	r2, .L120
 1640 0018 9C58     		ldr	r4, [r3, r2]
 1641              	.LVL145:
1976:Generated_Source\PSoC4/CyLib.c **** 
 1642              		.loc 1 1976 0
 1643 001a 240D     		lsrs	r4, r4, #20
 1644              	.LVL146:
 1645 001c 0323     		movs	r3, #3
 1646 001e 1C40     		ands	r4, r3
 1647              	.LVL147:
1978:Generated_Source\PSoC4/CyLib.c **** 
 1648              		.loc 1 1978 0
 1649 0020 FFF7FEFF 		bl	CyExitCriticalSection
 1650              	.LVL148:
1981:Generated_Source\PSoC4/CyLib.c **** 
 1651              		.loc 1 1981 0
 1652 0024 2000     		movs	r0, r4
 1653              		@ sp needed
 1654              	.LVL149:
 1655 0026 10BD     		pop	{r4, pc}
 1656              	.L121:
 1657              		.align	2
 1658              	.L120:
 1659 0028 14002F40 		.word	1076822036
 1660              		.cfi_endproc
 1661              	.LFE22:
 1662              		.size	CySysClkPllGetBypassMode, .-CySysClkPllGetBypassMode
 1663              		.section	.text.CySysClkPllConfigChangeAllowed,"ax",%progbits
 1664              		.align	2
 1665              		.code	16
 1666              		.thumb_func
 1667              		.type	CySysClkPllConfigChangeAllowed, %function
 1668              	CySysClkPllConfigChangeAllowed:
 1669              	.LFB23:
2002:Generated_Source\PSoC4/CyLib.c ****         uint32   pllBypassMode;
ARM GAS  C:\Users\YUANFA~1\AppData\Local\Temp\ccYDlzYT.s 			page 85


 1670              		.loc 1 2002 0
 1671              		.cfi_startproc
 1672              		@ args = 0, pretend = 0, frame = 0
 1673              		@ frame_needed = 0, uses_anonymous_args = 0
 1674              	.LVL150:
 1675 0000 70B5     		push	{r4, r5, r6, lr}
 1676              		.cfi_def_cfa_offset 16
 1677              		.cfi_offset 4, -16
 1678              		.cfi_offset 5, -12
 1679              		.cfi_offset 6, -8
 1680              		.cfi_offset 14, -4
 1681 0002 0400     		movs	r4, r0
 1682              	.LVL151:
2007:Generated_Source\PSoC4/CyLib.c ****         pllBypassMode = CySysClkPllGetBypassMode(pll);
 1683              		.loc 1 2007 0
 1684 0004 FFF7FEFF 		bl	CySysClkGetSysclkSource
 1685              	.LVL152:
 1686 0008 0500     		movs	r5, r0
 1687              	.LVL153:
2008:Generated_Source\PSoC4/CyLib.c **** 
 1688              		.loc 1 2008 0
 1689 000a 2000     		movs	r0, r4
 1690              	.LVL154:
 1691 000c FFF7FEFF 		bl	CySysClkPllGetBypassMode
 1692              	.LVL155:
2010:Generated_Source\PSoC4/CyLib.c ****             ((CY_SYS_CLK_HFCLK_PLL0 != sysclkSource) && (0u == pll))
 1693              		.loc 1 2010 0
 1694 0010 0228     		cmp	r0, #2
 1695 0012 05D0     		beq	.L124
2010:Generated_Source\PSoC4/CyLib.c ****             ((CY_SYS_CLK_HFCLK_PLL0 != sysclkSource) && (0u == pll))
 1696              		.loc 1 2010 0 is_stmt 0 discriminator 1
 1697 0014 062D     		cmp	r5, #6
 1698 0016 05D0     		beq	.L125
2011:Generated_Source\PSoC4/CyLib.c ****         #if (CY_IP_SRSSV2)
 1699              		.loc 1 2011 0 is_stmt 1
 1700 0018 002C     		cmp	r4, #0
 1701 001a 05D0     		beq	.L126
2005:Generated_Source\PSoC4/CyLib.c **** 
 1702              		.loc 1 2005 0
 1703 001c 1120     		movs	r0, #17
 1704              	.LVL156:
 1705 001e 04E0     		b	.L123
 1706              	.LVL157:
 1707              	.L124:
2017:Generated_Source\PSoC4/CyLib.c ****         }
 1708              		.loc 1 2017 0
 1709 0020 0020     		movs	r0, #0
 1710              	.LVL158:
 1711 0022 02E0     		b	.L123
 1712              	.LVL159:
 1713              	.L125:
2005:Generated_Source\PSoC4/CyLib.c **** 
 1714              		.loc 1 2005 0
 1715 0024 1120     		movs	r0, #17
 1716              	.LVL160:
 1717 0026 00E0     		b	.L123
 1718              	.LVL161:
ARM GAS  C:\Users\YUANFA~1\AppData\Local\Temp\ccYDlzYT.s 			page 86


 1719              	.L126:
2017:Generated_Source\PSoC4/CyLib.c ****         }
 1720              		.loc 1 2017 0
 1721 0028 0020     		movs	r0, #0
 1722              	.LVL162:
 1723              	.L123:
2021:Generated_Source\PSoC4/CyLib.c **** 
 1724              		.loc 1 2021 0
 1725              		@ sp needed
 1726              	.LVL163:
 1727              	.LVL164:
 1728 002a 70BD     		pop	{r4, r5, r6, pc}
 1729              		.cfi_endproc
 1730              	.LFE23:
 1731              		.size	CySysClkPllConfigChangeAllowed, .-CySysClkPllConfigChangeAllowed
 1732              		.section	.text.CySysClkPllSetPQ,"ax",%progbits
 1733              		.align	2
 1734              		.global	CySysClkPllSetPQ
 1735              		.code	16
 1736              		.thumb_func
 1737              		.type	CySysClkPllSetPQ, %function
 1738              	CySysClkPllSetPQ:
 1739              	.LFB20:
1870:Generated_Source\PSoC4/CyLib.c ****         uint32   regTmp;
 1740              		.loc 1 1870 0
 1741              		.cfi_startproc
 1742              		@ args = 0, pretend = 0, frame = 8
 1743              		@ frame_needed = 0, uses_anonymous_args = 0
 1744              	.LVL165:
 1745 0000 F0B5     		push	{r4, r5, r6, r7, lr}
 1746              		.cfi_def_cfa_offset 20
 1747              		.cfi_offset 4, -20
 1748              		.cfi_offset 5, -16
 1749              		.cfi_offset 6, -12
 1750              		.cfi_offset 7, -8
 1751              		.cfi_offset 14, -4
 1752 0002 83B0     		sub	sp, sp, #12
 1753              		.cfi_def_cfa_offset 32
 1754 0004 0400     		movs	r4, r0
 1755 0006 0D00     		movs	r5, r1
 1756 0008 1600     		movs	r6, r2
 1757 000a 1F00     		movs	r7, r3
 1758              	.LVL166:
1876:Generated_Source\PSoC4/CyLib.c **** 
 1759              		.loc 1 1876 0
 1760 000c FFF7FEFF 		bl	CyEnterCriticalSection
 1761              	.LVL167:
 1762 0010 0190     		str	r0, [sp, #4]
 1763              	.LVL168:
1878:Generated_Source\PSoC4/CyLib.c **** 
 1764              		.loc 1 1878 0
 1765 0012 2000     		movs	r0, r4
 1766 0014 FFF7FEFF 		bl	CySysClkPllConfigChangeAllowed
 1767              	.LVL169:
1880:Generated_Source\PSoC4/CyLib.c ****             (feedback  >= CY_SYS_CLK_PLL_CONFIG_FEEDBACK_DIV_MIN)  && (feedback  <= CY_SYS_CLK_PLL_
 1768              		.loc 1 1880 0
 1769 0018 002C     		cmp	r4, #0
ARM GAS  C:\Users\YUANFA~1\AppData\Local\Temp\ccYDlzYT.s 			page 87


 1770 001a 29D1     		bne	.L129
1880:Generated_Source\PSoC4/CyLib.c ****             (feedback  >= CY_SYS_CLK_PLL_CONFIG_FEEDBACK_DIV_MIN)  && (feedback  <= CY_SYS_CLK_PLL_
 1771              		.loc 1 1880 0 is_stmt 0 discriminator 1
 1772 001c 032D     		cmp	r5, #3
 1773 001e 29D9     		bls	.L130
1881:Generated_Source\PSoC4/CyLib.c ****             (reference >= CY_SYS_CLK_PLL_CONFIG_REFERENCE_DIV_MIN) && (reference <= CY_SYS_CLK_PLL_
 1774              		.loc 1 1881 0 is_stmt 1
 1775 0020 0423     		movs	r3, #4
 1776 0022 FF33     		adds	r3, r3, #255
 1777 0024 9D42     		cmp	r5, r3
 1778 0026 27D8     		bhi	.L131
1881:Generated_Source\PSoC4/CyLib.c ****             (reference >= CY_SYS_CLK_PLL_CONFIG_REFERENCE_DIV_MIN) && (reference <= CY_SYS_CLK_PLL_
 1779              		.loc 1 1881 0 is_stmt 0 discriminator 1
 1780 0028 002E     		cmp	r6, #0
 1781 002a 27D0     		beq	.L132
1882:Generated_Source\PSoC4/CyLib.c ****             (current   >= CY_SYS_CLK_PLL_CONFIG_ICP_SEL_MIN )      && (current   <= CY_SYS_CLK_PLL_
 1782              		.loc 1 1882 0 is_stmt 1
 1783 002c 402E     		cmp	r6, #64
 1784 002e 27D8     		bhi	.L133
1882:Generated_Source\PSoC4/CyLib.c ****             (current   >= CY_SYS_CLK_PLL_CONFIG_ICP_SEL_MIN )      && (current   <= CY_SYS_CLK_PLL_
 1785              		.loc 1 1882 0 is_stmt 0 discriminator 1
 1786 0030 012F     		cmp	r7, #1
 1787 0032 27D9     		bls	.L134
1883:Generated_Source\PSoC4/CyLib.c ****             (CYRET_SUCCESS == tmp))
 1788              		.loc 1 1883 0 is_stmt 1
 1789 0034 032F     		cmp	r7, #3
 1790 0036 27D8     		bhi	.L135
1883:Generated_Source\PSoC4/CyLib.c ****             (CYRET_SUCCESS == tmp))
 1791              		.loc 1 1883 0 is_stmt 0 discriminator 1
 1792 0038 0028     		cmp	r0, #0
 1793 003a 27D1     		bne	.L136
1887:Generated_Source\PSoC4/CyLib.c ****                                                                        CY_SYS_CLK_PLL_CONFIG_REFERE
 1794              		.loc 1 1887 0 is_stmt 1
 1795 003c 1749     		ldr	r1, .L137
 1796 003e 6000     		lsls	r0, r4, #1
 1797              	.LVL170:
 1798 0040 0219     		adds	r2, r0, r4
 1799 0042 9300     		lsls	r3, r2, #2
 1800 0044 5A58     		ldr	r2, [r3, r1]
 1801 0046 164B     		ldr	r3, .L137+4
 1802 0048 1340     		ands	r3, r2
 1803              	.LVL171:
1891:Generated_Source\PSoC4/CyLib.c ****             regTmp |= (((reference - 1u) << CY_SYS_CLK_PLL_CONFIG_REFERENCE_DIV_SHIFT) & CY_SYS_CLK
 1804              		.loc 1 1891 0
 1805 004a FF22     		movs	r2, #255
 1806 004c 2A40     		ands	r2, r5
 1807 004e 1343     		orrs	r3, r2
 1808              	.LVL172:
1892:Generated_Source\PSoC4/CyLib.c ****             regTmp |= ((current << CY_SYS_CLK_PLL_CONFIG_ICP_SEL_SHIFT) & CY_SYS_CLK_PLL_CONFIG_ICP
 1809              		.loc 1 1892 0
 1810 0050 013E     		subs	r6, r6, #1
 1811              	.LVL173:
 1812 0052 3602     		lsls	r6, r6, #8
 1813              	.LVL174:
 1814 0054 FC22     		movs	r2, #252
 1815 0056 9201     		lsls	r2, r2, #6
 1816 0058 1640     		ands	r6, r2
ARM GAS  C:\Users\YUANFA~1\AppData\Local\Temp\ccYDlzYT.s 			page 88


 1817 005a 3343     		orrs	r3, r6
 1818              	.LVL175:
1893:Generated_Source\PSoC4/CyLib.c **** 
 1819              		.loc 1 1893 0
 1820 005c 3F04     		lsls	r7, r7, #16
 1821              	.LVL176:
 1822 005e E022     		movs	r2, #224
 1823 0060 D202     		lsls	r2, r2, #11
 1824 0062 1740     		ands	r7, r2
 1825 0064 1F43     		orrs	r7, r3
 1826              	.LVL177:
1895:Generated_Source\PSoC4/CyLib.c **** 
 1827              		.loc 1 1895 0
 1828 0066 0419     		adds	r4, r0, r4
 1829              	.LVL178:
 1830 0068 A300     		lsls	r3, r4, #2
 1831 006a 5F50     		str	r7, [r3, r1]
 1832              	.LVL179:
1897:Generated_Source\PSoC4/CyLib.c ****         }
 1833              		.loc 1 1897 0
 1834 006c 0024     		movs	r4, #0
 1835 006e 0EE0     		b	.L128
 1836              	.LVL180:
 1837              	.L129:
1874:Generated_Source\PSoC4/CyLib.c **** 
 1838              		.loc 1 1874 0
 1839 0070 0124     		movs	r4, #1
 1840              	.LVL181:
 1841 0072 0CE0     		b	.L128
 1842              	.LVL182:
 1843              	.L130:
 1844 0074 0124     		movs	r4, #1
 1845              	.LVL183:
 1846 0076 0AE0     		b	.L128
 1847              	.LVL184:
 1848              	.L131:
 1849 0078 0124     		movs	r4, #1
 1850              	.LVL185:
 1851 007a 08E0     		b	.L128
 1852              	.LVL186:
 1853              	.L132:
 1854 007c 0124     		movs	r4, #1
 1855              	.LVL187:
 1856 007e 06E0     		b	.L128
 1857              	.LVL188:
 1858              	.L133:
 1859 0080 0124     		movs	r4, #1
 1860              	.LVL189:
 1861 0082 04E0     		b	.L128
 1862              	.LVL190:
 1863              	.L134:
 1864 0084 0124     		movs	r4, #1
 1865              	.LVL191:
 1866 0086 02E0     		b	.L128
 1867              	.LVL192:
 1868              	.L135:
 1869 0088 0124     		movs	r4, #1
ARM GAS  C:\Users\YUANFA~1\AppData\Local\Temp\ccYDlzYT.s 			page 89


 1870              	.LVL193:
 1871 008a 00E0     		b	.L128
 1872              	.LVL194:
 1873              	.L136:
 1874 008c 0124     		movs	r4, #1
 1875              	.LVL195:
 1876              	.L128:
1900:Generated_Source\PSoC4/CyLib.c **** 
 1877              		.loc 1 1900 0
 1878 008e 0198     		ldr	r0, [sp, #4]
 1879 0090 FFF7FEFF 		bl	CyExitCriticalSection
 1880              	.LVL196:
1903:Generated_Source\PSoC4/CyLib.c **** 
 1881              		.loc 1 1903 0
 1882 0094 2000     		movs	r0, r4
 1883 0096 03B0     		add	sp, sp, #12
 1884              		@ sp needed
 1885              	.LVL197:
 1886              	.LVL198:
 1887 0098 F0BD     		pop	{r4, r5, r6, r7, pc}
 1888              	.L138:
 1889 009a C046     		.align	2
 1890              	.L137:
 1891 009c 14002F40 		.word	1076822036
 1892 00a0 00C0F8FF 		.word	-475136
 1893              		.cfi_endproc
 1894              	.LFE20:
 1895              		.size	CySysClkPllSetPQ, .-CySysClkPllSetPQ
 1896              		.section	.text.CySysClkPllSetOutputDivider,"ax",%progbits
 1897              		.align	2
 1898              		.global	CySysClkPllSetOutputDivider
 1899              		.code	16
 1900              		.thumb_func
 1901              		.type	CySysClkPllSetOutputDivider, %function
 1902              	CySysClkPllSetOutputDivider:
 1903              	.LFB27:
2263:Generated_Source\PSoC4/CyLib.c ****         uint32   tmpReg;
 1904              		.loc 1 2263 0
 1905              		.cfi_startproc
 1906              		@ args = 0, pretend = 0, frame = 0
 1907              		@ frame_needed = 0, uses_anonymous_args = 0
 1908              	.LVL199:
 1909 0000 70B5     		push	{r4, r5, r6, lr}
 1910              		.cfi_def_cfa_offset 16
 1911              		.cfi_offset 4, -16
 1912              		.cfi_offset 5, -12
 1913              		.cfi_offset 6, -8
 1914              		.cfi_offset 14, -4
 1915 0002 0400     		movs	r4, r0
 1916 0004 0D00     		movs	r5, r1
 1917              	.LVL200:
2270:Generated_Source\PSoC4/CyLib.c **** 
 1918              		.loc 1 2270 0
 1919 0006 FFF7FEFF 		bl	CyEnterCriticalSection
 1920              	.LVL201:
 1921 000a 0600     		movs	r6, r0
 1922              	.LVL202:
ARM GAS  C:\Users\YUANFA~1\AppData\Local\Temp\ccYDlzYT.s 			page 90


2272:Generated_Source\PSoC4/CyLib.c **** 
 1923              		.loc 1 2272 0
 1924 000c 2000     		movs	r0, r4
 1925 000e FFF7FEFF 		bl	CySysClkPllConfigChangeAllowed
 1926              	.LVL203:
2274:Generated_Source\PSoC4/CyLib.c ****         {
 1927              		.loc 1 2274 0
 1928 0012 002C     		cmp	r4, #0
 1929 0014 12D1     		bne	.L141
2274:Generated_Source\PSoC4/CyLib.c ****         {
 1930              		.loc 1 2274 0 is_stmt 0 discriminator 1
 1931 0016 0028     		cmp	r0, #0
 1932 0018 12D1     		bne	.L142
2274:Generated_Source\PSoC4/CyLib.c ****         {
 1933              		.loc 1 2274 0 discriminator 2
 1934 001a 032D     		cmp	r5, #3
 1935 001c 12D8     		bhi	.L143
2276:Generated_Source\PSoC4/CyLib.c ****             tmpReg |= ((divider << CY_SYS_CLK_PLL_CONFIG_OUTPUT_DIV_SHIFT) & CY_SYS_CLK_PLL_CONFIG_
 1936              		.loc 1 2276 0 is_stmt 1
 1937 001e 0C4A     		ldr	r2, .L144
 1938 0020 6100     		lsls	r1, r4, #1
 1939 0022 0819     		adds	r0, r1, r4
 1940              	.LVL204:
 1941 0024 8300     		lsls	r3, r0, #2
 1942 0026 9858     		ldr	r0, [r3, r2]
 1943 0028 0A4B     		ldr	r3, .L144+4
 1944 002a 0340     		ands	r3, r0
 1945              	.LVL205:
2277:Generated_Source\PSoC4/CyLib.c **** 
 1946              		.loc 1 2277 0
 1947 002c AD07     		lsls	r5, r5, #30
 1948              	.LVL206:
 1949 002e 2D0C     		lsrs	r5, r5, #16
 1950 0030 1D43     		orrs	r5, r3
 1951              	.LVL207:
2279:Generated_Source\PSoC4/CyLib.c **** 
 1952              		.loc 1 2279 0
 1953 0032 0C19     		adds	r4, r1, r4
 1954              	.LVL208:
 1955 0034 A300     		lsls	r3, r4, #2
 1956 0036 9D50     		str	r5, [r3, r2]
 1957              	.LVL209:
2281:Generated_Source\PSoC4/CyLib.c ****         }
 1958              		.loc 1 2281 0
 1959 0038 0024     		movs	r4, #0
 1960 003a 04E0     		b	.L140
 1961              	.LVL210:
 1962              	.L141:
2266:Generated_Source\PSoC4/CyLib.c ****         cystatus tmp;
 1963              		.loc 1 2266 0
 1964 003c 0124     		movs	r4, #1
 1965              	.LVL211:
 1966 003e 02E0     		b	.L140
 1967              	.LVL212:
 1968              	.L142:
 1969 0040 0124     		movs	r4, #1
 1970              	.LVL213:
ARM GAS  C:\Users\YUANFA~1\AppData\Local\Temp\ccYDlzYT.s 			page 91


 1971 0042 00E0     		b	.L140
 1972              	.LVL214:
 1973              	.L143:
 1974 0044 0124     		movs	r4, #1
 1975              	.LVL215:
 1976              	.L140:
2284:Generated_Source\PSoC4/CyLib.c **** 
 1977              		.loc 1 2284 0
 1978 0046 3000     		movs	r0, r6
 1979 0048 FFF7FEFF 		bl	CyExitCriticalSection
 1980              	.LVL216:
2287:Generated_Source\PSoC4/CyLib.c **** 
 1981              		.loc 1 2287 0
 1982 004c 2000     		movs	r0, r4
 1983              		@ sp needed
 1984              	.LVL217:
 1985              	.LVL218:
 1986 004e 70BD     		pop	{r4, r5, r6, pc}
 1987              	.L145:
 1988              		.align	2
 1989              	.L144:
 1990 0050 14002F40 		.word	1076822036
 1991 0054 FF3FFFFF 		.word	-49153
 1992              		.cfi_endproc
 1993              	.LFE27:
 1994              		.size	CySysClkPllSetOutputDivider, .-CySysClkPllSetOutputDivider
 1995              		.global	__aeabi_idiv
 1996              		.section	.text.CySysClkPllSetFrequency,"ax",%progbits
 1997              		.align	2
 1998              		.global	CySysClkPllSetFrequency
 1999              		.code	16
 2000              		.thumb_func
 2001              		.type	CySysClkPllSetFrequency, %function
 2002              	CySysClkPllSetFrequency:
 2003              	.LFB25:
2095:Generated_Source\PSoC4/CyLib.c ****         uint32 qMin;
 2004              		.loc 1 2095 0
 2005              		.cfi_startproc
 2006              		@ args = 4, pretend = 0, frame = 8
 2007              		@ frame_needed = 0, uses_anonymous_args = 0
 2008              	.LVL219:
 2009 0000 F0B5     		push	{r4, r5, r6, r7, lr}
 2010              		.cfi_def_cfa_offset 20
 2011              		.cfi_offset 4, -20
 2012              		.cfi_offset 5, -16
 2013              		.cfi_offset 6, -12
 2014              		.cfi_offset 7, -8
 2015              		.cfi_offset 14, -4
 2016 0002 5746     		mov	r7, r10
 2017 0004 4646     		mov	r6, r8
 2018 0006 C0B4     		push	{r6, r7}
 2019              		.cfi_def_cfa_offset 28
 2020              		.cfi_offset 8, -28
 2021              		.cfi_offset 10, -24
 2022 0008 83B0     		sub	sp, sp, #12
 2023              		.cfi_def_cfa_offset 40
 2024 000a 0400     		movs	r4, r0
ARM GAS  C:\Users\YUANFA~1\AppData\Local\Temp\ccYDlzYT.s 			page 92


 2025 000c 0D00     		movs	r5, r1
 2026 000e 1600     		movs	r6, r2
 2027 0010 1F00     		movs	r7, r3
 2028 0012 0193     		str	r3, [sp, #4]
 2029              	.LVL220:
2112:Generated_Source\PSoC4/CyLib.c **** 
 2030              		.loc 1 2112 0
 2031 0014 FFF7FEFF 		bl	CySysClkPllConfigChangeAllowed
 2032              	.LVL221:
2114:Generated_Source\PSoC4/CyLib.c ****             (inputFreq  >= CY_SYS_CLK_PLL_INPUT_FREQ_MIN )  && (inputFreq  <= CY_SYS_CLK_PLL_INPUT_
 2033              		.loc 1 2114 0
 2034 0018 002C     		cmp	r4, #0
 2035 001a 57D1     		bne	.L154
2114:Generated_Source\PSoC4/CyLib.c ****             (inputFreq  >= CY_SYS_CLK_PLL_INPUT_FREQ_MIN )  && (inputFreq  <= CY_SYS_CLK_PLL_INPUT_
 2036              		.loc 1 2114 0 is_stmt 0 discriminator 1
 2037 001c 374B     		ldr	r3, .L164
 2038 001e 9D42     		cmp	r5, r3
 2039 0020 56D9     		bls	.L155
2115:Generated_Source\PSoC4/CyLib.c ****             (pllFreq >= CY_SYS_CLK_PLL_OUTPUT_FREQ_MIN ) && (pllFreq <= CY_SYS_CLK_PLL_OUTPUT_FREQ_
 2040              		.loc 1 2115 0 is_stmt 1
 2041 0022 C023     		movs	r3, #192
 2042 0024 1B02     		lsls	r3, r3, #8
 2043 0026 9D42     		cmp	r5, r3
 2044 0028 54D8     		bhi	.L156
2115:Generated_Source\PSoC4/CyLib.c ****             (pllFreq >= CY_SYS_CLK_PLL_OUTPUT_FREQ_MIN ) && (pllFreq <= CY_SYS_CLK_PLL_OUTPUT_FREQ_
 2045              		.loc 1 2115 0 is_stmt 0 discriminator 1
 2046 002a 354B     		ldr	r3, .L164+4
 2047 002c 9E42     		cmp	r6, r3
 2048 002e 53D9     		bls	.L157
2116:Generated_Source\PSoC4/CyLib.c ****             (divider <= CY_SYS_PLL_OUTPUT_DIV8) &&
 2049              		.loc 1 2116 0 is_stmt 1
 2050 0030 C023     		movs	r3, #192
 2051 0032 1B02     		lsls	r3, r3, #8
 2052 0034 9E42     		cmp	r6, r3
 2053 0036 51D8     		bhi	.L158
2116:Generated_Source\PSoC4/CyLib.c ****             (divider <= CY_SYS_PLL_OUTPUT_DIV8) &&
 2054              		.loc 1 2116 0 is_stmt 0 discriminator 1
 2055 0038 032F     		cmp	r7, #3
 2056 003a 51D8     		bhi	.L159
2117:Generated_Source\PSoC4/CyLib.c ****             (CYRET_SUCCESS == tmp))
 2057              		.loc 1 2117 0 is_stmt 1
 2058 003c 0028     		cmp	r0, #0
 2059 003e 51D1     		bne	.L160
2122:Generated_Source\PSoC4/CyLib.c ****             qMin = (qMin < CY_SYS_CLK_PLL_QMINIP) ? CY_SYS_CLK_PLL_QMINIP : qMin;
 2060              		.loc 1 2122 0
 2061 0040 3049     		ldr	r1, .L164+8
 2062 0042 314B     		ldr	r3, .L164+12
 2063 0044 E818     		adds	r0, r5, r3
 2064              	.LVL222:
 2065 0046 FFF7FEFF 		bl	__aeabi_uidiv
 2066              	.LVL223:
 2067 004a 071E     		subs	r7, r0, #0
 2068              	.LVL224:
2123:Generated_Source\PSoC4/CyLib.c **** 
 2069              		.loc 1 2123 0
 2070 004c 00D1     		bne	.L148
 2071 004e 0137     		adds	r7, r7, #1
ARM GAS  C:\Users\YUANFA~1\AppData\Local\Temp\ccYDlzYT.s 			page 93


 2072              	.L148:
 2073              	.LVL225:
2126:Generated_Source\PSoC4/CyLib.c ****             qMax = (qMax > CY_SYS_CLK_PLL_QMAXIP) ? CY_SYS_CLK_PLL_QMAXIP : qMax;
 2074              		.loc 1 2126 0 discriminator 4
 2075 0050 FA21     		movs	r1, #250
 2076 0052 8900     		lsls	r1, r1, #2
 2077 0054 2800     		movs	r0, r5
 2078 0056 FFF7FEFF 		bl	__aeabi_uidiv
 2079              	.LVL226:
2127:Generated_Source\PSoC4/CyLib.c **** 
 2080              		.loc 1 2127 0 discriminator 4
 2081 005a 8246     		mov	r10, r0
 2082 005c 4028     		cmp	r0, #64
 2083 005e 01D9     		bls	.L149
 2084 0060 4023     		movs	r3, #64
 2085 0062 9A46     		mov	r10, r3
 2086              	.L149:
 2087              	.LVL227:
2129:Generated_Source\PSoC4/CyLib.c ****             {
 2088              		.loc 1 2129 0 discriminator 4
 2089 0064 5745     		cmp	r7, r10
 2090 0066 1AD9     		bls	.L150
2109:Generated_Source\PSoC4/CyLib.c **** 
 2091              		.loc 1 2109 0
 2092 0068 0120     		movs	r0, #1
 2093 006a 42E0     		b	.L147
 2094              	.LVL228:
 2095              	.L153:
2136:Generated_Source\PSoC4/CyLib.c **** 
 2096              		.loc 1 2136 0
 2097 006c 6B08     		lsrs	r3, r5, #1
 2098 006e 3000     		movs	r0, r6
 2099 0070 7843     		muls	r0, r7
 2100 0072 C018     		adds	r0, r0, r3
 2101 0074 2900     		movs	r1, r5
 2102 0076 FFF7FEFF 		bl	__aeabi_uidiv
 2103              	.LVL229:
 2104 007a 8046     		mov	r8, r0
 2105              	.LVL230:
2139:Generated_Source\PSoC4/CyLib.c **** 
 2106              		.loc 1 2139 0
 2107 007c 6843     		muls	r0, r5
 2108              	.LVL231:
 2109 007e 3900     		movs	r1, r7
 2110 0080 FFF7FEFF 		bl	__aeabi_uidiv
 2111              	.LVL232:
2142:Generated_Source\PSoC4/CyLib.c **** 
 2112              		.loc 1 2142 0
 2113 0084 801B     		subs	r0, r0, r6
 2114              	.LVL233:
 2115 0086 214B     		ldr	r3, .L164+16
 2116 0088 5843     		muls	r0, r3
 2117 008a 3100     		movs	r1, r6
 2118 008c FFF7FEFF 		bl	__aeabi_idiv
 2119              	.LVL234:
2145:Generated_Source\PSoC4/CyLib.c ****                     {
 2120              		.loc 1 2145 0
ARM GAS  C:\Users\YUANFA~1\AppData\Local\Temp\ccYDlzYT.s 			page 94


 2121 0090 0A9A     		ldr	r2, [sp, #40]
 2122 0092 5342     		rsbs	r3, r2, #0
 2123 0094 9842     		cmp	r0, r3
 2124 0096 01DB     		blt	.L151
2145:Generated_Source\PSoC4/CyLib.c ****                     {
 2125              		.loc 1 2145 0 is_stmt 0 discriminator 1
 2126 0098 9042     		cmp	r0, r2
 2127 009a 05DD     		ble	.L152
 2128              	.L151:
2131:Generated_Source\PSoC4/CyLib.c ****                 {
 2129              		.loc 1 2131 0 is_stmt 1 discriminator 2
 2130 009c 0137     		adds	r7, r7, #1
 2131              	.LVL235:
 2132              	.L150:
2131:Generated_Source\PSoC4/CyLib.c ****                 {
 2133              		.loc 1 2131 0 is_stmt 0 discriminator 1
 2134 009e 5745     		cmp	r7, r10
 2135 00a0 E4D9     		bls	.L153
2100:Generated_Source\PSoC4/CyLib.c **** 
 2136              		.loc 1 2100 0 is_stmt 1
 2137 00a2 0023     		movs	r3, #0
 2138 00a4 9846     		mov	r8, r3
2099:Generated_Source\PSoC4/CyLib.c ****         uint32 pVal = CY_SYS_CLK_PLL_INVALID;
 2139              		.loc 1 2099 0
 2140 00a6 0027     		movs	r7, #0
 2141              	.LVL236:
 2142              	.L152:
2154:Generated_Source\PSoC4/CyLib.c ****                 {
 2143              		.loc 1 2154 0
 2144 00a8 4346     		mov	r3, r8
 2145 00aa 002B     		cmp	r3, #0
 2146 00ac 1CD0     		beq	.L161
2154:Generated_Source\PSoC4/CyLib.c ****                 {
 2147              		.loc 1 2154 0 is_stmt 0 discriminator 1
 2148 00ae 002F     		cmp	r7, #0
 2149 00b0 1CD0     		beq	.L162
2156:Generated_Source\PSoC4/CyLib.c ****                     {
 2150              		.loc 1 2156 0 is_stmt 1
 2151 00b2 0223     		movs	r3, #2
 2152 00b4 3A00     		movs	r2, r7
 2153 00b6 4146     		mov	r1, r8
 2154 00b8 2000     		movs	r0, r4
 2155 00ba FFF7FEFF 		bl	CySysClkPllSetPQ
 2156              	.LVL237:
 2157 00be 0028     		cmp	r0, #0
 2158 00c0 16D1     		bne	.L163
2158:Generated_Source\PSoC4/CyLib.c ****                     }
 2159              		.loc 1 2158 0
 2160 00c2 0199     		ldr	r1, [sp, #4]
 2161 00c4 2000     		movs	r0, r4
 2162 00c6 FFF7FEFF 		bl	CySysClkPllSetOutputDivider
 2163              	.LVL238:
 2164 00ca 12E0     		b	.L147
 2165              	.LVL239:
 2166              	.L154:
2109:Generated_Source\PSoC4/CyLib.c **** 
 2167              		.loc 1 2109 0
ARM GAS  C:\Users\YUANFA~1\AppData\Local\Temp\ccYDlzYT.s 			page 95


 2168 00cc 0120     		movs	r0, #1
 2169              	.LVL240:
 2170 00ce 10E0     		b	.L147
 2171              	.LVL241:
 2172              	.L155:
 2173 00d0 0120     		movs	r0, #1
 2174              	.LVL242:
 2175 00d2 0EE0     		b	.L147
 2176              	.LVL243:
 2177              	.L156:
 2178 00d4 0120     		movs	r0, #1
 2179              	.LVL244:
 2180 00d6 0CE0     		b	.L147
 2181              	.LVL245:
 2182              	.L157:
 2183 00d8 0120     		movs	r0, #1
 2184              	.LVL246:
 2185 00da 0AE0     		b	.L147
 2186              	.LVL247:
 2187              	.L158:
 2188 00dc 0120     		movs	r0, #1
 2189              	.LVL248:
 2190 00de 08E0     		b	.L147
 2191              	.LVL249:
 2192              	.L159:
 2193 00e0 0120     		movs	r0, #1
 2194              	.LVL250:
 2195 00e2 06E0     		b	.L147
 2196              	.LVL251:
 2197              	.L160:
 2198 00e4 0120     		movs	r0, #1
 2199              	.LVL252:
 2200 00e6 04E0     		b	.L147
 2201              	.LVL253:
 2202              	.L161:
 2203 00e8 0120     		movs	r0, #1
 2204 00ea 02E0     		b	.L147
 2205              	.L162:
 2206 00ec 0120     		movs	r0, #1
 2207 00ee 00E0     		b	.L147
 2208              	.LVL254:
 2209              	.L163:
 2210 00f0 0120     		movs	r0, #1
 2211              	.LVL255:
 2212              	.L147:
2166:Generated_Source\PSoC4/CyLib.c **** 
 2213              		.loc 1 2166 0
 2214 00f2 03B0     		add	sp, sp, #12
 2215              		@ sp needed
 2216              	.LVL256:
 2217              	.LVL257:
 2218              	.LVL258:
 2219 00f4 0CBC     		pop	{r2, r3}
 2220 00f6 9046     		mov	r8, r2
 2221 00f8 9A46     		mov	r10, r3
 2222 00fa F0BD     		pop	{r4, r5, r6, r7, pc}
 2223              	.L165:
ARM GAS  C:\Users\YUANFA~1\AppData\Local\Temp\ccYDlzYT.s 			page 96


 2224              		.align	2
 2225              	.L164:
 2226 00fc E7030000 		.word	999
 2227 0100 E3570000 		.word	22499
 2228 0104 B80B0000 		.word	3000
 2229 0108 B70B0000 		.word	2999
 2230 010c 40420F00 		.word	1000000
 2231              		.cfi_endproc
 2232              	.LFE25:
 2233              		.size	CySysClkPllSetFrequency, .-CySysClkPllSetFrequency
 2234              		.section	.text.CyIntSetSysVector,"ax",%progbits
 2235              		.align	2
 2236              		.global	CyIntSetSysVector
 2237              		.code	16
 2238              		.thumb_func
 2239              		.type	CyIntSetSysVector, %function
 2240              	CyIntSetSysVector:
 2241              	.LFB31:
2824:Generated_Source\PSoC4/CyLib.c ****     cyisraddress oldIsr;
 2242              		.loc 1 2824 0
 2243              		.cfi_startproc
 2244              		@ args = 0, pretend = 0, frame = 0
 2245              		@ frame_needed = 0, uses_anonymous_args = 0
 2246              	.LVL259:
 2247 0000 70B5     		push	{r4, r5, r6, lr}
 2248              		.cfi_def_cfa_offset 16
 2249              		.cfi_offset 4, -16
 2250              		.cfi_offset 5, -12
 2251              		.cfi_offset 6, -8
 2252              		.cfi_offset 14, -4
 2253 0002 0400     		movs	r4, r0
 2254 0004 0D00     		movs	r5, r1
 2255              	.LVL260:
2828:Generated_Source\PSoC4/CyLib.c **** 
 2256              		.loc 1 2828 0
 2257 0006 0F28     		cmp	r0, #15
 2258 0008 02D9     		bls	.L167
2828:Generated_Source\PSoC4/CyLib.c **** 
 2259              		.loc 1 2828 0 is_stmt 0 discriminator 1
 2260 000a 0020     		movs	r0, #0
 2261              	.LVL261:
 2262 000c FFF7FEFF 		bl	CyHalt
 2263              	.LVL262:
 2264              	.L167:
2831:Generated_Source\PSoC4/CyLib.c **** 
 2265              		.loc 1 2831 0 is_stmt 1
 2266 0010 A400     		lsls	r4, r4, #2
 2267 0012 8023     		movs	r3, #128
 2268 0014 9B05     		lsls	r3, r3, #22
 2269 0016 9C46     		mov	ip, r3
 2270 0018 6444     		add	r4, r4, ip
 2271 001a 2068     		ldr	r0, [r4]
 2272              	.LVL263:
2834:Generated_Source\PSoC4/CyLib.c **** 
 2273              		.loc 1 2834 0
 2274 001c 2560     		str	r5, [r4]
2837:Generated_Source\PSoC4/CyLib.c **** 
ARM GAS  C:\Users\YUANFA~1\AppData\Local\Temp\ccYDlzYT.s 			page 97


 2275              		.loc 1 2837 0
 2276              		@ sp needed
 2277              	.LVL264:
 2278 001e 70BD     		pop	{r4, r5, r6, pc}
 2279              		.cfi_endproc
 2280              	.LFE31:
 2281              		.size	CyIntSetSysVector, .-CyIntSetSysVector
 2282              		.section	.text.CyIntGetSysVector,"ax",%progbits
 2283              		.align	2
 2284              		.global	CyIntGetSysVector
 2285              		.code	16
 2286              		.thumb_func
 2287              		.type	CyIntGetSysVector, %function
 2288              	CyIntGetSysVector:
 2289              	.LFB32:
2858:Generated_Source\PSoC4/CyLib.c ****     cyisraddress *ramVectorTable = (cyisraddress *) CY_INT_VECT_TABLE;
 2290              		.loc 1 2858 0
 2291              		.cfi_startproc
 2292              		@ args = 0, pretend = 0, frame = 0
 2293              		@ frame_needed = 0, uses_anonymous_args = 0
 2294              	.LVL265:
 2295 0000 10B5     		push	{r4, lr}
 2296              		.cfi_def_cfa_offset 8
 2297              		.cfi_offset 4, -8
 2298              		.cfi_offset 14, -4
 2299 0002 0400     		movs	r4, r0
 2300              	.LVL266:
2861:Generated_Source\PSoC4/CyLib.c **** 
 2301              		.loc 1 2861 0
 2302 0004 0F28     		cmp	r0, #15
 2303 0006 02D9     		bls	.L169
2861:Generated_Source\PSoC4/CyLib.c **** 
 2304              		.loc 1 2861 0 is_stmt 0 discriminator 1
 2305 0008 0020     		movs	r0, #0
 2306              	.LVL267:
 2307 000a FFF7FEFF 		bl	CyHalt
 2308              	.LVL268:
 2309              	.L169:
2863:Generated_Source\PSoC4/CyLib.c **** }
 2310              		.loc 1 2863 0 is_stmt 1
 2311 000e A400     		lsls	r4, r4, #2
 2312 0010 8023     		movs	r3, #128
 2313 0012 9B05     		lsls	r3, r3, #22
 2314 0014 9C46     		mov	ip, r3
 2315 0016 6444     		add	r4, r4, ip
 2316 0018 2068     		ldr	r0, [r4]
2864:Generated_Source\PSoC4/CyLib.c **** 
 2317              		.loc 1 2864 0
 2318              		@ sp needed
 2319 001a 10BD     		pop	{r4, pc}
 2320              		.cfi_endproc
 2321              	.LFE32:
 2322              		.size	CyIntGetSysVector, .-CyIntGetSysVector
 2323              		.section	.text.CyIntSetVector,"ax",%progbits
 2324              		.align	2
 2325              		.global	CyIntSetVector
 2326              		.code	16
ARM GAS  C:\Users\YUANFA~1\AppData\Local\Temp\ccYDlzYT.s 			page 98


 2327              		.thumb_func
 2328              		.type	CyIntSetVector, %function
 2329              	CyIntSetVector:
 2330              	.LFB33:
2880:Generated_Source\PSoC4/CyLib.c ****     cyisraddress oldIsr;
 2331              		.loc 1 2880 0
 2332              		.cfi_startproc
 2333              		@ args = 0, pretend = 0, frame = 0
 2334              		@ frame_needed = 0, uses_anonymous_args = 0
 2335              	.LVL269:
 2336 0000 70B5     		push	{r4, r5, r6, lr}
 2337              		.cfi_def_cfa_offset 16
 2338              		.cfi_offset 4, -16
 2339              		.cfi_offset 5, -12
 2340              		.cfi_offset 6, -8
 2341              		.cfi_offset 14, -4
 2342 0002 0400     		movs	r4, r0
 2343 0004 0D00     		movs	r5, r1
 2344              	.LVL270:
2884:Generated_Source\PSoC4/CyLib.c **** 
 2345              		.loc 1 2884 0
 2346 0006 1B28     		cmp	r0, #27
 2347 0008 02D9     		bls	.L171
2884:Generated_Source\PSoC4/CyLib.c **** 
 2348              		.loc 1 2884 0 is_stmt 0 discriminator 1
 2349 000a 0020     		movs	r0, #0
 2350              	.LVL271:
 2351 000c FFF7FEFF 		bl	CyHalt
 2352              	.LVL272:
 2353              	.L171:
2887:Generated_Source\PSoC4/CyLib.c **** 
 2354              		.loc 1 2887 0 is_stmt 1
 2355 0010 1034     		adds	r4, r4, #16
 2356 0012 A400     		lsls	r4, r4, #2
 2357 0014 8023     		movs	r3, #128
 2358 0016 9B05     		lsls	r3, r3, #22
 2359 0018 9C46     		mov	ip, r3
 2360 001a 6444     		add	r4, r4, ip
 2361 001c 2068     		ldr	r0, [r4]
 2362              	.LVL273:
2890:Generated_Source\PSoC4/CyLib.c **** 
 2363              		.loc 1 2890 0
 2364 001e 2560     		str	r5, [r4]
2893:Generated_Source\PSoC4/CyLib.c **** 
 2365              		.loc 1 2893 0
 2366              		@ sp needed
 2367              	.LVL274:
 2368 0020 70BD     		pop	{r4, r5, r6, pc}
 2369              		.cfi_endproc
 2370              	.LFE33:
 2371              		.size	CyIntSetVector, .-CyIntSetVector
 2372 0022 C046     		.section	.text.CyIntGetVector,"ax",%progbits
 2373              		.align	2
 2374              		.global	CyIntGetVector
 2375              		.code	16
 2376              		.thumb_func
 2377              		.type	CyIntGetVector, %function
ARM GAS  C:\Users\YUANFA~1\AppData\Local\Temp\ccYDlzYT.s 			page 99


 2378              	CyIntGetVector:
 2379              	.LFB34:
2908:Generated_Source\PSoC4/CyLib.c ****     cyisraddress *ramVectorTable = (cyisraddress *) CY_INT_VECT_TABLE;
 2380              		.loc 1 2908 0
 2381              		.cfi_startproc
 2382              		@ args = 0, pretend = 0, frame = 0
 2383              		@ frame_needed = 0, uses_anonymous_args = 0
 2384              	.LVL275:
 2385 0000 10B5     		push	{r4, lr}
 2386              		.cfi_def_cfa_offset 8
 2387              		.cfi_offset 4, -8
 2388              		.cfi_offset 14, -4
 2389 0002 0400     		movs	r4, r0
 2390              	.LVL276:
2911:Generated_Source\PSoC4/CyLib.c **** 
 2391              		.loc 1 2911 0
 2392 0004 1B28     		cmp	r0, #27
 2393 0006 02D9     		bls	.L173
2911:Generated_Source\PSoC4/CyLib.c **** 
 2394              		.loc 1 2911 0 is_stmt 0 discriminator 1
 2395 0008 0020     		movs	r0, #0
 2396              	.LVL277:
 2397 000a FFF7FEFF 		bl	CyHalt
 2398              	.LVL278:
 2399              	.L173:
2913:Generated_Source\PSoC4/CyLib.c **** }
 2400              		.loc 1 2913 0 is_stmt 1
 2401 000e 1034     		adds	r4, r4, #16
 2402 0010 A400     		lsls	r4, r4, #2
 2403 0012 8023     		movs	r3, #128
 2404 0014 9B05     		lsls	r3, r3, #22
 2405 0016 9C46     		mov	ip, r3
 2406 0018 6444     		add	r4, r4, ip
 2407 001a 2068     		ldr	r0, [r4]
2914:Generated_Source\PSoC4/CyLib.c **** 
 2408              		.loc 1 2914 0
 2409              		@ sp needed
 2410 001c 10BD     		pop	{r4, pc}
 2411              		.cfi_endproc
 2412              	.LFE34:
 2413              		.size	CyIntGetVector, .-CyIntGetVector
 2414 001e C046     		.section	.text.CyIntSetPriority,"ax",%progbits
 2415              		.align	2
 2416              		.global	CyIntSetPriority
 2417              		.code	16
 2418              		.thumb_func
 2419              		.type	CyIntSetPriority, %function
 2420              	CyIntSetPriority:
 2421              	.LFB35:
2927:Generated_Source\PSoC4/CyLib.c ****     uint8 interruptState;
 2422              		.loc 1 2927 0
 2423              		.cfi_startproc
 2424              		@ args = 0, pretend = 0, frame = 0
 2425              		@ frame_needed = 0, uses_anonymous_args = 0
 2426              	.LVL279:
 2427 0000 70B5     		push	{r4, r5, r6, lr}
 2428              		.cfi_def_cfa_offset 16
ARM GAS  C:\Users\YUANFA~1\AppData\Local\Temp\ccYDlzYT.s 			page 100


 2429              		.cfi_offset 4, -16
 2430              		.cfi_offset 5, -12
 2431              		.cfi_offset 6, -8
 2432              		.cfi_offset 14, -4
 2433 0002 0400     		movs	r4, r0
 2434 0004 0E00     		movs	r6, r1
2932:Generated_Source\PSoC4/CyLib.c ****     CYASSERT(number < CY_NUM_INTERRUPTS);
 2435              		.loc 1 2932 0
 2436 0006 0329     		cmp	r1, #3
 2437 0008 02D9     		bls	.L175
2932:Generated_Source\PSoC4/CyLib.c ****     CYASSERT(number < CY_NUM_INTERRUPTS);
 2438              		.loc 1 2932 0 is_stmt 0 discriminator 1
 2439 000a 0020     		movs	r0, #0
 2440              	.LVL280:
 2441 000c FFF7FEFF 		bl	CyHalt
 2442              	.LVL281:
 2443              	.L175:
2933:Generated_Source\PSoC4/CyLib.c **** 
 2444              		.loc 1 2933 0 is_stmt 1
 2445 0010 1B2C     		cmp	r4, #27
 2446 0012 02D9     		bls	.L176
2933:Generated_Source\PSoC4/CyLib.c **** 
 2447              		.loc 1 2933 0 is_stmt 0 discriminator 1
 2448 0014 0020     		movs	r0, #0
 2449 0016 FFF7FEFF 		bl	CyHalt
 2450              	.LVL282:
 2451              	.L176:
2935:Generated_Source\PSoC4/CyLib.c **** 
 2452              		.loc 1 2935 0 is_stmt 1
 2453 001a 0325     		movs	r5, #3
 2454 001c 2540     		ands	r5, r4
 2455 001e ED00     		lsls	r5, r5, #3
 2456 0020 0635     		adds	r5, r5, #6
 2457              	.LVL283:
2937:Generated_Source\PSoC4/CyLib.c **** 
 2458              		.loc 1 2937 0
 2459 0022 FFF7FEFF 		bl	CyEnterCriticalSection
 2460              	.LVL284:
2939:Generated_Source\PSoC4/CyLib.c ****     value &= (uint32)(~((uint32)(CY_INT_PRIORITY_MASK << shift)));
 2461              		.loc 1 2939 0
 2462 0026 A408     		lsrs	r4, r4, #2
 2463 0028 A400     		lsls	r4, r4, #2
 2464 002a 074B     		ldr	r3, .L177
 2465 002c 9C46     		mov	ip, r3
 2466 002e 6444     		add	r4, r4, ip
 2467 0030 2168     		ldr	r1, [r4]
 2468              	.LVL285:
2940:Generated_Source\PSoC4/CyLib.c ****     value |= ((uint32)priority << shift);
 2469              		.loc 1 2940 0
 2470 0032 0323     		movs	r3, #3
 2471 0034 AB40     		lsls	r3, r3, r5
 2472 0036 9943     		bics	r1, r3
 2473              	.LVL286:
 2474 0038 0B00     		movs	r3, r1
 2475              	.LVL287:
2941:Generated_Source\PSoC4/CyLib.c ****     CY_INT_PRIORITY_REG(number) = value;
 2476              		.loc 1 2941 0
ARM GAS  C:\Users\YUANFA~1\AppData\Local\Temp\ccYDlzYT.s 			page 101


 2477 003a 3100     		movs	r1, r6
 2478              	.LVL288:
 2479 003c A940     		lsls	r1, r1, r5
 2480 003e 1943     		orrs	r1, r3
 2481              	.LVL289:
2942:Generated_Source\PSoC4/CyLib.c **** 
 2482              		.loc 1 2942 0
 2483 0040 2160     		str	r1, [r4]
2944:Generated_Source\PSoC4/CyLib.c **** }
 2484              		.loc 1 2944 0
 2485 0042 FFF7FEFF 		bl	CyExitCriticalSection
 2486              	.LVL290:
2945:Generated_Source\PSoC4/CyLib.c **** 
 2487              		.loc 1 2945 0
 2488              		@ sp needed
 2489              	.LVL291:
 2490 0046 70BD     		pop	{r4, r5, r6, pc}
 2491              	.L178:
 2492              		.align	2
 2493              	.L177:
 2494 0048 00E400E0 		.word	-536812544
 2495              		.cfi_endproc
 2496              	.LFE35:
 2497              		.size	CyIntSetPriority, .-CyIntSetPriority
 2498              		.section	.text.CyIntGetPriority,"ax",%progbits
 2499              		.align	2
 2500              		.global	CyIntGetPriority
 2501              		.code	16
 2502              		.thumb_func
 2503              		.type	CyIntGetPriority, %function
 2504              	CyIntGetPriority:
 2505              	.LFB36:
2961:Generated_Source\PSoC4/CyLib.c ****     uint8 priority;
 2506              		.loc 1 2961 0
 2507              		.cfi_startproc
 2508              		@ args = 0, pretend = 0, frame = 0
 2509              		@ frame_needed = 0, uses_anonymous_args = 0
 2510              	.LVL292:
 2511 0000 10B5     		push	{r4, lr}
 2512              		.cfi_def_cfa_offset 8
 2513              		.cfi_offset 4, -8
 2514              		.cfi_offset 14, -4
 2515 0002 0400     		movs	r4, r0
2964:Generated_Source\PSoC4/CyLib.c **** 
 2516              		.loc 1 2964 0
 2517 0004 1B28     		cmp	r0, #27
 2518 0006 02D9     		bls	.L180
2964:Generated_Source\PSoC4/CyLib.c **** 
 2519              		.loc 1 2964 0 is_stmt 0 discriminator 1
 2520 0008 0020     		movs	r0, #0
 2521              	.LVL293:
 2522 000a FFF7FEFF 		bl	CyHalt
 2523              	.LVL294:
 2524              	.L180:
2966:Generated_Source\PSoC4/CyLib.c **** 
 2525              		.loc 1 2966 0 is_stmt 1
 2526 000e A308     		lsrs	r3, r4, #2
ARM GAS  C:\Users\YUANFA~1\AppData\Local\Temp\ccYDlzYT.s 			page 102


 2527 0010 9B00     		lsls	r3, r3, #2
 2528 0012 054A     		ldr	r2, .L181
 2529 0014 9446     		mov	ip, r2
 2530 0016 6344     		add	r3, r3, ip
 2531 0018 1868     		ldr	r0, [r3]
 2532 001a 0323     		movs	r3, #3
 2533 001c 1C40     		ands	r4, r3
 2534 001e E400     		lsls	r4, r4, #3
 2535 0020 0634     		adds	r4, r4, #6
 2536 0022 E040     		lsrs	r0, r0, r4
 2537              	.LVL295:
2968:Generated_Source\PSoC4/CyLib.c **** }
 2538              		.loc 1 2968 0
 2539 0024 1840     		ands	r0, r3
 2540              	.LVL296:
2969:Generated_Source\PSoC4/CyLib.c **** 
 2541              		.loc 1 2969 0
 2542              		@ sp needed
 2543 0026 10BD     		pop	{r4, pc}
 2544              	.L182:
 2545              		.align	2
 2546              	.L181:
 2547 0028 00E400E0 		.word	-536812544
 2548              		.cfi_endproc
 2549              	.LFE36:
 2550              		.size	CyIntGetPriority, .-CyIntGetPriority
 2551              		.section	.text.CySoftwareReset,"ax",%progbits
 2552              		.align	2
 2553              		.global	CySoftwareReset
 2554              		.code	16
 2555              		.thumb_func
 2556              		.type	CySoftwareReset, %function
 2557              	CySoftwareReset:
 2558              	.LFB43:
3074:Generated_Source\PSoC4/CyLib.c **** 
3075:Generated_Source\PSoC4/CyLib.c **** 
3076:Generated_Source\PSoC4/CyLib.c **** /*******************************************************************************
3077:Generated_Source\PSoC4/CyLib.c **** * Function Name: CySoftwareReset
3078:Generated_Source\PSoC4/CyLib.c **** ****************************************************************************//**
3079:Generated_Source\PSoC4/CyLib.c **** *
3080:Generated_Source\PSoC4/CyLib.c **** *  Forces a software reset of the device.
3081:Generated_Source\PSoC4/CyLib.c **** *
3082:Generated_Source\PSoC4/CyLib.c **** *******************************************************************************/
3083:Generated_Source\PSoC4/CyLib.c **** void CySoftwareReset(void)
3084:Generated_Source\PSoC4/CyLib.c **** {
 2559              		.loc 1 3084 0
 2560              		.cfi_startproc
 2561              		@ args = 0, pretend = 0, frame = 0
 2562              		@ frame_needed = 0, uses_anonymous_args = 0
 2563              		@ link register save eliminated.
3085:Generated_Source\PSoC4/CyLib.c ****     /***************************************************************************
3086:Generated_Source\PSoC4/CyLib.c ****     * Setting the system reset request bit. The vector key value must be written
3087:Generated_Source\PSoC4/CyLib.c ****     * to the register, otherwise the register write is unpredictable.
3088:Generated_Source\PSoC4/CyLib.c ****     ***************************************************************************/
3089:Generated_Source\PSoC4/CyLib.c ****     CY_SYS_AIRCR_REG = (CY_SYS_AIRCR_REG & (uint32)(~CY_SYS_AIRCR_VECTKEY_MASK)) |
 2564              		.loc 1 3089 0
 2565 0000 034A     		ldr	r2, .L184
ARM GAS  C:\Users\YUANFA~1\AppData\Local\Temp\ccYDlzYT.s 			page 103


 2566 0002 1368     		ldr	r3, [r2]
 2567 0004 1B04     		lsls	r3, r3, #16
 2568 0006 1B0C     		lsrs	r3, r3, #16
3090:Generated_Source\PSoC4/CyLib.c ****                             CY_SYS_AIRCR_VECTKEY | CY_SYS_AIRCR_SYSRESETREQ;
 2569              		.loc 1 3090 0
 2570 0008 0249     		ldr	r1, .L184+4
 2571 000a 0B43     		orrs	r3, r1
3089:Generated_Source\PSoC4/CyLib.c ****                             CY_SYS_AIRCR_VECTKEY | CY_SYS_AIRCR_SYSRESETREQ;
 2572              		.loc 1 3089 0
 2573 000c 1360     		str	r3, [r2]
3091:Generated_Source\PSoC4/CyLib.c **** }
 2574              		.loc 1 3091 0
 2575              		@ sp needed
 2576 000e 7047     		bx	lr
 2577              	.L185:
 2578              		.align	2
 2579              	.L184:
 2580 0010 0CED00E0 		.word	-536810228
 2581 0014 0400FA05 		.word	100270084
 2582              		.cfi_endproc
 2583              	.LFE43:
 2584              		.size	CySoftwareReset, .-CySoftwareReset
 2585              		.section	.text.CyDelay,"ax",%progbits
 2586              		.align	2
 2587              		.global	CyDelay
 2588              		.code	16
 2589              		.thumb_func
 2590              		.type	CyDelay, %function
 2591              	CyDelay:
 2592              	.LFB44:
3092:Generated_Source\PSoC4/CyLib.c **** 
3093:Generated_Source\PSoC4/CyLib.c **** 
3094:Generated_Source\PSoC4/CyLib.c **** /*******************************************************************************
3095:Generated_Source\PSoC4/CyLib.c **** * Function Name: CyDelay
3096:Generated_Source\PSoC4/CyLib.c **** ****************************************************************************//**
3097:Generated_Source\PSoC4/CyLib.c **** *
3098:Generated_Source\PSoC4/CyLib.c **** *  Blocks for milliseconds.
3099:Generated_Source\PSoC4/CyLib.c **** *
3100:Generated_Source\PSoC4/CyLib.c **** *  \param milliseconds: number of milliseconds to delay.
3101:Generated_Source\PSoC4/CyLib.c **** *
3102:Generated_Source\PSoC4/CyLib.c **** *******************************************************************************/
3103:Generated_Source\PSoC4/CyLib.c **** void CyDelay(uint32 milliseconds)
3104:Generated_Source\PSoC4/CyLib.c **** {
 2593              		.loc 1 3104 0
 2594              		.cfi_startproc
 2595              		@ args = 0, pretend = 0, frame = 0
 2596              		@ frame_needed = 0, uses_anonymous_args = 0
 2597              	.LVL297:
 2598 0000 10B5     		push	{r4, lr}
 2599              		.cfi_def_cfa_offset 8
 2600              		.cfi_offset 4, -8
 2601              		.cfi_offset 14, -4
 2602 0002 0400     		movs	r4, r0
3105:Generated_Source\PSoC4/CyLib.c ****     while (milliseconds > CY_DELAY_MS_OVERFLOW)
 2603              		.loc 1 3105 0
 2604 0004 06E0     		b	.L187
 2605              	.LVL298:
ARM GAS  C:\Users\YUANFA~1\AppData\Local\Temp\ccYDlzYT.s 			page 104


 2606              	.L188:
3106:Generated_Source\PSoC4/CyLib.c ****     {
3107:Generated_Source\PSoC4/CyLib.c ****         /* This loop prevents overflow.
3108:Generated_Source\PSoC4/CyLib.c ****          * At 100MHz, milliseconds * cydelayFreqKhz overflows at about 42 seconds
3109:Generated_Source\PSoC4/CyLib.c ****          */
3110:Generated_Source\PSoC4/CyLib.c ****         CyDelayCycles(cydelay32kMs);
 2607              		.loc 1 3110 0
 2608 0006 084B     		ldr	r3, .L189
 2609 0008 5868     		ldr	r0, [r3, #4]
 2610 000a FFF7FEFF 		bl	CyDelayCycles
 2611              	.LVL299:
3111:Generated_Source\PSoC4/CyLib.c ****         milliseconds -= CY_DELAY_MS_OVERFLOW;
 2612              		.loc 1 3111 0
 2613 000e 074B     		ldr	r3, .L189+4
 2614 0010 9C46     		mov	ip, r3
 2615 0012 6444     		add	r4, r4, ip
 2616              	.LVL300:
 2617              	.L187:
3105:Generated_Source\PSoC4/CyLib.c ****     while (milliseconds > CY_DELAY_MS_OVERFLOW)
 2618              		.loc 1 3105 0
 2619 0014 8023     		movs	r3, #128
 2620 0016 1B02     		lsls	r3, r3, #8
 2621 0018 9C42     		cmp	r4, r3
 2622 001a F4D8     		bhi	.L188
3112:Generated_Source\PSoC4/CyLib.c ****     }
3113:Generated_Source\PSoC4/CyLib.c **** 
3114:Generated_Source\PSoC4/CyLib.c ****     CyDelayCycles(milliseconds * cydelayFreqKhz);
 2623              		.loc 1 3114 0
 2624 001c 024B     		ldr	r3, .L189
 2625 001e 9868     		ldr	r0, [r3, #8]
 2626 0020 6043     		muls	r0, r4
 2627 0022 FFF7FEFF 		bl	CyDelayCycles
 2628              	.LVL301:
3115:Generated_Source\PSoC4/CyLib.c **** }
 2629              		.loc 1 3115 0
 2630              		@ sp needed
 2631              	.LVL302:
 2632 0026 10BD     		pop	{r4, pc}
 2633              	.L190:
 2634              		.align	2
 2635              	.L189:
 2636 0028 00000000 		.word	.LANCHOR0
 2637 002c 0080FFFF 		.word	-32768
 2638              		.cfi_endproc
 2639              	.LFE44:
 2640              		.size	CyDelay, .-CyDelay
 2641              		.section	.text.CySysClkImoEnableWcoLock,"ax",%progbits
 2642              		.align	2
 2643              		.global	CySysClkImoEnableWcoLock
 2644              		.code	16
 2645              		.thumb_func
 2646              		.type	CySysClkImoEnableWcoLock, %function
 2647              	CySysClkImoEnableWcoLock:
 2648              	.LFB3:
 175:Generated_Source\PSoC4/CyLib.c ****         #if(CY_IP_SRSSV2)
 2649              		.loc 1 175 0
 2650              		.cfi_startproc
ARM GAS  C:\Users\YUANFA~1\AppData\Local\Temp\ccYDlzYT.s 			page 105


 2651              		@ args = 0, pretend = 0, frame = 8
 2652              		@ frame_needed = 0, uses_anonymous_args = 0
 2653 0000 70B5     		push	{r4, r5, r6, lr}
 2654              		.cfi_def_cfa_offset 16
 2655              		.cfi_offset 4, -16
 2656              		.cfi_offset 5, -12
 2657              		.cfi_offset 6, -8
 2658              		.cfi_offset 14, -4
 2659 0002 82B0     		sub	sp, sp, #8
 2660              		.cfi_def_cfa_offset 24
 2661              	.LVL303:
 186:Generated_Source\PSoC4/CyLib.c ****         {
 2662              		.loc 1 186 0
 2663 0004 FFF7FEFF 		bl	CySysClkWcoEnabled
 2664              	.LVL304:
 2665 0008 0028     		cmp	r0, #0
 2666 000a 4DD0     		beq	.L191
 188:Generated_Source\PSoC4/CyLib.c **** 
 2667              		.loc 1 188 0
 2668 000c FFF7FEFF 		bl	CyEnterCriticalSection
 2669              	.LVL305:
 2670 0010 0500     		movs	r5, r0
 2671              	.LVL306:
 211:Generated_Source\PSoC4/CyLib.c ****                                         CY_SYS_CLK_IMO_SELECT_FREQ_SHIFT) + CY_SYS_CLK_IMO_MIN_FREQ
 2672              		.loc 1 211 0
 2673 0012 264B     		ldr	r3, .L195
 2674 0014 1A68     		ldr	r2, [r3]
 2675 0016 9200     		lsls	r2, r2, #2
 2676 0018 1C23     		movs	r3, #28
 2677 001a 1A40     		ands	r2, r3
 212:Generated_Source\PSoC4/CyLib.c ****                                       ((CY_SYS_CLK_SELECT_REG >> CY_SYS_CLK_SELECT_HFCLK_DIV_SHIFT)
 2678              		.loc 1 212 0
 2679 001c 1832     		adds	r2, r2, #24
 213:Generated_Source\PSoC4/CyLib.c ****                                        (uint32) CY_SYS_CLK_SELECT_HFCLK_DIV_MASK));
 2680              		.loc 1 213 0
 2681 001e 244B     		ldr	r3, .L195+4
 2682 0020 1B68     		ldr	r3, [r3]
 2683 0022 9B08     		lsrs	r3, r3, #2
 2684 0024 0321     		movs	r1, #3
 2685 0026 0B40     		ands	r3, r1
 211:Generated_Source\PSoC4/CyLib.c ****                                         CY_SYS_CLK_IMO_SELECT_FREQ_SHIFT) + CY_SYS_CLK_IMO_MIN_FREQ
 2686              		.loc 1 211 0
 2687 0028 DA40     		lsrs	r2, r2, r3
 2688              	.LVL307:
 222:Generated_Source\PSoC4/CyLib.c **** 
 2689              		.loc 1 222 0
 2690 002a 0021     		movs	r1, #0
 2691 002c 214B     		ldr	r3, .L195+8
 2692 002e 1960     		str	r1, [r3]
 233:Generated_Source\PSoC4/CyLib.c ****                                                   CY_SYS_CLK_WCO_CONFIG_DPLL_LF_IGAIN_MASK |
 2693              		.loc 1 233 0
 2694 0030 214C     		ldr	r4, .L195+12
 2695 0032 2168     		ldr	r1, [r4]
 2696 0034 214B     		ldr	r3, .L195+16
 2697 0036 0B40     		ands	r3, r1
 2698              	.LVL308:
 239:Generated_Source\PSoC4/CyLib.c **** 
ARM GAS  C:\Users\YUANFA~1\AppData\Local\Temp\ccYDlzYT.s 			page 106


 2699              		.loc 1 239 0
 2700 0038 2149     		ldr	r1, .L195+20
 2701 003a 4A43     		muls	r2, r1
 2702              	.LVL309:
 2703 003c 8021     		movs	r1, #128
 2704 003e C901     		lsls	r1, r1, #7
 2705 0040 8C46     		mov	ip, r1
 2706 0042 6244     		add	r2, r2, ip
 2707 0044 D20B     		lsrs	r2, r2, #15
 2708 0046 013A     		subs	r2, r2, #1
 2709 0048 5205     		lsls	r2, r2, #21
 2710 004a 520D     		lsrs	r2, r2, #21
 2711 004c 1343     		orrs	r3, r2
 2712              	.LVL310:
 242:Generated_Source\PSoC4/CyLib.c **** 
 2713              		.loc 1 242 0
 2714 004e A022     		movs	r2, #160
 2715 0050 5203     		lsls	r2, r2, #13
 2716 0052 1343     		orrs	r3, r2
 2717              	.LVL311:
 244:Generated_Source\PSoC4/CyLib.c **** 
 2718              		.loc 1 244 0
 2719 0054 2360     		str	r3, [r4]
 246:Generated_Source\PSoC4/CyLib.c ****             CySysFlashSetWaitCycles(CY_SYS_CLK_IMO_MAX_FREQ_MHZ);
 2720              		.loc 1 246 0
 2721 0056 1B4B     		ldr	r3, .L195+24
 2722              	.LVL312:
 2723 0058 1B68     		ldr	r3, [r3]
 2724 005a 0193     		str	r3, [sp, #4]
 2725              	.LVL313:
 247:Generated_Source\PSoC4/CyLib.c ****             CY_SYS_CLK_WCO_CONFIG_REG |= CY_SYS_CLK_WCO_CONFIG_DPLL_ENABLE;
 2726              		.loc 1 247 0
 2727 005c 3020     		movs	r0, #48
 2728 005e FFF7FEFF 		bl	CySysFlashSetWaitCycles
 2729              	.LVL314:
 248:Generated_Source\PSoC4/CyLib.c **** 
 2730              		.loc 1 248 0
 2731 0062 194A     		ldr	r2, .L195+28
 2732 0064 1368     		ldr	r3, [r2]
 2733 0066 8021     		movs	r1, #128
 2734 0068 C905     		lsls	r1, r1, #23
 2735 006a 0B43     		orrs	r3, r1
 2736 006c 1360     		str	r3, [r2]
 250:Generated_Source\PSoC4/CyLib.c **** 
 2737              		.loc 1 250 0
 2738 006e 2668     		ldr	r6, [r4]
 2739 0070 164B     		ldr	r3, .L195+32
 2740 0072 1E40     		ands	r6, r3
 2741              	.LVL315:
 183:Generated_Source\PSoC4/CyLib.c ****         volatile uint32 flashCtlReg;
 2742              		.loc 1 183 0
 2743 0074 0024     		movs	r4, #0
 252:Generated_Source\PSoC4/CyLib.c ****             {
 2744              		.loc 1 252 0
 2745 0076 07E0     		b	.L193
 2746              	.LVL316:
 2747              	.L194:
ARM GAS  C:\Users\YUANFA~1\AppData\Local\Temp\ccYDlzYT.s 			page 107


 254:Generated_Source\PSoC4/CyLib.c ****                 lfLimit += CY_SYS_CLK_WCO_CONFIG_DPLL_LF_LIMIT_STEP;
 2748              		.loc 1 254 0
 2749 0078 0120     		movs	r0, #1
 2750 007a FFF7FEFF 		bl	CyDelay
 2751              	.LVL317:
 255:Generated_Source\PSoC4/CyLib.c ****                 CY_SYS_CLK_WCO_DPLL_REG = (regTmp | (lfLimit << CY_SYS_CLK_WCO_CONFIG_DPLL_LF_LIMIT
 2752              		.loc 1 255 0
 2753 007e 1034     		adds	r4, r4, #16
 2754              	.LVL318:
 256:Generated_Source\PSoC4/CyLib.c ****             }
 2755              		.loc 1 256 0
 2756 0080 A305     		lsls	r3, r4, #22
 2757 0082 3343     		orrs	r3, r6
 2758 0084 0C4A     		ldr	r2, .L195+12
 2759 0086 1360     		str	r3, [r2]
 2760              	.LVL319:
 2761              	.L193:
 252:Generated_Source\PSoC4/CyLib.c ****             {
 2762              		.loc 1 252 0
 2763 0088 EE2C     		cmp	r4, #238
 2764 008a F5D9     		bls	.L194
 259:Generated_Source\PSoC4/CyLib.c ****             CY_SYS_CLK_WCO_DPLL_REG = (regTmp | (CY_SYS_CLK_WCO_CONFIG_DPLL_LF_LIMIT_MAX <<
 2765              		.loc 1 259 0
 2766 008c 0120     		movs	r0, #1
 2767 008e FFF7FEFF 		bl	CyDelay
 2768              	.LVL320:
 260:Generated_Source\PSoC4/CyLib.c ****                                                  CY_SYS_CLK_WCO_CONFIG_DPLL_LF_LIMIT_SHIFT));
 2769              		.loc 1 260 0
 2770 0092 FF23     		movs	r3, #255
 2771 0094 9B05     		lsls	r3, r3, #22
 2772 0096 1E43     		orrs	r6, r3
 2773              	.LVL321:
 2774 0098 074B     		ldr	r3, .L195+12
 2775 009a 1E60     		str	r6, [r3]
 263:Generated_Source\PSoC4/CyLib.c **** 
 2776              		.loc 1 263 0
 2777 009c 019A     		ldr	r2, [sp, #4]
 2778 009e 094B     		ldr	r3, .L195+24
 2779 00a0 1A60     		str	r2, [r3]
 265:Generated_Source\PSoC4/CyLib.c ****         }
 2780              		.loc 1 265 0
 2781 00a2 2800     		movs	r0, r5
 2782 00a4 FFF7FEFF 		bl	CyExitCriticalSection
 2783              	.LVL322:
 2784              	.L191:
 267:Generated_Source\PSoC4/CyLib.c **** 
 2785              		.loc 1 267 0
 2786 00a8 02B0     		add	sp, sp, #8
 2787              		@ sp needed
 2788 00aa 70BD     		pop	{r4, r5, r6, pc}
 2789              	.L196:
 2790              		.align	2
 2791              	.L195:
 2792 00ac 080F0340 		.word	1073942280
 2793 00b0 28000340 		.word	1073938472
 2794 00b4 0C0F0340 		.word	1073942284
 2795 00b8 08002240 		.word	1075970056
ARM GAS  C:\Users\YUANFA~1\AppData\Local\Temp\ccYDlzYT.s 			page 108


 2796 00bc 00F800C0 		.word	-1073678336
 2797 00c0 40420F00 		.word	1000000
 2798 00c4 30001040 		.word	1074790448
 2799 00c8 00002240 		.word	1075970048
 2800 00cc FFFF3FC0 		.word	-1069547521
 2801              		.cfi_endproc
 2802              	.LFE3:
 2803              		.size	CySysClkImoEnableWcoLock, .-CySysClkImoEnableWcoLock
 2804              		.section	.text.CySysClkWriteImoFreq,"ax",%progbits
 2805              		.align	2
 2806              		.global	CySysClkWriteImoFreq
 2807              		.code	16
 2808              		.thumb_func
 2809              		.type	CySysClkWriteImoFreq, %function
 2810              	CySysClkWriteImoFreq:
 2811              	.LFB10:
1003:Generated_Source\PSoC4/CyLib.c ****         uint8  interruptState;
 2812              		.loc 1 1003 0
 2813              		.cfi_startproc
 2814              		@ args = 0, pretend = 0, frame = 8
 2815              		@ frame_needed = 0, uses_anonymous_args = 0
 2816              	.LVL323:
 2817 0000 F0B5     		push	{r4, r5, r6, r7, lr}
 2818              		.cfi_def_cfa_offset 20
 2819              		.cfi_offset 4, -20
 2820              		.cfi_offset 5, -16
 2821              		.cfi_offset 6, -12
 2822              		.cfi_offset 7, -8
 2823              		.cfi_offset 14, -4
 2824 0002 83B0     		sub	sp, sp, #12
 2825              		.cfi_def_cfa_offset 32
 2826 0004 0400     		movs	r4, r0
 2827              	.LVL324:
1020:Generated_Source\PSoC4/CyLib.c ****                 (freq == 36u) || (freq == 40u) || (freq == 44u) ||
 2828              		.loc 1 1020 0
 2829 0006 1828     		cmp	r0, #24
 2830 0008 0BD0     		beq	.L198
1020:Generated_Source\PSoC4/CyLib.c ****                 (freq == 36u) || (freq == 40u) || (freq == 44u) ||
 2831              		.loc 1 1020 0 is_stmt 0 discriminator 1
 2832 000a 1C28     		cmp	r0, #28
 2833 000c 09D0     		beq	.L198
1020:Generated_Source\PSoC4/CyLib.c ****                 (freq == 36u) || (freq == 40u) || (freq == 44u) ||
 2834              		.loc 1 1020 0 discriminator 2
 2835 000e 2028     		cmp	r0, #32
 2836 0010 07D0     		beq	.L198
1020:Generated_Source\PSoC4/CyLib.c ****                 (freq == 36u) || (freq == 40u) || (freq == 44u) ||
 2837              		.loc 1 1020 0 discriminator 3
 2838 0012 2428     		cmp	r0, #36
 2839 0014 05D0     		beq	.L198
1021:Generated_Source\PSoC4/CyLib.c ****                 (freq == 48u))
 2840              		.loc 1 1021 0 is_stmt 1
 2841 0016 2828     		cmp	r0, #40
 2842 0018 03D0     		beq	.L198
1021:Generated_Source\PSoC4/CyLib.c ****                 (freq == 48u))
 2843              		.loc 1 1021 0 is_stmt 0 discriminator 1
 2844 001a 2C28     		cmp	r0, #44
 2845 001c 01D0     		beq	.L198
ARM GAS  C:\Users\YUANFA~1\AppData\Local\Temp\ccYDlzYT.s 			page 109


1021:Generated_Source\PSoC4/CyLib.c ****                 (freq == 48u))
 2846              		.loc 1 1021 0 discriminator 2
 2847 001e 3028     		cmp	r0, #48
 2848 0020 49D1     		bne	.L199
 2849              	.L198:
1025:Generated_Source\PSoC4/CyLib.c **** 
 2850              		.loc 1 1025 0 is_stmt 1
 2851 0022 FFF7FEFF 		bl	CyEnterCriticalSection
 2852              	.LVL325:
 2853 0026 0190     		str	r0, [sp, #4]
 2854              	.LVL326:
1028:Generated_Source\PSoC4/CyLib.c ****                 {
 2855              		.loc 1 1028 0
 2856 0028 FFF7FEFF 		bl	CySysClkImoGetWcoLock
 2857              	.LVL327:
 2858 002c 0028     		cmp	r0, #0
 2859 002e 03D0     		beq	.L204
 2860              	.LVL328:
1031:Generated_Source\PSoC4/CyLib.c ****                 }
 2861              		.loc 1 1031 0
 2862 0030 FFF7FEFF 		bl	CySysClkImoDisableWcoLock
 2863              	.LVL329:
1030:Generated_Source\PSoC4/CyLib.c ****                     CySysClkImoDisableWcoLock();
 2864              		.loc 1 1030 0
 2865 0034 0126     		movs	r6, #1
 2866 0036 00E0     		b	.L200
 2867              	.LVL330:
 2868              	.L204:
1008:Generated_Source\PSoC4/CyLib.c ****         #endif  /* (CY_IP_IMO_TRIMMABLE_BY_WCO) */
 2869              		.loc 1 1008 0
 2870 0038 0026     		movs	r6, #0
 2871              	.LVL331:
 2872              	.L200:
1056:Generated_Source\PSoC4/CyLib.c **** 
 2873              		.loc 1 1056 0
 2874 003a 214A     		ldr	r2, .L205
 2875 003c 1368     		ldr	r3, [r2]
 2876 003e 0721     		movs	r1, #7
 2877 0040 8B43     		bics	r3, r1
 2878 0042 1360     		str	r3, [r2]
 2879              	.LVL332:
1074:Generated_Source\PSoC4/CyLib.c ****             #endif  /* (CY_IP_IMO_TRIMMABLE_BY_USB) */
 2880              		.loc 1 1074 0
 2881 0044 1F4B     		ldr	r3, .L205+4
 2882 0046 E318     		adds	r3, r4, r3
 2883 0048 1B78     		ldrb	r3, [r3]
 2884 004a DBB2     		uxtb	r3, r3
 2885              	.LVL333:
1076:Generated_Source\PSoC4/CyLib.c **** 
 2886              		.loc 1 1076 0
 2887 004c 1E4A     		ldr	r2, .L205+8
 2888 004e 1360     		str	r3, [r2]
1079:Generated_Source\PSoC4/CyLib.c **** 
 2889              		.loc 1 1079 0
 2890 0050 1E4A     		ldr	r2, .L205+12
 2891 0052 1368     		ldr	r3, [r2]
 2892              	.LVL334:
ARM GAS  C:\Users\YUANFA~1\AppData\Local\Temp\ccYDlzYT.s 			page 110


 2893 0054 8B43     		bics	r3, r1
 2894 0056 1360     		str	r3, [r2]
 2895              	.LVL335:
1082:Generated_Source\PSoC4/CyLib.c ****                 (CY_SFLASH_IMO_TCTRIM_REG(freq - CY_SYS_CLK_IMO_MIN_FREQ_MHZ) & CY_SYS_CLK_IMO_TRIM
 2896              		.loc 1 1082 0
 2897 0058 1D48     		ldr	r0, .L205+16
 2898 005a 0368     		ldr	r3, [r0]
 2899 005c 7F22     		movs	r2, #127
 2900 005e 9343     		bics	r3, r2
 2901 0060 1900     		movs	r1, r3
1083:Generated_Source\PSoC4/CyLib.c **** 
 2902              		.loc 1 1083 0
 2903 0062 1C4B     		ldr	r3, .L205+20
 2904 0064 E318     		adds	r3, r4, r3
 2905 0066 1B78     		ldrb	r3, [r3]
 2906 0068 1340     		ands	r3, r2
1082:Generated_Source\PSoC4/CyLib.c ****                 (CY_SFLASH_IMO_TCTRIM_REG(freq - CY_SYS_CLK_IMO_MIN_FREQ_MHZ) & CY_SYS_CLK_IMO_TRIM
 2907              		.loc 1 1082 0
 2908 006a 0B43     		orrs	r3, r1
 2909 006c 0360     		str	r3, [r0]
1085:Generated_Source\PSoC4/CyLib.c **** 
 2910              		.loc 1 1085 0
 2911 006e 3220     		movs	r0, #50
 2912 0070 FFF7FEFF 		bl	CyDelayCycles
 2913              	.LVL336:
1087:Generated_Source\PSoC4/CyLib.c ****             {
 2914              		.loc 1 1087 0
 2915 0074 182C     		cmp	r4, #24
 2916 0076 16D9     		bls	.L201
1090:Generated_Source\PSoC4/CyLib.c ****                     (((freq - 4u - CY_SYS_CLK_IMO_MIN_FREQ_MHZ) >> 2u) & CY_SYS_CLK_IMO_SELECT_FREQ
 2917              		.loc 1 1090 0
 2918 0078 114F     		ldr	r7, .L205
 2919 007a 3B68     		ldr	r3, [r7]
 2920 007c 0725     		movs	r5, #7
 2921 007e AB43     		bics	r3, r5
 2922 0080 1A00     		movs	r2, r3
1091:Generated_Source\PSoC4/CyLib.c **** 
 2923              		.loc 1 1091 0
 2924 0082 2300     		movs	r3, r4
 2925 0084 1C3B     		subs	r3, r3, #28
 2926 0086 9B08     		lsrs	r3, r3, #2
 2927 0088 2B40     		ands	r3, r5
1090:Generated_Source\PSoC4/CyLib.c ****                     (((freq - 4u - CY_SYS_CLK_IMO_MIN_FREQ_MHZ) >> 2u) & CY_SYS_CLK_IMO_SELECT_FREQ
 2928              		.loc 1 1090 0
 2929 008a 1343     		orrs	r3, r2
 2930 008c 3B60     		str	r3, [r7]
1093:Generated_Source\PSoC4/CyLib.c **** 
 2931              		.loc 1 1093 0
 2932 008e 3220     		movs	r0, #50
 2933 0090 FFF7FEFF 		bl	CyDelayCycles
 2934              	.LVL337:
1097:Generated_Source\PSoC4/CyLib.c ****                     (((freq - CY_SYS_CLK_IMO_MIN_FREQ_MHZ) >> 2u) & CY_SYS_CLK_IMO_SELECT_FREQ_MASK
 2935              		.loc 1 1097 0
 2936 0094 3A68     		ldr	r2, [r7]
 2937 0096 AA43     		bics	r2, r5
1098:Generated_Source\PSoC4/CyLib.c ****             }
 2938              		.loc 1 1098 0
ARM GAS  C:\Users\YUANFA~1\AppData\Local\Temp\ccYDlzYT.s 			page 111


 2939 0098 2300     		movs	r3, r4
 2940 009a 183B     		subs	r3, r3, #24
 2941 009c 9B08     		lsrs	r3, r3, #2
 2942 009e 2C00     		movs	r4, r5
 2943              	.LVL338:
 2944 00a0 1C40     		ands	r4, r3
1097:Generated_Source\PSoC4/CyLib.c ****                     (((freq - CY_SYS_CLK_IMO_MIN_FREQ_MHZ) >> 2u) & CY_SYS_CLK_IMO_SELECT_FREQ_MASK
 2945              		.loc 1 1097 0
 2946 00a2 1443     		orrs	r4, r2
 2947 00a4 3C60     		str	r4, [r7]
 2948              	.L201:
1102:Generated_Source\PSoC4/CyLib.c ****                 {
 2949              		.loc 1 1102 0
 2950 00a6 012E     		cmp	r6, #1
 2951 00a8 01D1     		bne	.L202
1104:Generated_Source\PSoC4/CyLib.c ****                 }
 2952              		.loc 1 1104 0
 2953 00aa FFF7FEFF 		bl	CySysClkImoEnableWcoLock
 2954              	.LVL339:
 2955              	.L202:
1116:Generated_Source\PSoC4/CyLib.c ****         }
 2956              		.loc 1 1116 0
 2957 00ae 0198     		ldr	r0, [sp, #4]
 2958 00b0 FFF7FEFF 		bl	CyExitCriticalSection
 2959              	.LVL340:
 2960 00b4 02E0     		b	.L197
 2961              	.LVL341:
 2962              	.L199:
1121:Generated_Source\PSoC4/CyLib.c ****         }
 2963              		.loc 1 1121 0 discriminator 1
 2964 00b6 0020     		movs	r0, #0
 2965              	.LVL342:
 2966 00b8 FFF7FEFF 		bl	CyHalt
 2967              	.LVL343:
 2968              	.L197:
1123:Generated_Source\PSoC4/CyLib.c **** 
 2969              		.loc 1 1123 0
 2970 00bc 03B0     		add	sp, sp, #12
 2971              		@ sp needed
 2972 00be F0BD     		pop	{r4, r5, r6, r7, pc}
 2973              	.L206:
 2974              		.align	2
 2975              	.L205:
 2976 00c0 080F0340 		.word	1073942280
 2977 00c4 4DF3FF0F 		.word	268432205
 2978 00c8 0C0F0340 		.word	1073942284
 2979 00cc 100F0340 		.word	1073942288
 2980 00d0 180F0340 		.word	1073942296
 2981 00d4 34F3FF0F 		.word	268432180
 2982              		.cfi_endproc
 2983              	.LFE10:
 2984              		.size	CySysClkWriteImoFreq, .-CySysClkWriteImoFreq
 2985              		.section	.text.CyDelayUs,"ax",%progbits
 2986              		.align	2
 2987              		.global	CyDelayUs
 2988              		.code	16
 2989              		.thumb_func
ARM GAS  C:\Users\YUANFA~1\AppData\Local\Temp\ccYDlzYT.s 			page 112


 2990              		.type	CyDelayUs, %function
 2991              	CyDelayUs:
 2992              	.LFB45:
3116:Generated_Source\PSoC4/CyLib.c **** 
3117:Generated_Source\PSoC4/CyLib.c **** 
3118:Generated_Source\PSoC4/CyLib.c **** /*******************************************************************************
3119:Generated_Source\PSoC4/CyLib.c **** * Function Name: CyDelayUs
3120:Generated_Source\PSoC4/CyLib.c **** ****************************************************************************//**
3121:Generated_Source\PSoC4/CyLib.c **** *  Blocks for microseconds.
3122:Generated_Source\PSoC4/CyLib.c **** *
3123:Generated_Source\PSoC4/CyLib.c **** *  \param microseconds: number of microseconds to delay.
3124:Generated_Source\PSoC4/CyLib.c **** *
3125:Generated_Source\PSoC4/CyLib.c **** *******************************************************************************/
3126:Generated_Source\PSoC4/CyLib.c **** void CyDelayUs(uint16 microseconds)
3127:Generated_Source\PSoC4/CyLib.c **** {
 2993              		.loc 1 3127 0
 2994              		.cfi_startproc
 2995              		@ args = 0, pretend = 0, frame = 0
 2996              		@ frame_needed = 0, uses_anonymous_args = 0
 2997              	.LVL344:
 2998 0000 10B5     		push	{r4, lr}
 2999              		.cfi_def_cfa_offset 8
 3000              		.cfi_offset 4, -8
 3001              		.cfi_offset 14, -4
3128:Generated_Source\PSoC4/CyLib.c ****     CyDelayCycles((uint32)microseconds * cydelayFreqMhz);
 3002              		.loc 1 3128 0
 3003 0002 034B     		ldr	r3, .L208
 3004 0004 1B7B     		ldrb	r3, [r3, #12]
 3005 0006 5843     		muls	r0, r3
 3006              	.LVL345:
 3007 0008 FFF7FEFF 		bl	CyDelayCycles
 3008              	.LVL346:
3129:Generated_Source\PSoC4/CyLib.c **** }
 3009              		.loc 1 3129 0
 3010              		@ sp needed
 3011 000c 10BD     		pop	{r4, pc}
 3012              	.L209:
 3013 000e C046     		.align	2
 3014              	.L208:
 3015 0010 00000000 		.word	.LANCHOR0
 3016              		.cfi_endproc
 3017              	.LFE45:
 3018              		.size	CyDelayUs, .-CyDelayUs
 3019              		.section	.text.CySysClkEcoStart,"ax",%progbits
 3020              		.align	2
 3021              		.global	CySysClkEcoStart
 3022              		.code	16
 3023              		.thumb_func
 3024              		.type	CySysClkEcoStart, %function
 3025              	CySysClkEcoStart:
 3026              	.LFB12:
1202:Generated_Source\PSoC4/CyLib.c ****         cystatus returnStatus = CYRET_SUCCESS;
 3027              		.loc 1 1202 0
 3028              		.cfi_startproc
 3029              		@ args = 0, pretend = 0, frame = 0
 3030              		@ frame_needed = 0, uses_anonymous_args = 0
 3031              	.LVL347:
ARM GAS  C:\Users\YUANFA~1\AppData\Local\Temp\ccYDlzYT.s 			page 113


 3032 0000 70B5     		push	{r4, r5, r6, lr}
 3033              		.cfi_def_cfa_offset 16
 3034              		.cfi_offset 4, -16
 3035              		.cfi_offset 5, -12
 3036              		.cfi_offset 6, -8
 3037              		.cfi_offset 14, -4
 3038 0002 0400     		movs	r4, r0
 3039              	.LVL348:
1306:Generated_Source\PSoC4/CyLib.c ****             CyDelayUs(CY_SYS_CLK_ECO_CONFIG_CLK_EN_TIMEOUT_US);
 3040              		.loc 1 1306 0
 3041 0004 0F4D     		ldr	r5, .L215
 3042 0006 2B68     		ldr	r3, [r5]
 3043 0008 8022     		movs	r2, #128
 3044 000a 1206     		lsls	r2, r2, #24
 3045 000c 1343     		orrs	r3, r2
 3046 000e 2B60     		str	r3, [r5]
1307:Generated_Source\PSoC4/CyLib.c ****             #if (CY_IP_ECOV2_SRSSLT)
 3047              		.loc 1 1307 0
 3048 0010 0A20     		movs	r0, #10
 3049              	.LVL349:
 3050 0012 FFF7FEFF 		bl	CyDelayUs
 3051              	.LVL350:
1311:Generated_Source\PSoC4/CyLib.c ****         #endif /* (CY_IP_ECO_BLESS) */
 3052              		.loc 1 1311 0
 3053 0016 2A68     		ldr	r2, [r5]
 3054 0018 0123     		movs	r3, #1
 3055 001a 1343     		orrs	r3, r2
 3056 001c 2B60     		str	r3, [r5]
1314:Generated_Source\PSoC4/CyLib.c ****         {
 3057              		.loc 1 1314 0
 3058 001e 002C     		cmp	r4, #0
 3059 0020 09D1     		bne	.L211
1203:Generated_Source\PSoC4/CyLib.c **** 
 3060              		.loc 1 1203 0
 3061 0022 0020     		movs	r0, #0
 3062 0024 0CE0     		b	.L212
 3063              	.L213:
1320:Generated_Source\PSoC4/CyLib.c **** 
 3064              		.loc 1 1320 0
 3065 0026 0120     		movs	r0, #1
 3066 0028 FFF7FEFF 		bl	CyDelayUs
 3067              	.LVL351:
1322:Generated_Source\PSoC4/CyLib.c ****                 {
 3068              		.loc 1 1322 0
 3069 002c FFF7FEFF 		bl	CySysClkEcoReadStatus
 3070              	.LVL352:
 3071 0030 0028     		cmp	r0, #0
 3072 0032 04D1     		bne	.L214
1318:Generated_Source\PSoC4/CyLib.c ****             {
 3073              		.loc 1 1318 0
 3074 0034 013C     		subs	r4, r4, #1
 3075              	.LVL353:
 3076              	.L211:
1318:Generated_Source\PSoC4/CyLib.c ****             {
 3077              		.loc 1 1318 0 is_stmt 0 discriminator 1
 3078 0036 002C     		cmp	r4, #0
 3079 0038 F5D1     		bne	.L213
ARM GAS  C:\Users\YUANFA~1\AppData\Local\Temp\ccYDlzYT.s 			page 114


1316:Generated_Source\PSoC4/CyLib.c **** 
 3080              		.loc 1 1316 0 is_stmt 1
 3081 003a 1020     		movs	r0, #16
 3082 003c 00E0     		b	.L212
 3083              	.L214:
1324:Generated_Source\PSoC4/CyLib.c ****                     break;
 3084              		.loc 1 1324 0
 3085 003e 0020     		movs	r0, #0
 3086              	.L212:
 3087              	.LVL354:
1332:Generated_Source\PSoC4/CyLib.c **** 
 3088              		.loc 1 1332 0
 3089              		@ sp needed
 3090              	.LVL355:
 3091 0040 70BD     		pop	{r4, r5, r6, pc}
 3092              	.L216:
 3093 0042 C046     		.align	2
 3094              	.L215:
 3095 0044 08002F40 		.word	1076822024
 3096              		.cfi_endproc
 3097              	.LFE12:
 3098              		.size	CySysClkEcoStart, .-CySysClkEcoStart
 3099              		.section	.text.CySysClkPllStart,"ax",%progbits
 3100              		.align	2
 3101              		.global	CySysClkPllStart
 3102              		.code	16
 3103              		.thumb_func
 3104              		.type	CySysClkPllStart, %function
 3105              	CySysClkPllStart:
 3106              	.LFB17:
1721:Generated_Source\PSoC4/CyLib.c ****         uint32 counts = CY_SYS_CLK_PLL_MAX_STARTUP_US;
 3107              		.loc 1 1721 0
 3108              		.cfi_startproc
 3109              		@ args = 0, pretend = 0, frame = 0
 3110              		@ frame_needed = 0, uses_anonymous_args = 0
 3111              	.LVL356:
 3112 0000 F8B5     		push	{r3, r4, r5, r6, r7, lr}
 3113              		.cfi_def_cfa_offset 24
 3114              		.cfi_offset 3, -24
 3115              		.cfi_offset 4, -20
 3116              		.cfi_offset 5, -16
 3117              		.cfi_offset 6, -12
 3118              		.cfi_offset 7, -8
 3119              		.cfi_offset 14, -4
 3120 0002 0400     		movs	r4, r0
 3121 0004 0D00     		movs	r5, r1
 3122              	.LVL357:
1726:Generated_Source\PSoC4/CyLib.c ****         {
 3123              		.loc 1 1726 0
 3124 0006 0028     		cmp	r0, #0
 3125 0008 3FD1     		bne	.L222
1726:Generated_Source\PSoC4/CyLib.c ****         {
 3126              		.loc 1 1726 0 is_stmt 0 discriminator 1
 3127 000a 0129     		cmp	r1, #1
 3128 000c 3FD8     		bhi	.L223
1728:Generated_Source\PSoC4/CyLib.c **** 
 3129              		.loc 1 1728 0 is_stmt 1
ARM GAS  C:\Users\YUANFA~1\AppData\Local\Temp\ccYDlzYT.s 			page 115


 3130 000e FFF7FEFF 		bl	CyEnterCriticalSection
 3131              	.LVL358:
1731:Generated_Source\PSoC4/CyLib.c **** 
 3132              		.loc 1 1731 0
 3133 0012 204F     		ldr	r7, .L225
 3134 0014 6600     		lsls	r6, r4, #1
 3135 0016 3219     		adds	r2, r6, r4
 3136 0018 9300     		lsls	r3, r2, #2
 3137 001a DA59     		ldr	r2, [r3, r7]
 3138 001c 1E4B     		ldr	r3, .L225+4
 3139 001e 1340     		ands	r3, r2
 3140 0020 3119     		adds	r1, r6, r4
 3141 0022 8A00     		lsls	r2, r1, #2
 3142 0024 1100     		movs	r1, r2
 3143 0026 D351     		str	r3, [r2, r7]
1734:Generated_Source\PSoC4/CyLib.c **** 
 3144              		.loc 1 1734 0
 3145 0028 CB59     		ldr	r3, [r1, r7]
 3146 002a 8022     		movs	r2, #128
 3147 002c 1206     		lsls	r2, r2, #24
 3148 002e 1343     		orrs	r3, r2
 3149 0030 3119     		adds	r1, r6, r4
 3150 0032 8A00     		lsls	r2, r1, #2
 3151 0034 D351     		str	r3, [r2, r7]
1736:Generated_Source\PSoC4/CyLib.c **** 
 3152              		.loc 1 1736 0
 3153 0036 FFF7FEFF 		bl	CyExitCriticalSection
 3154              	.LVL359:
1739:Generated_Source\PSoC4/CyLib.c ****             interruptState = CyEnterCriticalSection();
 3155              		.loc 1 1739 0
 3156 003a 0520     		movs	r0, #5
 3157 003c FFF7FEFF 		bl	CyDelayUs
 3158              	.LVL360:
1740:Generated_Source\PSoC4/CyLib.c ****             CY_SYS_CLK_PLL_BASE.pll[pll].config |= CY_SYS_CLK_PLL_CONFIG_ISOLATE;
 3159              		.loc 1 1740 0
 3160 0040 FFF7FEFF 		bl	CyEnterCriticalSection
 3161              	.LVL361:
1741:Generated_Source\PSoC4/CyLib.c ****             CyExitCriticalSection(interruptState);
 3162              		.loc 1 1741 0
 3163 0044 3219     		adds	r2, r6, r4
 3164 0046 9300     		lsls	r3, r2, #2
 3165 0048 DB59     		ldr	r3, [r3, r7]
 3166 004a 8022     		movs	r2, #128
 3167 004c D205     		lsls	r2, r2, #23
 3168 004e 1343     		orrs	r3, r2
 3169 0050 3619     		adds	r6, r6, r4
 3170 0052 B200     		lsls	r2, r6, #2
 3171 0054 D351     		str	r3, [r2, r7]
1742:Generated_Source\PSoC4/CyLib.c **** 
 3172              		.loc 1 1742 0
 3173 0056 FFF7FEFF 		bl	CyExitCriticalSection
 3174              	.LVL362:
1744:Generated_Source\PSoC4/CyLib.c ****             {
 3175              		.loc 1 1744 0
 3176 005a 002D     		cmp	r5, #0
 3177 005c 10D1     		bne	.L224
1724:Generated_Source\PSoC4/CyLib.c **** 
ARM GAS  C:\Users\YUANFA~1\AppData\Local\Temp\ccYDlzYT.s 			page 116


 3178              		.loc 1 1724 0
 3179 005e 0020     		movs	r0, #0
 3180 0060 16E0     		b	.L218
 3181              	.LVL363:
 3182              	.L221:
1751:Generated_Source\PSoC4/CyLib.c ****                     {
 3183              		.loc 1 1751 0
 3184 0062 2000     		movs	r0, r4
 3185 0064 FFF7FEFF 		bl	CySysClkPllGetLockStatus
 3186              	.LVL364:
 3187 0068 0028     		cmp	r0, #0
 3188 006a 04D0     		beq	.L220
1754:Generated_Source\PSoC4/CyLib.c ****                         break;
 3189              		.loc 1 1754 0
 3190 006c 2000     		movs	r0, r4
 3191 006e FFF7FEFF 		bl	CySysClkPllGetUnlockStatus
 3192              	.LVL365:
1753:Generated_Source\PSoC4/CyLib.c ****                         (void) CySysClkPllGetUnlockStatus(pll);
 3193              		.loc 1 1753 0
 3194 0072 0020     		movs	r0, #0
1755:Generated_Source\PSoC4/CyLib.c ****                     }
 3195              		.loc 1 1755 0
 3196 0074 0CE0     		b	.L218
 3197              	.L220:
1758:Generated_Source\PSoC4/CyLib.c ****                     counts--;
 3198              		.loc 1 1758 0
 3199 0076 0120     		movs	r0, #1
 3200 0078 FFF7FEFF 		bl	CyDelayUs
 3201              	.LVL366:
1759:Generated_Source\PSoC4/CyLib.c ****                 }
 3202              		.loc 1 1759 0
 3203 007c 013D     		subs	r5, r5, #1
 3204              	.LVL367:
 3205 007e 00E0     		b	.L219
 3206              	.LVL368:
 3207              	.L224:
 3208 0080 FF25     		movs	r5, #255
 3209              	.LVL369:
 3210              	.L219:
1748:Generated_Source\PSoC4/CyLib.c ****                 {
 3211              		.loc 1 1748 0
 3212 0082 002D     		cmp	r5, #0
 3213 0084 EDD1     		bne	.L221
1746:Generated_Source\PSoC4/CyLib.c **** 
 3214              		.loc 1 1746 0
 3215 0086 1020     		movs	r0, #16
 3216 0088 02E0     		b	.L218
 3217              	.LVL370:
 3218              	.L222:
1765:Generated_Source\PSoC4/CyLib.c ****         }
 3219              		.loc 1 1765 0
 3220 008a 0120     		movs	r0, #1
 3221              	.LVL371:
 3222 008c 00E0     		b	.L218
 3223              	.LVL372:
 3224              	.L223:
 3225 008e 0120     		movs	r0, #1
ARM GAS  C:\Users\YUANFA~1\AppData\Local\Temp\ccYDlzYT.s 			page 117


 3226              	.LVL373:
 3227              	.L218:
1769:Generated_Source\PSoC4/CyLib.c **** 
 3228              		.loc 1 1769 0
 3229              		@ sp needed
 3230              	.LVL374:
 3231 0090 F8BD     		pop	{r3, r4, r5, r6, r7, pc}
 3232              	.L226:
 3233 0092 C046     		.align	2
 3234              	.L225:
 3235 0094 14002F40 		.word	1076822036
 3236 0098 FFFFFFBF 		.word	-1073741825
 3237              		.cfi_endproc
 3238              	.LFE17:
 3239              		.size	CySysClkPllStart, .-CySysClkPllStart
 3240              		.section	.text.CyDelayFreq,"ax",%progbits
 3241              		.align	2
 3242              		.global	CyDelayFreq
 3243              		.code	16
 3244              		.thumb_func
 3245              		.type	CyDelayFreq, %function
 3246              	CyDelayFreq:
 3247              	.LFB46:
3130:Generated_Source\PSoC4/CyLib.c **** 
3131:Generated_Source\PSoC4/CyLib.c **** 
3132:Generated_Source\PSoC4/CyLib.c **** /*******************************************************************************
3133:Generated_Source\PSoC4/CyLib.c **** * Function Name: CyDelayFreq
3134:Generated_Source\PSoC4/CyLib.c **** ****************************************************************************//**
3135:Generated_Source\PSoC4/CyLib.c **** *  Sets clock frequency for CyDelay.
3136:Generated_Source\PSoC4/CyLib.c **** *
3137:Generated_Source\PSoC4/CyLib.c **** *  \param freq: Frequency of bus clock in Hertz.
3138:Generated_Source\PSoC4/CyLib.c **** *
3139:Generated_Source\PSoC4/CyLib.c **** *******************************************************************************/
3140:Generated_Source\PSoC4/CyLib.c **** void CyDelayFreq(uint32 freq)
3141:Generated_Source\PSoC4/CyLib.c **** {
 3248              		.loc 1 3141 0
 3249              		.cfi_startproc
 3250              		@ args = 0, pretend = 0, frame = 0
 3251              		@ frame_needed = 0, uses_anonymous_args = 0
 3252              	.LVL375:
 3253 0000 70B5     		push	{r4, r5, r6, lr}
 3254              		.cfi_def_cfa_offset 16
 3255              		.cfi_offset 4, -16
 3256              		.cfi_offset 5, -12
 3257              		.cfi_offset 6, -8
 3258              		.cfi_offset 14, -4
3142:Generated_Source\PSoC4/CyLib.c ****     if (freq != 0u)
 3259              		.loc 1 3142 0
 3260 0002 0028     		cmp	r0, #0
 3261 0004 02D0     		beq	.L228
3143:Generated_Source\PSoC4/CyLib.c ****     {
3144:Generated_Source\PSoC4/CyLib.c ****         cydelayFreqHz = freq;
 3262              		.loc 1 3144 0
 3263 0006 0C4B     		ldr	r3, .L230
 3264 0008 1861     		str	r0, [r3, #16]
 3265 000a 02E0     		b	.L229
 3266              	.L228:
ARM GAS  C:\Users\YUANFA~1\AppData\Local\Temp\ccYDlzYT.s 			page 118


3145:Generated_Source\PSoC4/CyLib.c ****     }
3146:Generated_Source\PSoC4/CyLib.c ****     else
3147:Generated_Source\PSoC4/CyLib.c ****     {
3148:Generated_Source\PSoC4/CyLib.c ****         cydelayFreqHz = CYDEV_BCLK__SYSCLK__HZ;
 3267              		.loc 1 3148 0
 3268 000c 0B4A     		ldr	r2, .L230+4
 3269 000e 0A4B     		ldr	r3, .L230
 3270 0010 1A61     		str	r2, [r3, #16]
 3271              	.L229:
3149:Generated_Source\PSoC4/CyLib.c ****     }
3150:Generated_Source\PSoC4/CyLib.c **** 
3151:Generated_Source\PSoC4/CyLib.c ****     cydelayFreqMhz = (uint8)((cydelayFreqHz + CY_DELAY_1M_MINUS_1_THRESHOLD) / CY_DELAY_1M_THRESHOL
 3272              		.loc 1 3151 0
 3273 0012 094C     		ldr	r4, .L230
 3274 0014 2569     		ldr	r5, [r4, #16]
 3275 0016 0A4B     		ldr	r3, .L230+8
 3276 0018 E818     		adds	r0, r5, r3
 3277              	.LVL376:
 3278 001a 0A49     		ldr	r1, .L230+12
 3279 001c FFF7FEFF 		bl	__aeabi_uidiv
 3280              	.LVL377:
 3281 0020 2073     		strb	r0, [r4, #12]
3152:Generated_Source\PSoC4/CyLib.c ****     cydelayFreqKhz = (cydelayFreqHz + CY_DELAY_1K_MINUS_1_THRESHOLD) / CY_DELAY_1K_THRESHOLD;
 3282              		.loc 1 3152 0
 3283 0022 094B     		ldr	r3, .L230+16
 3284 0024 E818     		adds	r0, r5, r3
 3285 0026 FA21     		movs	r1, #250
 3286 0028 8900     		lsls	r1, r1, #2
 3287 002a FFF7FEFF 		bl	__aeabi_uidiv
 3288              	.LVL378:
 3289 002e A060     		str	r0, [r4, #8]
3153:Generated_Source\PSoC4/CyLib.c ****     cydelay32kMs   = CY_DELAY_MS_OVERFLOW * cydelayFreqKhz;
 3290              		.loc 1 3153 0
 3291 0030 C003     		lsls	r0, r0, #15
 3292 0032 6060     		str	r0, [r4, #4]
3154:Generated_Source\PSoC4/CyLib.c **** }
 3293              		.loc 1 3154 0
 3294              		@ sp needed
 3295 0034 70BD     		pop	{r4, r5, r6, pc}
 3296              	.L231:
 3297 0036 C046     		.align	2
 3298              	.L230:
 3299 0038 00000000 		.word	.LANCHOR0
 3300 003c 00366E01 		.word	24000000
 3301 0040 3F420F00 		.word	999999
 3302 0044 40420F00 		.word	1000000
 3303 0048 E7030000 		.word	999
 3304              		.cfi_endproc
 3305              	.LFE46:
 3306              		.size	CyDelayFreq, .-CyDelayFreq
 3307              		.section	.text.CySysTickStop,"ax",%progbits
 3308              		.align	2
 3309              		.global	CySysTickStop
 3310              		.code	16
 3311              		.thumb_func
 3312              		.type	CySysTickStop, %function
 3313              	CySysTickStop:
ARM GAS  C:\Users\YUANFA~1\AppData\Local\Temp\ccYDlzYT.s 			page 119


 3314              	.LFB50:
3155:Generated_Source\PSoC4/CyLib.c **** 
3156:Generated_Source\PSoC4/CyLib.c **** 
3157:Generated_Source\PSoC4/CyLib.c **** /*******************************************************************************
3158:Generated_Source\PSoC4/CyLib.c **** * Function Name: CySysTick_Start
3159:Generated_Source\PSoC4/CyLib.c **** ****************************************************************************//**
3160:Generated_Source\PSoC4/CyLib.c **** *
3161:Generated_Source\PSoC4/CyLib.c **** *  Starts the system timer (SysTick): configures SysTick to generate interrupt
3162:Generated_Source\PSoC4/CyLib.c **** *  every 1 ms and enables the interrupt.
3163:Generated_Source\PSoC4/CyLib.c **** *
3164:Generated_Source\PSoC4/CyLib.c **** *  There are components (LIN, CapSense Gesture) that relies on the default
3165:Generated_Source\PSoC4/CyLib.c **** *  interval (1 ms). And that changing the interval will negatively impact
3166:Generated_Source\PSoC4/CyLib.c **** *  their functionality.
3167:Generated_Source\PSoC4/CyLib.c **** *
3168:Generated_Source\PSoC4/CyLib.c **** * \sideeffect
3169:Generated_Source\PSoC4/CyLib.c **** *  Clears SysTick count flag if it was set.
3170:Generated_Source\PSoC4/CyLib.c **** *
3171:Generated_Source\PSoC4/CyLib.c **** *******************************************************************************/
3172:Generated_Source\PSoC4/CyLib.c **** void CySysTickStart(void)
3173:Generated_Source\PSoC4/CyLib.c **** {
3174:Generated_Source\PSoC4/CyLib.c ****     if (0u == CySysTickInitVar)
3175:Generated_Source\PSoC4/CyLib.c ****     {
3176:Generated_Source\PSoC4/CyLib.c ****         CySysTickInit();
3177:Generated_Source\PSoC4/CyLib.c ****         CySysTickInitVar = 1u;
3178:Generated_Source\PSoC4/CyLib.c ****     }
3179:Generated_Source\PSoC4/CyLib.c **** 
3180:Generated_Source\PSoC4/CyLib.c ****     CySysTickEnable();
3181:Generated_Source\PSoC4/CyLib.c **** }
3182:Generated_Source\PSoC4/CyLib.c **** 
3183:Generated_Source\PSoC4/CyLib.c **** 
3184:Generated_Source\PSoC4/CyLib.c **** /*******************************************************************************
3185:Generated_Source\PSoC4/CyLib.c **** * Function Name: CySysTickInit
3186:Generated_Source\PSoC4/CyLib.c **** ****************************************************************************//**
3187:Generated_Source\PSoC4/CyLib.c **** *
3188:Generated_Source\PSoC4/CyLib.c **** *  Initializes the callback addresses with pointers to NULL, associates the
3189:Generated_Source\PSoC4/CyLib.c **** *  SysTick system vector with the function that is responsible for calling
3190:Generated_Source\PSoC4/CyLib.c **** *  registered callback functions, configures SysTick timer to generate interrupt
3191:Generated_Source\PSoC4/CyLib.c **** *  every 1 ms.
3192:Generated_Source\PSoC4/CyLib.c **** *
3193:Generated_Source\PSoC4/CyLib.c **** *  The 1 ms interrupt interval is configured based on the frequency determined
3194:Generated_Source\PSoC4/CyLib.c **** *  by PSoC Creator at build time. If System clock frequency is changed in
3195:Generated_Source\PSoC4/CyLib.c **** *  runtime, the CyDelayFreq() with the appropriate parameter should be called.
3196:Generated_Source\PSoC4/CyLib.c **** *
3197:Generated_Source\PSoC4/CyLib.c **** * \sideeffect
3198:Generated_Source\PSoC4/CyLib.c **** *  Clears SysTick count flag if it was set.
3199:Generated_Source\PSoC4/CyLib.c **** *
3200:Generated_Source\PSoC4/CyLib.c **** *******************************************************************************/
3201:Generated_Source\PSoC4/CyLib.c **** void CySysTickInit(void)
3202:Generated_Source\PSoC4/CyLib.c **** {
3203:Generated_Source\PSoC4/CyLib.c ****     uint32 i;
3204:Generated_Source\PSoC4/CyLib.c **** 
3205:Generated_Source\PSoC4/CyLib.c ****     for (i = 0u; i<CY_SYS_SYST_NUM_OF_CALLBACKS; i++)
3206:Generated_Source\PSoC4/CyLib.c ****     {
3207:Generated_Source\PSoC4/CyLib.c ****         CySysTickCallbacks[i] = (void *) 0;
3208:Generated_Source\PSoC4/CyLib.c ****     }
3209:Generated_Source\PSoC4/CyLib.c **** 
3210:Generated_Source\PSoC4/CyLib.c ****     (void) CyIntSetSysVector(CY_INT_SYSTICK_IRQN, &CySysTickServiceCallbacks);
ARM GAS  C:\Users\YUANFA~1\AppData\Local\Temp\ccYDlzYT.s 			page 120


3211:Generated_Source\PSoC4/CyLib.c **** 
3212:Generated_Source\PSoC4/CyLib.c ****     #if(CY_SYSTICK_LFCLK_SOURCE)
3213:Generated_Source\PSoC4/CyLib.c ****         CySysTickSetClockSource(CY_SYS_SYST_CSR_CLK_SRC_SYSCLK);
3214:Generated_Source\PSoC4/CyLib.c ****     #endif /* (CY_SYSTICK_LFCLK_SOURCE) */
3215:Generated_Source\PSoC4/CyLib.c **** 
3216:Generated_Source\PSoC4/CyLib.c ****     CySysTickSetReload(cydelayFreqHz/1000u);
3217:Generated_Source\PSoC4/CyLib.c ****     CySysTickClear();
3218:Generated_Source\PSoC4/CyLib.c **** }
3219:Generated_Source\PSoC4/CyLib.c **** 
3220:Generated_Source\PSoC4/CyLib.c **** 
3221:Generated_Source\PSoC4/CyLib.c **** /*******************************************************************************
3222:Generated_Source\PSoC4/CyLib.c **** * Function Name: CySysTickEnable
3223:Generated_Source\PSoC4/CyLib.c **** ****************************************************************************//**
3224:Generated_Source\PSoC4/CyLib.c **** *
3225:Generated_Source\PSoC4/CyLib.c **** *  Enables the SysTick timer and its interrupt.
3226:Generated_Source\PSoC4/CyLib.c **** *
3227:Generated_Source\PSoC4/CyLib.c **** * \sideeffect
3228:Generated_Source\PSoC4/CyLib.c **** *  Clears SysTick count flag if it was set
3229:Generated_Source\PSoC4/CyLib.c **** *
3230:Generated_Source\PSoC4/CyLib.c **** *******************************************************************************/
3231:Generated_Source\PSoC4/CyLib.c **** void CySysTickEnable(void)
3232:Generated_Source\PSoC4/CyLib.c **** {
3233:Generated_Source\PSoC4/CyLib.c ****     CySysTickEnableInterrupt();
3234:Generated_Source\PSoC4/CyLib.c ****     CY_SYS_SYST_CSR_REG |= CY_SYS_SYST_CSR_ENABLE;
3235:Generated_Source\PSoC4/CyLib.c **** }
3236:Generated_Source\PSoC4/CyLib.c **** 
3237:Generated_Source\PSoC4/CyLib.c **** 
3238:Generated_Source\PSoC4/CyLib.c **** /*******************************************************************************
3239:Generated_Source\PSoC4/CyLib.c **** * Function Name: CySysTickStop
3240:Generated_Source\PSoC4/CyLib.c **** ****************************************************************************//**
3241:Generated_Source\PSoC4/CyLib.c **** *
3242:Generated_Source\PSoC4/CyLib.c **** *  Stops the system timer (SysTick).
3243:Generated_Source\PSoC4/CyLib.c **** *
3244:Generated_Source\PSoC4/CyLib.c **** * \sideeffect
3245:Generated_Source\PSoC4/CyLib.c **** *  Clears SysTick count flag if it was set
3246:Generated_Source\PSoC4/CyLib.c **** *
3247:Generated_Source\PSoC4/CyLib.c **** *******************************************************************************/
3248:Generated_Source\PSoC4/CyLib.c **** void CySysTickStop(void)
3249:Generated_Source\PSoC4/CyLib.c **** {
 3315              		.loc 1 3249 0
 3316              		.cfi_startproc
 3317              		@ args = 0, pretend = 0, frame = 0
 3318              		@ frame_needed = 0, uses_anonymous_args = 0
 3319              		@ link register save eliminated.
3250:Generated_Source\PSoC4/CyLib.c ****     CY_SYS_SYST_CSR_REG &= ((uint32) ~(CY_SYS_SYST_CSR_ENABLE));
 3320              		.loc 1 3250 0
 3321 0000 024A     		ldr	r2, .L233
 3322 0002 1368     		ldr	r3, [r2]
 3323 0004 0121     		movs	r1, #1
 3324 0006 8B43     		bics	r3, r1
 3325 0008 1360     		str	r3, [r2]
3251:Generated_Source\PSoC4/CyLib.c **** }
 3326              		.loc 1 3251 0
 3327              		@ sp needed
 3328 000a 7047     		bx	lr
 3329              	.L234:
 3330              		.align	2
ARM GAS  C:\Users\YUANFA~1\AppData\Local\Temp\ccYDlzYT.s 			page 121


 3331              	.L233:
 3332 000c 10E000E0 		.word	-536813552
 3333              		.cfi_endproc
 3334              	.LFE50:
 3335              		.size	CySysTickStop, .-CySysTickStop
 3336              		.section	.text.CySysTickEnableInterrupt,"ax",%progbits
 3337              		.align	2
 3338              		.global	CySysTickEnableInterrupt
 3339              		.code	16
 3340              		.thumb_func
 3341              		.type	CySysTickEnableInterrupt, %function
 3342              	CySysTickEnableInterrupt:
 3343              	.LFB51:
3252:Generated_Source\PSoC4/CyLib.c **** 
3253:Generated_Source\PSoC4/CyLib.c **** 
3254:Generated_Source\PSoC4/CyLib.c **** /*******************************************************************************
3255:Generated_Source\PSoC4/CyLib.c **** * Function Name: CySysTickEnableInterrupt
3256:Generated_Source\PSoC4/CyLib.c **** ****************************************************************************//**
3257:Generated_Source\PSoC4/CyLib.c **** *
3258:Generated_Source\PSoC4/CyLib.c **** *  Enables the SysTick interrupt.
3259:Generated_Source\PSoC4/CyLib.c **** *
3260:Generated_Source\PSoC4/CyLib.c **** * \sideeffect
3261:Generated_Source\PSoC4/CyLib.c **** *  Clears SysTick count flag if it was set
3262:Generated_Source\PSoC4/CyLib.c **** *
3263:Generated_Source\PSoC4/CyLib.c **** *******************************************************************************/
3264:Generated_Source\PSoC4/CyLib.c **** void CySysTickEnableInterrupt(void)
3265:Generated_Source\PSoC4/CyLib.c **** {
 3344              		.loc 1 3265 0
 3345              		.cfi_startproc
 3346              		@ args = 0, pretend = 0, frame = 0
 3347              		@ frame_needed = 0, uses_anonymous_args = 0
 3348              		@ link register save eliminated.
3266:Generated_Source\PSoC4/CyLib.c ****     CY_SYS_SYST_CSR_REG |= CY_SYS_SYST_CSR_ENABLE_INT;
 3349              		.loc 1 3266 0
 3350 0000 024A     		ldr	r2, .L236
 3351 0002 1168     		ldr	r1, [r2]
 3352 0004 0223     		movs	r3, #2
 3353 0006 0B43     		orrs	r3, r1
 3354 0008 1360     		str	r3, [r2]
3267:Generated_Source\PSoC4/CyLib.c **** }
 3355              		.loc 1 3267 0
 3356              		@ sp needed
 3357 000a 7047     		bx	lr
 3358              	.L237:
 3359              		.align	2
 3360              	.L236:
 3361 000c 10E000E0 		.word	-536813552
 3362              		.cfi_endproc
 3363              	.LFE51:
 3364              		.size	CySysTickEnableInterrupt, .-CySysTickEnableInterrupt
 3365              		.section	.text.CySysTickEnable,"ax",%progbits
 3366              		.align	2
 3367              		.global	CySysTickEnable
 3368              		.code	16
 3369              		.thumb_func
 3370              		.type	CySysTickEnable, %function
 3371              	CySysTickEnable:
ARM GAS  C:\Users\YUANFA~1\AppData\Local\Temp\ccYDlzYT.s 			page 122


 3372              	.LFB49:
3232:Generated_Source\PSoC4/CyLib.c ****     CySysTickEnableInterrupt();
 3373              		.loc 1 3232 0
 3374              		.cfi_startproc
 3375              		@ args = 0, pretend = 0, frame = 0
 3376              		@ frame_needed = 0, uses_anonymous_args = 0
 3377 0000 10B5     		push	{r4, lr}
 3378              		.cfi_def_cfa_offset 8
 3379              		.cfi_offset 4, -8
 3380              		.cfi_offset 14, -4
3233:Generated_Source\PSoC4/CyLib.c ****     CY_SYS_SYST_CSR_REG |= CY_SYS_SYST_CSR_ENABLE;
 3381              		.loc 1 3233 0
 3382 0002 FFF7FEFF 		bl	CySysTickEnableInterrupt
 3383              	.LVL379:
3234:Generated_Source\PSoC4/CyLib.c **** }
 3384              		.loc 1 3234 0
 3385 0006 034A     		ldr	r2, .L239
 3386 0008 1168     		ldr	r1, [r2]
 3387 000a 0123     		movs	r3, #1
 3388 000c 0B43     		orrs	r3, r1
 3389 000e 1360     		str	r3, [r2]
3235:Generated_Source\PSoC4/CyLib.c **** 
 3390              		.loc 1 3235 0
 3391              		@ sp needed
 3392 0010 10BD     		pop	{r4, pc}
 3393              	.L240:
 3394 0012 C046     		.align	2
 3395              	.L239:
 3396 0014 10E000E0 		.word	-536813552
 3397              		.cfi_endproc
 3398              	.LFE49:
 3399              		.size	CySysTickEnable, .-CySysTickEnable
 3400              		.section	.text.CySysTickDisableInterrupt,"ax",%progbits
 3401              		.align	2
 3402              		.global	CySysTickDisableInterrupt
 3403              		.code	16
 3404              		.thumb_func
 3405              		.type	CySysTickDisableInterrupt, %function
 3406              	CySysTickDisableInterrupt:
 3407              	.LFB52:
3268:Generated_Source\PSoC4/CyLib.c **** 
3269:Generated_Source\PSoC4/CyLib.c **** 
3270:Generated_Source\PSoC4/CyLib.c **** /*******************************************************************************
3271:Generated_Source\PSoC4/CyLib.c **** * Function Name: CySysTickDisableInterrupt
3272:Generated_Source\PSoC4/CyLib.c **** ****************************************************************************//**
3273:Generated_Source\PSoC4/CyLib.c **** *
3274:Generated_Source\PSoC4/CyLib.c **** *  Disables the SysTick interrupt.
3275:Generated_Source\PSoC4/CyLib.c **** *
3276:Generated_Source\PSoC4/CyLib.c **** * \sideeffect
3277:Generated_Source\PSoC4/CyLib.c **** *  Clears SysTick count flag if it was set
3278:Generated_Source\PSoC4/CyLib.c **** *
3279:Generated_Source\PSoC4/CyLib.c **** *******************************************************************************/
3280:Generated_Source\PSoC4/CyLib.c **** void CySysTickDisableInterrupt(void)
3281:Generated_Source\PSoC4/CyLib.c **** {
 3408              		.loc 1 3281 0
 3409              		.cfi_startproc
 3410              		@ args = 0, pretend = 0, frame = 0
ARM GAS  C:\Users\YUANFA~1\AppData\Local\Temp\ccYDlzYT.s 			page 123


 3411              		@ frame_needed = 0, uses_anonymous_args = 0
 3412              		@ link register save eliminated.
3282:Generated_Source\PSoC4/CyLib.c ****     CY_SYS_SYST_CSR_REG &= ((uint32) ~(CY_SYS_SYST_CSR_ENABLE_INT));
 3413              		.loc 1 3282 0
 3414 0000 024A     		ldr	r2, .L242
 3415 0002 1368     		ldr	r3, [r2]
 3416 0004 0221     		movs	r1, #2
 3417 0006 8B43     		bics	r3, r1
 3418 0008 1360     		str	r3, [r2]
3283:Generated_Source\PSoC4/CyLib.c **** }
 3419              		.loc 1 3283 0
 3420              		@ sp needed
 3421 000a 7047     		bx	lr
 3422              	.L243:
 3423              		.align	2
 3424              	.L242:
 3425 000c 10E000E0 		.word	-536813552
 3426              		.cfi_endproc
 3427              	.LFE52:
 3428              		.size	CySysTickDisableInterrupt, .-CySysTickDisableInterrupt
 3429              		.section	.text.CySysTickSetReload,"ax",%progbits
 3430              		.align	2
 3431              		.global	CySysTickSetReload
 3432              		.code	16
 3433              		.thumb_func
 3434              		.type	CySysTickSetReload, %function
 3435              	CySysTickSetReload:
 3436              	.LFB53:
3284:Generated_Source\PSoC4/CyLib.c **** 
3285:Generated_Source\PSoC4/CyLib.c **** 
3286:Generated_Source\PSoC4/CyLib.c **** /*******************************************************************************
3287:Generated_Source\PSoC4/CyLib.c **** * Function Name: CySysTickSetReload
3288:Generated_Source\PSoC4/CyLib.c **** ****************************************************************************//**
3289:Generated_Source\PSoC4/CyLib.c **** *
3290:Generated_Source\PSoC4/CyLib.c **** *  Sets value the counter is set to on startup and after it reaches zero. This
3291:Generated_Source\PSoC4/CyLib.c **** *  function do not change or reset current sysTick counter value, so it should
3292:Generated_Source\PSoC4/CyLib.c **** *  be cleared using CySysTickClear() API.
3293:Generated_Source\PSoC4/CyLib.c **** *
3294:Generated_Source\PSoC4/CyLib.c **** *  \param value: Valid range [0x0-0x00FFFFFF]. Counter reset value
3295:Generated_Source\PSoC4/CyLib.c **** *
3296:Generated_Source\PSoC4/CyLib.c **** *******************************************************************************/
3297:Generated_Source\PSoC4/CyLib.c **** void CySysTickSetReload(uint32 value)
3298:Generated_Source\PSoC4/CyLib.c **** {
 3437              		.loc 1 3298 0
 3438              		.cfi_startproc
 3439              		@ args = 0, pretend = 0, frame = 0
 3440              		@ frame_needed = 0, uses_anonymous_args = 0
 3441              		@ link register save eliminated.
 3442              	.LVL380:
3299:Generated_Source\PSoC4/CyLib.c ****     CY_SYS_SYST_RVR_REG = (value & CY_SYS_SYST_RVR_CNT_MASK);
 3443              		.loc 1 3299 0
 3444 0000 0002     		lsls	r0, r0, #8
 3445              	.LVL381:
 3446 0002 000A     		lsrs	r0, r0, #8
 3447 0004 014B     		ldr	r3, .L245
 3448 0006 1860     		str	r0, [r3]
3300:Generated_Source\PSoC4/CyLib.c **** }
ARM GAS  C:\Users\YUANFA~1\AppData\Local\Temp\ccYDlzYT.s 			page 124


 3449              		.loc 1 3300 0
 3450              		@ sp needed
 3451 0008 7047     		bx	lr
 3452              	.L246:
 3453 000a C046     		.align	2
 3454              	.L245:
 3455 000c 14E000E0 		.word	-536813548
 3456              		.cfi_endproc
 3457              	.LFE53:
 3458              		.size	CySysTickSetReload, .-CySysTickSetReload
 3459              		.section	.text.CySysTickGetReload,"ax",%progbits
 3460              		.align	2
 3461              		.global	CySysTickGetReload
 3462              		.code	16
 3463              		.thumb_func
 3464              		.type	CySysTickGetReload, %function
 3465              	CySysTickGetReload:
 3466              	.LFB54:
3301:Generated_Source\PSoC4/CyLib.c **** 
3302:Generated_Source\PSoC4/CyLib.c **** 
3303:Generated_Source\PSoC4/CyLib.c **** /*******************************************************************************
3304:Generated_Source\PSoC4/CyLib.c **** * Function Name: CySysTickGetReload
3305:Generated_Source\PSoC4/CyLib.c **** ****************************************************************************//**
3306:Generated_Source\PSoC4/CyLib.c **** *
3307:Generated_Source\PSoC4/CyLib.c **** *  Gets value the counter is set to on startup and after it reaches zero.
3308:Generated_Source\PSoC4/CyLib.c **** *
3309:Generated_Source\PSoC4/CyLib.c **** * \return
3310:Generated_Source\PSoC4/CyLib.c **** *  Counter reset value.
3311:Generated_Source\PSoC4/CyLib.c **** *
3312:Generated_Source\PSoC4/CyLib.c **** *******************************************************************************/
3313:Generated_Source\PSoC4/CyLib.c **** uint32 CySysTickGetReload(void)
3314:Generated_Source\PSoC4/CyLib.c **** {
 3467              		.loc 1 3314 0
 3468              		.cfi_startproc
 3469              		@ args = 0, pretend = 0, frame = 0
 3470              		@ frame_needed = 0, uses_anonymous_args = 0
 3471              		@ link register save eliminated.
3315:Generated_Source\PSoC4/CyLib.c ****     return(CY_SYS_SYST_RVR_REG & CY_SYS_SYST_RVR_CNT_MASK);
 3472              		.loc 1 3315 0
 3473 0000 024B     		ldr	r3, .L248
 3474 0002 1868     		ldr	r0, [r3]
 3475 0004 0002     		lsls	r0, r0, #8
 3476 0006 000A     		lsrs	r0, r0, #8
3316:Generated_Source\PSoC4/CyLib.c **** }
 3477              		.loc 1 3316 0
 3478              		@ sp needed
 3479 0008 7047     		bx	lr
 3480              	.L249:
 3481 000a C046     		.align	2
 3482              	.L248:
 3483 000c 14E000E0 		.word	-536813548
 3484              		.cfi_endproc
 3485              	.LFE54:
 3486              		.size	CySysTickGetReload, .-CySysTickGetReload
 3487              		.section	.text.CySysTickGetValue,"ax",%progbits
 3488              		.align	2
 3489              		.global	CySysTickGetValue
ARM GAS  C:\Users\YUANFA~1\AppData\Local\Temp\ccYDlzYT.s 			page 125


 3490              		.code	16
 3491              		.thumb_func
 3492              		.type	CySysTickGetValue, %function
 3493              	CySysTickGetValue:
 3494              	.LFB55:
3317:Generated_Source\PSoC4/CyLib.c **** 
3318:Generated_Source\PSoC4/CyLib.c **** 
3319:Generated_Source\PSoC4/CyLib.c **** /*******************************************************************************
3320:Generated_Source\PSoC4/CyLib.c **** * Function Name: CySysTickGetValue
3321:Generated_Source\PSoC4/CyLib.c **** ****************************************************************************//**
3322:Generated_Source\PSoC4/CyLib.c **** *
3323:Generated_Source\PSoC4/CyLib.c **** *  Gets current SysTick counter value.
3324:Generated_Source\PSoC4/CyLib.c **** *
3325:Generated_Source\PSoC4/CyLib.c **** * \return
3326:Generated_Source\PSoC4/CyLib.c **** *  Current SysTick counter value
3327:Generated_Source\PSoC4/CyLib.c **** *
3328:Generated_Source\PSoC4/CyLib.c **** *******************************************************************************/
3329:Generated_Source\PSoC4/CyLib.c **** uint32 CySysTickGetValue(void)
3330:Generated_Source\PSoC4/CyLib.c **** {
 3495              		.loc 1 3330 0
 3496              		.cfi_startproc
 3497              		@ args = 0, pretend = 0, frame = 0
 3498              		@ frame_needed = 0, uses_anonymous_args = 0
 3499              		@ link register save eliminated.
3331:Generated_Source\PSoC4/CyLib.c ****     return(CY_SYS_SYST_CVR_REG & CY_SYS_SYST_CVR_CNT_MASK);
 3500              		.loc 1 3331 0
 3501 0000 024B     		ldr	r3, .L251
 3502 0002 1868     		ldr	r0, [r3]
 3503 0004 0002     		lsls	r0, r0, #8
 3504 0006 000A     		lsrs	r0, r0, #8
3332:Generated_Source\PSoC4/CyLib.c **** }
 3505              		.loc 1 3332 0
 3506              		@ sp needed
 3507 0008 7047     		bx	lr
 3508              	.L252:
 3509 000a C046     		.align	2
 3510              	.L251:
 3511 000c 18E000E0 		.word	-536813544
 3512              		.cfi_endproc
 3513              	.LFE55:
 3514              		.size	CySysTickGetValue, .-CySysTickGetValue
 3515              		.section	.text.CySysTickSetClockSource,"ax",%progbits
 3516              		.align	2
 3517              		.global	CySysTickSetClockSource
 3518              		.code	16
 3519              		.thumb_func
 3520              		.type	CySysTickSetClockSource, %function
 3521              	CySysTickSetClockSource:
 3522              	.LFB56:
3333:Generated_Source\PSoC4/CyLib.c **** 
3334:Generated_Source\PSoC4/CyLib.c **** 
3335:Generated_Source\PSoC4/CyLib.c **** #if(CY_SYSTICK_LFCLK_SOURCE)
3336:Generated_Source\PSoC4/CyLib.c ****     /*******************************************************************************
3337:Generated_Source\PSoC4/CyLib.c ****     * Function Name: CySysTickSetClockSource
3338:Generated_Source\PSoC4/CyLib.c ****     ****************************************************************************//**
3339:Generated_Source\PSoC4/CyLib.c ****     *
3340:Generated_Source\PSoC4/CyLib.c ****     *  Sets the clock source for the SysTick counter.
ARM GAS  C:\Users\YUANFA~1\AppData\Local\Temp\ccYDlzYT.s 			page 126


3341:Generated_Source\PSoC4/CyLib.c ****     *
3342:Generated_Source\PSoC4/CyLib.c ****     *  Clears SysTick count flag if it was set. If clock source is not ready this
3343:Generated_Source\PSoC4/CyLib.c ****     *  function call will have no effect. After changing clock source to the low
3344:Generated_Source\PSoC4/CyLib.c ****     *  frequency clock the counter and reload register values will remain unchanged
3345:Generated_Source\PSoC4/CyLib.c ****     *  so time to the interrupt will be significantly longer and vice versa.
3346:Generated_Source\PSoC4/CyLib.c ****     *
3347:Generated_Source\PSoC4/CyLib.c ****     *  The changing of SysTick clock source and\or its frequency will change
3348:Generated_Source\PSoC4/CyLib.c ****     *  the interrupt interval and that CySysTickSetReload() should be
3349:Generated_Source\PSoC4/CyLib.c ****     *  called to compensate this change.
3350:Generated_Source\PSoC4/CyLib.c ****     *
3351:Generated_Source\PSoC4/CyLib.c ****     *  The function is not available on PSoC 4000, PSoC 4100, and PSoC 42000
3352:Generated_Source\PSoC4/CyLib.c ****     *  devices. The SysTick timer clocked by the System clock on these devices.
3353:Generated_Source\PSoC4/CyLib.c ****     *
3354:Generated_Source\PSoC4/CyLib.c ****     *  \param clockSource Clock source for SysTick counter
3355:Generated_Source\PSoC4/CyLib.c ****     *         Define                     Clock Source
3356:Generated_Source\PSoC4/CyLib.c ****     *   CY_SYS_SYST_CSR_CLK_SRC_SYSCLK     SysTick is clocked by the CPU clock.
3357:Generated_Source\PSoC4/CyLib.c ****     *   CY_SYS_SYST_CSR_CLK_SRC_LFCLK      SysTick is clocked by the low frequency
3358:Generated_Source\PSoC4/CyLib.c ****     *                                      clock. (ILO 100 KHz for PSoC 5LP, and
3359:Generated_Source\PSoC4/CyLib.c ****     *                                      LFCLK for PSoC 4).
3360:Generated_Source\PSoC4/CyLib.c ****     *******************************************************************************/
3361:Generated_Source\PSoC4/CyLib.c ****     void CySysTickSetClockSource(uint32 clockSource)
3362:Generated_Source\PSoC4/CyLib.c ****     {
 3523              		.loc 1 3362 0
 3524              		.cfi_startproc
 3525              		@ args = 0, pretend = 0, frame = 0
 3526              		@ frame_needed = 0, uses_anonymous_args = 0
 3527              		@ link register save eliminated.
 3528              	.LVL382:
3363:Generated_Source\PSoC4/CyLib.c ****         if (clockSource == CY_SYS_SYST_CSR_CLK_SRC_SYSCLK)
 3529              		.loc 1 3363 0
 3530 0000 0128     		cmp	r0, #1
 3531 0002 05D1     		bne	.L254
3364:Generated_Source\PSoC4/CyLib.c ****         {
3365:Generated_Source\PSoC4/CyLib.c ****             CY_SYS_SYST_CSR_REG |= (uint32)(CY_SYS_SYST_CSR_CLK_SRC_SYSCLK << CY_SYS_SYST_CSR_CLK_S
 3532              		.loc 1 3365 0
 3533 0004 054A     		ldr	r2, .L256
 3534 0006 1168     		ldr	r1, [r2]
 3535 0008 0423     		movs	r3, #4
 3536 000a 0B43     		orrs	r3, r1
 3537 000c 1360     		str	r3, [r2]
 3538 000e 04E0     		b	.L253
 3539              	.L254:
3366:Generated_Source\PSoC4/CyLib.c ****         }
3367:Generated_Source\PSoC4/CyLib.c ****         else
3368:Generated_Source\PSoC4/CyLib.c ****         {
3369:Generated_Source\PSoC4/CyLib.c ****             CY_SYS_SYST_CSR_REG &= ((uint32) ~((uint32)(CY_SYS_SYST_CSR_CLK_SRC_SYSCLK << CY_SYS_SY
 3540              		.loc 1 3369 0
 3541 0010 024A     		ldr	r2, .L256
 3542 0012 1368     		ldr	r3, [r2]
 3543 0014 0421     		movs	r1, #4
 3544 0016 8B43     		bics	r3, r1
 3545 0018 1360     		str	r3, [r2]
 3546              	.L253:
3370:Generated_Source\PSoC4/CyLib.c ****         }
3371:Generated_Source\PSoC4/CyLib.c ****     }
 3547              		.loc 1 3371 0
 3548              		@ sp needed
ARM GAS  C:\Users\YUANFA~1\AppData\Local\Temp\ccYDlzYT.s 			page 127


 3549 001a 7047     		bx	lr
 3550              	.L257:
 3551              		.align	2
 3552              	.L256:
 3553 001c 10E000E0 		.word	-536813552
 3554              		.cfi_endproc
 3555              	.LFE56:
 3556              		.size	CySysTickSetClockSource, .-CySysTickSetClockSource
 3557              		.section	.text.CySysTickGetClockSource,"ax",%progbits
 3558              		.align	2
 3559              		.global	CySysTickGetClockSource
 3560              		.code	16
 3561              		.thumb_func
 3562              		.type	CySysTickGetClockSource, %function
 3563              	CySysTickGetClockSource:
 3564              	.LFB57:
3372:Generated_Source\PSoC4/CyLib.c **** 
3373:Generated_Source\PSoC4/CyLib.c **** 
3374:Generated_Source\PSoC4/CyLib.c ****     /*******************************************************************************
3375:Generated_Source\PSoC4/CyLib.c ****     * Function Name: CySysTickGetClockSource
3376:Generated_Source\PSoC4/CyLib.c ****     ****************************************************************************//**
3377:Generated_Source\PSoC4/CyLib.c ****     *
3378:Generated_Source\PSoC4/CyLib.c ****     *  Returns the current clock source of the SysTick counter.
3379:Generated_Source\PSoC4/CyLib.c ****     *
3380:Generated_Source\PSoC4/CyLib.c ****     *  \return
3381:Generated_Source\PSoC4/CyLib.c ****     *   CY_SYS_SYST_CSR_CLK_SRC_SYSCLK     SysTick is clocked by CPU clock.
3382:Generated_Source\PSoC4/CyLib.c ****     *   CY_SYS_SYST_CSR_CLK_SRC_LFCLK      SysTick is clocked by the low frequency
3383:Generated_Source\PSoC4/CyLib.c ****     *                                      clock. (ILO 100 KHz for PSoC 5LP, and
3384:Generated_Source\PSoC4/CyLib.c ****     *                                      LFCLK for PSoC 4).
3385:Generated_Source\PSoC4/CyLib.c ****     *******************************************************************************/
3386:Generated_Source\PSoC4/CyLib.c ****     uint32 CySysTickGetClockSource(void)
3387:Generated_Source\PSoC4/CyLib.c ****     {
 3565              		.loc 1 3387 0
 3566              		.cfi_startproc
 3567              		@ args = 0, pretend = 0, frame = 0
 3568              		@ frame_needed = 0, uses_anonymous_args = 0
 3569              		@ link register save eliminated.
3388:Generated_Source\PSoC4/CyLib.c ****         return ((CY_SYS_SYST_CSR_REG >> CY_SYS_SYST_CSR_CLK_SOURCE_SHIFT) & CY_SYS_SYST_CSR_CLK_SRC
 3570              		.loc 1 3388 0
 3571 0000 024B     		ldr	r3, .L259
 3572 0002 1868     		ldr	r0, [r3]
 3573 0004 8008     		lsrs	r0, r0, #2
 3574 0006 0123     		movs	r3, #1
 3575 0008 1840     		ands	r0, r3
3389:Generated_Source\PSoC4/CyLib.c ****     }
 3576              		.loc 1 3389 0
 3577              		@ sp needed
 3578 000a 7047     		bx	lr
 3579              	.L260:
 3580              		.align	2
 3581              	.L259:
 3582 000c 10E000E0 		.word	-536813552
 3583              		.cfi_endproc
 3584              	.LFE57:
 3585              		.size	CySysTickGetClockSource, .-CySysTickGetClockSource
 3586              		.section	.text.CySysTickGetCountFlag,"ax",%progbits
 3587              		.align	2
ARM GAS  C:\Users\YUANFA~1\AppData\Local\Temp\ccYDlzYT.s 			page 128


 3588              		.global	CySysTickGetCountFlag
 3589              		.code	16
 3590              		.thumb_func
 3591              		.type	CySysTickGetCountFlag, %function
 3592              	CySysTickGetCountFlag:
 3593              	.LFB58:
3390:Generated_Source\PSoC4/CyLib.c **** 
3391:Generated_Source\PSoC4/CyLib.c **** #endif /* (CY_SYSTICK_LFCLK_SOURCE) */
3392:Generated_Source\PSoC4/CyLib.c **** 
3393:Generated_Source\PSoC4/CyLib.c **** 
3394:Generated_Source\PSoC4/CyLib.c **** /*******************************************************************************
3395:Generated_Source\PSoC4/CyLib.c **** * Function Name: CySysTickGetCountFlag
3396:Generated_Source\PSoC4/CyLib.c **** ****************************************************************************//**
3397:Generated_Source\PSoC4/CyLib.c **** *
3398:Generated_Source\PSoC4/CyLib.c **** *  The count flag is set once SysTick counter reaches zero.
3399:Generated_Source\PSoC4/CyLib.c **** *  The flag cleared on read.
3400:Generated_Source\PSoC4/CyLib.c **** *
3401:Generated_Source\PSoC4/CyLib.c **** * \return
3402:Generated_Source\PSoC4/CyLib.c ****     *  Returns non-zero value if flag is set, otherwise zero is returned.
3403:Generated_Source\PSoC4/CyLib.c **** *
3404:Generated_Source\PSoC4/CyLib.c **** *
3405:Generated_Source\PSoC4/CyLib.c **** * \sideeffect
3406:Generated_Source\PSoC4/CyLib.c **** *  Clears SysTick count flag if it was set.
3407:Generated_Source\PSoC4/CyLib.c **** *
3408:Generated_Source\PSoC4/CyLib.c **** *******************************************************************************/
3409:Generated_Source\PSoC4/CyLib.c **** uint32 CySysTickGetCountFlag(void)
3410:Generated_Source\PSoC4/CyLib.c **** {
 3594              		.loc 1 3410 0
 3595              		.cfi_startproc
 3596              		@ args = 0, pretend = 0, frame = 0
 3597              		@ frame_needed = 0, uses_anonymous_args = 0
 3598              		@ link register save eliminated.
3411:Generated_Source\PSoC4/CyLib.c ****     return ((CY_SYS_SYST_CSR_REG >> CY_SYS_SYST_CSR_COUNTFLAG_SHIFT) & 0x01u);
 3599              		.loc 1 3411 0
 3600 0000 024B     		ldr	r3, .L262
 3601 0002 1868     		ldr	r0, [r3]
 3602 0004 000C     		lsrs	r0, r0, #16
 3603 0006 0123     		movs	r3, #1
 3604 0008 1840     		ands	r0, r3
3412:Generated_Source\PSoC4/CyLib.c **** }
 3605              		.loc 1 3412 0
 3606              		@ sp needed
 3607 000a 7047     		bx	lr
 3608              	.L263:
 3609              		.align	2
 3610              	.L262:
 3611 000c 10E000E0 		.word	-536813552
 3612              		.cfi_endproc
 3613              	.LFE58:
 3614              		.size	CySysTickGetCountFlag, .-CySysTickGetCountFlag
 3615              		.section	.text.CySysTickServiceCallbacks,"ax",%progbits
 3616              		.align	2
 3617              		.code	16
 3618              		.thumb_func
 3619              		.type	CySysTickServiceCallbacks, %function
 3620              	CySysTickServiceCallbacks:
 3621              	.LFB62:
ARM GAS  C:\Users\YUANFA~1\AppData\Local\Temp\ccYDlzYT.s 			page 129


3413:Generated_Source\PSoC4/CyLib.c **** 
3414:Generated_Source\PSoC4/CyLib.c **** 
3415:Generated_Source\PSoC4/CyLib.c **** /*******************************************************************************
3416:Generated_Source\PSoC4/CyLib.c **** * Function Name: CySysTickClear
3417:Generated_Source\PSoC4/CyLib.c **** ****************************************************************************//**
3418:Generated_Source\PSoC4/CyLib.c **** *
3419:Generated_Source\PSoC4/CyLib.c **** *  Clears the SysTick counter for well-defined startup.
3420:Generated_Source\PSoC4/CyLib.c **** *
3421:Generated_Source\PSoC4/CyLib.c **** *******************************************************************************/
3422:Generated_Source\PSoC4/CyLib.c **** void CySysTickClear(void)
3423:Generated_Source\PSoC4/CyLib.c **** {
3424:Generated_Source\PSoC4/CyLib.c ****     CY_SYS_SYST_CVR_REG = 0u;
3425:Generated_Source\PSoC4/CyLib.c **** }
3426:Generated_Source\PSoC4/CyLib.c **** 
3427:Generated_Source\PSoC4/CyLib.c **** 
3428:Generated_Source\PSoC4/CyLib.c **** /*******************************************************************************
3429:Generated_Source\PSoC4/CyLib.c **** * Function Name: CySysTickSetCallback
3430:Generated_Source\PSoC4/CyLib.c **** ****************************************************************************//**
3431:Generated_Source\PSoC4/CyLib.c **** *
3432:Generated_Source\PSoC4/CyLib.c **** *  This function allows up to five user-defined interrupt service routine
3433:Generated_Source\PSoC4/CyLib.c **** *  functions to be associated with the SysTick interrupt. These are specified
3434:Generated_Source\PSoC4/CyLib.c **** *  through the use of pointers to the function.
3435:Generated_Source\PSoC4/CyLib.c **** *
3436:Generated_Source\PSoC4/CyLib.c **** *  To set a custom callback function without the overhead of the system provided
3437:Generated_Source\PSoC4/CyLib.c **** *  one, use CyIntSetSysVector(CY_INT_SYSTICK_IRQN, cyisraddress <address>),
3438:Generated_Source\PSoC4/CyLib.c **** *  where <address> is address of the custom defined interrupt service routine.
3439:Generated_Source\PSoC4/CyLib.c **** *  Note: a custom callback function overrides the system defined callback
3440:Generated_Source\PSoC4/CyLib.c **** *  functions.
3441:Generated_Source\PSoC4/CyLib.c **** *
3442:Generated_Source\PSoC4/CyLib.c **** *  \param number: The number of the callback function addresses to be set. The valid
3443:Generated_Source\PSoC4/CyLib.c **** *          range is from 0 to 4.
3444:Generated_Source\PSoC4/CyLib.c **** *
3445:Generated_Source\PSoC4/CyLib.c **** *  void(*CallbackFunction(void): A pointer to the function that will be
3446:Generated_Source\PSoC4/CyLib.c **** *                                associated with the SysTick ISR for the
3447:Generated_Source\PSoC4/CyLib.c **** *                                specified number.
3448:Generated_Source\PSoC4/CyLib.c **** *
3449:Generated_Source\PSoC4/CyLib.c **** * \return
3450:Generated_Source\PSoC4/CyLib.c **** *  Returns the address of the previous callback function.
3451:Generated_Source\PSoC4/CyLib.c **** *  The NULL is returned if the specified address in not set.
3452:Generated_Source\PSoC4/CyLib.c **** *
3453:Generated_Source\PSoC4/CyLib.c **** * \sideeffect
3454:Generated_Source\PSoC4/CyLib.c **** *  The registered callback functions will be executed in the interrupt.
3455:Generated_Source\PSoC4/CyLib.c **** *
3456:Generated_Source\PSoC4/CyLib.c **** *******************************************************************************/
3457:Generated_Source\PSoC4/CyLib.c **** cySysTickCallback CySysTickSetCallback(uint32 number, cySysTickCallback function)
3458:Generated_Source\PSoC4/CyLib.c **** {
3459:Generated_Source\PSoC4/CyLib.c ****     cySysTickCallback retVal;
3460:Generated_Source\PSoC4/CyLib.c **** 
3461:Generated_Source\PSoC4/CyLib.c ****     retVal = CySysTickCallbacks[number];
3462:Generated_Source\PSoC4/CyLib.c ****     CySysTickCallbacks[number] = function;
3463:Generated_Source\PSoC4/CyLib.c ****     return (retVal);
3464:Generated_Source\PSoC4/CyLib.c **** }
3465:Generated_Source\PSoC4/CyLib.c **** 
3466:Generated_Source\PSoC4/CyLib.c **** 
3467:Generated_Source\PSoC4/CyLib.c **** /*******************************************************************************
3468:Generated_Source\PSoC4/CyLib.c **** * Function Name: CySysTickGetCallback
3469:Generated_Source\PSoC4/CyLib.c **** ****************************************************************************//**
ARM GAS  C:\Users\YUANFA~1\AppData\Local\Temp\ccYDlzYT.s 			page 130


3470:Generated_Source\PSoC4/CyLib.c **** *
3471:Generated_Source\PSoC4/CyLib.c **** *  The function get the specified callback pointer.
3472:Generated_Source\PSoC4/CyLib.c **** *
3473:Generated_Source\PSoC4/CyLib.c **** *  \param number: The number of callback function address to get. The valid
3474:Generated_Source\PSoC4/CyLib.c **** *          range is from 0 to 4.
3475:Generated_Source\PSoC4/CyLib.c **** *
3476:Generated_Source\PSoC4/CyLib.c **** * \return
3477:Generated_Source\PSoC4/CyLib.c **** *  Returns the address of the specified callback function.
3478:Generated_Source\PSoC4/CyLib.c **** *  The NULL is returned if the specified address in not initialized.
3479:Generated_Source\PSoC4/CyLib.c **** *
3480:Generated_Source\PSoC4/CyLib.c **** *******************************************************************************/
3481:Generated_Source\PSoC4/CyLib.c **** cySysTickCallback CySysTickGetCallback(uint32 number)
3482:Generated_Source\PSoC4/CyLib.c **** {
3483:Generated_Source\PSoC4/CyLib.c ****     return ((cySysTickCallback) CySysTickCallbacks[number]);
3484:Generated_Source\PSoC4/CyLib.c **** }
3485:Generated_Source\PSoC4/CyLib.c **** 
3486:Generated_Source\PSoC4/CyLib.c **** 
3487:Generated_Source\PSoC4/CyLib.c **** /*******************************************************************************
3488:Generated_Source\PSoC4/CyLib.c **** * Function Name: CySysTickServiceCallbacks
3489:Generated_Source\PSoC4/CyLib.c **** ****************************************************************************//**
3490:Generated_Source\PSoC4/CyLib.c **** *
3491:Generated_Source\PSoC4/CyLib.c **** *  System Tick timer interrupt routine
3492:Generated_Source\PSoC4/CyLib.c **** *
3493:Generated_Source\PSoC4/CyLib.c **** *******************************************************************************/
3494:Generated_Source\PSoC4/CyLib.c **** static void CySysTickServiceCallbacks(void)
3495:Generated_Source\PSoC4/CyLib.c **** {
 3622              		.loc 1 3495 0
 3623              		.cfi_startproc
 3624              		@ args = 0, pretend = 0, frame = 0
 3625              		@ frame_needed = 0, uses_anonymous_args = 0
 3626 0000 10B5     		push	{r4, lr}
 3627              		.cfi_def_cfa_offset 8
 3628              		.cfi_offset 4, -8
 3629              		.cfi_offset 14, -4
3496:Generated_Source\PSoC4/CyLib.c ****     uint32 i;
3497:Generated_Source\PSoC4/CyLib.c **** 
3498:Generated_Source\PSoC4/CyLib.c ****     /* Verify that tick timer flag was set */
3499:Generated_Source\PSoC4/CyLib.c ****     if (1u == CySysTickGetCountFlag())
 3630              		.loc 1 3499 0
 3631 0002 FFF7FEFF 		bl	CySysTickGetCountFlag
 3632              	.LVL383:
 3633 0006 0128     		cmp	r0, #1
 3634 0008 0BD1     		bne	.L264
 3635 000a 07E0     		b	.L269
 3636              	.LVL384:
 3637              	.L268:
3500:Generated_Source\PSoC4/CyLib.c ****     {
3501:Generated_Source\PSoC4/CyLib.c ****         for (i=0u; i < CY_SYS_SYST_NUM_OF_CALLBACKS; i++)
3502:Generated_Source\PSoC4/CyLib.c ****         {
3503:Generated_Source\PSoC4/CyLib.c ****             if (CySysTickCallbacks[i] != (void *) 0)
 3638              		.loc 1 3503 0
 3639 000c A300     		lsls	r3, r4, #2
 3640 000e 054A     		ldr	r2, .L270
 3641 0010 9B58     		ldr	r3, [r3, r2]
 3642 0012 002B     		cmp	r3, #0
 3643 0014 00D0     		beq	.L267
3504:Generated_Source\PSoC4/CyLib.c ****             {
ARM GAS  C:\Users\YUANFA~1\AppData\Local\Temp\ccYDlzYT.s 			page 131


3505:Generated_Source\PSoC4/CyLib.c ****                 (void)(CySysTickCallbacks[i])();
 3644              		.loc 1 3505 0
 3645 0016 9847     		blx	r3
 3646              	.LVL385:
 3647              	.L267:
3501:Generated_Source\PSoC4/CyLib.c ****         {
 3648              		.loc 1 3501 0 discriminator 2
 3649 0018 0134     		adds	r4, r4, #1
 3650              	.LVL386:
 3651 001a 00E0     		b	.L265
 3652              	.LVL387:
 3653              	.L269:
 3654 001c 0024     		movs	r4, #0
 3655              	.L265:
 3656              	.LVL388:
3501:Generated_Source\PSoC4/CyLib.c ****         {
 3657              		.loc 1 3501 0 is_stmt 0 discriminator 1
 3658 001e 042C     		cmp	r4, #4
 3659 0020 F4D9     		bls	.L268
 3660              	.LVL389:
 3661              	.L264:
3506:Generated_Source\PSoC4/CyLib.c ****             }
3507:Generated_Source\PSoC4/CyLib.c ****         }
3508:Generated_Source\PSoC4/CyLib.c ****     }
3509:Generated_Source\PSoC4/CyLib.c **** }
 3662              		.loc 1 3509 0 is_stmt 1
 3663              		@ sp needed
 3664 0022 10BD     		pop	{r4, pc}
 3665              	.L271:
 3666              		.align	2
 3667              	.L270:
 3668 0024 00000000 		.word	.LANCHOR1
 3669              		.cfi_endproc
 3670              	.LFE62:
 3671              		.size	CySysTickServiceCallbacks, .-CySysTickServiceCallbacks
 3672              		.section	.text.CySysTickClear,"ax",%progbits
 3673              		.align	2
 3674              		.global	CySysTickClear
 3675              		.code	16
 3676              		.thumb_func
 3677              		.type	CySysTickClear, %function
 3678              	CySysTickClear:
 3679              	.LFB59:
3423:Generated_Source\PSoC4/CyLib.c ****     CY_SYS_SYST_CVR_REG = 0u;
 3680              		.loc 1 3423 0
 3681              		.cfi_startproc
 3682              		@ args = 0, pretend = 0, frame = 0
 3683              		@ frame_needed = 0, uses_anonymous_args = 0
 3684              		@ link register save eliminated.
3424:Generated_Source\PSoC4/CyLib.c **** }
 3685              		.loc 1 3424 0
 3686 0000 0022     		movs	r2, #0
 3687 0002 014B     		ldr	r3, .L273
 3688 0004 1A60     		str	r2, [r3]
3425:Generated_Source\PSoC4/CyLib.c **** 
 3689              		.loc 1 3425 0
 3690              		@ sp needed
ARM GAS  C:\Users\YUANFA~1\AppData\Local\Temp\ccYDlzYT.s 			page 132


 3691 0006 7047     		bx	lr
 3692              	.L274:
 3693              		.align	2
 3694              	.L273:
 3695 0008 18E000E0 		.word	-536813544
 3696              		.cfi_endproc
 3697              	.LFE59:
 3698              		.size	CySysTickClear, .-CySysTickClear
 3699              		.section	.text.CySysTickInit,"ax",%progbits
 3700              		.align	2
 3701              		.global	CySysTickInit
 3702              		.code	16
 3703              		.thumb_func
 3704              		.type	CySysTickInit, %function
 3705              	CySysTickInit:
 3706              	.LFB48:
3202:Generated_Source\PSoC4/CyLib.c ****     uint32 i;
 3707              		.loc 1 3202 0
 3708              		.cfi_startproc
 3709              		@ args = 0, pretend = 0, frame = 0
 3710              		@ frame_needed = 0, uses_anonymous_args = 0
 3711 0000 10B5     		push	{r4, lr}
 3712              		.cfi_def_cfa_offset 8
 3713              		.cfi_offset 4, -8
 3714              		.cfi_offset 14, -4
 3715              	.LVL390:
3205:Generated_Source\PSoC4/CyLib.c ****     {
 3716              		.loc 1 3205 0
 3717 0002 0023     		movs	r3, #0
 3718 0004 04E0     		b	.L276
 3719              	.LVL391:
 3720              	.L277:
3207:Generated_Source\PSoC4/CyLib.c ****     }
 3721              		.loc 1 3207 0 discriminator 3
 3722 0006 9900     		lsls	r1, r3, #2
 3723 0008 0020     		movs	r0, #0
 3724 000a 0B4A     		ldr	r2, .L278
 3725 000c 8850     		str	r0, [r1, r2]
3205:Generated_Source\PSoC4/CyLib.c ****     {
 3726              		.loc 1 3205 0 discriminator 3
 3727 000e 0133     		adds	r3, r3, #1
 3728              	.LVL392:
 3729              	.L276:
3205:Generated_Source\PSoC4/CyLib.c ****     {
 3730              		.loc 1 3205 0 is_stmt 0 discriminator 1
 3731 0010 042B     		cmp	r3, #4
 3732 0012 F8D9     		bls	.L277
3210:Generated_Source\PSoC4/CyLib.c **** 
 3733              		.loc 1 3210 0 is_stmt 1
 3734 0014 0949     		ldr	r1, .L278+4
 3735 0016 0F20     		movs	r0, #15
 3736 0018 FFF7FEFF 		bl	CyIntSetSysVector
 3737              	.LVL393:
3213:Generated_Source\PSoC4/CyLib.c ****     #endif /* (CY_SYSTICK_LFCLK_SOURCE) */
 3738              		.loc 1 3213 0
 3739 001c 0120     		movs	r0, #1
 3740 001e FFF7FEFF 		bl	CySysTickSetClockSource
ARM GAS  C:\Users\YUANFA~1\AppData\Local\Temp\ccYDlzYT.s 			page 133


 3741              	.LVL394:
3216:Generated_Source\PSoC4/CyLib.c ****     CySysTickClear();
 3742              		.loc 1 3216 0
 3743 0022 074B     		ldr	r3, .L278+8
 3744 0024 1869     		ldr	r0, [r3, #16]
 3745 0026 FA21     		movs	r1, #250
 3746 0028 8900     		lsls	r1, r1, #2
 3747 002a FFF7FEFF 		bl	__aeabi_uidiv
 3748              	.LVL395:
 3749 002e FFF7FEFF 		bl	CySysTickSetReload
 3750              	.LVL396:
3217:Generated_Source\PSoC4/CyLib.c **** }
 3751              		.loc 1 3217 0
 3752 0032 FFF7FEFF 		bl	CySysTickClear
 3753              	.LVL397:
3218:Generated_Source\PSoC4/CyLib.c **** 
 3754              		.loc 1 3218 0
 3755              		@ sp needed
 3756 0036 10BD     		pop	{r4, pc}
 3757              	.L279:
 3758              		.align	2
 3759              	.L278:
 3760 0038 00000000 		.word	.LANCHOR1
 3761 003c 00000000 		.word	CySysTickServiceCallbacks
 3762 0040 00000000 		.word	.LANCHOR0
 3763              		.cfi_endproc
 3764              	.LFE48:
 3765              		.size	CySysTickInit, .-CySysTickInit
 3766              		.section	.text.CySysTickStart,"ax",%progbits
 3767              		.align	2
 3768              		.global	CySysTickStart
 3769              		.code	16
 3770              		.thumb_func
 3771              		.type	CySysTickStart, %function
 3772              	CySysTickStart:
 3773              	.LFB47:
3173:Generated_Source\PSoC4/CyLib.c ****     if (0u == CySysTickInitVar)
 3774              		.loc 1 3173 0
 3775              		.cfi_startproc
 3776              		@ args = 0, pretend = 0, frame = 0
 3777              		@ frame_needed = 0, uses_anonymous_args = 0
 3778 0000 10B5     		push	{r4, lr}
 3779              		.cfi_def_cfa_offset 8
 3780              		.cfi_offset 4, -8
 3781              		.cfi_offset 14, -4
3174:Generated_Source\PSoC4/CyLib.c ****     {
 3782              		.loc 1 3174 0
 3783 0002 064B     		ldr	r3, .L282
 3784 0004 5B69     		ldr	r3, [r3, #20]
 3785 0006 002B     		cmp	r3, #0
 3786 0008 04D1     		bne	.L281
3176:Generated_Source\PSoC4/CyLib.c ****         CySysTickInitVar = 1u;
 3787              		.loc 1 3176 0
 3788 000a FFF7FEFF 		bl	CySysTickInit
 3789              	.LVL398:
3177:Generated_Source\PSoC4/CyLib.c ****     }
 3790              		.loc 1 3177 0
ARM GAS  C:\Users\YUANFA~1\AppData\Local\Temp\ccYDlzYT.s 			page 134


 3791 000e 0122     		movs	r2, #1
 3792 0010 024B     		ldr	r3, .L282
 3793 0012 5A61     		str	r2, [r3, #20]
 3794              	.L281:
3180:Generated_Source\PSoC4/CyLib.c **** }
 3795              		.loc 1 3180 0
 3796 0014 FFF7FEFF 		bl	CySysTickEnable
 3797              	.LVL399:
3181:Generated_Source\PSoC4/CyLib.c **** 
 3798              		.loc 1 3181 0
 3799              		@ sp needed
 3800 0018 10BD     		pop	{r4, pc}
 3801              	.L283:
 3802 001a C046     		.align	2
 3803              	.L282:
 3804 001c 00000000 		.word	.LANCHOR1
 3805              		.cfi_endproc
 3806              	.LFE47:
 3807              		.size	CySysTickStart, .-CySysTickStart
 3808              		.section	.text.CySysTickSetCallback,"ax",%progbits
 3809              		.align	2
 3810              		.global	CySysTickSetCallback
 3811              		.code	16
 3812              		.thumb_func
 3813              		.type	CySysTickSetCallback, %function
 3814              	CySysTickSetCallback:
 3815              	.LFB60:
3458:Generated_Source\PSoC4/CyLib.c ****     cySysTickCallback retVal;
 3816              		.loc 1 3458 0
 3817              		.cfi_startproc
 3818              		@ args = 0, pretend = 0, frame = 0
 3819              		@ frame_needed = 0, uses_anonymous_args = 0
 3820              		@ link register save eliminated.
 3821              	.LVL400:
3461:Generated_Source\PSoC4/CyLib.c ****     CySysTickCallbacks[number] = function;
 3822              		.loc 1 3461 0
 3823 0000 024A     		ldr	r2, .L285
 3824 0002 8300     		lsls	r3, r0, #2
 3825 0004 9858     		ldr	r0, [r3, r2]
 3826              	.LVL401:
3462:Generated_Source\PSoC4/CyLib.c ****     return (retVal);
 3827              		.loc 1 3462 0
 3828 0006 9950     		str	r1, [r3, r2]
3464:Generated_Source\PSoC4/CyLib.c **** 
 3829              		.loc 1 3464 0
 3830              		@ sp needed
 3831 0008 7047     		bx	lr
 3832              	.L286:
 3833 000a C046     		.align	2
 3834              	.L285:
 3835 000c 00000000 		.word	.LANCHOR1
 3836              		.cfi_endproc
 3837              	.LFE60:
 3838              		.size	CySysTickSetCallback, .-CySysTickSetCallback
 3839              		.section	.text.CySysTickGetCallback,"ax",%progbits
 3840              		.align	2
 3841              		.global	CySysTickGetCallback
ARM GAS  C:\Users\YUANFA~1\AppData\Local\Temp\ccYDlzYT.s 			page 135


 3842              		.code	16
 3843              		.thumb_func
 3844              		.type	CySysTickGetCallback, %function
 3845              	CySysTickGetCallback:
 3846              	.LFB61:
3482:Generated_Source\PSoC4/CyLib.c ****     return ((cySysTickCallback) CySysTickCallbacks[number]);
 3847              		.loc 1 3482 0
 3848              		.cfi_startproc
 3849              		@ args = 0, pretend = 0, frame = 0
 3850              		@ frame_needed = 0, uses_anonymous_args = 0
 3851              		@ link register save eliminated.
 3852              	.LVL402:
3483:Generated_Source\PSoC4/CyLib.c **** }
 3853              		.loc 1 3483 0
 3854 0000 8000     		lsls	r0, r0, #2
 3855              	.LVL403:
 3856 0002 014B     		ldr	r3, .L288
 3857 0004 C058     		ldr	r0, [r0, r3]
3484:Generated_Source\PSoC4/CyLib.c **** 
 3858              		.loc 1 3484 0
 3859              		@ sp needed
 3860 0006 7047     		bx	lr
 3861              	.L289:
 3862              		.align	2
 3863              	.L288:
 3864 0008 00000000 		.word	.LANCHOR1
 3865              		.cfi_endproc
 3866              	.LFE61:
 3867              		.size	CySysTickGetCallback, .-CySysTickGetCallback
 3868              		.section	.text.CyGetUniqueId,"ax",%progbits
 3869              		.align	2
 3870              		.global	CyGetUniqueId
 3871              		.code	16
 3872              		.thumb_func
 3873              		.type	CyGetUniqueId, %function
 3874              	CyGetUniqueId:
 3875              	.LFB63:
3510:Generated_Source\PSoC4/CyLib.c **** 
3511:Generated_Source\PSoC4/CyLib.c **** 
3512:Generated_Source\PSoC4/CyLib.c **** /*******************************************************************************
3513:Generated_Source\PSoC4/CyLib.c **** * Function Name: CyGetUniqueId
3514:Generated_Source\PSoC4/CyLib.c **** ****************************************************************************//**
3515:Generated_Source\PSoC4/CyLib.c **** *
3516:Generated_Source\PSoC4/CyLib.c **** *  Returns the 64-bit unique ID of the device. The uniqueness of the number is
3517:Generated_Source\PSoC4/CyLib.c **** *  guaranteed for 10 years due to the die lot number having a cycle life of 10
3518:Generated_Source\PSoC4/CyLib.c **** *  years and even after 10 years, the probability of getting two identical
3519:Generated_Source\PSoC4/CyLib.c **** *  numbers is very small.
3520:Generated_Source\PSoC4/CyLib.c **** *
3521:Generated_Source\PSoC4/CyLib.c **** *  \param uniqueId: The pointer to a two element 32-bit unsigned integer array. Returns
3522:Generated_Source\PSoC4/CyLib.c **** *  the 64-bit unique ID of the device by loading them into the integer array
3523:Generated_Source\PSoC4/CyLib.c **** *  pointed to by uniqueId.
3524:Generated_Source\PSoC4/CyLib.c **** *
3525:Generated_Source\PSoC4/CyLib.c **** *******************************************************************************/
3526:Generated_Source\PSoC4/CyLib.c **** void CyGetUniqueId(uint32* uniqueId)
3527:Generated_Source\PSoC4/CyLib.c **** {
 3876              		.loc 1 3527 0
 3877              		.cfi_startproc
ARM GAS  C:\Users\YUANFA~1\AppData\Local\Temp\ccYDlzYT.s 			page 136


 3878              		@ args = 0, pretend = 0, frame = 0
 3879              		@ frame_needed = 0, uses_anonymous_args = 0
 3880              		@ link register save eliminated.
 3881              	.LVL404:
3528:Generated_Source\PSoC4/CyLib.c **** #if(CY_PSOC4)
3529:Generated_Source\PSoC4/CyLib.c ****     uniqueId[0u]  =  (uint32)(* (reg8 *) CYREG_SFLASH_DIE_LOT0  );
 3882              		.loc 1 3529 0
 3883 0000 134B     		ldr	r3, .L291
 3884 0002 1B78     		ldrb	r3, [r3]
 3885 0004 DAB2     		uxtb	r2, r3
 3886 0006 0260     		str	r2, [r0]
3530:Generated_Source\PSoC4/CyLib.c ****     uniqueId[0u] |= ((uint32)(* (reg8 *) CYREG_SFLASH_DIE_LOT1  ) <<  8u);
 3887              		.loc 1 3530 0
 3888 0008 124B     		ldr	r3, .L291+4
 3889 000a 1B78     		ldrb	r3, [r3]
 3890 000c 1B02     		lsls	r3, r3, #8
 3891 000e 1343     		orrs	r3, r2
 3892 0010 0360     		str	r3, [r0]
3531:Generated_Source\PSoC4/CyLib.c ****     uniqueId[0u] |= ((uint32)(* (reg8 *) CYREG_SFLASH_DIE_LOT2  ) << 16u);
 3893              		.loc 1 3531 0
 3894 0012 114A     		ldr	r2, .L291+8
 3895 0014 1278     		ldrb	r2, [r2]
 3896 0016 1204     		lsls	r2, r2, #16
 3897 0018 1343     		orrs	r3, r2
 3898 001a 0360     		str	r3, [r0]
3532:Generated_Source\PSoC4/CyLib.c ****     uniqueId[0u] |= ((uint32)(* (reg8 *) CYREG_SFLASH_DIE_WAFER ) << 24u);
 3899              		.loc 1 3532 0
 3900 001c 0F4A     		ldr	r2, .L291+12
 3901 001e 1278     		ldrb	r2, [r2]
 3902 0020 1206     		lsls	r2, r2, #24
 3903 0022 1343     		orrs	r3, r2
 3904 0024 0360     		str	r3, [r0]
3533:Generated_Source\PSoC4/CyLib.c **** 
3534:Generated_Source\PSoC4/CyLib.c ****     uniqueId[1u]  =  (uint32)(* (reg8 *) CYREG_SFLASH_DIE_X     );
 3905              		.loc 1 3534 0
 3906 0026 0E4B     		ldr	r3, .L291+16
 3907 0028 1B78     		ldrb	r3, [r3]
 3908 002a DAB2     		uxtb	r2, r3
 3909 002c 4260     		str	r2, [r0, #4]
3535:Generated_Source\PSoC4/CyLib.c ****     uniqueId[1u] |= ((uint32)(* (reg8 *) CYREG_SFLASH_DIE_Y     ) <<  8u);
 3910              		.loc 1 3535 0
 3911 002e 0D4B     		ldr	r3, .L291+20
 3912 0030 1B78     		ldrb	r3, [r3]
 3913 0032 1B02     		lsls	r3, r3, #8
 3914 0034 1343     		orrs	r3, r2
 3915 0036 4360     		str	r3, [r0, #4]
3536:Generated_Source\PSoC4/CyLib.c ****     uniqueId[1u] |= ((uint32)(* (reg8 *) CYREG_SFLASH_DIE_SORT  ) << 16u);
 3916              		.loc 1 3536 0
 3917 0038 0B4A     		ldr	r2, .L291+24
 3918 003a 1278     		ldrb	r2, [r2]
 3919 003c 1204     		lsls	r2, r2, #16
 3920 003e 1343     		orrs	r3, r2
 3921 0040 4360     		str	r3, [r0, #4]
3537:Generated_Source\PSoC4/CyLib.c ****     uniqueId[1u] |= ((uint32)(* (reg8 *) CYREG_SFLASH_DIE_MINOR ) << 24u);
 3922              		.loc 1 3537 0
 3923 0042 0A4A     		ldr	r2, .L291+28
 3924 0044 1278     		ldrb	r2, [r2]
ARM GAS  C:\Users\YUANFA~1\AppData\Local\Temp\ccYDlzYT.s 			page 137


 3925 0046 1206     		lsls	r2, r2, #24
 3926 0048 1343     		orrs	r3, r2
 3927 004a 4360     		str	r3, [r0, #4]
3538:Generated_Source\PSoC4/CyLib.c **** #else
3539:Generated_Source\PSoC4/CyLib.c ****     uniqueId[0u]  =  (uint32) CY_GET_XTND_REG8((void CYFAR *) (CYREG_FLSHID_CUST_TABLES_LOT_LSB   )
3540:Generated_Source\PSoC4/CyLib.c ****     uniqueId[0u] |= ((uint32) CY_GET_XTND_REG8((void CYFAR *) (CYREG_FLSHID_CUST_TABLES_LOT_MSB   )
3541:Generated_Source\PSoC4/CyLib.c ****     uniqueId[0u] |= ((uint32) CY_GET_XTND_REG8((void CYFAR *) (CYREG_MLOGIC_REV_ID                )
3542:Generated_Source\PSoC4/CyLib.c ****     uniqueId[0u] |= ((uint32) CY_GET_XTND_REG8((void CYFAR *) (CYREG_FLSHID_CUST_TABLES_WAFER_NUM )
3543:Generated_Source\PSoC4/CyLib.c **** 
3544:Generated_Source\PSoC4/CyLib.c ****     uniqueId[1u]  =  (uint32) CY_GET_XTND_REG8((void CYFAR *) (CYREG_FLSHID_CUST_TABLES_X_LOC     )
3545:Generated_Source\PSoC4/CyLib.c ****     uniqueId[1u] |= ((uint32) CY_GET_XTND_REG8((void CYFAR *) (CYREG_FLSHID_CUST_TABLES_Y_LOC     )
3546:Generated_Source\PSoC4/CyLib.c ****     uniqueId[1u] |= ((uint32) CY_GET_XTND_REG8((void CYFAR *) (CYREG_FLSHID_CUST_TABLES_WRK_WK    )
3547:Generated_Source\PSoC4/CyLib.c ****     uniqueId[1u] |= ((uint32) CY_GET_XTND_REG8((void CYFAR *) (CYREG_FLSHID_CUST_TABLES_FAB_YR    )
3548:Generated_Source\PSoC4/CyLib.c **** #endif  /* (CY_PSOC4) */
3549:Generated_Source\PSoC4/CyLib.c **** }
 3928              		.loc 1 3549 0
 3929              		@ sp needed
 3930 004c 7047     		bx	lr
 3931              	.L292:
 3932 004e C046     		.align	2
 3933              	.L291:
 3934 0050 78F2FF0F 		.word	268431992
 3935 0054 79F2FF0F 		.word	268431993
 3936 0058 7AF2FF0F 		.word	268431994
 3937 005c 7BF2FF0F 		.word	268431995
 3938 0060 7CF2FF0F 		.word	268431996
 3939 0064 7DF2FF0F 		.word	268431997
 3940 0068 7EF2FF0F 		.word	268431998
 3941 006c 7FF2FF0F 		.word	268431999
 3942              		.cfi_endproc
 3943              	.LFE63:
 3944              		.size	CyGetUniqueId, .-CyGetUniqueId
 3945              		.section	.text.CySysSetRamAccessArbPriority,"ax",%progbits
 3946              		.align	2
 3947              		.global	CySysSetRamAccessArbPriority
 3948              		.code	16
 3949              		.thumb_func
 3950              		.type	CySysSetRamAccessArbPriority, %function
 3951              	CySysSetRamAccessArbPriority:
 3952              	.LFB64:
3550:Generated_Source\PSoC4/CyLib.c **** 
3551:Generated_Source\PSoC4/CyLib.c **** 
3552:Generated_Source\PSoC4/CyLib.c **** #if (CY_IP_DMAC_PRESENT)
3553:Generated_Source\PSoC4/CyLib.c ****     /*******************************************************************************
3554:Generated_Source\PSoC4/CyLib.c ****     * Function Name: CySysSetRamAccessArbPriority
3555:Generated_Source\PSoC4/CyLib.c ****     ****************************************************************************//**
3556:Generated_Source\PSoC4/CyLib.c ****     *
3557:Generated_Source\PSoC4/CyLib.c ****     *  Sets RAM access priority between CPU and DMA. The RAM_CTL register is
3558:Generated_Source\PSoC4/CyLib.c ****     *  configured to set the priority. Please refer to the device TRM for more
3559:Generated_Source\PSoC4/CyLib.c ****     *  details.
3560:Generated_Source\PSoC4/CyLib.c ****     *
3561:Generated_Source\PSoC4/CyLib.c ****     *  This API is applicable for PSoC 4200M / PSoC 4200L / 4100S with
3562:Generated_Source\PSoC4/CyLib.c ****     *  DMA devices only.
3563:Generated_Source\PSoC4/CyLib.c ****     *
3564:Generated_Source\PSoC4/CyLib.c ****     *  \param source:
3565:Generated_Source\PSoC4/CyLib.c ****     *   CY_SYS_ARB_PRIORITY_CPU              CPU has priority (Default)
3566:Generated_Source\PSoC4/CyLib.c ****     *   CY_SYS_ARB_PRIORITY_DMA              DMA has priority
ARM GAS  C:\Users\YUANFA~1\AppData\Local\Temp\ccYDlzYT.s 			page 138


3567:Generated_Source\PSoC4/CyLib.c ****     *   CY_SYS_ARB_PRIORITY_ROUND            Round robin
3568:Generated_Source\PSoC4/CyLib.c ****     *   CY_SYS_ARB_PRIORITY_ROUND_STICKY     Round robin sticky
3569:Generated_Source\PSoC4/CyLib.c ****     *
3570:Generated_Source\PSoC4/CyLib.c ****     *******************************************************************************/
3571:Generated_Source\PSoC4/CyLib.c ****     void CySysSetRamAccessArbPriority(uint32 source)
3572:Generated_Source\PSoC4/CyLib.c ****     {
 3953              		.loc 1 3572 0
 3954              		.cfi_startproc
 3955              		@ args = 0, pretend = 0, frame = 0
 3956              		@ frame_needed = 0, uses_anonymous_args = 0
 3957              		@ link register save eliminated.
 3958              	.LVL405:
3573:Generated_Source\PSoC4/CyLib.c ****         uint32 regTmp;
3574:Generated_Source\PSoC4/CyLib.c **** 
3575:Generated_Source\PSoC4/CyLib.c ****         regTmp  = CY_SYS_CPUSS_RAM_CTL_REG & ~CY_SYS_CPUSS_RAM_CTL_ARB_MASK;
 3959              		.loc 1 3575 0
 3960 0000 0549     		ldr	r1, .L294
 3961 0002 0A68     		ldr	r2, [r1]
 3962 0004 054B     		ldr	r3, .L294+4
 3963 0006 1A40     		ands	r2, r3
 3964              	.LVL406:
3576:Generated_Source\PSoC4/CyLib.c ****         regTmp |= ((uint32) (source << CY_SYS_CPUSS_RAM_CTL_ARB_SHIFT) & CY_SYS_CPUSS_RAM_CTL_ARB_M
 3965              		.loc 1 3576 0
 3966 0008 4004     		lsls	r0, r0, #17
 3967              	.LVL407:
 3968 000a C023     		movs	r3, #192
 3969 000c DB02     		lsls	r3, r3, #11
 3970 000e 1840     		ands	r0, r3
 3971 0010 1043     		orrs	r0, r2
 3972              	.LVL408:
3577:Generated_Source\PSoC4/CyLib.c ****         CY_SYS_CPUSS_RAM_CTL_REG = regTmp;
 3973              		.loc 1 3577 0
 3974 0012 0860     		str	r0, [r1]
3578:Generated_Source\PSoC4/CyLib.c ****     }
 3975              		.loc 1 3578 0
 3976              		@ sp needed
 3977 0014 7047     		bx	lr
 3978              	.L295:
 3979 0016 C046     		.align	2
 3980              	.L294:
 3981 0018 38001040 		.word	1074790456
 3982 001c FFFFF9FF 		.word	-393217
 3983              		.cfi_endproc
 3984              	.LFE64:
 3985              		.size	CySysSetRamAccessArbPriority, .-CySysSetRamAccessArbPriority
 3986              		.section	.text.CySysSetFlashAccessArbPriority,"ax",%progbits
 3987              		.align	2
 3988              		.global	CySysSetFlashAccessArbPriority
 3989              		.code	16
 3990              		.thumb_func
 3991              		.type	CySysSetFlashAccessArbPriority, %function
 3992              	CySysSetFlashAccessArbPriority:
 3993              	.LFB65:
3579:Generated_Source\PSoC4/CyLib.c **** 
3580:Generated_Source\PSoC4/CyLib.c **** 
3581:Generated_Source\PSoC4/CyLib.c ****     /*******************************************************************************
3582:Generated_Source\PSoC4/CyLib.c ****     * Function Name: CySysSetFlashAccessArbPriority
ARM GAS  C:\Users\YUANFA~1\AppData\Local\Temp\ccYDlzYT.s 			page 139


3583:Generated_Source\PSoC4/CyLib.c ****     ****************************************************************************//**
3584:Generated_Source\PSoC4/CyLib.c ****     *
3585:Generated_Source\PSoC4/CyLib.c ****     *  Sets flash access priority between CPU and DMA. The FLASH_CTL register is
3586:Generated_Source\PSoC4/CyLib.c ****     *  configured to set the priority. Please refer to the device TRM for more
3587:Generated_Source\PSoC4/CyLib.c ****     *  details.
3588:Generated_Source\PSoC4/CyLib.c ****     *
3589:Generated_Source\PSoC4/CyLib.c ****     *  This API is applicable for PSoC 4200M / PSoC 4200L / 4100S with
3590:Generated_Source\PSoC4/CyLib.c ****     *  DMA devices only.
3591:Generated_Source\PSoC4/CyLib.c ****     *
3592:Generated_Source\PSoC4/CyLib.c ****     *  \param source:
3593:Generated_Source\PSoC4/CyLib.c ****     *   CY_SYS_ARB_PRIORITY_CPU              CPU has priority (Default)
3594:Generated_Source\PSoC4/CyLib.c ****     *   CY_SYS_ARB_PRIORITY_DMA              DMA has priority
3595:Generated_Source\PSoC4/CyLib.c ****     *   CY_SYS_ARB_PRIORITY_ROUND            Round robin
3596:Generated_Source\PSoC4/CyLib.c ****     *   CY_SYS_ARB_PRIORITY_ROUND_STICKY     Round robin sticky
3597:Generated_Source\PSoC4/CyLib.c ****     *
3598:Generated_Source\PSoC4/CyLib.c ****     *******************************************************************************/
3599:Generated_Source\PSoC4/CyLib.c ****     void CySysSetFlashAccessArbPriority(uint32 source)
3600:Generated_Source\PSoC4/CyLib.c ****     {
 3994              		.loc 1 3600 0
 3995              		.cfi_startproc
 3996              		@ args = 0, pretend = 0, frame = 0
 3997              		@ frame_needed = 0, uses_anonymous_args = 0
 3998              		@ link register save eliminated.
 3999              	.LVL409:
3601:Generated_Source\PSoC4/CyLib.c ****         uint32 regTmp;
3602:Generated_Source\PSoC4/CyLib.c **** 
3603:Generated_Source\PSoC4/CyLib.c ****         regTmp  = CY_SYS_CPUSS_FLASH_CTL_REG & ~CY_SYS_CPUSS_FLASH_CTL_ARB_MASK;
 4000              		.loc 1 3603 0
 4001 0000 0549     		ldr	r1, .L297
 4002 0002 0A68     		ldr	r2, [r1]
 4003 0004 054B     		ldr	r3, .L297+4
 4004 0006 1A40     		ands	r2, r3
 4005              	.LVL410:
3604:Generated_Source\PSoC4/CyLib.c ****         regTmp |= ((uint32) (source << CY_SYS_CPUSS_FLASH_CTL_ARB_SHIFT) & CY_SYS_CPUSS_FLASH_CTL_A
 4006              		.loc 1 3604 0
 4007 0008 4004     		lsls	r0, r0, #17
 4008              	.LVL411:
 4009 000a C023     		movs	r3, #192
 4010 000c DB02     		lsls	r3, r3, #11
 4011 000e 1840     		ands	r0, r3
 4012 0010 1043     		orrs	r0, r2
 4013              	.LVL412:
3605:Generated_Source\PSoC4/CyLib.c ****         CY_SYS_CPUSS_FLASH_CTL_REG = regTmp;
 4014              		.loc 1 3605 0
 4015 0012 0860     		str	r0, [r1]
3606:Generated_Source\PSoC4/CyLib.c ****     }
 4016              		.loc 1 3606 0
 4017              		@ sp needed
 4018 0014 7047     		bx	lr
 4019              	.L298:
 4020 0016 C046     		.align	2
 4021              	.L297:
 4022 0018 30001040 		.word	1074790448
 4023 001c FFFFF9FF 		.word	-393217
 4024              		.cfi_endproc
 4025              	.LFE65:
 4026              		.size	CySysSetFlashAccessArbPriority, .-CySysSetFlashAccessArbPriority
ARM GAS  C:\Users\YUANFA~1\AppData\Local\Temp\ccYDlzYT.s 			page 140


 4027              		.section	.text.CySysSetDmacAccessArbPriority,"ax",%progbits
 4028              		.align	2
 4029              		.global	CySysSetDmacAccessArbPriority
 4030              		.code	16
 4031              		.thumb_func
 4032              		.type	CySysSetDmacAccessArbPriority, %function
 4033              	CySysSetDmacAccessArbPriority:
 4034              	.LFB66:
3607:Generated_Source\PSoC4/CyLib.c **** 
3608:Generated_Source\PSoC4/CyLib.c **** 
3609:Generated_Source\PSoC4/CyLib.c ****     /*******************************************************************************
3610:Generated_Source\PSoC4/CyLib.c ****     * Function Name: CySysSetDmacAccessArbPriority
3611:Generated_Source\PSoC4/CyLib.c ****     ****************************************************************************//**
3612:Generated_Source\PSoC4/CyLib.c ****     *
3613:Generated_Source\PSoC4/CyLib.c ****     *  Sets DMAC slave interface access priority between CPU and DMA. The DMAC_CTL
3614:Generated_Source\PSoC4/CyLib.c ****     *  register is configured to set the priority. Please refer to the device TRM
3615:Generated_Source\PSoC4/CyLib.c ****     *  for more details.
3616:Generated_Source\PSoC4/CyLib.c ****     *
3617:Generated_Source\PSoC4/CyLib.c ****     *  This API is applicable for PSoC 4200M / PSoC 4200L / 4100S with
3618:Generated_Source\PSoC4/CyLib.c ****     *  DMA devices only.
3619:Generated_Source\PSoC4/CyLib.c ****     *
3620:Generated_Source\PSoC4/CyLib.c ****     *  \param source:
3621:Generated_Source\PSoC4/CyLib.c ****     *   CY_SYS_ARB_PRIORITY_CPU              CPU has priority (Default)
3622:Generated_Source\PSoC4/CyLib.c ****     *   CY_SYS_ARB_PRIORITY_DMA              DMA has priority
3623:Generated_Source\PSoC4/CyLib.c ****     *   CY_SYS_ARB_PRIORITY_ROUND            Round robin
3624:Generated_Source\PSoC4/CyLib.c ****     *   CY_SYS_ARB_PRIORITY_ROUND_STICKY     Round robin sticky
3625:Generated_Source\PSoC4/CyLib.c ****     *
3626:Generated_Source\PSoC4/CyLib.c ****     *******************************************************************************/
3627:Generated_Source\PSoC4/CyLib.c ****     void CySysSetDmacAccessArbPriority(uint32 source)
3628:Generated_Source\PSoC4/CyLib.c ****     {
 4035              		.loc 1 3628 0
 4036              		.cfi_startproc
 4037              		@ args = 0, pretend = 0, frame = 0
 4038              		@ frame_needed = 0, uses_anonymous_args = 0
 4039              		@ link register save eliminated.
 4040              	.LVL413:
3629:Generated_Source\PSoC4/CyLib.c ****         uint32 regTmp;
3630:Generated_Source\PSoC4/CyLib.c **** 
3631:Generated_Source\PSoC4/CyLib.c ****         regTmp  = CY_SYS_CPUSS_DMAC_CTL_REG & ~CY_SYS_CPUSS_DMAC_CTL_ARB_MASK;
 4041              		.loc 1 3631 0
 4042 0000 0549     		ldr	r1, .L300
 4043 0002 0A68     		ldr	r2, [r1]
 4044 0004 054B     		ldr	r3, .L300+4
 4045 0006 1A40     		ands	r2, r3
 4046              	.LVL414:
3632:Generated_Source\PSoC4/CyLib.c ****         regTmp |= ((uint32) (source << CY_SYS_CPUSS_DMAC_CTL_ARB_SHIFT) & CY_SYS_CPUSS_DMAC_CTL_ARB
 4047              		.loc 1 3632 0
 4048 0008 4004     		lsls	r0, r0, #17
 4049              	.LVL415:
 4050 000a C023     		movs	r3, #192
 4051 000c DB02     		lsls	r3, r3, #11
 4052 000e 1840     		ands	r0, r3
 4053 0010 1043     		orrs	r0, r2
 4054              	.LVL416:
3633:Generated_Source\PSoC4/CyLib.c ****         CY_SYS_CPUSS_DMAC_CTL_REG = regTmp;
 4055              		.loc 1 3633 0
 4056 0012 0860     		str	r0, [r1]
ARM GAS  C:\Users\YUANFA~1\AppData\Local\Temp\ccYDlzYT.s 			page 141


3634:Generated_Source\PSoC4/CyLib.c ****     }
 4057              		.loc 1 3634 0
 4058              		@ sp needed
 4059 0014 7047     		bx	lr
 4060              	.L301:
 4061 0016 C046     		.align	2
 4062              	.L300:
 4063 0018 3C001040 		.word	1074790460
 4064 001c FFFFF9FF 		.word	-393217
 4065              		.cfi_endproc
 4066              	.LFE66:
 4067              		.size	CySysSetDmacAccessArbPriority, .-CySysSetDmacAccessArbPriority
 4068              		.section	.text.CySysSetPeripheralAccessArbPriority,"ax",%progbits
 4069              		.align	2
 4070              		.global	CySysSetPeripheralAccessArbPriority
 4071              		.code	16
 4072              		.thumb_func
 4073              		.type	CySysSetPeripheralAccessArbPriority, %function
 4074              	CySysSetPeripheralAccessArbPriority:
 4075              	.LFB67:
3635:Generated_Source\PSoC4/CyLib.c **** 
3636:Generated_Source\PSoC4/CyLib.c **** 
3637:Generated_Source\PSoC4/CyLib.c ****     /*******************************************************************************
3638:Generated_Source\PSoC4/CyLib.c ****     * Function Name: CySysSetPeripheralAccessArbPriority
3639:Generated_Source\PSoC4/CyLib.c ****     ****************************************************************************//**
3640:Generated_Source\PSoC4/CyLib.c ****     *
3641:Generated_Source\PSoC4/CyLib.c ****     *  Sets slave peripheral interface access priority between CPU and DMA.
3642:Generated_Source\PSoC4/CyLib.c ****     *  The SL_CTL register is configured to set the priority. Please refer to the
3643:Generated_Source\PSoC4/CyLib.c ****     *  device TRM for more details.
3644:Generated_Source\PSoC4/CyLib.c ****     *
3645:Generated_Source\PSoC4/CyLib.c ****     *  This API is applicable for PSoC 4200M / PSoC 4200L / 4100S with
3646:Generated_Source\PSoC4/CyLib.c ****     *  DMA devices only.
3647:Generated_Source\PSoC4/CyLib.c ****     *
3648:Generated_Source\PSoC4/CyLib.c ****     *  \param  interfaceNumber: the slave interface number. Please refer to the
3649:Generated_Source\PSoC4/CyLib.c ****     *  device TRM for more details.
3650:Generated_Source\PSoC4/CyLib.c ****     *  \param source:
3651:Generated_Source\PSoC4/CyLib.c ****     *   CY_SYS_ARB_PRIORITY_CPU              CPU has priority (Default)
3652:Generated_Source\PSoC4/CyLib.c ****     *   CY_SYS_ARB_PRIORITY_DMA              DMA has priority
3653:Generated_Source\PSoC4/CyLib.c ****     *   CY_SYS_ARB_PRIORITY_ROUND            Round robin
3654:Generated_Source\PSoC4/CyLib.c ****     *   CY_SYS_ARB_PRIORITY_ROUND_STICKY     Round robin sticky
3655:Generated_Source\PSoC4/CyLib.c ****     *
3656:Generated_Source\PSoC4/CyLib.c ****     *******************************************************************************/
3657:Generated_Source\PSoC4/CyLib.c ****     void CySysSetPeripheralAccessArbPriority(uint32 interfaceNumber, uint32 source)
3658:Generated_Source\PSoC4/CyLib.c ****     {
 4076              		.loc 1 3658 0
 4077              		.cfi_startproc
 4078              		@ args = 0, pretend = 0, frame = 0
 4079              		@ frame_needed = 0, uses_anonymous_args = 0
 4080              	.LVL417:
 4081 0000 10B5     		push	{r4, lr}
 4082              		.cfi_def_cfa_offset 8
 4083              		.cfi_offset 4, -8
 4084              		.cfi_offset 14, -4
3659:Generated_Source\PSoC4/CyLib.c ****         uint32 regTmp;
3660:Generated_Source\PSoC4/CyLib.c **** 
3661:Generated_Source\PSoC4/CyLib.c ****         if (interfaceNumber == 0u)
 4085              		.loc 1 3661 0
ARM GAS  C:\Users\YUANFA~1\AppData\Local\Temp\ccYDlzYT.s 			page 142


 4086 0002 0028     		cmp	r0, #0
 4087 0004 0AD1     		bne	.L303
3662:Generated_Source\PSoC4/CyLib.c ****         {
3663:Generated_Source\PSoC4/CyLib.c ****             regTmp  = CY_SYS_CPUSS_SL_CTL0_REG & ~CY_SYS_CPUSS_SL_CTL_ARB_MASK;
 4088              		.loc 1 3663 0
 4089 0006 1448     		ldr	r0, .L307
 4090              	.LVL418:
 4091 0008 0268     		ldr	r2, [r0]
 4092 000a 144B     		ldr	r3, .L307+4
 4093 000c 1A40     		ands	r2, r3
 4094              	.LVL419:
3664:Generated_Source\PSoC4/CyLib.c ****             regTmp |= ((uint32) (source << CY_SYS_CPUSS_SL_CTL_ARB_SHIFT) & CY_SYS_CPUSS_SL_CTL_ARB
 4095              		.loc 1 3664 0
 4096 000e 4904     		lsls	r1, r1, #17
 4097              	.LVL420:
 4098 0010 C023     		movs	r3, #192
 4099 0012 DB02     		lsls	r3, r3, #11
 4100 0014 1940     		ands	r1, r3
 4101 0016 1143     		orrs	r1, r2
 4102              	.LVL421:
3665:Generated_Source\PSoC4/CyLib.c ****             CY_SYS_CPUSS_SL_CTL0_REG = regTmp;
 4103              		.loc 1 3665 0
 4104 0018 0160     		str	r1, [r0]
 4105 001a 1CE0     		b	.L302
 4106              	.LVL422:
 4107              	.L303:
3666:Generated_Source\PSoC4/CyLib.c ****         } else
3667:Generated_Source\PSoC4/CyLib.c ****     #if (CY_IP_SL_NR >= 2)
3668:Generated_Source\PSoC4/CyLib.c ****         if (interfaceNumber == 1u)
 4108              		.loc 1 3668 0
 4109 001c 0128     		cmp	r0, #1
 4110 001e 0AD1     		bne	.L305
3669:Generated_Source\PSoC4/CyLib.c ****         {
3670:Generated_Source\PSoC4/CyLib.c ****             regTmp  = CY_SYS_CPUSS_SL_CTL1_REG & ~CY_SYS_CPUSS_SL_CTL_ARB_MASK;
 4111              		.loc 1 3670 0
 4112 0020 0F48     		ldr	r0, .L307+8
 4113              	.LVL423:
 4114 0022 0268     		ldr	r2, [r0]
 4115 0024 0D4B     		ldr	r3, .L307+4
 4116 0026 1A40     		ands	r2, r3
 4117              	.LVL424:
3671:Generated_Source\PSoC4/CyLib.c ****             regTmp |= ((uint32) (source << CY_SYS_CPUSS_SL_CTL_ARB_SHIFT) & CY_SYS_CPUSS_SL_CTL_ARB
 4118              		.loc 1 3671 0
 4119 0028 4904     		lsls	r1, r1, #17
 4120              	.LVL425:
 4121 002a C023     		movs	r3, #192
 4122 002c DB02     		lsls	r3, r3, #11
 4123 002e 1940     		ands	r1, r3
 4124 0030 1143     		orrs	r1, r2
 4125              	.LVL426:
3672:Generated_Source\PSoC4/CyLib.c ****             CY_SYS_CPUSS_SL_CTL1_REG = regTmp;
 4126              		.loc 1 3672 0
 4127 0032 0160     		str	r1, [r0]
 4128 0034 0FE0     		b	.L302
 4129              	.LVL427:
 4130              	.L305:
3673:Generated_Source\PSoC4/CyLib.c ****         } else
ARM GAS  C:\Users\YUANFA~1\AppData\Local\Temp\ccYDlzYT.s 			page 143


3674:Generated_Source\PSoC4/CyLib.c ****     #endif /* (CY_IP_SL_NR >= 1) */
3675:Generated_Source\PSoC4/CyLib.c ****     #if (CY_IP_SL_NR >= 3)
3676:Generated_Source\PSoC4/CyLib.c ****         if (interfaceNumber == 2u)
 4131              		.loc 1 3676 0
 4132 0036 0228     		cmp	r0, #2
 4133 0038 0AD1     		bne	.L306
3677:Generated_Source\PSoC4/CyLib.c ****         {
3678:Generated_Source\PSoC4/CyLib.c ****             regTmp  = CY_SYS_CPUSS_SL_CTL2_REG & ~CY_SYS_CPUSS_SL_CTL_ARB_MASK;
 4134              		.loc 1 3678 0
 4135 003a 0A48     		ldr	r0, .L307+12
 4136              	.LVL428:
 4137 003c 0268     		ldr	r2, [r0]
 4138 003e 074B     		ldr	r3, .L307+4
 4139 0040 1A40     		ands	r2, r3
 4140              	.LVL429:
3679:Generated_Source\PSoC4/CyLib.c ****             regTmp |= ((uint32) (source << CY_SYS_CPUSS_SL_CTL_ARB_SHIFT) & CY_SYS_CPUSS_SL_CTL_ARB
 4141              		.loc 1 3679 0
 4142 0042 4904     		lsls	r1, r1, #17
 4143              	.LVL430:
 4144 0044 C023     		movs	r3, #192
 4145 0046 DB02     		lsls	r3, r3, #11
 4146 0048 1940     		ands	r1, r3
 4147 004a 1143     		orrs	r1, r2
 4148              	.LVL431:
3680:Generated_Source\PSoC4/CyLib.c ****             CY_SYS_CPUSS_SL_CTL2_REG = regTmp;
 4149              		.loc 1 3680 0
 4150 004c 0160     		str	r1, [r0]
 4151 004e 02E0     		b	.L302
 4152              	.LVL432:
 4153              	.L306:
3681:Generated_Source\PSoC4/CyLib.c ****         } else
3682:Generated_Source\PSoC4/CyLib.c ****     #endif /* (CY_IP_SL_NR >= 1) */
3683:Generated_Source\PSoC4/CyLib.c ****         {
3684:Generated_Source\PSoC4/CyLib.c ****             /* Halt CPU in debug mode if interface is invalid */
3685:Generated_Source\PSoC4/CyLib.c ****             CYASSERT(0u != 0u);
 4154              		.loc 1 3685 0 discriminator 1
 4155 0050 0020     		movs	r0, #0
 4156              	.LVL433:
 4157 0052 FFF7FEFF 		bl	CyHalt
 4158              	.LVL434:
 4159              	.L302:
3686:Generated_Source\PSoC4/CyLib.c ****         }
3687:Generated_Source\PSoC4/CyLib.c ****     }
 4160              		.loc 1 3687 0
 4161              		@ sp needed
 4162 0056 10BD     		pop	{r4, pc}
 4163              	.L308:
 4164              		.align	2
 4165              	.L307:
 4166 0058 00011040 		.word	1074790656
 4167 005c FFFFF9FF 		.word	-393217
 4168 0060 04011040 		.word	1074790660
 4169 0064 08011040 		.word	1074790664
 4170              		.cfi_endproc
 4171              	.LFE67:
 4172              		.size	CySysSetPeripheralAccessArbPriority, .-CySysSetPeripheralAccessArbPriority
 4173              		.global	CySysClkPumpConfig
ARM GAS  C:\Users\YUANFA~1\AppData\Local\Temp\ccYDlzYT.s 			page 144


 4174              		.global	CySysTickInitVar
 4175              		.global	cydelay32kMs
 4176              		.global	cydelayFreqMhz
 4177              		.global	cydelayFreqKhz
 4178              		.global	cydelayFreqHz
 4179              		.data
 4180              		.align	2
 4181              		.set	.LANCHOR0,. + 0
 4182              		.type	CySysClkPumpConfig, %object
 4183              		.size	CySysClkPumpConfig, 4
 4184              	CySysClkPumpConfig:
 4185 0000 01000000 		.word	1
 4186              		.type	cydelay32kMs, %object
 4187              		.size	cydelay32kMs, 4
 4188              	cydelay32kMs:
 4189 0004 0000E02E 		.word	786432000
 4190              		.type	cydelayFreqKhz, %object
 4191              		.size	cydelayFreqKhz, 4
 4192              	cydelayFreqKhz:
 4193 0008 C05D0000 		.word	24000
 4194              		.type	cydelayFreqMhz, %object
 4195              		.size	cydelayFreqMhz, 1
 4196              	cydelayFreqMhz:
 4197 000c 18       		.byte	24
 4198 000d 000000   		.space	3
 4199              		.type	cydelayFreqHz, %object
 4200              		.size	cydelayFreqHz, 4
 4201              	cydelayFreqHz:
 4202 0010 00366E01 		.word	24000000
 4203              		.bss
 4204              		.align	2
 4205              		.set	.LANCHOR1,. + 0
 4206              		.type	CySysTickCallbacks, %object
 4207              		.size	CySysTickCallbacks, 20
 4208              	CySysTickCallbacks:
 4209 0000 00000000 		.space	20
 4209      00000000 
 4209      00000000 
 4209      00000000 
 4209      00000000 
 4210              		.type	CySysTickInitVar, %object
 4211              		.size	CySysTickInitVar, 4
 4212              	CySysTickInitVar:
 4213 0014 00000000 		.space	4
 4214              		.text
 4215              	.Letext0:
 4216              		.file 2 "Generated_Source\\PSoC4\\cytypes.h"
 4217              		.file 3 "Generated_Source\\PSoC4\\CyLib.h"
 4218              		.file 4 "Generated_Source\\PSoC4\\CyLFClk.h"
 4219              		.file 5 "Generated_Source\\PSoC4\\CyFlash.h"
 4220              		.section	.debug_info,"",%progbits
 4221              	.Ldebug_info0:
 4222 0000 E6150000 		.4byte	0x15e6
 4223 0004 0400     		.2byte	0x4
 4224 0006 00000000 		.4byte	.Ldebug_abbrev0
 4225 000a 04       		.byte	0x4
 4226 000b 01       		.uleb128 0x1
ARM GAS  C:\Users\YUANFA~1\AppData\Local\Temp\ccYDlzYT.s 			page 145


 4227 000c E3010000 		.4byte	.LASF163
 4228 0010 0C       		.byte	0xc
 4229 0011 6A070000 		.4byte	.LASF164
 4230 0015 39090000 		.4byte	.LASF165
 4231 0019 00000000 		.4byte	.Ldebug_ranges0+0
 4232 001d 00000000 		.4byte	0
 4233 0021 00000000 		.4byte	.Ldebug_line0
 4234 0025 02       		.uleb128 0x2
 4235 0026 01       		.byte	0x1
 4236 0027 06       		.byte	0x6
 4237 0028 E6090000 		.4byte	.LASF0
 4238 002c 02       		.uleb128 0x2
 4239 002d 01       		.byte	0x1
 4240 002e 08       		.byte	0x8
 4241 002f 65080000 		.4byte	.LASF1
 4242 0033 02       		.uleb128 0x2
 4243 0034 02       		.byte	0x2
 4244 0035 05       		.byte	0x5
 4245 0036 BD060000 		.4byte	.LASF2
 4246 003a 02       		.uleb128 0x2
 4247 003b 02       		.byte	0x2
 4248 003c 07       		.byte	0x7
 4249 003d F2090000 		.4byte	.LASF3
 4250 0041 02       		.uleb128 0x2
 4251 0042 04       		.byte	0x4
 4252 0043 05       		.byte	0x5
 4253 0044 CF060000 		.4byte	.LASF4
 4254 0048 02       		.uleb128 0x2
 4255 0049 04       		.byte	0x4
 4256 004a 07       		.byte	0x7
 4257 004b 0B080000 		.4byte	.LASF5
 4258 004f 02       		.uleb128 0x2
 4259 0050 08       		.byte	0x8
 4260 0051 05       		.byte	0x5
 4261 0052 D5040000 		.4byte	.LASF6
 4262 0056 02       		.uleb128 0x2
 4263 0057 08       		.byte	0x8
 4264 0058 07       		.byte	0x7
 4265 0059 B0020000 		.4byte	.LASF7
 4266 005d 03       		.uleb128 0x3
 4267 005e 04       		.byte	0x4
 4268 005f 05       		.byte	0x5
 4269 0060 696E7400 		.ascii	"int\000"
 4270 0064 02       		.uleb128 0x2
 4271 0065 04       		.byte	0x4
 4272 0066 07       		.byte	0x7
 4273 0067 DB000000 		.4byte	.LASF8
 4274 006b 04       		.uleb128 0x4
 4275 006c 0D0A0000 		.4byte	.LASF9
 4276 0070 02       		.byte	0x2
 4277 0071 FB01     		.2byte	0x1fb
 4278 0073 2C000000 		.4byte	0x2c
 4279 0077 04       		.uleb128 0x4
 4280 0078 13040000 		.4byte	.LASF10
 4281 007c 02       		.byte	0x2
 4282 007d FC01     		.2byte	0x1fc
 4283 007f 3A000000 		.4byte	0x3a
ARM GAS  C:\Users\YUANFA~1\AppData\Local\Temp\ccYDlzYT.s 			page 146


 4284 0083 04       		.uleb128 0x4
 4285 0084 BC050000 		.4byte	.LASF11
 4286 0088 02       		.byte	0x2
 4287 0089 FD01     		.2byte	0x1fd
 4288 008b 48000000 		.4byte	0x48
 4289 008f 04       		.uleb128 0x4
 4290 0090 75020000 		.4byte	.LASF12
 4291 0094 02       		.byte	0x2
 4292 0095 0002     		.2byte	0x200
 4293 0097 41000000 		.4byte	0x41
 4294 009b 02       		.uleb128 0x2
 4295 009c 04       		.byte	0x4
 4296 009d 04       		.byte	0x4
 4297 009e D7010000 		.4byte	.LASF13
 4298 00a2 02       		.uleb128 0x2
 4299 00a3 08       		.byte	0x8
 4300 00a4 04       		.byte	0x4
 4301 00a5 130A0000 		.4byte	.LASF14
 4302 00a9 02       		.uleb128 0x2
 4303 00aa 01       		.byte	0x1
 4304 00ab 08       		.byte	0x8
 4305 00ac B5030000 		.4byte	.LASF15
 4306 00b0 04       		.uleb128 0x4
 4307 00b1 52080000 		.4byte	.LASF16
 4308 00b5 02       		.byte	0x2
 4309 00b6 9D02     		.2byte	0x29d
 4310 00b8 48000000 		.4byte	0x48
 4311 00bc 04       		.uleb128 0x4
 4312 00bd 40010000 		.4byte	.LASF17
 4313 00c1 02       		.byte	0x2
 4314 00c2 A502     		.2byte	0x2a5
 4315 00c4 C8000000 		.4byte	0xc8
 4316 00c8 05       		.uleb128 0x5
 4317 00c9 6B000000 		.4byte	0x6b
 4318 00cd 04       		.uleb128 0x4
 4319 00ce 6C060000 		.4byte	.LASF18
 4320 00d2 02       		.byte	0x2
 4321 00d3 A702     		.2byte	0x2a7
 4322 00d5 D9000000 		.4byte	0xd9
 4323 00d9 05       		.uleb128 0x5
 4324 00da 83000000 		.4byte	0x83
 4325 00de 04       		.uleb128 0x4
 4326 00df 97050000 		.4byte	.LASF19
 4327 00e3 02       		.byte	0x2
 4328 00e4 B702     		.2byte	0x2b7
 4329 00e6 EA000000 		.4byte	0xea
 4330 00ea 06       		.uleb128 0x6
 4331 00eb 04       		.byte	0x4
 4332 00ec F0000000 		.4byte	0xf0
 4333 00f0 07       		.uleb128 0x7
 4334 00f1 02       		.uleb128 0x2
 4335 00f2 08       		.byte	0x8
 4336 00f3 04       		.byte	0x4
 4337 00f4 52060000 		.4byte	.LASF20
 4338 00f8 02       		.uleb128 0x2
 4339 00f9 04       		.byte	0x4
 4340 00fa 07       		.byte	0x7
ARM GAS  C:\Users\YUANFA~1\AppData\Local\Temp\ccYDlzYT.s 			page 147


 4341 00fb D0070000 		.4byte	.LASF21
 4342 00ff 04       		.uleb128 0x4
 4343 0100 91030000 		.4byte	.LASF22
 4344 0104 03       		.byte	0x3
 4345 0105 0801     		.2byte	0x108
 4346 0107 EA000000 		.4byte	0xea
 4347 010b 08       		.uleb128 0x8
 4348 010c 0C       		.byte	0xc
 4349 010d 03       		.byte	0x3
 4350 010e D501     		.2byte	0x1d5
 4351 0110 3C010000 		.4byte	0x13c
 4352 0114 09       		.uleb128 0x9
 4353 0115 9D060000 		.4byte	.LASF23
 4354 0119 03       		.byte	0x3
 4355 011a D701     		.2byte	0x1d7
 4356 011c 83000000 		.4byte	0x83
 4357 0120 00       		.byte	0
 4358 0121 09       		.uleb128 0x9
 4359 0122 4D040000 		.4byte	.LASF24
 4360 0126 03       		.byte	0x3
 4361 0127 D801     		.2byte	0x1d8
 4362 0129 83000000 		.4byte	0x83
 4363 012d 04       		.byte	0x4
 4364 012e 09       		.uleb128 0x9
 4365 012f A8080000 		.4byte	.LASF25
 4366 0133 03       		.byte	0x3
 4367 0134 D901     		.2byte	0x1d9
 4368 0136 83000000 		.4byte	0x83
 4369 013a 08       		.byte	0x8
 4370 013b 00       		.byte	0
 4371 013c 04       		.uleb128 0x4
 4372 013d 32040000 		.4byte	.LASF26
 4373 0141 03       		.byte	0x3
 4374 0142 DA01     		.2byte	0x1da
 4375 0144 0B010000 		.4byte	0x10b
 4376 0148 08       		.uleb128 0x8
 4377 0149 18       		.byte	0x18
 4378 014a 03       		.byte	0x3
 4379 014b DD01     		.2byte	0x1dd
 4380 014d 5F010000 		.4byte	0x15f
 4381 0151 0A       		.uleb128 0xa
 4382 0152 706C6C00 		.ascii	"pll\000"
 4383 0156 03       		.byte	0x3
 4384 0157 DF01     		.2byte	0x1df
 4385 0159 5F010000 		.4byte	0x15f
 4386 015d 00       		.byte	0
 4387 015e 00       		.byte	0
 4388 015f 0B       		.uleb128 0xb
 4389 0160 3C010000 		.4byte	0x13c
 4390 0164 6F010000 		.4byte	0x16f
 4391 0168 0C       		.uleb128 0xc
 4392 0169 F8000000 		.4byte	0xf8
 4393 016d 01       		.byte	0x1
 4394 016e 00       		.byte	0
 4395 016f 04       		.uleb128 0x4
 4396 0170 B1010000 		.4byte	.LASF27
 4397 0174 03       		.byte	0x3
ARM GAS  C:\Users\YUANFA~1\AppData\Local\Temp\ccYDlzYT.s 			page 148


 4398 0175 E001     		.2byte	0x1e0
 4399 0177 48010000 		.4byte	0x148
 4400 017b 0D       		.uleb128 0xd
 4401 017c 39060000 		.4byte	.LASF41
 4402 0180 01       		.byte	0x1
 4403 0181 69       		.byte	0x69
 4404 0182 00000000 		.4byte	.LFB1
 4405 0186 14000000 		.4byte	.LFE1-.LFB1
 4406 018a 01       		.uleb128 0x1
 4407 018b 9C       		.byte	0x9c
 4408 018c 0E       		.uleb128 0xe
 4409 018d 7F090000 		.4byte	.LASF28
 4410 0191 01       		.byte	0x1
 4411 0192 1B01     		.2byte	0x11b
 4412 0194 00000000 		.4byte	.LFB4
 4413 0198 4C000000 		.4byte	.LFE4-.LFB4
 4414 019c 01       		.uleb128 0x1
 4415 019d 9C       		.byte	0x9c
 4416 019e B3010000 		.4byte	0x1b3
 4417 01a2 0F       		.uleb128 0xf
 4418 01a3 85030000 		.4byte	.LASF31
 4419 01a7 01       		.byte	0x1
 4420 01a8 2101     		.2byte	0x121
 4421 01aa 83000000 		.4byte	0x83
 4422 01ae 00000000 		.4byte	.LLST0
 4423 01b2 00       		.byte	0
 4424 01b3 10       		.uleb128 0x10
 4425 01b4 EA030000 		.4byte	.LASF29
 4426 01b8 01       		.byte	0x1
 4427 01b9 8A       		.byte	0x8a
 4428 01ba 00000000 		.4byte	.LFB2
 4429 01be 18000000 		.4byte	.LFE2-.LFB2
 4430 01c2 01       		.uleb128 0x1
 4431 01c3 9C       		.byte	0x9c
 4432 01c4 D2010000 		.4byte	0x1d2
 4433 01c8 11       		.uleb128 0x11
 4434 01c9 06000000 		.4byte	.LVL3
 4435 01cd 8C010000 		.4byte	0x18c
 4436 01d1 00       		.byte	0
 4437 01d2 12       		.uleb128 0x12
 4438 01d3 2A010000 		.4byte	.LASF130
 4439 01d7 01       		.byte	0x1
 4440 01d8 5301     		.2byte	0x153
 4441 01da 83000000 		.4byte	0x83
 4442 01de 00000000 		.4byte	.LFB5
 4443 01e2 14000000 		.4byte	.LFE5-.LFB5
 4444 01e6 01       		.uleb128 0x1
 4445 01e7 9C       		.byte	0x9c
 4446 01e8 0E       		.uleb128 0xe
 4447 01e9 FA030000 		.4byte	.LASF30
 4448 01ed 01       		.byte	0x1
 4449 01ee 4802     		.2byte	0x248
 4450 01f0 00000000 		.4byte	.LFB6
 4451 01f4 94000000 		.4byte	.LFE6-.LFB6
 4452 01f8 01       		.uleb128 0x1
 4453 01f9 9C       		.byte	0x9c
 4454 01fa 4F020000 		.4byte	0x24f
ARM GAS  C:\Users\YUANFA~1\AppData\Local\Temp\ccYDlzYT.s 			page 149


 4455 01fe 13       		.uleb128 0x13
 4456 01ff 6B030000 		.4byte	.LASF35
 4457 0203 01       		.byte	0x1
 4458 0204 4802     		.2byte	0x248
 4459 0206 83000000 		.4byte	0x83
 4460 020a 24000000 		.4byte	.LLST1
 4461 020e 0F       		.uleb128 0xf
 4462 020f 1B010000 		.4byte	.LASF32
 4463 0213 01       		.byte	0x1
 4464 0214 4A02     		.2byte	0x24a
 4465 0216 6B000000 		.4byte	0x6b
 4466 021a 50000000 		.4byte	.LLST2
 4467 021e 0F       		.uleb128 0xf
 4468 021f 7E060000 		.4byte	.LASF33
 4469 0223 01       		.byte	0x1
 4470 0224 4B02     		.2byte	0x24b
 4471 0226 83000000 		.4byte	0x83
 4472 022a 63000000 		.4byte	.LLST3
 4473 022e 14       		.uleb128 0x14
 4474 022f 6900     		.ascii	"i\000"
 4475 0231 01       		.byte	0x1
 4476 0232 4E02     		.2byte	0x24e
 4477 0234 6B000000 		.4byte	0x6b
 4478 0238 BA000000 		.4byte	.LLST4
 4479 023c 11       		.uleb128 0x11
 4480 023d 08000000 		.4byte	.LVL6
 4481 0241 B2150000 		.4byte	0x15b2
 4482 0245 11       		.uleb128 0x11
 4483 0246 7E000000 		.4byte	.LVL20
 4484 024a BD150000 		.4byte	0x15bd
 4485 024e 00       		.byte	0
 4486 024f 0E       		.uleb128 0xe
 4487 0250 06010000 		.4byte	.LASF34
 4488 0254 01       		.byte	0x1
 4489 0255 9502     		.2byte	0x295
 4490 0257 00000000 		.4byte	.LFB7
 4491 025b 34000000 		.4byte	.LFE7-.LFB7
 4492 025f 01       		.uleb128 0x1
 4493 0260 9C       		.byte	0x9c
 4494 0261 74020000 		.4byte	0x274
 4495 0265 15       		.uleb128 0x15
 4496 0266 D5020000 		.4byte	.LASF36
 4497 026a 01       		.byte	0x1
 4498 026b 9502     		.2byte	0x295
 4499 026d 83000000 		.4byte	0x83
 4500 0271 01       		.uleb128 0x1
 4501 0272 50       		.byte	0x50
 4502 0273 00       		.byte	0
 4503 0274 16       		.uleb128 0x16
 4504 0275 E9020000 		.4byte	.LASF43
 4505 0279 01       		.byte	0x1
 4506 027a BA02     		.2byte	0x2ba
 4507 027c 83000000 		.4byte	0x83
 4508 0280 00000000 		.4byte	.LFB8
 4509 0284 2C000000 		.4byte	.LFE8-.LFB8
 4510 0288 01       		.uleb128 0x1
 4511 0289 9C       		.byte	0x9c
ARM GAS  C:\Users\YUANFA~1\AppData\Local\Temp\ccYDlzYT.s 			page 150


 4512 028a C1020000 		.4byte	0x2c1
 4513 028e 0F       		.uleb128 0xf
 4514 028f 1B010000 		.4byte	.LASF32
 4515 0293 01       		.byte	0x1
 4516 0294 BC02     		.2byte	0x2bc
 4517 0296 6B000000 		.4byte	0x6b
 4518 029a E4000000 		.4byte	.LLST5
 4519 029e 0F       		.uleb128 0xf
 4520 029f 1A0A0000 		.4byte	.LASF37
 4521 02a3 01       		.byte	0x1
 4522 02a4 BD02     		.2byte	0x2bd
 4523 02a6 83000000 		.4byte	0x83
 4524 02aa F7000000 		.4byte	.LLST6
 4525 02ae 11       		.uleb128 0x11
 4526 02af 06000000 		.4byte	.LVL23
 4527 02b3 B2150000 		.4byte	0x15b2
 4528 02b7 11       		.uleb128 0x11
 4529 02b8 20000000 		.4byte	.LVL26
 4530 02bc BD150000 		.4byte	0x15bd
 4531 02c0 00       		.byte	0
 4532 02c1 0E       		.uleb128 0xe
 4533 02c2 33070000 		.4byte	.LASF38
 4534 02c6 01       		.byte	0x1
 4535 02c7 F702     		.2byte	0x2f7
 4536 02c9 00000000 		.4byte	.LFB9
 4537 02cd 24000000 		.4byte	.LFE9-.LFB9
 4538 02d1 01       		.uleb128 0x1
 4539 02d2 9C       		.byte	0x9c
 4540 02d3 0A030000 		.4byte	0x30a
 4541 02d7 13       		.uleb128 0x13
 4542 02d8 C7060000 		.4byte	.LASF39
 4543 02dc 01       		.byte	0x1
 4544 02dd F702     		.2byte	0x2f7
 4545 02df 83000000 		.4byte	0x83
 4546 02e3 20010000 		.4byte	.LLST7
 4547 02e7 0F       		.uleb128 0xf
 4548 02e8 1B010000 		.4byte	.LASF32
 4549 02ec 01       		.byte	0x1
 4550 02ed F902     		.2byte	0x2f9
 4551 02ef 6B000000 		.4byte	0x6b
 4552 02f3 4C010000 		.4byte	.LLST8
 4553 02f7 11       		.uleb128 0x11
 4554 02f8 08000000 		.4byte	.LVL29
 4555 02fc B2150000 		.4byte	0x15b2
 4556 0300 11       		.uleb128 0x11
 4557 0301 1E000000 		.4byte	.LVL31
 4558 0305 BD150000 		.4byte	0x15bd
 4559 0309 00       		.byte	0
 4560 030a 0E       		.uleb128 0xe
 4561 030b 45010000 		.4byte	.LASF40
 4562 030f 01       		.byte	0x1
 4563 0310 8304     		.2byte	0x483
 4564 0312 00000000 		.4byte	.LFB11
 4565 0316 24000000 		.4byte	.LFE11-.LFB11
 4566 031a 01       		.uleb128 0x1
 4567 031b 9C       		.byte	0x9c
 4568 031c 53030000 		.4byte	0x353
ARM GAS  C:\Users\YUANFA~1\AppData\Local\Temp\ccYDlzYT.s 			page 151


 4569 0320 13       		.uleb128 0x13
 4570 0321 C7060000 		.4byte	.LASF39
 4571 0325 01       		.byte	0x1
 4572 0326 8304     		.2byte	0x483
 4573 0328 83000000 		.4byte	0x83
 4574 032c 5F010000 		.4byte	.LLST9
 4575 0330 0F       		.uleb128 0xf
 4576 0331 1B010000 		.4byte	.LASF32
 4577 0335 01       		.byte	0x1
 4578 0336 8504     		.2byte	0x485
 4579 0338 6B000000 		.4byte	0x6b
 4580 033c 8B010000 		.4byte	.LLST10
 4581 0340 11       		.uleb128 0x11
 4582 0341 08000000 		.4byte	.LVL33
 4583 0345 B2150000 		.4byte	0x15b2
 4584 0349 11       		.uleb128 0x11
 4585 034a 1E000000 		.4byte	.LVL35
 4586 034e BD150000 		.4byte	0x15bd
 4587 0352 00       		.byte	0
 4588 0353 17       		.uleb128 0x17
 4589 0354 C7010000 		.4byte	.LASF42
 4590 0358 01       		.byte	0x1
 4591 0359 4205     		.2byte	0x542
 4592 035b 00000000 		.4byte	.LFB13
 4593 035f 14000000 		.4byte	.LFE13-.LFB13
 4594 0363 01       		.uleb128 0x1
 4595 0364 9C       		.byte	0x9c
 4596 0365 16       		.uleb128 0x16
 4597 0366 71040000 		.4byte	.LASF44
 4598 036a 01       		.byte	0x1
 4599 036b 6505     		.2byte	0x565
 4600 036d 83000000 		.4byte	0x83
 4601 0371 00000000 		.4byte	.LFB14
 4602 0375 14000000 		.4byte	.LFE14-.LFB14
 4603 0379 01       		.uleb128 0x1
 4604 037a 9C       		.byte	0x9c
 4605 037b 8E030000 		.4byte	0x38e
 4606 037f 18       		.uleb128 0x18
 4607 0380 2D060000 		.4byte	.LASF45
 4608 0384 01       		.byte	0x1
 4609 0385 6705     		.2byte	0x567
 4610 0387 83000000 		.4byte	0x83
 4611 038b 01       		.uleb128 0x1
 4612 038c 50       		.byte	0x50
 4613 038d 00       		.byte	0
 4614 038e 0E       		.uleb128 0xe
 4615 038f F2070000 		.4byte	.LASF46
 4616 0393 01       		.byte	0x1
 4617 0394 ED05     		.2byte	0x5ed
 4618 0396 00000000 		.4byte	.LFB15
 4619 039a 60000000 		.4byte	.LFE15-.LFB15
 4620 039e 01       		.uleb128 0x1
 4621 039f 9C       		.byte	0x9c
 4622 03a0 26040000 		.4byte	0x426
 4623 03a4 13       		.uleb128 0x13
 4624 03a5 A4050000 		.4byte	.LASF47
 4625 03a9 01       		.byte	0x1
ARM GAS  C:\Users\YUANFA~1\AppData\Local\Temp\ccYDlzYT.s 			page 152


 4626 03aa ED05     		.2byte	0x5ed
 4627 03ac 83000000 		.4byte	0x83
 4628 03b0 9E010000 		.4byte	.LLST11
 4629 03b4 13       		.uleb128 0x13
 4630 03b5 98040000 		.4byte	.LASF48
 4631 03b9 01       		.byte	0x1
 4632 03ba ED05     		.2byte	0x5ed
 4633 03bc 83000000 		.4byte	0x83
 4634 03c0 CA010000 		.4byte	.LLST12
 4635 03c4 13       		.uleb128 0x13
 4636 03c5 E8000000 		.4byte	.LASF49
 4637 03c9 01       		.byte	0x1
 4638 03ca ED05     		.2byte	0x5ed
 4639 03cc 83000000 		.4byte	0x83
 4640 03d0 F6010000 		.4byte	.LLST13
 4641 03d4 13       		.uleb128 0x13
 4642 03d5 24080000 		.4byte	.LASF50
 4643 03d9 01       		.byte	0x1
 4644 03da ED05     		.2byte	0x5ed
 4645 03dc 83000000 		.4byte	0x83
 4646 03e0 22020000 		.4byte	.LLST14
 4647 03e4 15       		.uleb128 0x15
 4648 03e5 64070000 		.4byte	.LASF51
 4649 03e9 01       		.byte	0x1
 4650 03ea ED05     		.2byte	0x5ed
 4651 03ec 83000000 		.4byte	0x83
 4652 03f0 02       		.uleb128 0x2
 4653 03f1 91       		.byte	0x91
 4654 03f2 00       		.sleb128 0
 4655 03f3 0F       		.uleb128 0xf
 4656 03f4 1B010000 		.4byte	.LASF32
 4657 03f8 01       		.byte	0x1
 4658 03f9 EF05     		.2byte	0x5ef
 4659 03fb 6B000000 		.4byte	0x6b
 4660 03ff 4E020000 		.4byte	.LLST15
 4661 0403 0F       		.uleb128 0xf
 4662 0404 DC020000 		.4byte	.LASF52
 4663 0408 01       		.byte	0x1
 4664 0409 F005     		.2byte	0x5f0
 4665 040b 83000000 		.4byte	0x83
 4666 040f 61020000 		.4byte	.LLST16
 4667 0413 11       		.uleb128 0x11
 4668 0414 12000000 		.4byte	.LVL38
 4669 0418 B2150000 		.4byte	0x15b2
 4670 041c 11       		.uleb128 0x11
 4671 041d 52000000 		.4byte	.LVL49
 4672 0421 BD150000 		.4byte	0x15bd
 4673 0425 00       		.byte	0
 4674 0426 19       		.uleb128 0x19
 4675 0427 E6060000 		.4byte	.LASF53
 4676 042b 01       		.byte	0x1
 4677 042c 2106     		.2byte	0x621
 4678 042e B0000000 		.4byte	0xb0
 4679 0432 00000000 		.4byte	.LFB16
 4680 0436 74010000 		.4byte	.LFE16-.LFB16
 4681 043a 01       		.uleb128 0x1
 4682 043b 9C       		.byte	0x9c
ARM GAS  C:\Users\YUANFA~1\AppData\Local\Temp\ccYDlzYT.s 			page 153


 4683 043c 09050000 		.4byte	0x509
 4684 0440 13       		.uleb128 0x13
 4685 0441 85030000 		.4byte	.LASF31
 4686 0445 01       		.byte	0x1
 4687 0446 2106     		.2byte	0x621
 4688 0448 83000000 		.4byte	0x83
 4689 044c AB020000 		.4byte	.LLST17
 4690 0450 13       		.uleb128 0x13
 4691 0451 A4060000 		.4byte	.LASF54
 4692 0455 01       		.byte	0x1
 4693 0456 2106     		.2byte	0x621
 4694 0458 83000000 		.4byte	0x83
 4695 045c 03030000 		.4byte	.LLST18
 4696 0460 1A       		.uleb128 0x1a
 4697 0461 65737200 		.ascii	"esr\000"
 4698 0465 01       		.byte	0x1
 4699 0466 2106     		.2byte	0x621
 4700 0468 83000000 		.4byte	0x83
 4701 046c 5E030000 		.4byte	.LLST19
 4702 0470 13       		.uleb128 0x13
 4703 0471 A4040000 		.4byte	.LASF55
 4704 0475 01       		.byte	0x1
 4705 0476 2106     		.2byte	0x621
 4706 0478 83000000 		.4byte	0x83
 4707 047c B6030000 		.4byte	.LLST20
 4708 0480 0F       		.uleb128 0xf
 4709 0481 A4000000 		.4byte	.LASF56
 4710 0485 01       		.byte	0x1
 4711 0486 2306     		.2byte	0x623
 4712 0488 B0000000 		.4byte	0xb0
 4713 048c E2030000 		.4byte	.LLST21
 4714 0490 0F       		.uleb128 0xf
 4715 0491 A4050000 		.4byte	.LASF47
 4716 0495 01       		.byte	0x1
 4717 0496 2506     		.2byte	0x625
 4718 0498 83000000 		.4byte	0x83
 4719 049c 23040000 		.4byte	.LLST22
 4720 04a0 0F       		.uleb128 0xf
 4721 04a1 98040000 		.4byte	.LASF48
 4722 04a5 01       		.byte	0x1
 4723 04a6 2606     		.2byte	0x626
 4724 04a8 83000000 		.4byte	0x83
 4725 04ac 43040000 		.4byte	.LLST23
 4726 04b0 0F       		.uleb128 0xf
 4727 04b1 E8000000 		.4byte	.LASF49
 4728 04b5 01       		.byte	0x1
 4729 04b6 2706     		.2byte	0x627
 4730 04b8 83000000 		.4byte	0x83
 4731 04bc 63040000 		.4byte	.LLST24
 4732 04c0 0F       		.uleb128 0xf
 4733 04c1 24080000 		.4byte	.LASF50
 4734 04c5 01       		.byte	0x1
 4735 04c6 2806     		.2byte	0x628
 4736 04c8 83000000 		.4byte	0x83
 4737 04cc 63040000 		.4byte	.LLST24
 4738 04d0 0F       		.uleb128 0xf
 4739 04d1 64070000 		.4byte	.LASF51
ARM GAS  C:\Users\YUANFA~1\AppData\Local\Temp\ccYDlzYT.s 			page 154


 4740 04d5 01       		.byte	0x1
 4741 04d6 2906     		.2byte	0x629
 4742 04d8 83000000 		.4byte	0x83
 4743 04dc 76040000 		.4byte	.LLST26
 4744 04e0 0F       		.uleb128 0xf
 4745 04e1 9E040000 		.4byte	.LASF57
 4746 04e5 01       		.byte	0x1
 4747 04e6 2B06     		.2byte	0x62b
 4748 04e8 83000000 		.4byte	0x83
 4749 04ec A0040000 		.4byte	.LLST27
 4750 04f0 1B       		.uleb128 0x1b
 4751 04f1 0C010000 		.4byte	.LVL73
 4752 04f5 8E030000 		.4byte	0x38e
 4753 04f9 1C       		.uleb128 0x1c
 4754 04fa 01       		.uleb128 0x1
 4755 04fb 50       		.byte	0x50
 4756 04fc 03       		.uleb128 0x3
 4757 04fd 91       		.byte	0x91
 4758 04fe 60       		.sleb128 -32
 4759 04ff 06       		.byte	0x6
 4760 0500 1C       		.uleb128 0x1c
 4761 0501 01       		.uleb128 0x1
 4762 0502 51       		.byte	0x51
 4763 0503 03       		.uleb128 0x3
 4764 0504 91       		.byte	0x91
 4765 0505 64       		.sleb128 -28
 4766 0506 06       		.byte	0x6
 4767 0507 00       		.byte	0
 4768 0508 00       		.byte	0
 4769 0509 0E       		.uleb128 0xe
 4770 050a B2070000 		.4byte	.LASF58
 4771 050e 01       		.byte	0x1
 4772 050f 2007     		.2byte	0x720
 4773 0511 00000000 		.4byte	.LFB19
 4774 0515 28000000 		.4byte	.LFE19-.LFB19
 4775 0519 01       		.uleb128 0x1
 4776 051a 9C       		.byte	0x9c
 4777 051b 52050000 		.4byte	0x552
 4778 051f 1A       		.uleb128 0x1a
 4779 0520 706C6C00 		.ascii	"pll\000"
 4780 0524 01       		.byte	0x1
 4781 0525 2007     		.2byte	0x720
 4782 0527 83000000 		.4byte	0x83
 4783 052b D6040000 		.4byte	.LLST28
 4784 052f 0F       		.uleb128 0xf
 4785 0530 1B010000 		.4byte	.LASF32
 4786 0534 01       		.byte	0x1
 4787 0535 2207     		.2byte	0x722
 4788 0537 6B000000 		.4byte	0x6b
 4789 053b 02050000 		.4byte	.LLST29
 4790 053f 11       		.uleb128 0x11
 4791 0540 0A000000 		.4byte	.LVL84
 4792 0544 B2150000 		.4byte	0x15b2
 4793 0548 11       		.uleb128 0x11
 4794 0549 20000000 		.4byte	.LVL85
 4795 054d BD150000 		.4byte	0x15bd
 4796 0551 00       		.byte	0
ARM GAS  C:\Users\YUANFA~1\AppData\Local\Temp\ccYDlzYT.s 			page 155


 4797 0552 0E       		.uleb128 0xe
 4798 0553 D9070000 		.4byte	.LASF59
 4799 0557 01       		.byte	0x1
 4800 0558 9107     		.2byte	0x791
 4801 055a 00000000 		.4byte	.LFB21
 4802 055e 38000000 		.4byte	.LFE21-.LFB21
 4803 0562 01       		.uleb128 0x1
 4804 0563 9C       		.byte	0x9c
 4805 0564 BB050000 		.4byte	0x5bb
 4806 0568 1A       		.uleb128 0x1a
 4807 0569 706C6C00 		.ascii	"pll\000"
 4808 056d 01       		.byte	0x1
 4809 056e 9107     		.2byte	0x791
 4810 0570 83000000 		.4byte	0x83
 4811 0574 15050000 		.4byte	.LLST30
 4812 0578 13       		.uleb128 0x13
 4813 0579 8A030000 		.4byte	.LASF60
 4814 057d 01       		.byte	0x1
 4815 057e 9107     		.2byte	0x791
 4816 0580 83000000 		.4byte	0x83
 4817 0584 41050000 		.4byte	.LLST31
 4818 0588 0F       		.uleb128 0xf
 4819 0589 DC020000 		.4byte	.LASF52
 4820 058d 01       		.byte	0x1
 4821 058e 9307     		.2byte	0x793
 4822 0590 83000000 		.4byte	0x83
 4823 0594 6D050000 		.4byte	.LLST32
 4824 0598 0F       		.uleb128 0xf
 4825 0599 1B010000 		.4byte	.LASF32
 4826 059d 01       		.byte	0x1
 4827 059e 9407     		.2byte	0x794
 4828 05a0 6B000000 		.4byte	0x6b
 4829 05a4 8B050000 		.4byte	.LLST33
 4830 05a8 11       		.uleb128 0x11
 4831 05a9 0A000000 		.4byte	.LVL88
 4832 05ad B2150000 		.4byte	0x15b2
 4833 05b1 11       		.uleb128 0x11
 4834 05b2 2E000000 		.4byte	.LVL94
 4835 05b6 BD150000 		.4byte	0x15bd
 4836 05ba 00       		.byte	0
 4837 05bb 16       		.uleb128 0x16
 4838 05bc 3F000000 		.4byte	.LASF61
 4839 05c0 01       		.byte	0x1
 4840 05c1 FA07     		.2byte	0x7fa
 4841 05c3 83000000 		.4byte	0x83
 4842 05c7 00000000 		.4byte	.LFB24
 4843 05cb 34000000 		.4byte	.LFE24-.LFB24
 4844 05cf 01       		.uleb128 0x1
 4845 05d0 9C       		.byte	0x9c
 4846 05d1 18060000 		.4byte	0x618
 4847 05d5 1A       		.uleb128 0x1a
 4848 05d6 706C6C00 		.ascii	"pll\000"
 4849 05da 01       		.byte	0x1
 4850 05db FA07     		.2byte	0x7fa
 4851 05dd 83000000 		.4byte	0x83
 4852 05e1 9E050000 		.4byte	.LLST34
 4853 05e5 0F       		.uleb128 0xf
ARM GAS  C:\Users\YUANFA~1\AppData\Local\Temp\ccYDlzYT.s 			page 156


 4854 05e6 A4000000 		.4byte	.LASF56
 4855 05ea 01       		.byte	0x1
 4856 05eb FC07     		.2byte	0x7fc
 4857 05ed 83000000 		.4byte	0x83
 4858 05f1 CA050000 		.4byte	.LLST35
 4859 05f5 0F       		.uleb128 0xf
 4860 05f6 1B010000 		.4byte	.LASF32
 4861 05fa 01       		.byte	0x1
 4862 05fb FD07     		.2byte	0x7fd
 4863 05fd 6B000000 		.4byte	0x6b
 4864 0601 F4050000 		.4byte	.LLST36
 4865 0605 11       		.uleb128 0x11
 4866 0606 08000000 		.4byte	.LVL97
 4867 060a B2150000 		.4byte	0x15b2
 4868 060e 11       		.uleb128 0x11
 4869 060f 2A000000 		.4byte	.LVL100
 4870 0613 BD150000 		.4byte	0x15bd
 4871 0617 00       		.byte	0
 4872 0618 0E       		.uleb128 0xe
 4873 0619 BA090000 		.4byte	.LASF62
 4874 061d 01       		.byte	0x1
 4875 061e 9008     		.2byte	0x890
 4876 0620 00000000 		.4byte	.LFB26
 4877 0624 78000000 		.4byte	.LFE26-.LFB26
 4878 0628 01       		.uleb128 0x1
 4879 0629 9C       		.byte	0x9c
 4880 062a 7F060000 		.4byte	0x67f
 4881 062e 1A       		.uleb128 0x1a
 4882 062f 706C6C00 		.ascii	"pll\000"
 4883 0633 01       		.byte	0x1
 4884 0634 9008     		.2byte	0x890
 4885 0636 83000000 		.4byte	0x83
 4886 063a 07060000 		.4byte	.LLST37
 4887 063e 13       		.uleb128 0x13
 4888 063f 89070000 		.4byte	.LASF63
 4889 0643 01       		.byte	0x1
 4890 0644 9008     		.2byte	0x890
 4891 0646 83000000 		.4byte	0x83
 4892 064a 40060000 		.4byte	.LLST38
 4893 064e 0F       		.uleb128 0xf
 4894 064f 1B010000 		.4byte	.LASF32
 4895 0653 01       		.byte	0x1
 4896 0654 9208     		.2byte	0x892
 4897 0656 6B000000 		.4byte	0x6b
 4898 065a 6C060000 		.4byte	.LLST39
 4899 065e 14       		.uleb128 0x14
 4900 065f 6900     		.ascii	"i\000"
 4901 0661 01       		.byte	0x1
 4902 0662 9508     		.2byte	0x895
 4903 0664 6B000000 		.4byte	0x6b
 4904 0668 7F060000 		.4byte	.LLST40
 4905 066c 11       		.uleb128 0x11
 4906 066d 0A000000 		.4byte	.LVL104
 4907 0671 B2150000 		.4byte	0x15b2
 4908 0675 11       		.uleb128 0x11
 4909 0676 66000000 		.4byte	.LVL112
 4910 067a BD150000 		.4byte	0x15bd
ARM GAS  C:\Users\YUANFA~1\AppData\Local\Temp\ccYDlzYT.s 			page 157


 4911 067e 00       		.byte	0
 4912 067f 16       		.uleb128 0x16
 4913 0680 14050000 		.4byte	.LASF64
 4914 0684 01       		.byte	0x1
 4915 0685 C00A     		.2byte	0xac0
 4916 0687 83000000 		.4byte	0x83
 4917 068b 00000000 		.4byte	.LFB28
 4918 068f 14000000 		.4byte	.LFE28-.LFB28
 4919 0693 01       		.uleb128 0x1
 4920 0694 9C       		.byte	0x9c
 4921 0695 B8060000 		.4byte	0x6b8
 4922 0699 13       		.uleb128 0x13
 4923 069a C7020000 		.4byte	.LASF65
 4924 069e 01       		.byte	0x1
 4925 069f C00A     		.2byte	0xac0
 4926 06a1 83000000 		.4byte	0x83
 4927 06a5 A9060000 		.4byte	.LLST41
 4928 06a9 18       		.uleb128 0x18
 4929 06aa A4000000 		.4byte	.LASF56
 4930 06ae 01       		.byte	0x1
 4931 06af C20A     		.2byte	0xac2
 4932 06b1 83000000 		.4byte	0x83
 4933 06b5 01       		.uleb128 0x1
 4934 06b6 50       		.byte	0x50
 4935 06b7 00       		.byte	0
 4936 06b8 16       		.uleb128 0x16
 4937 06b9 5E060000 		.4byte	.LASF66
 4938 06bd 01       		.byte	0x1
 4939 06be D70A     		.2byte	0xad7
 4940 06c0 83000000 		.4byte	0x83
 4941 06c4 00000000 		.4byte	.LFB29
 4942 06c8 10000000 		.4byte	.LFE29-.LFB29
 4943 06cc 01       		.uleb128 0x1
 4944 06cd 9C       		.byte	0x9c
 4945 06ce E1060000 		.4byte	0x6e1
 4946 06d2 18       		.uleb128 0x18
 4947 06d3 75030000 		.4byte	.LASF67
 4948 06d7 01       		.byte	0x1
 4949 06d8 D90A     		.2byte	0xad9
 4950 06da 83000000 		.4byte	0x83
 4951 06de 01       		.uleb128 0x1
 4952 06df 50       		.byte	0x50
 4953 06e0 00       		.byte	0
 4954 06e1 0E       		.uleb128 0xe
 4955 06e2 98010000 		.4byte	.LASF68
 4956 06e6 01       		.byte	0x1
 4957 06e7 EE0A     		.2byte	0xaee
 4958 06e9 00000000 		.4byte	.LFB30
 4959 06ed 0C000000 		.4byte	.LFE30-.LFB30
 4960 06f1 01       		.uleb128 0x1
 4961 06f2 9C       		.byte	0x9c
 4962 06f3 06070000 		.4byte	0x706
 4963 06f7 15       		.uleb128 0x15
 4964 06f8 0B060000 		.4byte	.LASF69
 4965 06fc 01       		.byte	0x1
 4966 06fd EE0A     		.2byte	0xaee
 4967 06ff 83000000 		.4byte	0x83
ARM GAS  C:\Users\YUANFA~1\AppData\Local\Temp\ccYDlzYT.s 			page 158


 4968 0703 01       		.uleb128 0x1
 4969 0704 50       		.byte	0x50
 4970 0705 00       		.byte	0
 4971 0706 0E       		.uleb128 0xe
 4972 0707 AE090000 		.4byte	.LASF70
 4973 070b 01       		.byte	0x1
 4974 070c A50B     		.2byte	0xba5
 4975 070e 00000000 		.4byte	.LFB37
 4976 0712 14000000 		.4byte	.LFE37-.LFB37
 4977 0716 01       		.uleb128 0x1
 4978 0717 9C       		.byte	0x9c
 4979 0718 2D070000 		.4byte	0x72d
 4980 071c 13       		.uleb128 0x13
 4981 071d 90070000 		.4byte	.LASF71
 4982 0721 01       		.byte	0x1
 4983 0722 A50B     		.2byte	0xba5
 4984 0724 6B000000 		.4byte	0x6b
 4985 0728 C7060000 		.4byte	.LLST42
 4986 072c 00       		.byte	0
 4987 072d 16       		.uleb128 0x16
 4988 072e 14030000 		.4byte	.LASF72
 4989 0732 01       		.byte	0x1
 4990 0733 B70B     		.2byte	0xbb7
 4991 0735 6B000000 		.4byte	0x6b
 4992 0739 00000000 		.4byte	.LFB38
 4993 073d 18000000 		.4byte	.LFE38-.LFB38
 4994 0741 01       		.uleb128 0x1
 4995 0742 9C       		.byte	0x9c
 4996 0743 58070000 		.4byte	0x758
 4997 0747 13       		.uleb128 0x13
 4998 0748 90070000 		.4byte	.LASF71
 4999 074c 01       		.byte	0x1
 5000 074d B70B     		.2byte	0xbb7
 5001 074f 6B000000 		.4byte	0x6b
 5002 0753 E8060000 		.4byte	.LLST43
 5003 0757 00       		.byte	0
 5004 0758 0E       		.uleb128 0xe
 5005 0759 5B010000 		.4byte	.LASF73
 5006 075d 01       		.byte	0x1
 5007 075e C70B     		.2byte	0xbc7
 5008 0760 00000000 		.4byte	.LFB39
 5009 0764 14000000 		.4byte	.LFE39-.LFB39
 5010 0768 01       		.uleb128 0x1
 5011 0769 9C       		.byte	0x9c
 5012 076a 7F070000 		.4byte	0x77f
 5013 076e 13       		.uleb128 0x13
 5014 076f 90070000 		.4byte	.LASF71
 5015 0773 01       		.byte	0x1
 5016 0774 C70B     		.2byte	0xbc7
 5017 0776 6B000000 		.4byte	0x6b
 5018 077a 09070000 		.4byte	.LLST44
 5019 077e 00       		.byte	0
 5020 077f 0E       		.uleb128 0xe
 5021 0780 5B030000 		.4byte	.LASF74
 5022 0784 01       		.byte	0x1
 5023 0785 D50B     		.2byte	0xbd5
 5024 0787 00000000 		.4byte	.LFB40
ARM GAS  C:\Users\YUANFA~1\AppData\Local\Temp\ccYDlzYT.s 			page 159


 5025 078b 14000000 		.4byte	.LFE40-.LFB40
 5026 078f 01       		.uleb128 0x1
 5027 0790 9C       		.byte	0x9c
 5028 0791 A6070000 		.4byte	0x7a6
 5029 0795 13       		.uleb128 0x13
 5030 0796 90070000 		.4byte	.LASF71
 5031 079a 01       		.byte	0x1
 5032 079b D50B     		.2byte	0xbd5
 5033 079d 6B000000 		.4byte	0x6b
 5034 07a1 2A070000 		.4byte	.LLST45
 5035 07a5 00       		.byte	0
 5036 07a6 0E       		.uleb128 0xe
 5037 07a7 A3030000 		.4byte	.LASF75
 5038 07ab 01       		.byte	0x1
 5039 07ac E40B     		.2byte	0xbe4
 5040 07ae 00000000 		.4byte	.LFB41
 5041 07b2 14000000 		.4byte	.LFE41-.LFB41
 5042 07b6 01       		.uleb128 0x1
 5043 07b7 9C       		.byte	0x9c
 5044 07b8 CD070000 		.4byte	0x7cd
 5045 07bc 13       		.uleb128 0x13
 5046 07bd 90070000 		.4byte	.LASF71
 5047 07c1 01       		.byte	0x1
 5048 07c2 E40B     		.2byte	0xbe4
 5049 07c4 6B000000 		.4byte	0x6b
 5050 07c8 4B070000 		.4byte	.LLST46
 5051 07cc 00       		.byte	0
 5052 07cd 0E       		.uleb128 0xe
 5053 07ce CE020000 		.4byte	.LASF76
 5054 07d2 01       		.byte	0x1
 5055 07d3 F30B     		.2byte	0xbf3
 5056 07d5 00000000 		.4byte	.LFB42
 5057 07d9 04000000 		.4byte	.LFE42-.LFB42
 5058 07dd 01       		.uleb128 0x1
 5059 07de 9C       		.byte	0x9c
 5060 07df F2070000 		.4byte	0x7f2
 5061 07e3 15       		.uleb128 0x15
 5062 07e4 C7020000 		.4byte	.LASF65
 5063 07e8 01       		.byte	0x1
 5064 07e9 F30B     		.2byte	0xbf3
 5065 07eb 6B000000 		.4byte	0x6b
 5066 07ef 01       		.uleb128 0x1
 5067 07f0 50       		.byte	0x50
 5068 07f1 00       		.byte	0
 5069 07f2 16       		.uleb128 0x16
 5070 07f3 AD080000 		.4byte	.LASF77
 5071 07f7 01       		.byte	0x1
 5072 07f8 FB06     		.2byte	0x6fb
 5073 07fa 83000000 		.4byte	0x83
 5074 07fe 00000000 		.4byte	.LFB18
 5075 0802 40000000 		.4byte	.LFE18-.LFB18
 5076 0806 01       		.uleb128 0x1
 5077 0807 9C       		.byte	0x9c
 5078 0808 62080000 		.4byte	0x862
 5079 080c 1A       		.uleb128 0x1a
 5080 080d 706C6C00 		.ascii	"pll\000"
 5081 0811 01       		.byte	0x1
ARM GAS  C:\Users\YUANFA~1\AppData\Local\Temp\ccYDlzYT.s 			page 160


 5082 0812 FB06     		.2byte	0x6fb
 5083 0814 83000000 		.4byte	0x83
 5084 0818 6C070000 		.4byte	.LLST47
 5085 081c 0F       		.uleb128 0xf
 5086 081d 1B010000 		.4byte	.LASF32
 5087 0821 01       		.byte	0x1
 5088 0822 FD06     		.2byte	0x6fd
 5089 0824 6B000000 		.4byte	0x6b
 5090 0828 98070000 		.4byte	.LLST48
 5091 082c 0F       		.uleb128 0xf
 5092 082d A4000000 		.4byte	.LASF56
 5093 0831 01       		.byte	0x1
 5094 0832 FE06     		.2byte	0x6fe
 5095 0834 83000000 		.4byte	0x83
 5096 0838 AB070000 		.4byte	.LLST49
 5097 083c 1D       		.uleb128 0x1d
 5098 083d 0C000000 		.4byte	.LVL132
 5099 0841 CD070000 		.4byte	0x7cd
 5100 0845 4F080000 		.4byte	0x84f
 5101 0849 1C       		.uleb128 0x1c
 5102 084a 01       		.uleb128 0x1
 5103 084b 50       		.byte	0x50
 5104 084c 01       		.uleb128 0x1
 5105 084d 30       		.byte	0x30
 5106 084e 00       		.byte	0
 5107 084f 11       		.uleb128 0x11
 5108 0850 10000000 		.4byte	.LVL133
 5109 0854 B2150000 		.4byte	0x15b2
 5110 0858 11       		.uleb128 0x11
 5111 0859 36000000 		.4byte	.LVL138
 5112 085d BD150000 		.4byte	0x15bd
 5113 0861 00       		.byte	0
 5114 0862 1E       		.uleb128 0x1e
 5115 0863 7E050000 		.4byte	.LASF78
 5116 0867 01       		.byte	0x1
 5117 0868 AE07     		.2byte	0x7ae
 5118 086a 83000000 		.4byte	0x83
 5119 086e 00000000 		.4byte	.LFB22
 5120 0872 2C000000 		.4byte	.LFE22-.LFB22
 5121 0876 01       		.uleb128 0x1
 5122 0877 9C       		.byte	0x9c
 5123 0878 D2080000 		.4byte	0x8d2
 5124 087c 1A       		.uleb128 0x1a
 5125 087d 706C6C00 		.ascii	"pll\000"
 5126 0881 01       		.byte	0x1
 5127 0882 AE07     		.2byte	0x7ae
 5128 0884 83000000 		.4byte	0x83
 5129 0888 D4070000 		.4byte	.LLST50
 5130 088c 0F       		.uleb128 0xf
 5131 088d 2D060000 		.4byte	.LASF45
 5132 0891 01       		.byte	0x1
 5133 0892 B007     		.2byte	0x7b0
 5134 0894 83000000 		.4byte	0x83
 5135 0898 00080000 		.4byte	.LLST51
 5136 089c 0F       		.uleb128 0xf
 5137 089d 1B010000 		.4byte	.LASF32
 5138 08a1 01       		.byte	0x1
ARM GAS  C:\Users\YUANFA~1\AppData\Local\Temp\ccYDlzYT.s 			page 161


 5139 08a2 B107     		.2byte	0x7b1
 5140 08a4 6B000000 		.4byte	0x6b
 5141 08a8 2F080000 		.4byte	.LLST52
 5142 08ac 1D       		.uleb128 0x1d
 5143 08ad 0C000000 		.4byte	.LVL142
 5144 08b1 CD070000 		.4byte	0x7cd
 5145 08b5 BF080000 		.4byte	0x8bf
 5146 08b9 1C       		.uleb128 0x1c
 5147 08ba 01       		.uleb128 0x1
 5148 08bb 50       		.byte	0x50
 5149 08bc 01       		.uleb128 0x1
 5150 08bd 30       		.byte	0x30
 5151 08be 00       		.byte	0
 5152 08bf 11       		.uleb128 0x11
 5153 08c0 10000000 		.4byte	.LVL143
 5154 08c4 B2150000 		.4byte	0x15b2
 5155 08c8 11       		.uleb128 0x11
 5156 08c9 24000000 		.4byte	.LVL148
 5157 08cd BD150000 		.4byte	0x15bd
 5158 08d1 00       		.byte	0
 5159 08d2 1E       		.uleb128 0x1e
 5160 08d3 C3050000 		.4byte	.LASF79
 5161 08d7 01       		.byte	0x1
 5162 08d8 D107     		.2byte	0x7d1
 5163 08da B0000000 		.4byte	0xb0
 5164 08de 00000000 		.4byte	.LFB23
 5165 08e2 2C000000 		.4byte	.LFE23-.LFB23
 5166 08e6 01       		.uleb128 0x1
 5167 08e7 9C       		.byte	0x9c
 5168 08e8 46090000 		.4byte	0x946
 5169 08ec 1A       		.uleb128 0x1a
 5170 08ed 706C6C00 		.ascii	"pll\000"
 5171 08f1 01       		.byte	0x1
 5172 08f2 D107     		.2byte	0x7d1
 5173 08f4 83000000 		.4byte	0x83
 5174 08f8 42080000 		.4byte	.LLST53
 5175 08fc 0F       		.uleb128 0xf
 5176 08fd D8060000 		.4byte	.LASF80
 5177 0901 01       		.byte	0x1
 5178 0902 D307     		.2byte	0x7d3
 5179 0904 83000000 		.4byte	0x83
 5180 0908 6E080000 		.4byte	.LLST54
 5181 090c 0F       		.uleb128 0xf
 5182 090d 1A0A0000 		.4byte	.LASF37
 5183 0911 01       		.byte	0x1
 5184 0912 D407     		.2byte	0x7d4
 5185 0914 83000000 		.4byte	0x83
 5186 0918 A2080000 		.4byte	.LLST55
 5187 091c 0F       		.uleb128 0xf
 5188 091d 2D060000 		.4byte	.LASF45
 5189 0921 01       		.byte	0x1
 5190 0922 D507     		.2byte	0x7d5
 5191 0924 B0000000 		.4byte	0xb0
 5192 0928 C0080000 		.4byte	.LLST56
 5193 092c 11       		.uleb128 0x11
 5194 092d 08000000 		.4byte	.LVL152
 5195 0931 74020000 		.4byte	0x274
ARM GAS  C:\Users\YUANFA~1\AppData\Local\Temp\ccYDlzYT.s 			page 162


 5196 0935 1B       		.uleb128 0x1b
 5197 0936 10000000 		.4byte	.LVL155
 5198 093a 62080000 		.4byte	0x862
 5199 093e 1C       		.uleb128 0x1c
 5200 093f 01       		.uleb128 0x1
 5201 0940 50       		.byte	0x50
 5202 0941 02       		.uleb128 0x2
 5203 0942 74       		.byte	0x74
 5204 0943 00       		.sleb128 0
 5205 0944 00       		.byte	0
 5206 0945 00       		.byte	0
 5207 0946 16       		.uleb128 0x16
 5208 0947 87040000 		.4byte	.LASF81
 5209 094b 01       		.byte	0x1
 5210 094c 4D07     		.2byte	0x74d
 5211 094e B0000000 		.4byte	0xb0
 5212 0952 00000000 		.4byte	.LFB20
 5213 0956 A4000000 		.4byte	.LFE20-.LFB20
 5214 095a 01       		.uleb128 0x1
 5215 095b 9C       		.byte	0x9c
 5216 095c 100A0000 		.4byte	0xa10
 5217 0960 1A       		.uleb128 0x1a
 5218 0961 706C6C00 		.ascii	"pll\000"
 5219 0965 01       		.byte	0x1
 5220 0966 4D07     		.2byte	0x74d
 5221 0968 83000000 		.4byte	0x83
 5222 096c DF080000 		.4byte	.LLST57
 5223 0970 13       		.uleb128 0x13
 5224 0971 1A040000 		.4byte	.LASF82
 5225 0975 01       		.byte	0x1
 5226 0976 4D07     		.2byte	0x74d
 5227 0978 83000000 		.4byte	0x83
 5228 097c D3090000 		.4byte	.LLST58
 5229 0980 13       		.uleb128 0x13
 5230 0981 79010000 		.4byte	.LASF83
 5231 0985 01       		.byte	0x1
 5232 0986 4D07     		.2byte	0x74d
 5233 0988 83000000 		.4byte	0x83
 5234 098c FF090000 		.4byte	.LLST59
 5235 0990 13       		.uleb128 0x13
 5236 0991 050A0000 		.4byte	.LASF84
 5237 0995 01       		.byte	0x1
 5238 0996 4D07     		.2byte	0x74d
 5239 0998 83000000 		.4byte	0x83
 5240 099c 510A0000 		.4byte	.LLST60
 5241 09a0 0F       		.uleb128 0xf
 5242 09a1 DC020000 		.4byte	.LASF52
 5243 09a5 01       		.byte	0x1
 5244 09a6 4F07     		.2byte	0x74f
 5245 09a8 83000000 		.4byte	0x83
 5246 09ac 960A0000 		.4byte	.LLST61
 5247 09b0 14       		.uleb128 0x14
 5248 09b1 746D7000 		.ascii	"tmp\000"
 5249 09b5 01       		.byte	0x1
 5250 09b6 5007     		.2byte	0x750
 5251 09b8 B0000000 		.4byte	0xb0
 5252 09bc B40A0000 		.4byte	.LLST62
ARM GAS  C:\Users\YUANFA~1\AppData\Local\Temp\ccYDlzYT.s 			page 163


 5253 09c0 0F       		.uleb128 0xf
 5254 09c1 1B010000 		.4byte	.LASF32
 5255 09c5 01       		.byte	0x1
 5256 09c6 5107     		.2byte	0x751
 5257 09c8 6B000000 		.4byte	0x6b
 5258 09cc D20A0000 		.4byte	.LLST63
 5259 09d0 0F       		.uleb128 0xf
 5260 09d1 A4000000 		.4byte	.LASF56
 5261 09d5 01       		.byte	0x1
 5262 09d6 5207     		.2byte	0x752
 5263 09d8 B0000000 		.4byte	0xb0
 5264 09dc F20A0000 		.4byte	.LLST64
 5265 09e0 11       		.uleb128 0x11
 5266 09e1 10000000 		.4byte	.LVL167
 5267 09e5 B2150000 		.4byte	0x15b2
 5268 09e9 1D       		.uleb128 0x1d
 5269 09ea 18000000 		.4byte	.LVL169
 5270 09ee D2080000 		.4byte	0x8d2
 5271 09f2 FD090000 		.4byte	0x9fd
 5272 09f6 1C       		.uleb128 0x1c
 5273 09f7 01       		.uleb128 0x1
 5274 09f8 50       		.byte	0x50
 5275 09f9 02       		.uleb128 0x2
 5276 09fa 74       		.byte	0x74
 5277 09fb 00       		.sleb128 0
 5278 09fc 00       		.byte	0
 5279 09fd 1B       		.uleb128 0x1b
 5280 09fe 94000000 		.4byte	.LVL196
 5281 0a02 BD150000 		.4byte	0x15bd
 5282 0a06 1C       		.uleb128 0x1c
 5283 0a07 01       		.uleb128 0x1
 5284 0a08 50       		.byte	0x50
 5285 0a09 04       		.uleb128 0x4
 5286 0a0a 91       		.byte	0x91
 5287 0a0b 64       		.sleb128 -28
 5288 0a0c 94       		.byte	0x94
 5289 0a0d 01       		.byte	0x1
 5290 0a0e 00       		.byte	0
 5291 0a0f 00       		.byte	0
 5292 0a10 16       		.uleb128 0x16
 5293 0a11 1D090000 		.4byte	.LASF85
 5294 0a15 01       		.byte	0x1
 5295 0a16 D608     		.2byte	0x8d6
 5296 0a18 B0000000 		.4byte	0xb0
 5297 0a1c 00000000 		.4byte	.LFB27
 5298 0a20 58000000 		.4byte	.LFE27-.LFB27
 5299 0a24 01       		.uleb128 0x1
 5300 0a25 9C       		.byte	0x9c
 5301 0a26 B80A0000 		.4byte	0xab8
 5302 0a2a 1A       		.uleb128 0x1a
 5303 0a2b 706C6C00 		.ascii	"pll\000"
 5304 0a2f 01       		.byte	0x1
 5305 0a30 D608     		.2byte	0x8d6
 5306 0a32 83000000 		.4byte	0x83
 5307 0a36 340B0000 		.4byte	.LLST65
 5308 0a3a 13       		.uleb128 0x13
 5309 0a3b C7060000 		.4byte	.LASF39
ARM GAS  C:\Users\YUANFA~1\AppData\Local\Temp\ccYDlzYT.s 			page 164


 5310 0a3f 01       		.byte	0x1
 5311 0a40 D608     		.2byte	0x8d6
 5312 0a42 83000000 		.4byte	0x83
 5313 0a46 AB0B0000 		.4byte	.LLST66
 5314 0a4a 0F       		.uleb128 0xf
 5315 0a4b 7E060000 		.4byte	.LASF33
 5316 0a4f 01       		.byte	0x1
 5317 0a50 D808     		.2byte	0x8d8
 5318 0a52 83000000 		.4byte	0x83
 5319 0a56 F00B0000 		.4byte	.LLST67
 5320 0a5a 0F       		.uleb128 0xf
 5321 0a5b 1B010000 		.4byte	.LASF32
 5322 0a5f 01       		.byte	0x1
 5323 0a60 D908     		.2byte	0x8d9
 5324 0a62 6B000000 		.4byte	0x6b
 5325 0a66 0E0C0000 		.4byte	.LLST68
 5326 0a6a 0F       		.uleb128 0xf
 5327 0a6b A4000000 		.4byte	.LASF56
 5328 0a6f 01       		.byte	0x1
 5329 0a70 DA08     		.2byte	0x8da
 5330 0a72 B0000000 		.4byte	0xb0
 5331 0a76 210C0000 		.4byte	.LLST69
 5332 0a7a 14       		.uleb128 0x14
 5333 0a7b 746D7000 		.ascii	"tmp\000"
 5334 0a7f 01       		.byte	0x1
 5335 0a80 DB08     		.2byte	0x8db
 5336 0a82 B0000000 		.4byte	0xb0
 5337 0a86 630C0000 		.4byte	.LLST70
 5338 0a8a 11       		.uleb128 0x11
 5339 0a8b 0A000000 		.4byte	.LVL201
 5340 0a8f B2150000 		.4byte	0x15b2
 5341 0a93 1D       		.uleb128 0x1d
 5342 0a94 12000000 		.4byte	.LVL203
 5343 0a98 D2080000 		.4byte	0x8d2
 5344 0a9c A70A0000 		.4byte	0xaa7
 5345 0aa0 1C       		.uleb128 0x1c
 5346 0aa1 01       		.uleb128 0x1
 5347 0aa2 50       		.byte	0x50
 5348 0aa3 02       		.uleb128 0x2
 5349 0aa4 74       		.byte	0x74
 5350 0aa5 00       		.sleb128 0
 5351 0aa6 00       		.byte	0
 5352 0aa7 1B       		.uleb128 0x1b
 5353 0aa8 4C000000 		.4byte	.LVL216
 5354 0aac BD150000 		.4byte	0x15bd
 5355 0ab0 1C       		.uleb128 0x1c
 5356 0ab1 01       		.uleb128 0x1
 5357 0ab2 50       		.byte	0x50
 5358 0ab3 02       		.uleb128 0x2
 5359 0ab4 76       		.byte	0x76
 5360 0ab5 00       		.sleb128 0
 5361 0ab6 00       		.byte	0
 5362 0ab7 00       		.byte	0
 5363 0ab8 19       		.uleb128 0x19
 5364 0ab9 8E020000 		.4byte	.LASF86
 5365 0abd 01       		.byte	0x1
 5366 0abe 2E08     		.2byte	0x82e
ARM GAS  C:\Users\YUANFA~1\AppData\Local\Temp\ccYDlzYT.s 			page 165


 5367 0ac0 B0000000 		.4byte	0xb0
 5368 0ac4 00000000 		.4byte	.LFB25
 5369 0ac8 10010000 		.4byte	.LFE25-.LFB25
 5370 0acc 01       		.uleb128 0x1
 5371 0acd 9C       		.byte	0x9c
 5372 0ace 0E0C0000 		.4byte	0xc0e
 5373 0ad2 1A       		.uleb128 0x1a
 5374 0ad3 706C6C00 		.ascii	"pll\000"
 5375 0ad7 01       		.byte	0x1
 5376 0ad8 2E08     		.2byte	0x82e
 5377 0ada 83000000 		.4byte	0x83
 5378 0ade 810C0000 		.4byte	.LLST71
 5379 0ae2 13       		.uleb128 0x13
 5380 0ae3 30030000 		.4byte	.LASF87
 5381 0ae7 01       		.byte	0x1
 5382 0ae8 2E08     		.2byte	0x82e
 5383 0aea 83000000 		.4byte	0x83
 5384 0aee AD0C0000 		.4byte	.LLST72
 5385 0af2 13       		.uleb128 0x13
 5386 0af3 00000000 		.4byte	.LASF88
 5387 0af7 01       		.byte	0x1
 5388 0af8 2E08     		.2byte	0x82e
 5389 0afa 83000000 		.4byte	0x83
 5390 0afe D90C0000 		.4byte	.LLST73
 5391 0b02 13       		.uleb128 0x13
 5392 0b03 C7060000 		.4byte	.LASF39
 5393 0b07 01       		.byte	0x1
 5394 0b08 2E08     		.2byte	0x82e
 5395 0b0a 83000000 		.4byte	0x83
 5396 0b0e 050D0000 		.4byte	.LLST74
 5397 0b12 15       		.uleb128 0x15
 5398 0b13 FE000000 		.4byte	.LASF89
 5399 0b17 01       		.byte	0x1
 5400 0b18 2E08     		.2byte	0x82e
 5401 0b1a 83000000 		.4byte	0x83
 5402 0b1e 02       		.uleb128 0x2
 5403 0b1f 91       		.byte	0x91
 5404 0b20 00       		.sleb128 0
 5405 0b21 0F       		.uleb128 0xf
 5406 0b22 01030000 		.4byte	.LASF90
 5407 0b26 01       		.byte	0x1
 5408 0b27 3008     		.2byte	0x830
 5409 0b29 83000000 		.4byte	0x83
 5410 0b2d 460D0000 		.4byte	.LLST75
 5411 0b31 0F       		.uleb128 0xf
 5412 0b32 CB070000 		.4byte	.LASF91
 5413 0b36 01       		.byte	0x1
 5414 0b37 3108     		.2byte	0x831
 5415 0b39 83000000 		.4byte	0x83
 5416 0b3d 640D0000 		.4byte	.LLST76
 5417 0b41 0F       		.uleb128 0xf
 5418 0b42 56030000 		.4byte	.LASF92
 5419 0b46 01       		.byte	0x1
 5420 0b47 3308     		.2byte	0x833
 5421 0b49 83000000 		.4byte	0x83
 5422 0b4d 8D0D0000 		.4byte	.LLST77
 5423 0b51 0F       		.uleb128 0xf
ARM GAS  C:\Users\YUANFA~1\AppData\Local\Temp\ccYDlzYT.s 			page 166


 5424 0b52 9F070000 		.4byte	.LASF93
 5425 0b56 01       		.byte	0x1
 5426 0b57 3408     		.2byte	0x834
 5427 0b59 83000000 		.4byte	0x83
 5428 0b5d C30D0000 		.4byte	.LLST78
 5429 0b61 14       		.uleb128 0x14
 5430 0b62 7100     		.ascii	"q\000"
 5431 0b64 01       		.byte	0x1
 5432 0b65 3608     		.2byte	0x836
 5433 0b67 83000000 		.4byte	0x83
 5434 0b6b 040E0000 		.4byte	.LLST79
 5435 0b6f 14       		.uleb128 0x14
 5436 0b70 7000     		.ascii	"p\000"
 5437 0b72 01       		.byte	0x1
 5438 0b73 3708     		.2byte	0x837
 5439 0b75 83000000 		.4byte	0x83
 5440 0b79 170E0000 		.4byte	.LLST80
 5441 0b7d 0F       		.uleb128 0xf
 5442 0b7e 2E070000 		.4byte	.LASF94
 5443 0b82 01       		.byte	0x1
 5444 0b83 3908     		.2byte	0x839
 5445 0b85 83000000 		.4byte	0x83
 5446 0b89 350E0000 		.4byte	.LLST81
 5447 0b8d 0F       		.uleb128 0xf
 5448 0b8e D6000000 		.4byte	.LASF95
 5449 0b92 01       		.byte	0x1
 5450 0b93 3A08     		.2byte	0x83a
 5451 0b95 8F000000 		.4byte	0x8f
 5452 0b99 480E0000 		.4byte	.LLST82
 5453 0b9d 14       		.uleb128 0x14
 5454 0b9e 746D7000 		.ascii	"tmp\000"
 5455 0ba2 01       		.byte	0x1
 5456 0ba3 3C08     		.2byte	0x83c
 5457 0ba5 B0000000 		.4byte	0xb0
 5458 0ba9 5B0E0000 		.4byte	.LLST83
 5459 0bad 0F       		.uleb128 0xf
 5460 0bae A4000000 		.4byte	.LASF56
 5461 0bb2 01       		.byte	0x1
 5462 0bb3 3D08     		.2byte	0x83d
 5463 0bb5 B0000000 		.4byte	0xb0
 5464 0bb9 BB0E0000 		.4byte	.LLST84
 5465 0bbd 1D       		.uleb128 0x1d
 5466 0bbe 18000000 		.4byte	.LVL221
 5467 0bc2 D2080000 		.4byte	0x8d2
 5468 0bc6 D10B0000 		.4byte	0xbd1
 5469 0bca 1C       		.uleb128 0x1c
 5470 0bcb 01       		.uleb128 0x1
 5471 0bcc 50       		.byte	0x50
 5472 0bcd 02       		.uleb128 0x2
 5473 0bce 74       		.byte	0x74
 5474 0bcf 00       		.sleb128 0
 5475 0bd0 00       		.byte	0
 5476 0bd1 1D       		.uleb128 0x1d
 5477 0bd2 BE000000 		.4byte	.LVL237
 5478 0bd6 46090000 		.4byte	0x946
 5479 0bda F60B0000 		.4byte	0xbf6
 5480 0bde 1C       		.uleb128 0x1c
ARM GAS  C:\Users\YUANFA~1\AppData\Local\Temp\ccYDlzYT.s 			page 167


 5481 0bdf 01       		.uleb128 0x1
 5482 0be0 50       		.byte	0x50
 5483 0be1 02       		.uleb128 0x2
 5484 0be2 74       		.byte	0x74
 5485 0be3 00       		.sleb128 0
 5486 0be4 1C       		.uleb128 0x1c
 5487 0be5 01       		.uleb128 0x1
 5488 0be6 51       		.byte	0x51
 5489 0be7 02       		.uleb128 0x2
 5490 0be8 78       		.byte	0x78
 5491 0be9 00       		.sleb128 0
 5492 0bea 1C       		.uleb128 0x1c
 5493 0beb 01       		.uleb128 0x1
 5494 0bec 52       		.byte	0x52
 5495 0bed 02       		.uleb128 0x2
 5496 0bee 77       		.byte	0x77
 5497 0bef 00       		.sleb128 0
 5498 0bf0 1C       		.uleb128 0x1c
 5499 0bf1 01       		.uleb128 0x1
 5500 0bf2 53       		.byte	0x53
 5501 0bf3 01       		.uleb128 0x1
 5502 0bf4 32       		.byte	0x32
 5503 0bf5 00       		.byte	0
 5504 0bf6 1B       		.uleb128 0x1b
 5505 0bf7 CA000000 		.4byte	.LVL238
 5506 0bfb 100A0000 		.4byte	0xa10
 5507 0bff 1C       		.uleb128 0x1c
 5508 0c00 01       		.uleb128 0x1
 5509 0c01 50       		.byte	0x50
 5510 0c02 02       		.uleb128 0x2
 5511 0c03 74       		.byte	0x74
 5512 0c04 00       		.sleb128 0
 5513 0c05 1C       		.uleb128 0x1c
 5514 0c06 01       		.uleb128 0x1
 5515 0c07 51       		.byte	0x51
 5516 0c08 03       		.uleb128 0x3
 5517 0c09 91       		.byte	0x91
 5518 0c0a 5C       		.sleb128 -36
 5519 0c0b 06       		.byte	0x6
 5520 0c0c 00       		.byte	0
 5521 0c0d 00       		.byte	0
 5522 0c0e 16       		.uleb128 0x16
 5523 0c0f 00070000 		.4byte	.LASF96
 5524 0c13 01       		.byte	0x1
 5525 0c14 070B     		.2byte	0xb07
 5526 0c16 DE000000 		.4byte	0xde
 5527 0c1a 00000000 		.4byte	.LFB31
 5528 0c1e 20000000 		.4byte	.LFE31-.LFB31
 5529 0c22 01       		.uleb128 0x1
 5530 0c23 9C       		.byte	0x9c
 5531 0c24 760C0000 		.4byte	0xc76
 5532 0c28 13       		.uleb128 0x13
 5533 0c29 90070000 		.4byte	.LASF71
 5534 0c2d 01       		.byte	0x1
 5535 0c2e 070B     		.2byte	0xb07
 5536 0c30 6B000000 		.4byte	0x6b
 5537 0c34 F10E0000 		.4byte	.LLST85
ARM GAS  C:\Users\YUANFA~1\AppData\Local\Temp\ccYDlzYT.s 			page 168


 5538 0c38 13       		.uleb128 0x13
 5539 0c39 FC040000 		.4byte	.LASF97
 5540 0c3d 01       		.byte	0x1
 5541 0c3e 070B     		.2byte	0xb07
 5542 0c40 DE000000 		.4byte	0xde
 5543 0c44 120F0000 		.4byte	.LLST86
 5544 0c48 18       		.uleb128 0x18
 5545 0c49 4F030000 		.4byte	.LASF98
 5546 0c4d 01       		.byte	0x1
 5547 0c4e 090B     		.2byte	0xb09
 5548 0c50 DE000000 		.4byte	0xde
 5549 0c54 01       		.uleb128 0x1
 5550 0c55 50       		.byte	0x50
 5551 0c56 1F       		.uleb128 0x1f
 5552 0c57 82080000 		.4byte	.LASF99
 5553 0c5b 01       		.byte	0x1
 5554 0c5c 0A0B     		.2byte	0xb0a
 5555 0c5e 760C0000 		.4byte	0xc76
 5556 0c62 00000020 		.4byte	0x20000000
 5557 0c66 1B       		.uleb128 0x1b
 5558 0c67 10000000 		.4byte	.LVL262
 5559 0c6b CD070000 		.4byte	0x7cd
 5560 0c6f 1C       		.uleb128 0x1c
 5561 0c70 01       		.uleb128 0x1
 5562 0c71 50       		.byte	0x50
 5563 0c72 01       		.uleb128 0x1
 5564 0c73 30       		.byte	0x30
 5565 0c74 00       		.byte	0
 5566 0c75 00       		.byte	0
 5567 0c76 06       		.uleb128 0x6
 5568 0c77 04       		.byte	0x4
 5569 0c78 DE000000 		.4byte	0xde
 5570 0c7c 16       		.uleb128 0x16
 5571 0c7d 47050000 		.4byte	.LASF100
 5572 0c81 01       		.byte	0x1
 5573 0c82 290B     		.2byte	0xb29
 5574 0c84 DE000000 		.4byte	0xde
 5575 0c88 00000000 		.4byte	.LFB32
 5576 0c8c 1C000000 		.4byte	.LFE32-.LFB32
 5577 0c90 01       		.uleb128 0x1
 5578 0c91 9C       		.byte	0x9c
 5579 0c92 C60C0000 		.4byte	0xcc6
 5580 0c96 13       		.uleb128 0x13
 5581 0c97 90070000 		.4byte	.LASF71
 5582 0c9b 01       		.byte	0x1
 5583 0c9c 290B     		.2byte	0xb29
 5584 0c9e 6B000000 		.4byte	0x6b
 5585 0ca2 3E0F0000 		.4byte	.LLST87
 5586 0ca6 1F       		.uleb128 0x1f
 5587 0ca7 82080000 		.4byte	.LASF99
 5588 0cab 01       		.byte	0x1
 5589 0cac 2B0B     		.2byte	0xb2b
 5590 0cae 760C0000 		.4byte	0xc76
 5591 0cb2 00000020 		.4byte	0x20000000
 5592 0cb6 1B       		.uleb128 0x1b
 5593 0cb7 0E000000 		.4byte	.LVL268
 5594 0cbb CD070000 		.4byte	0x7cd
ARM GAS  C:\Users\YUANFA~1\AppData\Local\Temp\ccYDlzYT.s 			page 169


 5595 0cbf 1C       		.uleb128 0x1c
 5596 0cc0 01       		.uleb128 0x1
 5597 0cc1 50       		.byte	0x50
 5598 0cc2 01       		.uleb128 0x1
 5599 0cc3 30       		.byte	0x30
 5600 0cc4 00       		.byte	0
 5601 0cc5 00       		.byte	0
 5602 0cc6 16       		.uleb128 0x16
 5603 0cc7 23040000 		.4byte	.LASF101
 5604 0ccb 01       		.byte	0x1
 5605 0ccc 3F0B     		.2byte	0xb3f
 5606 0cce DE000000 		.4byte	0xde
 5607 0cd2 00000000 		.4byte	.LFB33
 5608 0cd6 22000000 		.4byte	.LFE33-.LFB33
 5609 0cda 01       		.uleb128 0x1
 5610 0cdb 9C       		.byte	0x9c
 5611 0cdc 2E0D0000 		.4byte	0xd2e
 5612 0ce0 13       		.uleb128 0x13
 5613 0ce1 90070000 		.4byte	.LASF71
 5614 0ce5 01       		.byte	0x1
 5615 0ce6 3F0B     		.2byte	0xb3f
 5616 0ce8 6B000000 		.4byte	0x6b
 5617 0cec 5F0F0000 		.4byte	.LLST88
 5618 0cf0 13       		.uleb128 0x13
 5619 0cf1 FC040000 		.4byte	.LASF97
 5620 0cf5 01       		.byte	0x1
 5621 0cf6 3F0B     		.2byte	0xb3f
 5622 0cf8 DE000000 		.4byte	0xde
 5623 0cfc 800F0000 		.4byte	.LLST89
 5624 0d00 18       		.uleb128 0x18
 5625 0d01 4F030000 		.4byte	.LASF98
 5626 0d05 01       		.byte	0x1
 5627 0d06 410B     		.2byte	0xb41
 5628 0d08 DE000000 		.4byte	0xde
 5629 0d0c 01       		.uleb128 0x1
 5630 0d0d 50       		.byte	0x50
 5631 0d0e 1F       		.uleb128 0x1f
 5632 0d0f 82080000 		.4byte	.LASF99
 5633 0d13 01       		.byte	0x1
 5634 0d14 420B     		.2byte	0xb42
 5635 0d16 760C0000 		.4byte	0xc76
 5636 0d1a 00000020 		.4byte	0x20000000
 5637 0d1e 1B       		.uleb128 0x1b
 5638 0d1f 10000000 		.4byte	.LVL272
 5639 0d23 CD070000 		.4byte	0x7cd
 5640 0d27 1C       		.uleb128 0x1c
 5641 0d28 01       		.uleb128 0x1
 5642 0d29 50       		.byte	0x50
 5643 0d2a 01       		.uleb128 0x1
 5644 0d2b 30       		.byte	0x30
 5645 0d2c 00       		.byte	0
 5646 0d2d 00       		.byte	0
 5647 0d2e 16       		.uleb128 0x16
 5648 0d2f 08000000 		.4byte	.LASF102
 5649 0d33 01       		.byte	0x1
 5650 0d34 5B0B     		.2byte	0xb5b
 5651 0d36 DE000000 		.4byte	0xde
ARM GAS  C:\Users\YUANFA~1\AppData\Local\Temp\ccYDlzYT.s 			page 170


 5652 0d3a 00000000 		.4byte	.LFB34
 5653 0d3e 1E000000 		.4byte	.LFE34-.LFB34
 5654 0d42 01       		.uleb128 0x1
 5655 0d43 9C       		.byte	0x9c
 5656 0d44 780D0000 		.4byte	0xd78
 5657 0d48 13       		.uleb128 0x13
 5658 0d49 90070000 		.4byte	.LASF71
 5659 0d4d 01       		.byte	0x1
 5660 0d4e 5B0B     		.2byte	0xb5b
 5661 0d50 6B000000 		.4byte	0x6b
 5662 0d54 AC0F0000 		.4byte	.LLST90
 5663 0d58 1F       		.uleb128 0x1f
 5664 0d59 82080000 		.4byte	.LASF99
 5665 0d5d 01       		.byte	0x1
 5666 0d5e 5D0B     		.2byte	0xb5d
 5667 0d60 760C0000 		.4byte	0xc76
 5668 0d64 00000020 		.4byte	0x20000000
 5669 0d68 1B       		.uleb128 0x1b
 5670 0d69 0E000000 		.4byte	.LVL278
 5671 0d6d CD070000 		.4byte	0x7cd
 5672 0d71 1C       		.uleb128 0x1c
 5673 0d72 01       		.uleb128 0x1
 5674 0d73 50       		.byte	0x50
 5675 0d74 01       		.uleb128 0x1
 5676 0d75 30       		.byte	0x30
 5677 0d76 00       		.byte	0
 5678 0d77 00       		.byte	0
 5679 0d78 0E       		.uleb128 0xe
 5680 0d79 2E000000 		.4byte	.LASF103
 5681 0d7d 01       		.byte	0x1
 5682 0d7e 6E0B     		.2byte	0xb6e
 5683 0d80 00000000 		.4byte	.LFB35
 5684 0d84 4C000000 		.4byte	.LFE35-.LFB35
 5685 0d88 01       		.uleb128 0x1
 5686 0d89 9C       		.byte	0x9c
 5687 0d8a 170E0000 		.4byte	0xe17
 5688 0d8e 13       		.uleb128 0x13
 5689 0d8f 90070000 		.4byte	.LASF71
 5690 0d93 01       		.byte	0x1
 5691 0d94 6E0B     		.2byte	0xb6e
 5692 0d96 6B000000 		.4byte	0x6b
 5693 0d9a CD0F0000 		.4byte	.LLST91
 5694 0d9e 13       		.uleb128 0x13
 5695 0d9f 12070000 		.4byte	.LASF104
 5696 0da3 01       		.byte	0x1
 5697 0da4 6E0B     		.2byte	0xb6e
 5698 0da6 6B000000 		.4byte	0x6b
 5699 0daa EE0F0000 		.4byte	.LLST92
 5700 0dae 0F       		.uleb128 0xf
 5701 0daf 1B010000 		.4byte	.LASF32
 5702 0db3 01       		.byte	0x1
 5703 0db4 700B     		.2byte	0xb70
 5704 0db6 6B000000 		.4byte	0x6b
 5705 0dba 0F100000 		.4byte	.LLST93
 5706 0dbe 0F       		.uleb128 0xf
 5707 0dbf DD010000 		.4byte	.LASF105
 5708 0dc3 01       		.byte	0x1
ARM GAS  C:\Users\YUANFA~1\AppData\Local\Temp\ccYDlzYT.s 			page 171


 5709 0dc4 710B     		.2byte	0xb71
 5710 0dc6 83000000 		.4byte	0x83
 5711 0dca 22100000 		.4byte	.LLST94
 5712 0dce 0F       		.uleb128 0xf
 5713 0dcf E3020000 		.4byte	.LASF106
 5714 0dd3 01       		.byte	0x1
 5715 0dd4 720B     		.2byte	0xb72
 5716 0dd6 83000000 		.4byte	0x83
 5717 0dda 35100000 		.4byte	.LLST95
 5718 0dde 1D       		.uleb128 0x1d
 5719 0ddf 10000000 		.4byte	.LVL281
 5720 0de3 CD070000 		.4byte	0x7cd
 5721 0de7 F10D0000 		.4byte	0xdf1
 5722 0deb 1C       		.uleb128 0x1c
 5723 0dec 01       		.uleb128 0x1
 5724 0ded 50       		.byte	0x50
 5725 0dee 01       		.uleb128 0x1
 5726 0def 30       		.byte	0x30
 5727 0df0 00       		.byte	0
 5728 0df1 1D       		.uleb128 0x1d
 5729 0df2 1A000000 		.4byte	.LVL282
 5730 0df6 CD070000 		.4byte	0x7cd
 5731 0dfa 040E0000 		.4byte	0xe04
 5732 0dfe 1C       		.uleb128 0x1c
 5733 0dff 01       		.uleb128 0x1
 5734 0e00 50       		.byte	0x50
 5735 0e01 01       		.uleb128 0x1
 5736 0e02 30       		.byte	0x30
 5737 0e03 00       		.byte	0
 5738 0e04 11       		.uleb128 0x11
 5739 0e05 26000000 		.4byte	.LVL284
 5740 0e09 B2150000 		.4byte	0x15b2
 5741 0e0d 11       		.uleb128 0x11
 5742 0e0e 46000000 		.4byte	.LVL290
 5743 0e12 BD150000 		.4byte	0x15bd
 5744 0e16 00       		.byte	0
 5745 0e17 16       		.uleb128 0x16
 5746 0e18 5A000000 		.4byte	.LASF107
 5747 0e1c 01       		.byte	0x1
 5748 0e1d 900B     		.2byte	0xb90
 5749 0e1f 6B000000 		.4byte	0x6b
 5750 0e23 00000000 		.4byte	.LFB36
 5751 0e27 2C000000 		.4byte	.LFE36-.LFB36
 5752 0e2b 01       		.uleb128 0x1
 5753 0e2c 9C       		.byte	0x9c
 5754 0e2d 610E0000 		.4byte	0xe61
 5755 0e31 13       		.uleb128 0x13
 5756 0e32 90070000 		.4byte	.LASF71
 5757 0e36 01       		.byte	0x1
 5758 0e37 900B     		.2byte	0xb90
 5759 0e39 6B000000 		.4byte	0x6b
 5760 0e3d 69100000 		.4byte	.LLST96
 5761 0e41 0F       		.uleb128 0xf
 5762 0e42 12070000 		.4byte	.LASF104
 5763 0e46 01       		.byte	0x1
 5764 0e47 920B     		.2byte	0xb92
 5765 0e49 6B000000 		.4byte	0x6b
ARM GAS  C:\Users\YUANFA~1\AppData\Local\Temp\ccYDlzYT.s 			page 172


 5766 0e4d 8A100000 		.4byte	.LLST97
 5767 0e51 1B       		.uleb128 0x1b
 5768 0e52 0E000000 		.4byte	.LVL294
 5769 0e56 CD070000 		.4byte	0x7cd
 5770 0e5a 1C       		.uleb128 0x1c
 5771 0e5b 01       		.uleb128 0x1
 5772 0e5c 50       		.byte	0x50
 5773 0e5d 01       		.uleb128 0x1
 5774 0e5e 30       		.byte	0x30
 5775 0e5f 00       		.byte	0
 5776 0e60 00       		.byte	0
 5777 0e61 17       		.uleb128 0x17
 5778 0e62 42080000 		.4byte	.LASF108
 5779 0e66 01       		.byte	0x1
 5780 0e67 0B0C     		.2byte	0xc0b
 5781 0e69 00000000 		.4byte	.LFB43
 5782 0e6d 18000000 		.4byte	.LFE43-.LFB43
 5783 0e71 01       		.uleb128 0x1
 5784 0e72 9C       		.byte	0x9c
 5785 0e73 0E       		.uleb128 0xe
 5786 0e74 26000000 		.4byte	.LASF109
 5787 0e78 01       		.byte	0x1
 5788 0e79 1F0C     		.2byte	0xc1f
 5789 0e7b 00000000 		.4byte	.LFB44
 5790 0e7f 30000000 		.4byte	.LFE44-.LFB44
 5791 0e83 01       		.uleb128 0x1
 5792 0e84 9C       		.byte	0x9c
 5793 0e85 AC0E0000 		.4byte	0xeac
 5794 0e89 13       		.uleb128 0x13
 5795 0e8a 89000000 		.4byte	.LASF110
 5796 0e8e 01       		.byte	0x1
 5797 0e8f 1F0C     		.2byte	0xc1f
 5798 0e91 83000000 		.4byte	0x83
 5799 0e95 9D100000 		.4byte	.LLST98
 5800 0e99 11       		.uleb128 0x11
 5801 0e9a 0E000000 		.4byte	.LVL299
 5802 0e9e C8150000 		.4byte	0x15c8
 5803 0ea2 11       		.uleb128 0x11
 5804 0ea3 26000000 		.4byte	.LVL301
 5805 0ea7 C8150000 		.4byte	0x15c8
 5806 0eab 00       		.byte	0
 5807 0eac 10       		.uleb128 0x10
 5808 0ead E3040000 		.4byte	.LASF111
 5809 0eb1 01       		.byte	0x1
 5810 0eb2 AE       		.byte	0xae
 5811 0eb3 00000000 		.4byte	.LFB3
 5812 0eb7 D0000000 		.4byte	.LFE3-.LFB3
 5813 0ebb 01       		.uleb128 0x1
 5814 0ebc 9C       		.byte	0x9c
 5815 0ebd 680F0000 		.4byte	0xf68
 5816 0ec1 20       		.uleb128 0x20
 5817 0ec2 85030000 		.4byte	.LASF31
 5818 0ec6 01       		.byte	0x1
 5819 0ec7 B4       		.byte	0xb4
 5820 0ec8 83000000 		.4byte	0x83
 5821 0ecc BB100000 		.4byte	.LLST99
 5822 0ed0 20       		.uleb128 0x20
ARM GAS  C:\Users\YUANFA~1\AppData\Local\Temp\ccYDlzYT.s 			page 173


 5823 0ed1 1B010000 		.4byte	.LASF32
 5824 0ed5 01       		.byte	0x1
 5825 0ed6 B5       		.byte	0xb5
 5826 0ed7 6B000000 		.4byte	0x6b
 5827 0edb CE100000 		.4byte	.LLST100
 5828 0edf 20       		.uleb128 0x20
 5829 0ee0 DC020000 		.4byte	.LASF52
 5830 0ee4 01       		.byte	0x1
 5831 0ee5 B6       		.byte	0xb6
 5832 0ee6 83000000 		.4byte	0x83
 5833 0eea E1100000 		.4byte	.LLST101
 5834 0eee 20       		.uleb128 0x20
 5835 0eef 97070000 		.4byte	.LASF112
 5836 0ef3 01       		.byte	0x1
 5837 0ef4 B7       		.byte	0xb7
 5838 0ef5 83000000 		.4byte	0x83
 5839 0ef9 0B110000 		.4byte	.LLST102
 5840 0efd 21       		.uleb128 0x21
 5841 0efe DE030000 		.4byte	.LASF113
 5842 0f02 01       		.byte	0x1
 5843 0f03 B8       		.byte	0xb8
 5844 0f04 D9000000 		.4byte	0xd9
 5845 0f08 02       		.uleb128 0x2
 5846 0f09 91       		.byte	0x91
 5847 0f0a 6C       		.sleb128 -20
 5848 0f0b 11       		.uleb128 0x11
 5849 0f0c 08000000 		.4byte	.LVL304
 5850 0f10 D3150000 		.4byte	0x15d3
 5851 0f14 11       		.uleb128 0x11
 5852 0f15 10000000 		.4byte	.LVL305
 5853 0f19 B2150000 		.4byte	0x15b2
 5854 0f1d 1D       		.uleb128 0x1d
 5855 0f1e 62000000 		.4byte	.LVL314
 5856 0f22 DE150000 		.4byte	0x15de
 5857 0f26 310F0000 		.4byte	0xf31
 5858 0f2a 1C       		.uleb128 0x1c
 5859 0f2b 01       		.uleb128 0x1
 5860 0f2c 50       		.byte	0x50
 5861 0f2d 02       		.uleb128 0x2
 5862 0f2e 08       		.byte	0x8
 5863 0f2f 30       		.byte	0x30
 5864 0f30 00       		.byte	0
 5865 0f31 1D       		.uleb128 0x1d
 5866 0f32 7E000000 		.4byte	.LVL317
 5867 0f36 730E0000 		.4byte	0xe73
 5868 0f3a 440F0000 		.4byte	0xf44
 5869 0f3e 1C       		.uleb128 0x1c
 5870 0f3f 01       		.uleb128 0x1
 5871 0f40 50       		.byte	0x50
 5872 0f41 01       		.uleb128 0x1
 5873 0f42 31       		.byte	0x31
 5874 0f43 00       		.byte	0
 5875 0f44 1D       		.uleb128 0x1d
 5876 0f45 92000000 		.4byte	.LVL320
 5877 0f49 730E0000 		.4byte	0xe73
 5878 0f4d 570F0000 		.4byte	0xf57
 5879 0f51 1C       		.uleb128 0x1c
ARM GAS  C:\Users\YUANFA~1\AppData\Local\Temp\ccYDlzYT.s 			page 174


 5880 0f52 01       		.uleb128 0x1
 5881 0f53 50       		.byte	0x50
 5882 0f54 01       		.uleb128 0x1
 5883 0f55 31       		.byte	0x31
 5884 0f56 00       		.byte	0
 5885 0f57 1B       		.uleb128 0x1b
 5886 0f58 A8000000 		.4byte	.LVL322
 5887 0f5c BD150000 		.4byte	0x15bd
 5888 0f60 1C       		.uleb128 0x1c
 5889 0f61 01       		.uleb128 0x1
 5890 0f62 50       		.byte	0x50
 5891 0f63 02       		.uleb128 0x2
 5892 0f64 75       		.byte	0x75
 5893 0f65 00       		.sleb128 0
 5894 0f66 00       		.byte	0
 5895 0f67 00       		.byte	0
 5896 0f68 0E       		.uleb128 0xe
 5897 0f69 99090000 		.4byte	.LASF114
 5898 0f6d 01       		.byte	0x1
 5899 0f6e EA03     		.2byte	0x3ea
 5900 0f70 00000000 		.4byte	.LFB10
 5901 0f74 D8000000 		.4byte	.LFE10-.LFB10
 5902 0f78 01       		.uleb128 0x1
 5903 0f79 9C       		.byte	0x9c
 5904 0f7a 30100000 		.4byte	0x1030
 5905 0f7e 13       		.uleb128 0x13
 5906 0f7f 85030000 		.4byte	.LASF31
 5907 0f83 01       		.byte	0x1
 5908 0f84 EA03     		.2byte	0x3ea
 5909 0f86 83000000 		.4byte	0x83
 5910 0f8a 2A110000 		.4byte	.LLST103
 5911 0f8e 0F       		.uleb128 0xf
 5912 0f8f 1B010000 		.4byte	.LASF32
 5913 0f93 01       		.byte	0x1
 5914 0f94 EC03     		.2byte	0x3ec
 5915 0f96 6B000000 		.4byte	0x6b
 5916 0f9a 7A110000 		.4byte	.LLST104
 5917 0f9e 0F       		.uleb128 0xf
 5918 0f9f 96000000 		.4byte	.LASF115
 5919 0fa3 01       		.byte	0x1
 5920 0fa4 ED03     		.2byte	0x3ed
 5921 0fa6 6B000000 		.4byte	0x6b
 5922 0faa 8E110000 		.4byte	.LLST105
 5923 0fae 0F       		.uleb128 0xf
 5924 0faf 4A060000 		.4byte	.LASF116
 5925 0fb3 01       		.byte	0x1
 5926 0fb4 F003     		.2byte	0x3f0
 5927 0fb6 83000000 		.4byte	0x83
 5928 0fba B2110000 		.4byte	.LLST106
 5929 0fbe 11       		.uleb128 0x11
 5930 0fbf 26000000 		.4byte	.LVL325
 5931 0fc3 B2150000 		.4byte	0x15b2
 5932 0fc7 11       		.uleb128 0x11
 5933 0fc8 2C000000 		.4byte	.LVL327
 5934 0fcc D2010000 		.4byte	0x1d2
 5935 0fd0 11       		.uleb128 0x11
 5936 0fd1 34000000 		.4byte	.LVL329
ARM GAS  C:\Users\YUANFA~1\AppData\Local\Temp\ccYDlzYT.s 			page 175


 5937 0fd5 8C010000 		.4byte	0x18c
 5938 0fd9 1D       		.uleb128 0x1d
 5939 0fda 74000000 		.4byte	.LVL336
 5940 0fde C8150000 		.4byte	0x15c8
 5941 0fe2 ED0F0000 		.4byte	0xfed
 5942 0fe6 1C       		.uleb128 0x1c
 5943 0fe7 01       		.uleb128 0x1
 5944 0fe8 50       		.byte	0x50
 5945 0fe9 02       		.uleb128 0x2
 5946 0fea 08       		.byte	0x8
 5947 0feb 32       		.byte	0x32
 5948 0fec 00       		.byte	0
 5949 0fed 1D       		.uleb128 0x1d
 5950 0fee 94000000 		.4byte	.LVL337
 5951 0ff2 C8150000 		.4byte	0x15c8
 5952 0ff6 01100000 		.4byte	0x1001
 5953 0ffa 1C       		.uleb128 0x1c
 5954 0ffb 01       		.uleb128 0x1
 5955 0ffc 50       		.byte	0x50
 5956 0ffd 02       		.uleb128 0x2
 5957 0ffe 08       		.byte	0x8
 5958 0fff 32       		.byte	0x32
 5959 1000 00       		.byte	0
 5960 1001 11       		.uleb128 0x11
 5961 1002 AE000000 		.4byte	.LVL339
 5962 1006 AC0E0000 		.4byte	0xeac
 5963 100a 1D       		.uleb128 0x1d
 5964 100b B4000000 		.4byte	.LVL340
 5965 100f BD150000 		.4byte	0x15bd
 5966 1013 20100000 		.4byte	0x1020
 5967 1017 1C       		.uleb128 0x1c
 5968 1018 01       		.uleb128 0x1
 5969 1019 50       		.byte	0x50
 5970 101a 04       		.uleb128 0x4
 5971 101b 91       		.byte	0x91
 5972 101c 64       		.sleb128 -28
 5973 101d 94       		.byte	0x94
 5974 101e 01       		.byte	0x1
 5975 101f 00       		.byte	0
 5976 1020 1B       		.uleb128 0x1b
 5977 1021 BC000000 		.4byte	.LVL343
 5978 1025 CD070000 		.4byte	0x7cd
 5979 1029 1C       		.uleb128 0x1c
 5980 102a 01       		.uleb128 0x1
 5981 102b 50       		.byte	0x50
 5982 102c 01       		.uleb128 0x1
 5983 102d 30       		.byte	0x30
 5984 102e 00       		.byte	0
 5985 102f 00       		.byte	0
 5986 1030 0E       		.uleb128 0xe
 5987 1031 A6020000 		.4byte	.LASF117
 5988 1035 01       		.byte	0x1
 5989 1036 360C     		.2byte	0xc36
 5990 1038 00000000 		.4byte	.LFB45
 5991 103c 14000000 		.4byte	.LFE45-.LFB45
 5992 1040 01       		.uleb128 0x1
 5993 1041 9C       		.byte	0x9c
ARM GAS  C:\Users\YUANFA~1\AppData\Local\Temp\ccYDlzYT.s 			page 176


 5994 1042 60100000 		.4byte	0x1060
 5995 1046 13       		.uleb128 0x13
 5996 1047 C6080000 		.4byte	.LASF118
 5997 104b 01       		.byte	0x1
 5998 104c 360C     		.2byte	0xc36
 5999 104e 77000000 		.4byte	0x77
 6000 1052 F5110000 		.4byte	.LLST107
 6001 1056 11       		.uleb128 0x11
 6002 1057 0C000000 		.4byte	.LVL346
 6003 105b C8150000 		.4byte	0x15c8
 6004 105f 00       		.byte	0
 6005 1060 16       		.uleb128 0x16
 6006 1061 AB050000 		.4byte	.LASF119
 6007 1065 01       		.byte	0x1
 6008 1066 B104     		.2byte	0x4b1
 6009 1068 B0000000 		.4byte	0xb0
 6010 106c 00000000 		.4byte	.LFB12
 6011 1070 48000000 		.4byte	.LFE12-.LFB12
 6012 1074 01       		.uleb128 0x1
 6013 1075 9C       		.byte	0x9c
 6014 1076 CA100000 		.4byte	0x10ca
 6015 107a 13       		.uleb128 0x13
 6016 107b 5B080000 		.4byte	.LASF120
 6017 107f 01       		.byte	0x1
 6018 1080 B104     		.2byte	0x4b1
 6019 1082 83000000 		.4byte	0x83
 6020 1086 16120000 		.4byte	.LLST108
 6021 108a 0F       		.uleb128 0xf
 6022 108b A4000000 		.4byte	.LASF56
 6023 108f 01       		.byte	0x1
 6024 1090 B304     		.2byte	0x4b3
 6025 1092 B0000000 		.4byte	0xb0
 6026 1096 34120000 		.4byte	.LLST109
 6027 109a 1D       		.uleb128 0x1d
 6028 109b 16000000 		.4byte	.LVL350
 6029 109f 30100000 		.4byte	0x1030
 6030 10a3 AD100000 		.4byte	0x10ad
 6031 10a7 1C       		.uleb128 0x1c
 6032 10a8 01       		.uleb128 0x1
 6033 10a9 50       		.byte	0x50
 6034 10aa 01       		.uleb128 0x1
 6035 10ab 3A       		.byte	0x3a
 6036 10ac 00       		.byte	0
 6037 10ad 1D       		.uleb128 0x1d
 6038 10ae 2C000000 		.4byte	.LVL351
 6039 10b2 30100000 		.4byte	0x1030
 6040 10b6 C0100000 		.4byte	0x10c0
 6041 10ba 1C       		.uleb128 0x1c
 6042 10bb 01       		.uleb128 0x1
 6043 10bc 50       		.byte	0x50
 6044 10bd 01       		.uleb128 0x1
 6045 10be 31       		.byte	0x31
 6046 10bf 00       		.byte	0
 6047 10c0 11       		.uleb128 0x11
 6048 10c1 30000000 		.4byte	.LVL352
 6049 10c5 65030000 		.4byte	0x365
 6050 10c9 00       		.byte	0
ARM GAS  C:\Users\YUANFA~1\AppData\Local\Temp\ccYDlzYT.s 			page 177


 6051 10ca 16       		.uleb128 0x16
 6052 10cb E6080000 		.4byte	.LASF121
 6053 10cf 01       		.byte	0x1
 6054 10d0 B806     		.2byte	0x6b8
 6055 10d2 B0000000 		.4byte	0xb0
 6056 10d6 00000000 		.4byte	.LFB17
 6057 10da 9C000000 		.4byte	.LFE17-.LFB17
 6058 10de 01       		.uleb128 0x1
 6059 10df 9C       		.byte	0x9c
 6060 10e0 A3110000 		.4byte	0x11a3
 6061 10e4 1A       		.uleb128 0x1a
 6062 10e5 706C6C00 		.ascii	"pll\000"
 6063 10e9 01       		.byte	0x1
 6064 10ea B806     		.2byte	0x6b8
 6065 10ec 83000000 		.4byte	0x83
 6066 10f0 53120000 		.4byte	.LLST110
 6067 10f4 13       		.uleb128 0x13
 6068 10f5 28060000 		.4byte	.LASF122
 6069 10f9 01       		.byte	0x1
 6070 10fa B806     		.2byte	0x6b8
 6071 10fc 83000000 		.4byte	0x83
 6072 1100 AB120000 		.4byte	.LLST111
 6073 1104 0F       		.uleb128 0xf
 6074 1105 7E030000 		.4byte	.LASF123
 6075 1109 01       		.byte	0x1
 6076 110a BA06     		.2byte	0x6ba
 6077 110c 83000000 		.4byte	0x83
 6078 1110 09130000 		.4byte	.LLST112
 6079 1114 0F       		.uleb128 0xf
 6080 1115 1B010000 		.4byte	.LASF32
 6081 1119 01       		.byte	0x1
 6082 111a BB06     		.2byte	0x6bb
 6083 111c 6B000000 		.4byte	0x6b
 6084 1120 4E130000 		.4byte	.LLST113
 6085 1124 0F       		.uleb128 0xf
 6086 1125 A4000000 		.4byte	.LASF56
 6087 1129 01       		.byte	0x1
 6088 112a BC06     		.2byte	0x6bc
 6089 112c B0000000 		.4byte	0xb0
 6090 1130 6C130000 		.4byte	.LLST114
 6091 1134 11       		.uleb128 0x11
 6092 1135 12000000 		.4byte	.LVL358
 6093 1139 B2150000 		.4byte	0x15b2
 6094 113d 11       		.uleb128 0x11
 6095 113e 3A000000 		.4byte	.LVL359
 6096 1142 BD150000 		.4byte	0x15bd
 6097 1146 1D       		.uleb128 0x1d
 6098 1147 40000000 		.4byte	.LVL360
 6099 114b 30100000 		.4byte	0x1030
 6100 114f 59110000 		.4byte	0x1159
 6101 1153 1C       		.uleb128 0x1c
 6102 1154 01       		.uleb128 0x1
 6103 1155 50       		.byte	0x50
 6104 1156 01       		.uleb128 0x1
 6105 1157 35       		.byte	0x35
 6106 1158 00       		.byte	0
 6107 1159 11       		.uleb128 0x11
ARM GAS  C:\Users\YUANFA~1\AppData\Local\Temp\ccYDlzYT.s 			page 178


 6108 115a 44000000 		.4byte	.LVL361
 6109 115e B2150000 		.4byte	0x15b2
 6110 1162 11       		.uleb128 0x11
 6111 1163 5A000000 		.4byte	.LVL362
 6112 1167 BD150000 		.4byte	0x15bd
 6113 116b 1D       		.uleb128 0x1d
 6114 116c 68000000 		.4byte	.LVL364
 6115 1170 F2070000 		.4byte	0x7f2
 6116 1174 7F110000 		.4byte	0x117f
 6117 1178 1C       		.uleb128 0x1c
 6118 1179 01       		.uleb128 0x1
 6119 117a 50       		.byte	0x50
 6120 117b 02       		.uleb128 0x2
 6121 117c 74       		.byte	0x74
 6122 117d 00       		.sleb128 0
 6123 117e 00       		.byte	0
 6124 117f 1D       		.uleb128 0x1d
 6125 1180 72000000 		.4byte	.LVL365
 6126 1184 BB050000 		.4byte	0x5bb
 6127 1188 93110000 		.4byte	0x1193
 6128 118c 1C       		.uleb128 0x1c
 6129 118d 01       		.uleb128 0x1
 6130 118e 50       		.byte	0x50
 6131 118f 02       		.uleb128 0x2
 6132 1190 74       		.byte	0x74
 6133 1191 00       		.sleb128 0
 6134 1192 00       		.byte	0
 6135 1193 1B       		.uleb128 0x1b
 6136 1194 7C000000 		.4byte	.LVL366
 6137 1198 30100000 		.4byte	0x1030
 6138 119c 1C       		.uleb128 0x1c
 6139 119d 01       		.uleb128 0x1
 6140 119e 50       		.byte	0x50
 6141 119f 01       		.uleb128 0x1
 6142 11a0 31       		.byte	0x31
 6143 11a1 00       		.byte	0
 6144 11a2 00       		.byte	0
 6145 11a3 22       		.uleb128 0x22
 6146 11a4 A5010000 		.4byte	.LASF124
 6147 11a8 01       		.byte	0x1
 6148 11a9 440C     		.2byte	0xc44
 6149 11ab 00000000 		.4byte	.LFB46
 6150 11af 4C000000 		.4byte	.LFE46-.LFB46
 6151 11b3 01       		.uleb128 0x1
 6152 11b4 9C       		.byte	0x9c
 6153 11b5 CA110000 		.4byte	0x11ca
 6154 11b9 13       		.uleb128 0x13
 6155 11ba 85030000 		.4byte	.LASF31
 6156 11be 01       		.byte	0x1
 6157 11bf 440C     		.2byte	0xc44
 6158 11c1 83000000 		.4byte	0x83
 6159 11c5 8B130000 		.4byte	.LLST115
 6160 11c9 00       		.byte	0
 6161 11ca 17       		.uleb128 0x17
 6162 11cb 06030000 		.4byte	.LASF125
 6163 11cf 01       		.byte	0x1
 6164 11d0 B00C     		.2byte	0xcb0
ARM GAS  C:\Users\YUANFA~1\AppData\Local\Temp\ccYDlzYT.s 			page 179


 6165 11d2 00000000 		.4byte	.LFB50
 6166 11d6 10000000 		.4byte	.LFE50-.LFB50
 6167 11da 01       		.uleb128 0x1
 6168 11db 9C       		.byte	0x9c
 6169 11dc 17       		.uleb128 0x17
 6170 11dd F7080000 		.4byte	.LASF126
 6171 11e1 01       		.byte	0x1
 6172 11e2 C00C     		.2byte	0xcc0
 6173 11e4 00000000 		.4byte	.LFB51
 6174 11e8 10000000 		.4byte	.LFE51-.LFB51
 6175 11ec 01       		.uleb128 0x1
 6176 11ed 9C       		.byte	0x9c
 6177 11ee 0E       		.uleb128 0xe
 6178 11ef 04050000 		.4byte	.LASF127
 6179 11f3 01       		.byte	0x1
 6180 11f4 9F0C     		.2byte	0xc9f
 6181 11f6 00000000 		.4byte	.LFB49
 6182 11fa 18000000 		.4byte	.LFE49-.LFB49
 6183 11fe 01       		.uleb128 0x1
 6184 11ff 9C       		.byte	0x9c
 6185 1200 0E120000 		.4byte	0x120e
 6186 1204 11       		.uleb128 0x11
 6187 1205 06000000 		.4byte	.LVL379
 6188 1209 DC110000 		.4byte	0x11dc
 6189 120d 00       		.byte	0
 6190 120e 17       		.uleb128 0x17
 6191 120f 4A070000 		.4byte	.LASF128
 6192 1213 01       		.byte	0x1
 6193 1214 D00C     		.2byte	0xcd0
 6194 1216 00000000 		.4byte	.LFB52
 6195 121a 10000000 		.4byte	.LFE52-.LFB52
 6196 121e 01       		.uleb128 0x1
 6197 121f 9C       		.byte	0x9c
 6198 1220 0E       		.uleb128 0xe
 6199 1221 AA060000 		.4byte	.LASF129
 6200 1225 01       		.byte	0x1
 6201 1226 E10C     		.2byte	0xce1
 6202 1228 00000000 		.4byte	.LFB53
 6203 122c 10000000 		.4byte	.LFE53-.LFB53
 6204 1230 01       		.uleb128 0x1
 6205 1231 9C       		.byte	0x9c
 6206 1232 47120000 		.4byte	0x1247
 6207 1236 13       		.uleb128 0x13
 6208 1237 E3020000 		.4byte	.LASF106
 6209 123b 01       		.byte	0x1
 6210 123c E10C     		.2byte	0xce1
 6211 123e 83000000 		.4byte	0x83
 6212 1242 AC130000 		.4byte	.LLST116
 6213 1246 00       		.byte	0
 6214 1247 12       		.uleb128 0x12
 6215 1248 7B020000 		.4byte	.LASF131
 6216 124c 01       		.byte	0x1
 6217 124d F10C     		.2byte	0xcf1
 6218 124f 83000000 		.4byte	0x83
 6219 1253 00000000 		.4byte	.LFB54
 6220 1257 10000000 		.4byte	.LFE54-.LFB54
 6221 125b 01       		.uleb128 0x1
ARM GAS  C:\Users\YUANFA~1\AppData\Local\Temp\ccYDlzYT.s 			page 180


 6222 125c 9C       		.byte	0x9c
 6223 125d 12       		.uleb128 0x12
 6224 125e 6C050000 		.4byte	.LASF132
 6225 1262 01       		.byte	0x1
 6226 1263 010D     		.2byte	0xd01
 6227 1265 83000000 		.4byte	0x83
 6228 1269 00000000 		.4byte	.LFB55
 6229 126d 10000000 		.4byte	.LFE55-.LFB55
 6230 1271 01       		.uleb128 0x1
 6231 1272 9C       		.byte	0x9c
 6232 1273 0E       		.uleb128 0xe
 6233 1274 10060000 		.4byte	.LASF133
 6234 1278 01       		.byte	0x1
 6235 1279 210D     		.2byte	0xd21
 6236 127b 00000000 		.4byte	.LFB56
 6237 127f 20000000 		.4byte	.LFE56-.LFB56
 6238 1283 01       		.uleb128 0x1
 6239 1284 9C       		.byte	0x9c
 6240 1285 98120000 		.4byte	0x1298
 6241 1289 15       		.uleb128 0x15
 6242 128a 72060000 		.4byte	.LASF134
 6243 128e 01       		.byte	0x1
 6244 128f 210D     		.2byte	0xd21
 6245 1291 83000000 		.4byte	0x83
 6246 1295 01       		.uleb128 0x1
 6247 1296 50       		.byte	0x50
 6248 1297 00       		.byte	0
 6249 1298 12       		.uleb128 0x12
 6250 1299 2A080000 		.4byte	.LASF135
 6251 129d 01       		.byte	0x1
 6252 129e 3A0D     		.2byte	0xd3a
 6253 12a0 83000000 		.4byte	0x83
 6254 12a4 00000000 		.4byte	.LFB57
 6255 12a8 10000000 		.4byte	.LFE57-.LFB57
 6256 12ac 01       		.uleb128 0x1
 6257 12ad 9C       		.byte	0x9c
 6258 12ae 12       		.uleb128 0x12
 6259 12af BA030000 		.4byte	.LASF136
 6260 12b3 01       		.byte	0x1
 6261 12b4 510D     		.2byte	0xd51
 6262 12b6 83000000 		.4byte	0x83
 6263 12ba 00000000 		.4byte	.LFB58
 6264 12be 10000000 		.4byte	.LFE58-.LFB58
 6265 12c2 01       		.uleb128 0x1
 6266 12c3 9C       		.byte	0x9c
 6267 12c4 23       		.uleb128 0x23
 6268 12c5 F1050000 		.4byte	.LASF166
 6269 12c9 01       		.byte	0x1
 6270 12ca A60D     		.2byte	0xda6
 6271 12cc 00000000 		.4byte	.LFB62
 6272 12d0 28000000 		.4byte	.LFE62-.LFB62
 6273 12d4 01       		.uleb128 0x1
 6274 12d5 9C       		.byte	0x9c
 6275 12d6 F2120000 		.4byte	0x12f2
 6276 12da 14       		.uleb128 0x14
 6277 12db 6900     		.ascii	"i\000"
 6278 12dd 01       		.byte	0x1
ARM GAS  C:\Users\YUANFA~1\AppData\Local\Temp\ccYDlzYT.s 			page 181


 6279 12de A80D     		.2byte	0xda8
 6280 12e0 83000000 		.4byte	0x83
 6281 12e4 CD130000 		.4byte	.LLST117
 6282 12e8 11       		.uleb128 0x11
 6283 12e9 06000000 		.4byte	.LVL383
 6284 12ed AE120000 		.4byte	0x12ae
 6285 12f1 00       		.byte	0
 6286 12f2 17       		.uleb128 0x17
 6287 12f3 17000000 		.4byte	.LASF137
 6288 12f7 01       		.byte	0x1
 6289 12f8 5E0D     		.2byte	0xd5e
 6290 12fa 00000000 		.4byte	.LFB59
 6291 12fe 0C000000 		.4byte	.LFE59-.LFB59
 6292 1302 01       		.uleb128 0x1
 6293 1303 9C       		.byte	0x9c
 6294 1304 22       		.uleb128 0x22
 6295 1305 A4070000 		.4byte	.LASF138
 6296 1309 01       		.byte	0x1
 6297 130a 810C     		.2byte	0xc81
 6298 130c 00000000 		.4byte	.LFB48
 6299 1310 44000000 		.4byte	.LFE48-.LFB48
 6300 1314 01       		.uleb128 0x1
 6301 1315 9C       		.byte	0x9c
 6302 1316 6A130000 		.4byte	0x136a
 6303 131a 14       		.uleb128 0x14
 6304 131b 6900     		.ascii	"i\000"
 6305 131d 01       		.byte	0x1
 6306 131e 830C     		.2byte	0xc83
 6307 1320 83000000 		.4byte	0x83
 6308 1324 EB130000 		.4byte	.LLST118
 6309 1328 1D       		.uleb128 0x1d
 6310 1329 1C000000 		.4byte	.LVL393
 6311 132d 0E0C0000 		.4byte	0xc0e
 6312 1331 44130000 		.4byte	0x1344
 6313 1335 1C       		.uleb128 0x1c
 6314 1336 01       		.uleb128 0x1
 6315 1337 50       		.byte	0x50
 6316 1338 01       		.uleb128 0x1
 6317 1339 3F       		.byte	0x3f
 6318 133a 1C       		.uleb128 0x1c
 6319 133b 01       		.uleb128 0x1
 6320 133c 51       		.byte	0x51
 6321 133d 05       		.uleb128 0x5
 6322 133e 03       		.byte	0x3
 6323 133f 00000000 		.4byte	CySysTickServiceCallbacks
 6324 1343 00       		.byte	0
 6325 1344 1D       		.uleb128 0x1d
 6326 1345 22000000 		.4byte	.LVL394
 6327 1349 73120000 		.4byte	0x1273
 6328 134d 57130000 		.4byte	0x1357
 6329 1351 1C       		.uleb128 0x1c
 6330 1352 01       		.uleb128 0x1
 6331 1353 50       		.byte	0x50
 6332 1354 01       		.uleb128 0x1
 6333 1355 31       		.byte	0x31
 6334 1356 00       		.byte	0
 6335 1357 11       		.uleb128 0x11
ARM GAS  C:\Users\YUANFA~1\AppData\Local\Temp\ccYDlzYT.s 			page 182


 6336 1358 32000000 		.4byte	.LVL396
 6337 135c 20120000 		.4byte	0x1220
 6338 1360 11       		.uleb128 0x11
 6339 1361 36000000 		.4byte	.LVL397
 6340 1365 F2120000 		.4byte	0x12f2
 6341 1369 00       		.byte	0
 6342 136a 0E       		.uleb128 0xe
 6343 136b E2050000 		.4byte	.LASF139
 6344 136f 01       		.byte	0x1
 6345 1370 640C     		.2byte	0xc64
 6346 1372 00000000 		.4byte	.LFB47
 6347 1376 20000000 		.4byte	.LFE47-.LFB47
 6348 137a 01       		.uleb128 0x1
 6349 137b 9C       		.byte	0x9c
 6350 137c 93130000 		.4byte	0x1393
 6351 1380 11       		.uleb128 0x11
 6352 1381 0E000000 		.4byte	.LVL398
 6353 1385 04130000 		.4byte	0x1304
 6354 1389 11       		.uleb128 0x11
 6355 138a 18000000 		.4byte	.LVL399
 6356 138e EE110000 		.4byte	0x11ee
 6357 1392 00       		.byte	0
 6358 1393 16       		.uleb128 0x16
 6359 1394 83010000 		.4byte	.LASF140
 6360 1398 01       		.byte	0x1
 6361 1399 810D     		.2byte	0xd81
 6362 139b FF000000 		.4byte	0xff
 6363 139f 00000000 		.4byte	.LFB60
 6364 13a3 10000000 		.4byte	.LFE60-.LFB60
 6365 13a7 01       		.uleb128 0x1
 6366 13a8 9C       		.byte	0x9c
 6367 13a9 DA130000 		.4byte	0x13da
 6368 13ad 13       		.uleb128 0x13
 6369 13ae 90070000 		.4byte	.LASF71
 6370 13b2 01       		.byte	0x1
 6371 13b3 810D     		.2byte	0xd81
 6372 13b5 83000000 		.4byte	0x83
 6373 13b9 0A140000 		.4byte	.LLST119
 6374 13bd 15       		.uleb128 0x15
 6375 13be 9F080000 		.4byte	.LASF141
 6376 13c2 01       		.byte	0x1
 6377 13c3 810D     		.2byte	0xd81
 6378 13c5 FF000000 		.4byte	0xff
 6379 13c9 01       		.uleb128 0x1
 6380 13ca 51       		.byte	0x51
 6381 13cb 18       		.uleb128 0x18
 6382 13cc 1D080000 		.4byte	.LASF142
 6383 13d0 01       		.byte	0x1
 6384 13d1 830D     		.2byte	0xd83
 6385 13d3 FF000000 		.4byte	0xff
 6386 13d7 01       		.uleb128 0x1
 6387 13d8 50       		.byte	0x50
 6388 13d9 00       		.byte	0
 6389 13da 16       		.uleb128 0x16
 6390 13db 3A030000 		.4byte	.LASF143
 6391 13df 01       		.byte	0x1
 6392 13e0 990D     		.2byte	0xd99
ARM GAS  C:\Users\YUANFA~1\AppData\Local\Temp\ccYDlzYT.s 			page 183


 6393 13e2 FF000000 		.4byte	0xff
 6394 13e6 00000000 		.4byte	.LFB61
 6395 13ea 0C000000 		.4byte	.LFE61-.LFB61
 6396 13ee 01       		.uleb128 0x1
 6397 13ef 9C       		.byte	0x9c
 6398 13f0 05140000 		.4byte	0x1405
 6399 13f4 13       		.uleb128 0x13
 6400 13f5 90070000 		.4byte	.LASF71
 6401 13f9 01       		.byte	0x1
 6402 13fa 990D     		.2byte	0xd99
 6403 13fc 83000000 		.4byte	0x83
 6404 1400 2B140000 		.4byte	.LLST120
 6405 1404 00       		.byte	0
 6406 1405 0E       		.uleb128 0xe
 6407 1406 91080000 		.4byte	.LASF144
 6408 140a 01       		.byte	0x1
 6409 140b C60D     		.2byte	0xdc6
 6410 140d 00000000 		.4byte	.LFB63
 6411 1411 70000000 		.4byte	.LFE63-.LFB63
 6412 1415 01       		.uleb128 0x1
 6413 1416 9C       		.byte	0x9c
 6414 1417 2A140000 		.4byte	0x142a
 6415 141b 15       		.uleb128 0x15
 6416 141c C2070000 		.4byte	.LASF145
 6417 1420 01       		.byte	0x1
 6418 1421 C60D     		.2byte	0xdc6
 6419 1423 2A140000 		.4byte	0x142a
 6420 1427 01       		.uleb128 0x1
 6421 1428 50       		.byte	0x50
 6422 1429 00       		.byte	0
 6423 142a 06       		.uleb128 0x6
 6424 142b 04       		.byte	0x4
 6425 142c 83000000 		.4byte	0x83
 6426 1430 0E       		.uleb128 0xe
 6427 1431 54040000 		.4byte	.LASF146
 6428 1435 01       		.byte	0x1
 6429 1436 F30D     		.2byte	0xdf3
 6430 1438 00000000 		.4byte	.LFB64
 6431 143c 20000000 		.4byte	.LFE64-.LFB64
 6432 1440 01       		.uleb128 0x1
 6433 1441 9C       		.byte	0x9c
 6434 1442 67140000 		.4byte	0x1467
 6435 1446 13       		.uleb128 0x13
 6436 1447 89070000 		.4byte	.LASF63
 6437 144b 01       		.byte	0x1
 6438 144c F30D     		.2byte	0xdf3
 6439 144e 83000000 		.4byte	0x83
 6440 1452 4C140000 		.4byte	.LLST121
 6441 1456 0F       		.uleb128 0xf
 6442 1457 DC020000 		.4byte	.LASF52
 6443 145b 01       		.byte	0x1
 6444 145c F50D     		.2byte	0xdf5
 6445 145e 83000000 		.4byte	0x83
 6446 1462 6D140000 		.4byte	.LLST122
 6447 1466 00       		.byte	0
 6448 1467 0E       		.uleb128 0xe
 6449 1468 28050000 		.4byte	.LASF147
ARM GAS  C:\Users\YUANFA~1\AppData\Local\Temp\ccYDlzYT.s 			page 184


 6450 146c 01       		.byte	0x1
 6451 146d 0F0E     		.2byte	0xe0f
 6452 146f 00000000 		.4byte	.LFB65
 6453 1473 20000000 		.4byte	.LFE65-.LFB65
 6454 1477 01       		.uleb128 0x1
 6455 1478 9C       		.byte	0x9c
 6456 1479 9E140000 		.4byte	0x149e
 6457 147d 13       		.uleb128 0x13
 6458 147e 89070000 		.4byte	.LASF63
 6459 1482 01       		.byte	0x1
 6460 1483 0F0E     		.2byte	0xe0f
 6461 1485 83000000 		.4byte	0x83
 6462 1489 8B140000 		.4byte	.LLST123
 6463 148d 0F       		.uleb128 0xf
 6464 148e DC020000 		.4byte	.LASF52
 6465 1492 01       		.byte	0x1
 6466 1493 110E     		.2byte	0xe11
 6467 1495 83000000 		.4byte	0x83
 6468 1499 AC140000 		.4byte	.LLST124
 6469 149d 00       		.byte	0
 6470 149e 0E       		.uleb128 0xe
 6471 149f 6B000000 		.4byte	.LASF148
 6472 14a3 01       		.byte	0x1
 6473 14a4 2B0E     		.2byte	0xe2b
 6474 14a6 00000000 		.4byte	.LFB66
 6475 14aa 20000000 		.4byte	.LFE66-.LFB66
 6476 14ae 01       		.uleb128 0x1
 6477 14af 9C       		.byte	0x9c
 6478 14b0 D5140000 		.4byte	0x14d5
 6479 14b4 13       		.uleb128 0x13
 6480 14b5 89070000 		.4byte	.LASF63
 6481 14b9 01       		.byte	0x1
 6482 14ba 2B0E     		.2byte	0xe2b
 6483 14bc 83000000 		.4byte	0x83
 6484 14c0 CA140000 		.4byte	.LLST125
 6485 14c4 0F       		.uleb128 0xf
 6486 14c5 DC020000 		.4byte	.LASF52
 6487 14c9 01       		.byte	0x1
 6488 14ca 2D0E     		.2byte	0xe2d
 6489 14cc 83000000 		.4byte	0x83
 6490 14d0 EB140000 		.4byte	.LLST126
 6491 14d4 00       		.byte	0
 6492 14d5 0E       		.uleb128 0xe
 6493 14d6 B1040000 		.4byte	.LASF149
 6494 14da 01       		.byte	0x1
 6495 14db 490E     		.2byte	0xe49
 6496 14dd 00000000 		.4byte	.LFB67
 6497 14e1 68000000 		.4byte	.LFE67-.LFB67
 6498 14e5 01       		.uleb128 0x1
 6499 14e6 9C       		.byte	0x9c
 6500 14e7 2B150000 		.4byte	0x152b
 6501 14eb 13       		.uleb128 0x13
 6502 14ec EE000000 		.4byte	.LASF150
 6503 14f0 01       		.byte	0x1
 6504 14f1 490E     		.2byte	0xe49
 6505 14f3 83000000 		.4byte	0x83
 6506 14f7 09150000 		.4byte	.LLST127
ARM GAS  C:\Users\YUANFA~1\AppData\Local\Temp\ccYDlzYT.s 			page 185


 6507 14fb 13       		.uleb128 0x13
 6508 14fc 89070000 		.4byte	.LASF63
 6509 1500 01       		.byte	0x1
 6510 1501 490E     		.2byte	0xe49
 6511 1503 83000000 		.4byte	0x83
 6512 1507 75150000 		.4byte	.LLST128
 6513 150b 0F       		.uleb128 0xf
 6514 150c DC020000 		.4byte	.LASF52
 6515 1510 01       		.byte	0x1
 6516 1511 4B0E     		.2byte	0xe4b
 6517 1513 83000000 		.4byte	0x83
 6518 1517 E1150000 		.4byte	.LLST129
 6519 151b 1B       		.uleb128 0x1b
 6520 151c 56000000 		.4byte	.LVL434
 6521 1520 CD070000 		.4byte	0x7cd
 6522 1524 1C       		.uleb128 0x1c
 6523 1525 01       		.uleb128 0x1
 6524 1526 50       		.byte	0x50
 6525 1527 01       		.uleb128 0x1
 6526 1528 30       		.byte	0x30
 6527 1529 00       		.byte	0
 6528 152a 00       		.byte	0
 6529 152b 0B       		.uleb128 0xb
 6530 152c FF000000 		.4byte	0xff
 6531 1530 3B150000 		.4byte	0x153b
 6532 1534 0C       		.uleb128 0xc
 6533 1535 F8000000 		.4byte	0xf8
 6534 1539 04       		.byte	0x4
 6535 153a 00       		.byte	0
 6536 153b 21       		.uleb128 0x21
 6537 153c 59050000 		.4byte	.LASF151
 6538 1540 01       		.byte	0x1
 6539 1541 22       		.byte	0x22
 6540 1542 2B150000 		.4byte	0x152b
 6541 1546 05       		.uleb128 0x5
 6542 1547 03       		.byte	0x3
 6543 1548 00000000 		.4byte	CySysTickCallbacks
 6544 154c 24       		.uleb128 0x24
 6545 154d 22030000 		.4byte	.LASF152
 6546 1551 01       		.byte	0x1
 6547 1552 1B       		.byte	0x1b
 6548 1553 83000000 		.4byte	0x83
 6549 1557 05       		.uleb128 0x5
 6550 1558 03       		.byte	0x3
 6551 1559 00000000 		.4byte	cydelayFreqHz
 6552 155d 24       		.uleb128 0x24
 6553 155e B1000000 		.4byte	.LASF153
 6554 1562 01       		.byte	0x1
 6555 1563 1C       		.byte	0x1c
 6556 1564 83000000 		.4byte	0x83
 6557 1568 05       		.uleb128 0x5
 6558 1569 03       		.byte	0x3
 6559 156a 00000000 		.4byte	cydelayFreqKhz
 6560 156e 24       		.uleb128 0x24
 6561 156f 73080000 		.4byte	.LASF154
 6562 1573 01       		.byte	0x1
 6563 1574 1D       		.byte	0x1d
ARM GAS  C:\Users\YUANFA~1\AppData\Local\Temp\ccYDlzYT.s 			page 186


 6564 1575 6B000000 		.4byte	0x6b
 6565 1579 05       		.uleb128 0x5
 6566 157a 03       		.byte	0x3
 6567 157b 00000000 		.4byte	cydelayFreqMhz
 6568 157f 24       		.uleb128 0x24
 6569 1580 10090000 		.4byte	.LASF155
 6570 1584 01       		.byte	0x1
 6571 1585 1E       		.byte	0x1e
 6572 1586 83000000 		.4byte	0x83
 6573 158a 05       		.uleb128 0x5
 6574 158b 03       		.byte	0x3
 6575 158c 00000000 		.4byte	cydelay32kMs
 6576 1590 24       		.uleb128 0x24
 6577 1591 68010000 		.4byte	.LASF156
 6578 1595 01       		.byte	0x1
 6579 1596 36       		.byte	0x36
 6580 1597 83000000 		.4byte	0x83
 6581 159b 05       		.uleb128 0x5
 6582 159c 03       		.byte	0x3
 6583 159d 00000000 		.4byte	CySysTickInitVar
 6584 15a1 24       		.uleb128 0x24
 6585 15a2 1B070000 		.4byte	.LASF157
 6586 15a6 01       		.byte	0x1
 6587 15a7 58       		.byte	0x58
 6588 15a8 83000000 		.4byte	0x83
 6589 15ac 05       		.uleb128 0x5
 6590 15ad 03       		.byte	0x3
 6591 15ae 00000000 		.4byte	CySysClkPumpConfig
 6592 15b2 25       		.uleb128 0x25
 6593 15b3 CF090000 		.4byte	.LASF158
 6594 15b7 CF090000 		.4byte	.LASF158
 6595 15bb 03       		.byte	0x3
 6596 15bc F8       		.byte	0xf8
 6597 15bd 25       		.uleb128 0x25
 6598 15be C0000000 		.4byte	.LASF159
 6599 15c2 C0000000 		.4byte	.LASF159
 6600 15c6 03       		.byte	0x3
 6601 15c7 F9       		.byte	0xf9
 6602 15c8 25       		.uleb128 0x25
 6603 15c9 D0030000 		.4byte	.LASF160
 6604 15cd D0030000 		.4byte	.LASF160
 6605 15d1 03       		.byte	0x3
 6606 15d2 EF       		.byte	0xef
 6607 15d3 25       		.uleb128 0x25
 6608 15d4 D3080000 		.4byte	.LASF161
 6609 15d8 D3080000 		.4byte	.LASF161
 6610 15dc 04       		.byte	0x4
 6611 15dd 54       		.byte	0x54
 6612 15de 25       		.uleb128 0x25
 6613 15df 85060000 		.4byte	.LASF162
 6614 15e3 85060000 		.4byte	.LASF162
 6615 15e7 05       		.byte	0x5
 6616 15e8 52       		.byte	0x52
 6617 15e9 00       		.byte	0
 6618              		.section	.debug_abbrev,"",%progbits
 6619              	.Ldebug_abbrev0:
 6620 0000 01       		.uleb128 0x1
ARM GAS  C:\Users\YUANFA~1\AppData\Local\Temp\ccYDlzYT.s 			page 187


 6621 0001 11       		.uleb128 0x11
 6622 0002 01       		.byte	0x1
 6623 0003 25       		.uleb128 0x25
 6624 0004 0E       		.uleb128 0xe
 6625 0005 13       		.uleb128 0x13
 6626 0006 0B       		.uleb128 0xb
 6627 0007 03       		.uleb128 0x3
 6628 0008 0E       		.uleb128 0xe
 6629 0009 1B       		.uleb128 0x1b
 6630 000a 0E       		.uleb128 0xe
 6631 000b 55       		.uleb128 0x55
 6632 000c 17       		.uleb128 0x17
 6633 000d 11       		.uleb128 0x11
 6634 000e 01       		.uleb128 0x1
 6635 000f 10       		.uleb128 0x10
 6636 0010 17       		.uleb128 0x17
 6637 0011 00       		.byte	0
 6638 0012 00       		.byte	0
 6639 0013 02       		.uleb128 0x2
 6640 0014 24       		.uleb128 0x24
 6641 0015 00       		.byte	0
 6642 0016 0B       		.uleb128 0xb
 6643 0017 0B       		.uleb128 0xb
 6644 0018 3E       		.uleb128 0x3e
 6645 0019 0B       		.uleb128 0xb
 6646 001a 03       		.uleb128 0x3
 6647 001b 0E       		.uleb128 0xe
 6648 001c 00       		.byte	0
 6649 001d 00       		.byte	0
 6650 001e 03       		.uleb128 0x3
 6651 001f 24       		.uleb128 0x24
 6652 0020 00       		.byte	0
 6653 0021 0B       		.uleb128 0xb
 6654 0022 0B       		.uleb128 0xb
 6655 0023 3E       		.uleb128 0x3e
 6656 0024 0B       		.uleb128 0xb
 6657 0025 03       		.uleb128 0x3
 6658 0026 08       		.uleb128 0x8
 6659 0027 00       		.byte	0
 6660 0028 00       		.byte	0
 6661 0029 04       		.uleb128 0x4
 6662 002a 16       		.uleb128 0x16
 6663 002b 00       		.byte	0
 6664 002c 03       		.uleb128 0x3
 6665 002d 0E       		.uleb128 0xe
 6666 002e 3A       		.uleb128 0x3a
 6667 002f 0B       		.uleb128 0xb
 6668 0030 3B       		.uleb128 0x3b
 6669 0031 05       		.uleb128 0x5
 6670 0032 49       		.uleb128 0x49
 6671 0033 13       		.uleb128 0x13
 6672 0034 00       		.byte	0
 6673 0035 00       		.byte	0
 6674 0036 05       		.uleb128 0x5
 6675 0037 35       		.uleb128 0x35
 6676 0038 00       		.byte	0
 6677 0039 49       		.uleb128 0x49
ARM GAS  C:\Users\YUANFA~1\AppData\Local\Temp\ccYDlzYT.s 			page 188


 6678 003a 13       		.uleb128 0x13
 6679 003b 00       		.byte	0
 6680 003c 00       		.byte	0
 6681 003d 06       		.uleb128 0x6
 6682 003e 0F       		.uleb128 0xf
 6683 003f 00       		.byte	0
 6684 0040 0B       		.uleb128 0xb
 6685 0041 0B       		.uleb128 0xb
 6686 0042 49       		.uleb128 0x49
 6687 0043 13       		.uleb128 0x13
 6688 0044 00       		.byte	0
 6689 0045 00       		.byte	0
 6690 0046 07       		.uleb128 0x7
 6691 0047 15       		.uleb128 0x15
 6692 0048 00       		.byte	0
 6693 0049 27       		.uleb128 0x27
 6694 004a 19       		.uleb128 0x19
 6695 004b 00       		.byte	0
 6696 004c 00       		.byte	0
 6697 004d 08       		.uleb128 0x8
 6698 004e 13       		.uleb128 0x13
 6699 004f 01       		.byte	0x1
 6700 0050 0B       		.uleb128 0xb
 6701 0051 0B       		.uleb128 0xb
 6702 0052 3A       		.uleb128 0x3a
 6703 0053 0B       		.uleb128 0xb
 6704 0054 3B       		.uleb128 0x3b
 6705 0055 05       		.uleb128 0x5
 6706 0056 01       		.uleb128 0x1
 6707 0057 13       		.uleb128 0x13
 6708 0058 00       		.byte	0
 6709 0059 00       		.byte	0
 6710 005a 09       		.uleb128 0x9
 6711 005b 0D       		.uleb128 0xd
 6712 005c 00       		.byte	0
 6713 005d 03       		.uleb128 0x3
 6714 005e 0E       		.uleb128 0xe
 6715 005f 3A       		.uleb128 0x3a
 6716 0060 0B       		.uleb128 0xb
 6717 0061 3B       		.uleb128 0x3b
 6718 0062 05       		.uleb128 0x5
 6719 0063 49       		.uleb128 0x49
 6720 0064 13       		.uleb128 0x13
 6721 0065 38       		.uleb128 0x38
 6722 0066 0B       		.uleb128 0xb
 6723 0067 00       		.byte	0
 6724 0068 00       		.byte	0
 6725 0069 0A       		.uleb128 0xa
 6726 006a 0D       		.uleb128 0xd
 6727 006b 00       		.byte	0
 6728 006c 03       		.uleb128 0x3
 6729 006d 08       		.uleb128 0x8
 6730 006e 3A       		.uleb128 0x3a
 6731 006f 0B       		.uleb128 0xb
 6732 0070 3B       		.uleb128 0x3b
 6733 0071 05       		.uleb128 0x5
 6734 0072 49       		.uleb128 0x49
ARM GAS  C:\Users\YUANFA~1\AppData\Local\Temp\ccYDlzYT.s 			page 189


 6735 0073 13       		.uleb128 0x13
 6736 0074 38       		.uleb128 0x38
 6737 0075 0B       		.uleb128 0xb
 6738 0076 00       		.byte	0
 6739 0077 00       		.byte	0
 6740 0078 0B       		.uleb128 0xb
 6741 0079 01       		.uleb128 0x1
 6742 007a 01       		.byte	0x1
 6743 007b 49       		.uleb128 0x49
 6744 007c 13       		.uleb128 0x13
 6745 007d 01       		.uleb128 0x1
 6746 007e 13       		.uleb128 0x13
 6747 007f 00       		.byte	0
 6748 0080 00       		.byte	0
 6749 0081 0C       		.uleb128 0xc
 6750 0082 21       		.uleb128 0x21
 6751 0083 00       		.byte	0
 6752 0084 49       		.uleb128 0x49
 6753 0085 13       		.uleb128 0x13
 6754 0086 2F       		.uleb128 0x2f
 6755 0087 0B       		.uleb128 0xb
 6756 0088 00       		.byte	0
 6757 0089 00       		.byte	0
 6758 008a 0D       		.uleb128 0xd
 6759 008b 2E       		.uleb128 0x2e
 6760 008c 00       		.byte	0
 6761 008d 3F       		.uleb128 0x3f
 6762 008e 19       		.uleb128 0x19
 6763 008f 03       		.uleb128 0x3
 6764 0090 0E       		.uleb128 0xe
 6765 0091 3A       		.uleb128 0x3a
 6766 0092 0B       		.uleb128 0xb
 6767 0093 3B       		.uleb128 0x3b
 6768 0094 0B       		.uleb128 0xb
 6769 0095 27       		.uleb128 0x27
 6770 0096 19       		.uleb128 0x19
 6771 0097 11       		.uleb128 0x11
 6772 0098 01       		.uleb128 0x1
 6773 0099 12       		.uleb128 0x12
 6774 009a 06       		.uleb128 0x6
 6775 009b 40       		.uleb128 0x40
 6776 009c 18       		.uleb128 0x18
 6777 009d 9742     		.uleb128 0x2117
 6778 009f 19       		.uleb128 0x19
 6779 00a0 00       		.byte	0
 6780 00a1 00       		.byte	0
 6781 00a2 0E       		.uleb128 0xe
 6782 00a3 2E       		.uleb128 0x2e
 6783 00a4 01       		.byte	0x1
 6784 00a5 3F       		.uleb128 0x3f
 6785 00a6 19       		.uleb128 0x19
 6786 00a7 03       		.uleb128 0x3
 6787 00a8 0E       		.uleb128 0xe
 6788 00a9 3A       		.uleb128 0x3a
 6789 00aa 0B       		.uleb128 0xb
 6790 00ab 3B       		.uleb128 0x3b
 6791 00ac 05       		.uleb128 0x5
ARM GAS  C:\Users\YUANFA~1\AppData\Local\Temp\ccYDlzYT.s 			page 190


 6792 00ad 27       		.uleb128 0x27
 6793 00ae 19       		.uleb128 0x19
 6794 00af 11       		.uleb128 0x11
 6795 00b0 01       		.uleb128 0x1
 6796 00b1 12       		.uleb128 0x12
 6797 00b2 06       		.uleb128 0x6
 6798 00b3 40       		.uleb128 0x40
 6799 00b4 18       		.uleb128 0x18
 6800 00b5 9742     		.uleb128 0x2117
 6801 00b7 19       		.uleb128 0x19
 6802 00b8 01       		.uleb128 0x1
 6803 00b9 13       		.uleb128 0x13
 6804 00ba 00       		.byte	0
 6805 00bb 00       		.byte	0
 6806 00bc 0F       		.uleb128 0xf
 6807 00bd 34       		.uleb128 0x34
 6808 00be 00       		.byte	0
 6809 00bf 03       		.uleb128 0x3
 6810 00c0 0E       		.uleb128 0xe
 6811 00c1 3A       		.uleb128 0x3a
 6812 00c2 0B       		.uleb128 0xb
 6813 00c3 3B       		.uleb128 0x3b
 6814 00c4 05       		.uleb128 0x5
 6815 00c5 49       		.uleb128 0x49
 6816 00c6 13       		.uleb128 0x13
 6817 00c7 02       		.uleb128 0x2
 6818 00c8 17       		.uleb128 0x17
 6819 00c9 00       		.byte	0
 6820 00ca 00       		.byte	0
 6821 00cb 10       		.uleb128 0x10
 6822 00cc 2E       		.uleb128 0x2e
 6823 00cd 01       		.byte	0x1
 6824 00ce 3F       		.uleb128 0x3f
 6825 00cf 19       		.uleb128 0x19
 6826 00d0 03       		.uleb128 0x3
 6827 00d1 0E       		.uleb128 0xe
 6828 00d2 3A       		.uleb128 0x3a
 6829 00d3 0B       		.uleb128 0xb
 6830 00d4 3B       		.uleb128 0x3b
 6831 00d5 0B       		.uleb128 0xb
 6832 00d6 27       		.uleb128 0x27
 6833 00d7 19       		.uleb128 0x19
 6834 00d8 11       		.uleb128 0x11
 6835 00d9 01       		.uleb128 0x1
 6836 00da 12       		.uleb128 0x12
 6837 00db 06       		.uleb128 0x6
 6838 00dc 40       		.uleb128 0x40
 6839 00dd 18       		.uleb128 0x18
 6840 00de 9742     		.uleb128 0x2117
 6841 00e0 19       		.uleb128 0x19
 6842 00e1 01       		.uleb128 0x1
 6843 00e2 13       		.uleb128 0x13
 6844 00e3 00       		.byte	0
 6845 00e4 00       		.byte	0
 6846 00e5 11       		.uleb128 0x11
 6847 00e6 898201   		.uleb128 0x4109
 6848 00e9 00       		.byte	0
ARM GAS  C:\Users\YUANFA~1\AppData\Local\Temp\ccYDlzYT.s 			page 191


 6849 00ea 11       		.uleb128 0x11
 6850 00eb 01       		.uleb128 0x1
 6851 00ec 31       		.uleb128 0x31
 6852 00ed 13       		.uleb128 0x13
 6853 00ee 00       		.byte	0
 6854 00ef 00       		.byte	0
 6855 00f0 12       		.uleb128 0x12
 6856 00f1 2E       		.uleb128 0x2e
 6857 00f2 00       		.byte	0
 6858 00f3 3F       		.uleb128 0x3f
 6859 00f4 19       		.uleb128 0x19
 6860 00f5 03       		.uleb128 0x3
 6861 00f6 0E       		.uleb128 0xe
 6862 00f7 3A       		.uleb128 0x3a
 6863 00f8 0B       		.uleb128 0xb
 6864 00f9 3B       		.uleb128 0x3b
 6865 00fa 05       		.uleb128 0x5
 6866 00fb 27       		.uleb128 0x27
 6867 00fc 19       		.uleb128 0x19
 6868 00fd 49       		.uleb128 0x49
 6869 00fe 13       		.uleb128 0x13
 6870 00ff 11       		.uleb128 0x11
 6871 0100 01       		.uleb128 0x1
 6872 0101 12       		.uleb128 0x12
 6873 0102 06       		.uleb128 0x6
 6874 0103 40       		.uleb128 0x40
 6875 0104 18       		.uleb128 0x18
 6876 0105 9742     		.uleb128 0x2117
 6877 0107 19       		.uleb128 0x19
 6878 0108 00       		.byte	0
 6879 0109 00       		.byte	0
 6880 010a 13       		.uleb128 0x13
 6881 010b 05       		.uleb128 0x5
 6882 010c 00       		.byte	0
 6883 010d 03       		.uleb128 0x3
 6884 010e 0E       		.uleb128 0xe
 6885 010f 3A       		.uleb128 0x3a
 6886 0110 0B       		.uleb128 0xb
 6887 0111 3B       		.uleb128 0x3b
 6888 0112 05       		.uleb128 0x5
 6889 0113 49       		.uleb128 0x49
 6890 0114 13       		.uleb128 0x13
 6891 0115 02       		.uleb128 0x2
 6892 0116 17       		.uleb128 0x17
 6893 0117 00       		.byte	0
 6894 0118 00       		.byte	0
 6895 0119 14       		.uleb128 0x14
 6896 011a 34       		.uleb128 0x34
 6897 011b 00       		.byte	0
 6898 011c 03       		.uleb128 0x3
 6899 011d 08       		.uleb128 0x8
 6900 011e 3A       		.uleb128 0x3a
 6901 011f 0B       		.uleb128 0xb
 6902 0120 3B       		.uleb128 0x3b
 6903 0121 05       		.uleb128 0x5
 6904 0122 49       		.uleb128 0x49
 6905 0123 13       		.uleb128 0x13
ARM GAS  C:\Users\YUANFA~1\AppData\Local\Temp\ccYDlzYT.s 			page 192


 6906 0124 02       		.uleb128 0x2
 6907 0125 17       		.uleb128 0x17
 6908 0126 00       		.byte	0
 6909 0127 00       		.byte	0
 6910 0128 15       		.uleb128 0x15
 6911 0129 05       		.uleb128 0x5
 6912 012a 00       		.byte	0
 6913 012b 03       		.uleb128 0x3
 6914 012c 0E       		.uleb128 0xe
 6915 012d 3A       		.uleb128 0x3a
 6916 012e 0B       		.uleb128 0xb
 6917 012f 3B       		.uleb128 0x3b
 6918 0130 05       		.uleb128 0x5
 6919 0131 49       		.uleb128 0x49
 6920 0132 13       		.uleb128 0x13
 6921 0133 02       		.uleb128 0x2
 6922 0134 18       		.uleb128 0x18
 6923 0135 00       		.byte	0
 6924 0136 00       		.byte	0
 6925 0137 16       		.uleb128 0x16
 6926 0138 2E       		.uleb128 0x2e
 6927 0139 01       		.byte	0x1
 6928 013a 3F       		.uleb128 0x3f
 6929 013b 19       		.uleb128 0x19
 6930 013c 03       		.uleb128 0x3
 6931 013d 0E       		.uleb128 0xe
 6932 013e 3A       		.uleb128 0x3a
 6933 013f 0B       		.uleb128 0xb
 6934 0140 3B       		.uleb128 0x3b
 6935 0141 05       		.uleb128 0x5
 6936 0142 27       		.uleb128 0x27
 6937 0143 19       		.uleb128 0x19
 6938 0144 49       		.uleb128 0x49
 6939 0145 13       		.uleb128 0x13
 6940 0146 11       		.uleb128 0x11
 6941 0147 01       		.uleb128 0x1
 6942 0148 12       		.uleb128 0x12
 6943 0149 06       		.uleb128 0x6
 6944 014a 40       		.uleb128 0x40
 6945 014b 18       		.uleb128 0x18
 6946 014c 9742     		.uleb128 0x2117
 6947 014e 19       		.uleb128 0x19
 6948 014f 01       		.uleb128 0x1
 6949 0150 13       		.uleb128 0x13
 6950 0151 00       		.byte	0
 6951 0152 00       		.byte	0
 6952 0153 17       		.uleb128 0x17
 6953 0154 2E       		.uleb128 0x2e
 6954 0155 00       		.byte	0
 6955 0156 3F       		.uleb128 0x3f
 6956 0157 19       		.uleb128 0x19
 6957 0158 03       		.uleb128 0x3
 6958 0159 0E       		.uleb128 0xe
 6959 015a 3A       		.uleb128 0x3a
 6960 015b 0B       		.uleb128 0xb
 6961 015c 3B       		.uleb128 0x3b
 6962 015d 05       		.uleb128 0x5
ARM GAS  C:\Users\YUANFA~1\AppData\Local\Temp\ccYDlzYT.s 			page 193


 6963 015e 27       		.uleb128 0x27
 6964 015f 19       		.uleb128 0x19
 6965 0160 11       		.uleb128 0x11
 6966 0161 01       		.uleb128 0x1
 6967 0162 12       		.uleb128 0x12
 6968 0163 06       		.uleb128 0x6
 6969 0164 40       		.uleb128 0x40
 6970 0165 18       		.uleb128 0x18
 6971 0166 9742     		.uleb128 0x2117
 6972 0168 19       		.uleb128 0x19
 6973 0169 00       		.byte	0
 6974 016a 00       		.byte	0
 6975 016b 18       		.uleb128 0x18
 6976 016c 34       		.uleb128 0x34
 6977 016d 00       		.byte	0
 6978 016e 03       		.uleb128 0x3
 6979 016f 0E       		.uleb128 0xe
 6980 0170 3A       		.uleb128 0x3a
 6981 0171 0B       		.uleb128 0xb
 6982 0172 3B       		.uleb128 0x3b
 6983 0173 05       		.uleb128 0x5
 6984 0174 49       		.uleb128 0x49
 6985 0175 13       		.uleb128 0x13
 6986 0176 02       		.uleb128 0x2
 6987 0177 18       		.uleb128 0x18
 6988 0178 00       		.byte	0
 6989 0179 00       		.byte	0
 6990 017a 19       		.uleb128 0x19
 6991 017b 2E       		.uleb128 0x2e
 6992 017c 01       		.byte	0x1
 6993 017d 3F       		.uleb128 0x3f
 6994 017e 19       		.uleb128 0x19
 6995 017f 03       		.uleb128 0x3
 6996 0180 0E       		.uleb128 0xe
 6997 0181 3A       		.uleb128 0x3a
 6998 0182 0B       		.uleb128 0xb
 6999 0183 3B       		.uleb128 0x3b
 7000 0184 05       		.uleb128 0x5
 7001 0185 27       		.uleb128 0x27
 7002 0186 19       		.uleb128 0x19
 7003 0187 49       		.uleb128 0x49
 7004 0188 13       		.uleb128 0x13
 7005 0189 11       		.uleb128 0x11
 7006 018a 01       		.uleb128 0x1
 7007 018b 12       		.uleb128 0x12
 7008 018c 06       		.uleb128 0x6
 7009 018d 40       		.uleb128 0x40
 7010 018e 18       		.uleb128 0x18
 7011 018f 9642     		.uleb128 0x2116
 7012 0191 19       		.uleb128 0x19
 7013 0192 01       		.uleb128 0x1
 7014 0193 13       		.uleb128 0x13
 7015 0194 00       		.byte	0
 7016 0195 00       		.byte	0
 7017 0196 1A       		.uleb128 0x1a
 7018 0197 05       		.uleb128 0x5
 7019 0198 00       		.byte	0
ARM GAS  C:\Users\YUANFA~1\AppData\Local\Temp\ccYDlzYT.s 			page 194


 7020 0199 03       		.uleb128 0x3
 7021 019a 08       		.uleb128 0x8
 7022 019b 3A       		.uleb128 0x3a
 7023 019c 0B       		.uleb128 0xb
 7024 019d 3B       		.uleb128 0x3b
 7025 019e 05       		.uleb128 0x5
 7026 019f 49       		.uleb128 0x49
 7027 01a0 13       		.uleb128 0x13
 7028 01a1 02       		.uleb128 0x2
 7029 01a2 17       		.uleb128 0x17
 7030 01a3 00       		.byte	0
 7031 01a4 00       		.byte	0
 7032 01a5 1B       		.uleb128 0x1b
 7033 01a6 898201   		.uleb128 0x4109
 7034 01a9 01       		.byte	0x1
 7035 01aa 11       		.uleb128 0x11
 7036 01ab 01       		.uleb128 0x1
 7037 01ac 31       		.uleb128 0x31
 7038 01ad 13       		.uleb128 0x13
 7039 01ae 00       		.byte	0
 7040 01af 00       		.byte	0
 7041 01b0 1C       		.uleb128 0x1c
 7042 01b1 8A8201   		.uleb128 0x410a
 7043 01b4 00       		.byte	0
 7044 01b5 02       		.uleb128 0x2
 7045 01b6 18       		.uleb128 0x18
 7046 01b7 9142     		.uleb128 0x2111
 7047 01b9 18       		.uleb128 0x18
 7048 01ba 00       		.byte	0
 7049 01bb 00       		.byte	0
 7050 01bc 1D       		.uleb128 0x1d
 7051 01bd 898201   		.uleb128 0x4109
 7052 01c0 01       		.byte	0x1
 7053 01c1 11       		.uleb128 0x11
 7054 01c2 01       		.uleb128 0x1
 7055 01c3 31       		.uleb128 0x31
 7056 01c4 13       		.uleb128 0x13
 7057 01c5 01       		.uleb128 0x1
 7058 01c6 13       		.uleb128 0x13
 7059 01c7 00       		.byte	0
 7060 01c8 00       		.byte	0
 7061 01c9 1E       		.uleb128 0x1e
 7062 01ca 2E       		.uleb128 0x2e
 7063 01cb 01       		.byte	0x1
 7064 01cc 03       		.uleb128 0x3
 7065 01cd 0E       		.uleb128 0xe
 7066 01ce 3A       		.uleb128 0x3a
 7067 01cf 0B       		.uleb128 0xb
 7068 01d0 3B       		.uleb128 0x3b
 7069 01d1 05       		.uleb128 0x5
 7070 01d2 27       		.uleb128 0x27
 7071 01d3 19       		.uleb128 0x19
 7072 01d4 49       		.uleb128 0x49
 7073 01d5 13       		.uleb128 0x13
 7074 01d6 11       		.uleb128 0x11
 7075 01d7 01       		.uleb128 0x1
 7076 01d8 12       		.uleb128 0x12
ARM GAS  C:\Users\YUANFA~1\AppData\Local\Temp\ccYDlzYT.s 			page 195


 7077 01d9 06       		.uleb128 0x6
 7078 01da 40       		.uleb128 0x40
 7079 01db 18       		.uleb128 0x18
 7080 01dc 9742     		.uleb128 0x2117
 7081 01de 19       		.uleb128 0x19
 7082 01df 01       		.uleb128 0x1
 7083 01e0 13       		.uleb128 0x13
 7084 01e1 00       		.byte	0
 7085 01e2 00       		.byte	0
 7086 01e3 1F       		.uleb128 0x1f
 7087 01e4 34       		.uleb128 0x34
 7088 01e5 00       		.byte	0
 7089 01e6 03       		.uleb128 0x3
 7090 01e7 0E       		.uleb128 0xe
 7091 01e8 3A       		.uleb128 0x3a
 7092 01e9 0B       		.uleb128 0xb
 7093 01ea 3B       		.uleb128 0x3b
 7094 01eb 05       		.uleb128 0x5
 7095 01ec 49       		.uleb128 0x49
 7096 01ed 13       		.uleb128 0x13
 7097 01ee 1C       		.uleb128 0x1c
 7098 01ef 06       		.uleb128 0x6
 7099 01f0 00       		.byte	0
 7100 01f1 00       		.byte	0
 7101 01f2 20       		.uleb128 0x20
 7102 01f3 34       		.uleb128 0x34
 7103 01f4 00       		.byte	0
 7104 01f5 03       		.uleb128 0x3
 7105 01f6 0E       		.uleb128 0xe
 7106 01f7 3A       		.uleb128 0x3a
 7107 01f8 0B       		.uleb128 0xb
 7108 01f9 3B       		.uleb128 0x3b
 7109 01fa 0B       		.uleb128 0xb
 7110 01fb 49       		.uleb128 0x49
 7111 01fc 13       		.uleb128 0x13
 7112 01fd 02       		.uleb128 0x2
 7113 01fe 17       		.uleb128 0x17
 7114 01ff 00       		.byte	0
 7115 0200 00       		.byte	0
 7116 0201 21       		.uleb128 0x21
 7117 0202 34       		.uleb128 0x34
 7118 0203 00       		.byte	0
 7119 0204 03       		.uleb128 0x3
 7120 0205 0E       		.uleb128 0xe
 7121 0206 3A       		.uleb128 0x3a
 7122 0207 0B       		.uleb128 0xb
 7123 0208 3B       		.uleb128 0x3b
 7124 0209 0B       		.uleb128 0xb
 7125 020a 49       		.uleb128 0x49
 7126 020b 13       		.uleb128 0x13
 7127 020c 02       		.uleb128 0x2
 7128 020d 18       		.uleb128 0x18
 7129 020e 00       		.byte	0
 7130 020f 00       		.byte	0
 7131 0210 22       		.uleb128 0x22
 7132 0211 2E       		.uleb128 0x2e
 7133 0212 01       		.byte	0x1
ARM GAS  C:\Users\YUANFA~1\AppData\Local\Temp\ccYDlzYT.s 			page 196


 7134 0213 3F       		.uleb128 0x3f
 7135 0214 19       		.uleb128 0x19
 7136 0215 03       		.uleb128 0x3
 7137 0216 0E       		.uleb128 0xe
 7138 0217 3A       		.uleb128 0x3a
 7139 0218 0B       		.uleb128 0xb
 7140 0219 3B       		.uleb128 0x3b
 7141 021a 05       		.uleb128 0x5
 7142 021b 27       		.uleb128 0x27
 7143 021c 19       		.uleb128 0x19
 7144 021d 11       		.uleb128 0x11
 7145 021e 01       		.uleb128 0x1
 7146 021f 12       		.uleb128 0x12
 7147 0220 06       		.uleb128 0x6
 7148 0221 40       		.uleb128 0x40
 7149 0222 18       		.uleb128 0x18
 7150 0223 9642     		.uleb128 0x2116
 7151 0225 19       		.uleb128 0x19
 7152 0226 01       		.uleb128 0x1
 7153 0227 13       		.uleb128 0x13
 7154 0228 00       		.byte	0
 7155 0229 00       		.byte	0
 7156 022a 23       		.uleb128 0x23
 7157 022b 2E       		.uleb128 0x2e
 7158 022c 01       		.byte	0x1
 7159 022d 03       		.uleb128 0x3
 7160 022e 0E       		.uleb128 0xe
 7161 022f 3A       		.uleb128 0x3a
 7162 0230 0B       		.uleb128 0xb
 7163 0231 3B       		.uleb128 0x3b
 7164 0232 05       		.uleb128 0x5
 7165 0233 27       		.uleb128 0x27
 7166 0234 19       		.uleb128 0x19
 7167 0235 11       		.uleb128 0x11
 7168 0236 01       		.uleb128 0x1
 7169 0237 12       		.uleb128 0x12
 7170 0238 06       		.uleb128 0x6
 7171 0239 40       		.uleb128 0x40
 7172 023a 18       		.uleb128 0x18
 7173 023b 9642     		.uleb128 0x2116
 7174 023d 19       		.uleb128 0x19
 7175 023e 01       		.uleb128 0x1
 7176 023f 13       		.uleb128 0x13
 7177 0240 00       		.byte	0
 7178 0241 00       		.byte	0
 7179 0242 24       		.uleb128 0x24
 7180 0243 34       		.uleb128 0x34
 7181 0244 00       		.byte	0
 7182 0245 03       		.uleb128 0x3
 7183 0246 0E       		.uleb128 0xe
 7184 0247 3A       		.uleb128 0x3a
 7185 0248 0B       		.uleb128 0xb
 7186 0249 3B       		.uleb128 0x3b
 7187 024a 0B       		.uleb128 0xb
 7188 024b 49       		.uleb128 0x49
 7189 024c 13       		.uleb128 0x13
 7190 024d 3F       		.uleb128 0x3f
ARM GAS  C:\Users\YUANFA~1\AppData\Local\Temp\ccYDlzYT.s 			page 197


 7191 024e 19       		.uleb128 0x19
 7192 024f 02       		.uleb128 0x2
 7193 0250 18       		.uleb128 0x18
 7194 0251 00       		.byte	0
 7195 0252 00       		.byte	0
 7196 0253 25       		.uleb128 0x25
 7197 0254 2E       		.uleb128 0x2e
 7198 0255 00       		.byte	0
 7199 0256 3F       		.uleb128 0x3f
 7200 0257 19       		.uleb128 0x19
 7201 0258 3C       		.uleb128 0x3c
 7202 0259 19       		.uleb128 0x19
 7203 025a 6E       		.uleb128 0x6e
 7204 025b 0E       		.uleb128 0xe
 7205 025c 03       		.uleb128 0x3
 7206 025d 0E       		.uleb128 0xe
 7207 025e 3A       		.uleb128 0x3a
 7208 025f 0B       		.uleb128 0xb
 7209 0260 3B       		.uleb128 0x3b
 7210 0261 0B       		.uleb128 0xb
 7211 0262 00       		.byte	0
 7212 0263 00       		.byte	0
 7213 0264 00       		.byte	0
 7214              		.section	.debug_loc,"",%progbits
 7215              	.Ldebug_loc0:
 7216              	.LLST0:
 7217 0000 18000000 		.4byte	.LVL0
 7218 0004 28000000 		.4byte	.LVL1
 7219 0008 0100     		.2byte	0x1
 7220 000a 53       		.byte	0x53
 7221 000b 28000000 		.4byte	.LVL1
 7222 000f 2A000000 		.4byte	.LVL2
 7223 0013 0700     		.2byte	0x7
 7224 0015 73       		.byte	0x73
 7225 0016 B3998080 		.sleb128 -268432205
 7225      7F
 7226 001b 9F       		.byte	0x9f
 7227 001c 00000000 		.4byte	0
 7228 0020 00000000 		.4byte	0
 7229              	.LLST1:
 7230 0024 00000000 		.4byte	.LVL4
 7231 0028 07000000 		.4byte	.LVL6-1
 7232 002c 0100     		.2byte	0x1
 7233 002e 50       		.byte	0x50
 7234 002f 07000000 		.4byte	.LVL6-1
 7235 0033 76000000 		.4byte	.LVL18
 7236 0037 0100     		.2byte	0x1
 7237 0039 54       		.byte	0x54
 7238 003a 76000000 		.4byte	.LVL18
 7239 003e 94000000 		.4byte	.LFE6
 7240 0042 0400     		.2byte	0x4
 7241 0044 F3       		.byte	0xf3
 7242 0045 01       		.uleb128 0x1
 7243 0046 50       		.byte	0x50
 7244 0047 9F       		.byte	0x9f
 7245 0048 00000000 		.4byte	0
 7246 004c 00000000 		.4byte	0
ARM GAS  C:\Users\YUANFA~1\AppData\Local\Temp\ccYDlzYT.s 			page 198


 7247              	.LLST2:
 7248 0050 08000000 		.4byte	.LVL6
 7249 0054 7D000000 		.4byte	.LVL20-1
 7250 0058 0100     		.2byte	0x1
 7251 005a 50       		.byte	0x50
 7252 005b 00000000 		.4byte	0
 7253 005f 00000000 		.4byte	0
 7254              	.LLST3:
 7255 0063 18000000 		.4byte	.LVL7
 7256 0067 20000000 		.4byte	.LVL8
 7257 006b 0100     		.2byte	0x1
 7258 006d 53       		.byte	0x53
 7259 006e 20000000 		.4byte	.LVL8
 7260 0072 22000000 		.4byte	.LVL9
 7261 0076 0200     		.2byte	0x2
 7262 0078 72       		.byte	0x72
 7263 0079 00       		.sleb128 0
 7264 007a 22000000 		.4byte	.LVL9
 7265 007e 28000000 		.4byte	.LVL10
 7266 0082 0100     		.2byte	0x1
 7267 0084 51       		.byte	0x51
 7268 0085 28000000 		.4byte	.LVL10
 7269 0089 2C000000 		.4byte	.LVL11
 7270 008d 0100     		.2byte	0x1
 7271 008f 53       		.byte	0x53
 7272 0090 2C000000 		.4byte	.LVL11
 7273 0094 46000000 		.4byte	.LVL12
 7274 0098 0200     		.2byte	0x2
 7275 009a 75       		.byte	0x75
 7276 009b 00       		.sleb128 0
 7277 009c 74000000 		.4byte	.LVL17
 7278 00a0 78000000 		.4byte	.LVL19
 7279 00a4 0100     		.2byte	0x1
 7280 00a6 53       		.byte	0x53
 7281 00a7 78000000 		.4byte	.LVL19
 7282 00ab 7E000000 		.4byte	.LVL21
 7283 00af 0100     		.2byte	0x1
 7284 00b1 54       		.byte	0x54
 7285 00b2 00000000 		.4byte	0
 7286 00b6 00000000 		.4byte	0
 7287              	.LLST4:
 7288 00ba 04000000 		.4byte	.LVL5
 7289 00be 4A000000 		.4byte	.LVL13
 7290 00c2 0200     		.2byte	0x2
 7291 00c4 30       		.byte	0x30
 7292 00c5 9F       		.byte	0x9f
 7293 00c6 4A000000 		.4byte	.LVL13
 7294 00ca 5C000000 		.4byte	.LVL14
 7295 00ce 0100     		.2byte	0x1
 7296 00d0 53       		.byte	0x53
 7297 00d1 5E000000 		.4byte	.LVL15
 7298 00d5 66000000 		.4byte	.LVL16
 7299 00d9 0100     		.2byte	0x1
 7300 00db 53       		.byte	0x53
 7301 00dc 00000000 		.4byte	0
 7302 00e0 00000000 		.4byte	0
 7303              	.LLST5:
ARM GAS  C:\Users\YUANFA~1\AppData\Local\Temp\ccYDlzYT.s 			page 199


 7304 00e4 06000000 		.4byte	.LVL23
 7305 00e8 1F000000 		.4byte	.LVL26-1
 7306 00ec 0100     		.2byte	0x1
 7307 00ee 50       		.byte	0x50
 7308 00ef 00000000 		.4byte	0
 7309 00f3 00000000 		.4byte	0
 7310              	.LLST6:
 7311 00f7 10000000 		.4byte	.LVL24
 7312 00fb 1C000000 		.4byte	.LVL25
 7313 00ff 0100     		.2byte	0x1
 7314 0101 52       		.byte	0x52
 7315 0102 1C000000 		.4byte	.LVL25
 7316 0106 22000000 		.4byte	.LVL27
 7317 010a 0100     		.2byte	0x1
 7318 010c 54       		.byte	0x54
 7319 010d 22000000 		.4byte	.LVL27
 7320 0111 2C000000 		.4byte	.LFE8
 7321 0115 0100     		.2byte	0x1
 7322 0117 50       		.byte	0x50
 7323 0118 00000000 		.4byte	0
 7324 011c 00000000 		.4byte	0
 7325              	.LLST7:
 7326 0120 00000000 		.4byte	.LVL28
 7327 0124 07000000 		.4byte	.LVL29-1
 7328 0128 0100     		.2byte	0x1
 7329 012a 50       		.byte	0x50
 7330 012b 07000000 		.4byte	.LVL29-1
 7331 012f 0A000000 		.4byte	.LVL30
 7332 0133 0100     		.2byte	0x1
 7333 0135 54       		.byte	0x54
 7334 0136 0A000000 		.4byte	.LVL30
 7335 013a 24000000 		.4byte	.LFE9
 7336 013e 0400     		.2byte	0x4
 7337 0140 F3       		.byte	0xf3
 7338 0141 01       		.uleb128 0x1
 7339 0142 50       		.byte	0x50
 7340 0143 9F       		.byte	0x9f
 7341 0144 00000000 		.4byte	0
 7342 0148 00000000 		.4byte	0
 7343              	.LLST8:
 7344 014c 08000000 		.4byte	.LVL29
 7345 0150 1D000000 		.4byte	.LVL31-1
 7346 0154 0100     		.2byte	0x1
 7347 0156 50       		.byte	0x50
 7348 0157 00000000 		.4byte	0
 7349 015b 00000000 		.4byte	0
 7350              	.LLST9:
 7351 015f 00000000 		.4byte	.LVL32
 7352 0163 07000000 		.4byte	.LVL33-1
 7353 0167 0100     		.2byte	0x1
 7354 0169 50       		.byte	0x50
 7355 016a 07000000 		.4byte	.LVL33-1
 7356 016e 14000000 		.4byte	.LVL34
 7357 0172 0100     		.2byte	0x1
 7358 0174 54       		.byte	0x54
 7359 0175 14000000 		.4byte	.LVL34
 7360 0179 24000000 		.4byte	.LFE11
ARM GAS  C:\Users\YUANFA~1\AppData\Local\Temp\ccYDlzYT.s 			page 200


 7361 017d 0400     		.2byte	0x4
 7362 017f F3       		.byte	0xf3
 7363 0180 01       		.uleb128 0x1
 7364 0181 50       		.byte	0x50
 7365 0182 9F       		.byte	0x9f
 7366 0183 00000000 		.4byte	0
 7367 0187 00000000 		.4byte	0
 7368              	.LLST10:
 7369 018b 08000000 		.4byte	.LVL33
 7370 018f 1D000000 		.4byte	.LVL35-1
 7371 0193 0100     		.2byte	0x1
 7372 0195 50       		.byte	0x50
 7373 0196 00000000 		.4byte	0
 7374 019a 00000000 		.4byte	0
 7375              	.LLST11:
 7376 019e 00000000 		.4byte	.LVL37
 7377 01a2 11000000 		.4byte	.LVL38-1
 7378 01a6 0100     		.2byte	0x1
 7379 01a8 50       		.byte	0x50
 7380 01a9 11000000 		.4byte	.LVL38-1
 7381 01ad 1E000000 		.4byte	.LVL40
 7382 01b1 0100     		.2byte	0x1
 7383 01b3 57       		.byte	0x57
 7384 01b4 1E000000 		.4byte	.LVL40
 7385 01b8 60000000 		.4byte	.LFE15
 7386 01bc 0400     		.2byte	0x4
 7387 01be F3       		.byte	0xf3
 7388 01bf 01       		.uleb128 0x1
 7389 01c0 50       		.byte	0x50
 7390 01c1 9F       		.byte	0x9f
 7391 01c2 00000000 		.4byte	0
 7392 01c6 00000000 		.4byte	0
 7393              	.LLST12:
 7394 01ca 00000000 		.4byte	.LVL37
 7395 01ce 11000000 		.4byte	.LVL38-1
 7396 01d2 0100     		.2byte	0x1
 7397 01d4 51       		.byte	0x51
 7398 01d5 11000000 		.4byte	.LVL38-1
 7399 01d9 24000000 		.4byte	.LVL42
 7400 01dd 0100     		.2byte	0x1
 7401 01df 55       		.byte	0x55
 7402 01e0 24000000 		.4byte	.LVL42
 7403 01e4 60000000 		.4byte	.LFE15
 7404 01e8 0400     		.2byte	0x4
 7405 01ea F3       		.byte	0xf3
 7406 01eb 01       		.uleb128 0x1
 7407 01ec 51       		.byte	0x51
 7408 01ed 9F       		.byte	0x9f
 7409 01ee 00000000 		.4byte	0
 7410 01f2 00000000 		.4byte	0
 7411              	.LLST13:
 7412 01f6 00000000 		.4byte	.LVL37
 7413 01fa 11000000 		.4byte	.LVL38-1
 7414 01fe 0100     		.2byte	0x1
 7415 0200 52       		.byte	0x52
 7416 0201 11000000 		.4byte	.LVL38-1
 7417 0205 34000000 		.4byte	.LVL45
ARM GAS  C:\Users\YUANFA~1\AppData\Local\Temp\ccYDlzYT.s 			page 201


 7418 0209 0100     		.2byte	0x1
 7419 020b 56       		.byte	0x56
 7420 020c 34000000 		.4byte	.LVL45
 7421 0210 60000000 		.4byte	.LFE15
 7422 0214 0400     		.2byte	0x4
 7423 0216 F3       		.byte	0xf3
 7424 0217 01       		.uleb128 0x1
 7425 0218 52       		.byte	0x52
 7426 0219 9F       		.byte	0x9f
 7427 021a 00000000 		.4byte	0
 7428 021e 00000000 		.4byte	0
 7429              	.LLST14:
 7430 0222 00000000 		.4byte	.LVL37
 7431 0226 11000000 		.4byte	.LVL38-1
 7432 022a 0100     		.2byte	0x1
 7433 022c 53       		.byte	0x53
 7434 022d 11000000 		.4byte	.LVL38-1
 7435 0231 52000000 		.4byte	.LVL50
 7436 0235 0100     		.2byte	0x1
 7437 0237 58       		.byte	0x58
 7438 0238 52000000 		.4byte	.LVL50
 7439 023c 60000000 		.4byte	.LFE15
 7440 0240 0400     		.2byte	0x4
 7441 0242 F3       		.byte	0xf3
 7442 0243 01       		.uleb128 0x1
 7443 0244 53       		.byte	0x53
 7444 0245 9F       		.byte	0x9f
 7445 0246 00000000 		.4byte	0
 7446 024a 00000000 		.4byte	0
 7447              	.LLST15:
 7448 024e 12000000 		.4byte	.LVL38
 7449 0252 51000000 		.4byte	.LVL49-1
 7450 0256 0100     		.2byte	0x1
 7451 0258 50       		.byte	0x50
 7452 0259 00000000 		.4byte	0
 7453 025d 00000000 		.4byte	0
 7454              	.LLST16:
 7455 0261 1A000000 		.4byte	.LVL39
 7456 0265 20000000 		.4byte	.LVL41
 7457 0269 0100     		.2byte	0x1
 7458 026b 53       		.byte	0x53
 7459 026c 20000000 		.4byte	.LVL41
 7460 0270 28000000 		.4byte	.LVL43
 7461 0274 0100     		.2byte	0x1
 7462 0276 57       		.byte	0x57
 7463 0277 28000000 		.4byte	.LVL43
 7464 027b 32000000 		.4byte	.LVL44
 7465 027f 0100     		.2byte	0x1
 7466 0281 55       		.byte	0x55
 7467 0282 32000000 		.4byte	.LVL44
 7468 0286 40000000 		.4byte	.LVL47
 7469 028a 0100     		.2byte	0x1
 7470 028c 53       		.byte	0x53
 7471 028d 40000000 		.4byte	.LVL47
 7472 0291 4C000000 		.4byte	.LVL48
 7473 0295 0100     		.2byte	0x1
 7474 0297 54       		.byte	0x54
ARM GAS  C:\Users\YUANFA~1\AppData\Local\Temp\ccYDlzYT.s 			page 202


 7475 0298 4C000000 		.4byte	.LVL48
 7476 029c 51000000 		.4byte	.LVL49-1
 7477 02a0 0100     		.2byte	0x1
 7478 02a2 53       		.byte	0x53
 7479 02a3 00000000 		.4byte	0
 7480 02a7 00000000 		.4byte	0
 7481              	.LLST17:
 7482 02ab 00000000 		.4byte	.LVL51
 7483 02af 8C000000 		.4byte	.LVL56
 7484 02b3 0100     		.2byte	0x1
 7485 02b5 50       		.byte	0x50
 7486 02b6 8C000000 		.4byte	.LVL56
 7487 02ba 96000000 		.4byte	.LVL58
 7488 02be 0100     		.2byte	0x1
 7489 02c0 56       		.byte	0x56
 7490 02c1 96000000 		.4byte	.LVL58
 7491 02c5 9A000000 		.4byte	.LVL59
 7492 02c9 0100     		.2byte	0x1
 7493 02cb 50       		.byte	0x50
 7494 02cc 9A000000 		.4byte	.LVL59
 7495 02d0 28010000 		.4byte	.LVL77
 7496 02d4 0100     		.2byte	0x1
 7497 02d6 56       		.byte	0x56
 7498 02d7 28010000 		.4byte	.LVL77
 7499 02db 32010000 		.4byte	.LVL78
 7500 02df 0100     		.2byte	0x1
 7501 02e1 50       		.byte	0x50
 7502 02e2 32010000 		.4byte	.LVL78
 7503 02e6 36010000 		.4byte	.LVL81
 7504 02ea 0100     		.2byte	0x1
 7505 02ec 56       		.byte	0x56
 7506 02ed 36010000 		.4byte	.LVL81
 7507 02f1 74010000 		.4byte	.LFE16
 7508 02f5 0400     		.2byte	0x4
 7509 02f7 F3       		.byte	0xf3
 7510 02f8 01       		.uleb128 0x1
 7511 02f9 50       		.byte	0x50
 7512 02fa 9F       		.byte	0x9f
 7513 02fb 00000000 		.4byte	0
 7514 02ff 00000000 		.4byte	0
 7515              	.LLST18:
 7516 0303 00000000 		.4byte	.LVL51
 7517 0307 8A000000 		.4byte	.LVL55
 7518 030b 0100     		.2byte	0x1
 7519 030d 51       		.byte	0x51
 7520 030e 8A000000 		.4byte	.LVL55
 7521 0312 96000000 		.4byte	.LVL58
 7522 0316 0100     		.2byte	0x1
 7523 0318 54       		.byte	0x54
 7524 0319 96000000 		.4byte	.LVL58
 7525 031d 9A000000 		.4byte	.LVL59
 7526 0321 0100     		.2byte	0x1
 7527 0323 51       		.byte	0x51
 7528 0324 9A000000 		.4byte	.LVL59
 7529 0328 9C000000 		.4byte	.LVL60
 7530 032c 0100     		.2byte	0x1
 7531 032e 54       		.byte	0x54
ARM GAS  C:\Users\YUANFA~1\AppData\Local\Temp\ccYDlzYT.s 			page 203


 7532 032f 9C000000 		.4byte	.LVL60
 7533 0333 28010000 		.4byte	.LVL77
 7534 0337 0400     		.2byte	0x4
 7535 0339 F3       		.byte	0xf3
 7536 033a 01       		.uleb128 0x1
 7537 033b 51       		.byte	0x51
 7538 033c 9F       		.byte	0x9f
 7539 033d 28010000 		.4byte	.LVL77
 7540 0341 32010000 		.4byte	.LVL78
 7541 0345 0100     		.2byte	0x1
 7542 0347 51       		.byte	0x51
 7543 0348 32010000 		.4byte	.LVL78
 7544 034c 74010000 		.4byte	.LFE16
 7545 0350 0400     		.2byte	0x4
 7546 0352 F3       		.byte	0xf3
 7547 0353 01       		.uleb128 0x1
 7548 0354 51       		.byte	0x51
 7549 0355 9F       		.byte	0x9f
 7550 0356 00000000 		.4byte	0
 7551 035a 00000000 		.4byte	0
 7552              	.LLST19:
 7553 035e 00000000 		.4byte	.LVL51
 7554 0362 8F000000 		.4byte	.LVL57-1
 7555 0366 0100     		.2byte	0x1
 7556 0368 52       		.byte	0x52
 7557 0369 8F000000 		.4byte	.LVL57-1
 7558 036d 96000000 		.4byte	.LVL58
 7559 0371 0100     		.2byte	0x1
 7560 0373 55       		.byte	0x55
 7561 0374 96000000 		.4byte	.LVL58
 7562 0378 9A000000 		.4byte	.LVL59
 7563 037c 0100     		.2byte	0x1
 7564 037e 52       		.byte	0x52
 7565 037f 9A000000 		.4byte	.LVL59
 7566 0383 28010000 		.4byte	.LVL77
 7567 0387 0100     		.2byte	0x1
 7568 0389 55       		.byte	0x55
 7569 038a 28010000 		.4byte	.LVL77
 7570 038e 32010000 		.4byte	.LVL78
 7571 0392 0100     		.2byte	0x1
 7572 0394 52       		.byte	0x52
 7573 0395 32010000 		.4byte	.LVL78
 7574 0399 36010000 		.4byte	.LVL80
 7575 039d 0100     		.2byte	0x1
 7576 039f 55       		.byte	0x55
 7577 03a0 36010000 		.4byte	.LVL80
 7578 03a4 74010000 		.4byte	.LFE16
 7579 03a8 0400     		.2byte	0x4
 7580 03aa F3       		.byte	0xf3
 7581 03ab 01       		.uleb128 0x1
 7582 03ac 52       		.byte	0x52
 7583 03ad 9F       		.byte	0x9f
 7584 03ae 00000000 		.4byte	0
 7585 03b2 00000000 		.4byte	0
 7586              	.LLST20:
 7587 03b6 00000000 		.4byte	.LVL51
 7588 03ba 12000000 		.4byte	.LVL53
ARM GAS  C:\Users\YUANFA~1\AppData\Local\Temp\ccYDlzYT.s 			page 204


 7589 03be 0100     		.2byte	0x1
 7590 03c0 53       		.byte	0x53
 7591 03c1 12000000 		.4byte	.LVL53
 7592 03c5 36010000 		.4byte	.LVL82
 7593 03c9 0100     		.2byte	0x1
 7594 03cb 57       		.byte	0x57
 7595 03cc 36010000 		.4byte	.LVL82
 7596 03d0 74010000 		.4byte	.LFE16
 7597 03d4 0400     		.2byte	0x4
 7598 03d6 F3       		.byte	0xf3
 7599 03d7 01       		.uleb128 0x1
 7600 03d8 53       		.byte	0x53
 7601 03d9 9F       		.byte	0x9f
 7602 03da 00000000 		.4byte	0
 7603 03de 00000000 		.4byte	0
 7604              	.LLST21:
 7605 03e2 10000000 		.4byte	.LVL52
 7606 03e6 E0000000 		.4byte	.LVL70
 7607 03ea 0200     		.2byte	0x2
 7608 03ec 30       		.byte	0x30
 7609 03ed 9F       		.byte	0x9f
 7610 03ee E0000000 		.4byte	.LVL70
 7611 03f2 28010000 		.4byte	.LVL77
 7612 03f6 0100     		.2byte	0x1
 7613 03f8 54       		.byte	0x54
 7614 03f9 28010000 		.4byte	.LVL77
 7615 03fd 32010000 		.4byte	.LVL78
 7616 0401 0200     		.2byte	0x2
 7617 0403 30       		.byte	0x30
 7618 0404 9F       		.byte	0x9f
 7619 0405 32010000 		.4byte	.LVL78
 7620 0409 36010000 		.4byte	.LVL79
 7621 040d 0100     		.2byte	0x1
 7622 040f 54       		.byte	0x54
 7623 0410 36010000 		.4byte	.LVL79
 7624 0414 74010000 		.4byte	.LFE16
 7625 0418 0100     		.2byte	0x1
 7626 041a 50       		.byte	0x50
 7627 041b 00000000 		.4byte	0
 7628 041f 00000000 		.4byte	0
 7629              	.LLST22:
 7630 0423 9A000000 		.4byte	.LVL59
 7631 0427 1A010000 		.4byte	.LVL74
 7632 042b 0200     		.2byte	0x2
 7633 042d 91       		.byte	0x91
 7634 042e 60       		.sleb128 -32
 7635 042f 1C010000 		.4byte	.LVL75
 7636 0433 26010000 		.4byte	.LVL76
 7637 0437 0200     		.2byte	0x2
 7638 0439 91       		.byte	0x91
 7639 043a 60       		.sleb128 -32
 7640 043b 00000000 		.4byte	0
 7641 043f 00000000 		.4byte	0
 7642              	.LLST23:
 7643 0443 82000000 		.4byte	.LVL54
 7644 0447 1A010000 		.4byte	.LVL74
 7645 044b 0200     		.2byte	0x2
ARM GAS  C:\Users\YUANFA~1\AppData\Local\Temp\ccYDlzYT.s 			page 205


 7646 044d 91       		.byte	0x91
 7647 044e 64       		.sleb128 -28
 7648 044f 1C010000 		.4byte	.LVL75
 7649 0453 26010000 		.4byte	.LVL76
 7650 0457 0200     		.2byte	0x2
 7651 0459 91       		.byte	0x91
 7652 045a 64       		.sleb128 -28
 7653 045b 00000000 		.4byte	0
 7654 045f 00000000 		.4byte	0
 7655              	.LLST24:
 7656 0463 00010000 		.4byte	.LVL71
 7657 0467 0B010000 		.4byte	.LVL73-1
 7658 046b 0100     		.2byte	0x1
 7659 046d 52       		.byte	0x52
 7660 046e 00000000 		.4byte	0
 7661 0472 00000000 		.4byte	0
 7662              	.LLST26:
 7663 0476 D4000000 		.4byte	.LVL66
 7664 047a D8000000 		.4byte	.LVL67
 7665 047e 0100     		.2byte	0x1
 7666 0480 50       		.byte	0x50
 7667 0481 E0000000 		.4byte	.LVL70
 7668 0485 08010000 		.4byte	.LVL72
 7669 0489 0100     		.2byte	0x1
 7670 048b 50       		.byte	0x50
 7671 048c 08010000 		.4byte	.LVL72
 7672 0490 0B010000 		.4byte	.LVL73-1
 7673 0494 0200     		.2byte	0x2
 7674 0496 7D       		.byte	0x7d
 7675 0497 00       		.sleb128 0
 7676 0498 00000000 		.4byte	0
 7677 049c 00000000 		.4byte	0
 7678              	.LLST27:
 7679 04a0 C4000000 		.4byte	.LVL63
 7680 04a4 CE000000 		.4byte	.LVL64
 7681 04a8 0100     		.2byte	0x1
 7682 04aa 50       		.byte	0x50
 7683 04ab CE000000 		.4byte	.LVL64
 7684 04af D2000000 		.4byte	.LVL65
 7685 04b3 0300     		.2byte	0x3
 7686 04b5 70       		.byte	0x70
 7687 04b6 01       		.sleb128 1
 7688 04b7 9F       		.byte	0x9f
 7689 04b8 D8000000 		.4byte	.LVL67
 7690 04bc DA000000 		.4byte	.LVL68
 7691 04c0 0100     		.2byte	0x1
 7692 04c2 50       		.byte	0x50
 7693 04c3 DE000000 		.4byte	.LVL69
 7694 04c7 E0000000 		.4byte	.LVL70
 7695 04cb 0100     		.2byte	0x1
 7696 04cd 50       		.byte	0x50
 7697 04ce 00000000 		.4byte	0
 7698 04d2 00000000 		.4byte	0
 7699              	.LLST28:
 7700 04d6 00000000 		.4byte	.LVL83
 7701 04da 09000000 		.4byte	.LVL84-1
 7702 04de 0100     		.2byte	0x1
ARM GAS  C:\Users\YUANFA~1\AppData\Local\Temp\ccYDlzYT.s 			page 206


 7703 04e0 50       		.byte	0x50
 7704 04e1 09000000 		.4byte	.LVL84-1
 7705 04e5 20000000 		.4byte	.LVL86
 7706 04e9 0100     		.2byte	0x1
 7707 04eb 54       		.byte	0x54
 7708 04ec 20000000 		.4byte	.LVL86
 7709 04f0 28000000 		.4byte	.LFE19
 7710 04f4 0400     		.2byte	0x4
 7711 04f6 F3       		.byte	0xf3
 7712 04f7 01       		.uleb128 0x1
 7713 04f8 50       		.byte	0x50
 7714 04f9 9F       		.byte	0x9f
 7715 04fa 00000000 		.4byte	0
 7716 04fe 00000000 		.4byte	0
 7717              	.LLST29:
 7718 0502 0A000000 		.4byte	.LVL84
 7719 0506 1F000000 		.4byte	.LVL85-1
 7720 050a 0100     		.2byte	0x1
 7721 050c 50       		.byte	0x50
 7722 050d 00000000 		.4byte	0
 7723 0511 00000000 		.4byte	0
 7724              	.LLST30:
 7725 0515 00000000 		.4byte	.LVL87
 7726 0519 09000000 		.4byte	.LVL88-1
 7727 051d 0100     		.2byte	0x1
 7728 051f 50       		.byte	0x50
 7729 0520 09000000 		.4byte	.LVL88-1
 7730 0524 26000000 		.4byte	.LVL92
 7731 0528 0100     		.2byte	0x1
 7732 052a 54       		.byte	0x54
 7733 052b 26000000 		.4byte	.LVL92
 7734 052f 38000000 		.4byte	.LFE21
 7735 0533 0400     		.2byte	0x4
 7736 0535 F3       		.byte	0xf3
 7737 0536 01       		.uleb128 0x1
 7738 0537 50       		.byte	0x50
 7739 0538 9F       		.byte	0x9f
 7740 0539 00000000 		.4byte	0
 7741 053d 00000000 		.4byte	0
 7742              	.LLST31:
 7743 0541 00000000 		.4byte	.LVL87
 7744 0545 09000000 		.4byte	.LVL88-1
 7745 0549 0100     		.2byte	0x1
 7746 054b 51       		.byte	0x51
 7747 054c 09000000 		.4byte	.LVL88-1
 7748 0550 22000000 		.4byte	.LVL90
 7749 0554 0100     		.2byte	0x1
 7750 0556 55       		.byte	0x55
 7751 0557 22000000 		.4byte	.LVL90
 7752 055b 38000000 		.4byte	.LFE21
 7753 055f 0400     		.2byte	0x4
 7754 0561 F3       		.byte	0xf3
 7755 0562 01       		.uleb128 0x1
 7756 0563 51       		.byte	0x51
 7757 0564 9F       		.byte	0x9f
 7758 0565 00000000 		.4byte	0
 7759 0569 00000000 		.4byte	0
ARM GAS  C:\Users\YUANFA~1\AppData\Local\Temp\ccYDlzYT.s 			page 207


 7760              	.LLST32:
 7761 056d 20000000 		.4byte	.LVL89
 7762 0571 24000000 		.4byte	.LVL91
 7763 0575 0100     		.2byte	0x1
 7764 0577 53       		.byte	0x53
 7765 0578 24000000 		.4byte	.LVL91
 7766 057c 2A000000 		.4byte	.LVL93
 7767 0580 0100     		.2byte	0x1
 7768 0582 55       		.byte	0x55
 7769 0583 00000000 		.4byte	0
 7770 0587 00000000 		.4byte	0
 7771              	.LLST33:
 7772 058b 0A000000 		.4byte	.LVL88
 7773 058f 2D000000 		.4byte	.LVL94-1
 7774 0593 0100     		.2byte	0x1
 7775 0595 50       		.byte	0x50
 7776 0596 00000000 		.4byte	0
 7777 059a 00000000 		.4byte	0
 7778              	.LLST34:
 7779 059e 00000000 		.4byte	.LVL95
 7780 05a2 07000000 		.4byte	.LVL97-1
 7781 05a6 0100     		.2byte	0x1
 7782 05a8 50       		.byte	0x50
 7783 05a9 07000000 		.4byte	.LVL97-1
 7784 05ad 20000000 		.4byte	.LVL99
 7785 05b1 0100     		.2byte	0x1
 7786 05b3 54       		.byte	0x54
 7787 05b4 20000000 		.4byte	.LVL99
 7788 05b8 34000000 		.4byte	.LFE24
 7789 05bc 0400     		.2byte	0x4
 7790 05be F3       		.byte	0xf3
 7791 05bf 01       		.uleb128 0x1
 7792 05c0 50       		.byte	0x50
 7793 05c1 9F       		.byte	0x9f
 7794 05c2 00000000 		.4byte	0
 7795 05c6 00000000 		.4byte	0
 7796              	.LLST35:
 7797 05ca 04000000 		.4byte	.LVL96
 7798 05ce 1A000000 		.4byte	.LVL98
 7799 05d2 0200     		.2byte	0x2
 7800 05d4 30       		.byte	0x30
 7801 05d5 9F       		.byte	0x9f
 7802 05d6 1A000000 		.4byte	.LVL98
 7803 05da 2C000000 		.4byte	.LVL101
 7804 05de 0100     		.2byte	0x1
 7805 05e0 55       		.byte	0x55
 7806 05e1 2C000000 		.4byte	.LVL101
 7807 05e5 34000000 		.4byte	.LFE24
 7808 05e9 0100     		.2byte	0x1
 7809 05eb 50       		.byte	0x50
 7810 05ec 00000000 		.4byte	0
 7811 05f0 00000000 		.4byte	0
 7812              	.LLST36:
 7813 05f4 08000000 		.4byte	.LVL97
 7814 05f8 29000000 		.4byte	.LVL100-1
 7815 05fc 0100     		.2byte	0x1
 7816 05fe 50       		.byte	0x50
ARM GAS  C:\Users\YUANFA~1\AppData\Local\Temp\ccYDlzYT.s 			page 208


 7817 05ff 00000000 		.4byte	0
 7818 0603 00000000 		.4byte	0
 7819              	.LLST37:
 7820 0607 00000000 		.4byte	.LVL102
 7821 060b 09000000 		.4byte	.LVL104-1
 7822 060f 0100     		.2byte	0x1
 7823 0611 50       		.byte	0x50
 7824 0612 09000000 		.4byte	.LVL104-1
 7825 0616 14000000 		.4byte	.LVL105
 7826 061a 0100     		.2byte	0x1
 7827 061c 55       		.byte	0x55
 7828 061d 14000000 		.4byte	.LVL105
 7829 0621 62000000 		.4byte	.LVL111
 7830 0625 0300     		.2byte	0x3
 7831 0627 75       		.byte	0x75
 7832 0628 7E       		.sleb128 -2
 7833 0629 9F       		.byte	0x9f
 7834 062a 62000000 		.4byte	.LVL111
 7835 062e 78000000 		.4byte	.LFE26
 7836 0632 0400     		.2byte	0x4
 7837 0634 F3       		.byte	0xf3
 7838 0635 01       		.uleb128 0x1
 7839 0636 50       		.byte	0x50
 7840 0637 9F       		.byte	0x9f
 7841 0638 00000000 		.4byte	0
 7842 063c 00000000 		.4byte	0
 7843              	.LLST38:
 7844 0640 00000000 		.4byte	.LVL102
 7845 0644 09000000 		.4byte	.LVL104-1
 7846 0648 0100     		.2byte	0x1
 7847 064a 51       		.byte	0x51
 7848 064b 09000000 		.4byte	.LVL104-1
 7849 064f 1A000000 		.4byte	.LVL106
 7850 0653 0100     		.2byte	0x1
 7851 0655 54       		.byte	0x54
 7852 0656 1A000000 		.4byte	.LVL106
 7853 065a 78000000 		.4byte	.LFE26
 7854 065e 0400     		.2byte	0x4
 7855 0660 F3       		.byte	0xf3
 7856 0661 01       		.uleb128 0x1
 7857 0662 51       		.byte	0x51
 7858 0663 9F       		.byte	0x9f
 7859 0664 00000000 		.4byte	0
 7860 0668 00000000 		.4byte	0
 7861              	.LLST39:
 7862 066c 0A000000 		.4byte	.LVL104
 7863 0670 65000000 		.4byte	.LVL112-1
 7864 0674 0100     		.2byte	0x1
 7865 0676 50       		.byte	0x50
 7866 0677 00000000 		.4byte	0
 7867 067b 00000000 		.4byte	0
 7868              	.LLST40:
 7869 067f 06000000 		.4byte	.LVL103
 7870 0683 40000000 		.4byte	.LVL107
 7871 0687 0200     		.2byte	0x2
 7872 0689 30       		.byte	0x30
 7873 068a 9F       		.byte	0x9f
ARM GAS  C:\Users\YUANFA~1\AppData\Local\Temp\ccYDlzYT.s 			page 209


 7874 068b 40000000 		.4byte	.LVL107
 7875 068f 52000000 		.4byte	.LVL108
 7876 0693 0100     		.2byte	0x1
 7877 0695 53       		.byte	0x53
 7878 0696 54000000 		.4byte	.LVL109
 7879 069a 5C000000 		.4byte	.LVL110
 7880 069e 0100     		.2byte	0x1
 7881 06a0 53       		.byte	0x53
 7882 06a1 00000000 		.4byte	0
 7883 06a5 00000000 		.4byte	0
 7884              	.LLST41:
 7885 06a9 00000000 		.4byte	.LVL113
 7886 06ad 04000000 		.4byte	.LVL114
 7887 06b1 0100     		.2byte	0x1
 7888 06b3 50       		.byte	0x50
 7889 06b4 04000000 		.4byte	.LVL114
 7890 06b8 14000000 		.4byte	.LFE28
 7891 06bc 0100     		.2byte	0x1
 7892 06be 52       		.byte	0x52
 7893 06bf 00000000 		.4byte	0
 7894 06c3 00000000 		.4byte	0
 7895              	.LLST42:
 7896 06c7 00000000 		.4byte	.LVL119
 7897 06cb 04000000 		.4byte	.LVL120
 7898 06cf 0100     		.2byte	0x1
 7899 06d1 50       		.byte	0x50
 7900 06d2 04000000 		.4byte	.LVL120
 7901 06d6 14000000 		.4byte	.LFE37
 7902 06da 0400     		.2byte	0x4
 7903 06dc F3       		.byte	0xf3
 7904 06dd 01       		.uleb128 0x1
 7905 06de 50       		.byte	0x50
 7906 06df 9F       		.byte	0x9f
 7907 06e0 00000000 		.4byte	0
 7908 06e4 00000000 		.4byte	0
 7909              	.LLST43:
 7910 06e8 00000000 		.4byte	.LVL121
 7911 06ec 08000000 		.4byte	.LVL122
 7912 06f0 0100     		.2byte	0x1
 7913 06f2 50       		.byte	0x50
 7914 06f3 08000000 		.4byte	.LVL122
 7915 06f7 18000000 		.4byte	.LFE38
 7916 06fb 0400     		.2byte	0x4
 7917 06fd F3       		.byte	0xf3
 7918 06fe 01       		.uleb128 0x1
 7919 06ff 50       		.byte	0x50
 7920 0700 9F       		.byte	0x9f
 7921 0701 00000000 		.4byte	0
 7922 0705 00000000 		.4byte	0
 7923              	.LLST44:
 7924 0709 00000000 		.4byte	.LVL123
 7925 070d 04000000 		.4byte	.LVL124
 7926 0711 0100     		.2byte	0x1
 7927 0713 50       		.byte	0x50
 7928 0714 04000000 		.4byte	.LVL124
 7929 0718 14000000 		.4byte	.LFE39
 7930 071c 0400     		.2byte	0x4
ARM GAS  C:\Users\YUANFA~1\AppData\Local\Temp\ccYDlzYT.s 			page 210


 7931 071e F3       		.byte	0xf3
 7932 071f 01       		.uleb128 0x1
 7933 0720 50       		.byte	0x50
 7934 0721 9F       		.byte	0x9f
 7935 0722 00000000 		.4byte	0
 7936 0726 00000000 		.4byte	0
 7937              	.LLST45:
 7938 072a 00000000 		.4byte	.LVL125
 7939 072e 04000000 		.4byte	.LVL126
 7940 0732 0100     		.2byte	0x1
 7941 0734 50       		.byte	0x50
 7942 0735 04000000 		.4byte	.LVL126
 7943 0739 14000000 		.4byte	.LFE40
 7944 073d 0400     		.2byte	0x4
 7945 073f F3       		.byte	0xf3
 7946 0740 01       		.uleb128 0x1
 7947 0741 50       		.byte	0x50
 7948 0742 9F       		.byte	0x9f
 7949 0743 00000000 		.4byte	0
 7950 0747 00000000 		.4byte	0
 7951              	.LLST46:
 7952 074b 00000000 		.4byte	.LVL127
 7953 074f 04000000 		.4byte	.LVL128
 7954 0753 0100     		.2byte	0x1
 7955 0755 50       		.byte	0x50
 7956 0756 04000000 		.4byte	.LVL128
 7957 075a 14000000 		.4byte	.LFE41
 7958 075e 0400     		.2byte	0x4
 7959 0760 F3       		.byte	0xf3
 7960 0761 01       		.uleb128 0x1
 7961 0762 50       		.byte	0x50
 7962 0763 9F       		.byte	0x9f
 7963 0764 00000000 		.4byte	0
 7964 0768 00000000 		.4byte	0
 7965              	.LLST47:
 7966 076c 00000000 		.4byte	.LVL130
 7967 0770 08000000 		.4byte	.LVL131
 7968 0774 0100     		.2byte	0x1
 7969 0776 50       		.byte	0x50
 7970 0777 08000000 		.4byte	.LVL131
 7971 077b 28000000 		.4byte	.LVL135
 7972 077f 0100     		.2byte	0x1
 7973 0781 54       		.byte	0x54
 7974 0782 28000000 		.4byte	.LVL135
 7975 0786 40000000 		.4byte	.LFE18
 7976 078a 0400     		.2byte	0x4
 7977 078c F3       		.byte	0xf3
 7978 078d 01       		.uleb128 0x1
 7979 078e 50       		.byte	0x50
 7980 078f 9F       		.byte	0x9f
 7981 0790 00000000 		.4byte	0
 7982 0794 00000000 		.4byte	0
 7983              	.LLST48:
 7984 0798 10000000 		.4byte	.LVL133
 7985 079c 35000000 		.4byte	.LVL138-1
 7986 07a0 0100     		.2byte	0x1
 7987 07a2 50       		.byte	0x50
ARM GAS  C:\Users\YUANFA~1\AppData\Local\Temp\ccYDlzYT.s 			page 211


 7988 07a3 00000000 		.4byte	0
 7989 07a7 00000000 		.4byte	0
 7990              	.LLST49:
 7991 07ab 22000000 		.4byte	.LVL134
 7992 07af 30000000 		.4byte	.LVL136
 7993 07b3 0100     		.2byte	0x1
 7994 07b5 55       		.byte	0x55
 7995 07b6 32000000 		.4byte	.LVL137
 7996 07ba 38000000 		.4byte	.LVL139
 7997 07be 0100     		.2byte	0x1
 7998 07c0 55       		.byte	0x55
 7999 07c1 38000000 		.4byte	.LVL139
 8000 07c5 40000000 		.4byte	.LFE18
 8001 07c9 0100     		.2byte	0x1
 8002 07cb 50       		.byte	0x50
 8003 07cc 00000000 		.4byte	0
 8004 07d0 00000000 		.4byte	0
 8005              	.LLST50:
 8006 07d4 00000000 		.4byte	.LVL140
 8007 07d8 08000000 		.4byte	.LVL141
 8008 07dc 0100     		.2byte	0x1
 8009 07de 50       		.byte	0x50
 8010 07df 08000000 		.4byte	.LVL141
 8011 07e3 14000000 		.4byte	.LVL144
 8012 07e7 0100     		.2byte	0x1
 8013 07e9 54       		.byte	0x54
 8014 07ea 14000000 		.4byte	.LVL144
 8015 07ee 2C000000 		.4byte	.LFE22
 8016 07f2 0400     		.2byte	0x4
 8017 07f4 F3       		.byte	0xf3
 8018 07f5 01       		.uleb128 0x1
 8019 07f6 50       		.byte	0x50
 8020 07f7 9F       		.byte	0x9f
 8021 07f8 00000000 		.4byte	0
 8022 07fc 00000000 		.4byte	0
 8023              	.LLST51:
 8024 0800 1A000000 		.4byte	.LVL145
 8025 0804 1C000000 		.4byte	.LVL146
 8026 0808 0700     		.2byte	0x7
 8027 080a 74       		.byte	0x74
 8028 080b 00       		.sleb128 0
 8029 080c 48       		.byte	0x48
 8030 080d 41       		.byte	0x41
 8031 080e 24       		.byte	0x24
 8032 080f 1A       		.byte	0x1a
 8033 0810 9F       		.byte	0x9f
 8034 0811 20000000 		.4byte	.LVL147
 8035 0815 26000000 		.4byte	.LVL149
 8036 0819 0100     		.2byte	0x1
 8037 081b 54       		.byte	0x54
 8038 081c 26000000 		.4byte	.LVL149
 8039 0820 2C000000 		.4byte	.LFE22
 8040 0824 0100     		.2byte	0x1
 8041 0826 50       		.byte	0x50
 8042 0827 00000000 		.4byte	0
 8043 082b 00000000 		.4byte	0
 8044              	.LLST52:
ARM GAS  C:\Users\YUANFA~1\AppData\Local\Temp\ccYDlzYT.s 			page 212


 8045 082f 10000000 		.4byte	.LVL143
 8046 0833 23000000 		.4byte	.LVL148-1
 8047 0837 0100     		.2byte	0x1
 8048 0839 50       		.byte	0x50
 8049 083a 00000000 		.4byte	0
 8050 083e 00000000 		.4byte	0
 8051              	.LLST53:
 8052 0842 00000000 		.4byte	.LVL150
 8053 0846 07000000 		.4byte	.LVL152-1
 8054 084a 0100     		.2byte	0x1
 8055 084c 50       		.byte	0x50
 8056 084d 07000000 		.4byte	.LVL152-1
 8057 0851 2A000000 		.4byte	.LVL163
 8058 0855 0100     		.2byte	0x1
 8059 0857 54       		.byte	0x54
 8060 0858 2A000000 		.4byte	.LVL163
 8061 085c 2C000000 		.4byte	.LFE23
 8062 0860 0400     		.2byte	0x4
 8063 0862 F3       		.byte	0xf3
 8064 0863 01       		.uleb128 0x1
 8065 0864 50       		.byte	0x50
 8066 0865 9F       		.byte	0x9f
 8067 0866 00000000 		.4byte	0
 8068 086a 00000000 		.4byte	0
 8069              	.LLST54:
 8070 086e 10000000 		.4byte	.LVL155
 8071 0872 1E000000 		.4byte	.LVL156
 8072 0876 0100     		.2byte	0x1
 8073 0878 50       		.byte	0x50
 8074 0879 20000000 		.4byte	.LVL157
 8075 087d 22000000 		.4byte	.LVL158
 8076 0881 0100     		.2byte	0x1
 8077 0883 50       		.byte	0x50
 8078 0884 24000000 		.4byte	.LVL159
 8079 0888 26000000 		.4byte	.LVL160
 8080 088c 0100     		.2byte	0x1
 8081 088e 50       		.byte	0x50
 8082 088f 28000000 		.4byte	.LVL161
 8083 0893 2A000000 		.4byte	.LVL162
 8084 0897 0100     		.2byte	0x1
 8085 0899 50       		.byte	0x50
 8086 089a 00000000 		.4byte	0
 8087 089e 00000000 		.4byte	0
 8088              	.LLST55:
 8089 08a2 0A000000 		.4byte	.LVL153
 8090 08a6 0C000000 		.4byte	.LVL154
 8091 08aa 0100     		.2byte	0x1
 8092 08ac 50       		.byte	0x50
 8093 08ad 0C000000 		.4byte	.LVL154
 8094 08b1 2A000000 		.4byte	.LVL164
 8095 08b5 0100     		.2byte	0x1
 8096 08b7 55       		.byte	0x55
 8097 08b8 00000000 		.4byte	0
 8098 08bc 00000000 		.4byte	0
 8099              	.LLST56:
 8100 08c0 04000000 		.4byte	.LVL151
 8101 08c4 2A000000 		.4byte	.LVL162
ARM GAS  C:\Users\YUANFA~1\AppData\Local\Temp\ccYDlzYT.s 			page 213


 8102 08c8 0200     		.2byte	0x2
 8103 08ca 41       		.byte	0x41
 8104 08cb 9F       		.byte	0x9f
 8105 08cc 2A000000 		.4byte	.LVL162
 8106 08d0 2C000000 		.4byte	.LFE23
 8107 08d4 0100     		.2byte	0x1
 8108 08d6 50       		.byte	0x50
 8109 08d7 00000000 		.4byte	0
 8110 08db 00000000 		.4byte	0
 8111              	.LLST57:
 8112 08df 00000000 		.4byte	.LVL165
 8113 08e3 0F000000 		.4byte	.LVL167-1
 8114 08e7 0100     		.2byte	0x1
 8115 08e9 50       		.byte	0x50
 8116 08ea 0F000000 		.4byte	.LVL167-1
 8117 08ee 68000000 		.4byte	.LVL178
 8118 08f2 0100     		.2byte	0x1
 8119 08f4 54       		.byte	0x54
 8120 08f5 68000000 		.4byte	.LVL178
 8121 08f9 70000000 		.4byte	.LVL180
 8122 08fd 0400     		.2byte	0x4
 8123 08ff F3       		.byte	0xf3
 8124 0900 01       		.uleb128 0x1
 8125 0901 50       		.byte	0x50
 8126 0902 9F       		.byte	0x9f
 8127 0903 70000000 		.4byte	.LVL180
 8128 0907 72000000 		.4byte	.LVL181
 8129 090b 0100     		.2byte	0x1
 8130 090d 54       		.byte	0x54
 8131 090e 72000000 		.4byte	.LVL181
 8132 0912 74000000 		.4byte	.LVL182
 8133 0916 0400     		.2byte	0x4
 8134 0918 F3       		.byte	0xf3
 8135 0919 01       		.uleb128 0x1
 8136 091a 50       		.byte	0x50
 8137 091b 9F       		.byte	0x9f
 8138 091c 74000000 		.4byte	.LVL182
 8139 0920 76000000 		.4byte	.LVL183
 8140 0924 0100     		.2byte	0x1
 8141 0926 54       		.byte	0x54
 8142 0927 76000000 		.4byte	.LVL183
 8143 092b 78000000 		.4byte	.LVL184
 8144 092f 0400     		.2byte	0x4
 8145 0931 F3       		.byte	0xf3
 8146 0932 01       		.uleb128 0x1
 8147 0933 50       		.byte	0x50
 8148 0934 9F       		.byte	0x9f
 8149 0935 78000000 		.4byte	.LVL184
 8150 0939 7A000000 		.4byte	.LVL185
 8151 093d 0100     		.2byte	0x1
 8152 093f 54       		.byte	0x54
 8153 0940 7A000000 		.4byte	.LVL185
 8154 0944 7C000000 		.4byte	.LVL186
 8155 0948 0400     		.2byte	0x4
 8156 094a F3       		.byte	0xf3
 8157 094b 01       		.uleb128 0x1
 8158 094c 50       		.byte	0x50
ARM GAS  C:\Users\YUANFA~1\AppData\Local\Temp\ccYDlzYT.s 			page 214


 8159 094d 9F       		.byte	0x9f
 8160 094e 7C000000 		.4byte	.LVL186
 8161 0952 7E000000 		.4byte	.LVL187
 8162 0956 0100     		.2byte	0x1
 8163 0958 54       		.byte	0x54
 8164 0959 7E000000 		.4byte	.LVL187
 8165 095d 80000000 		.4byte	.LVL188
 8166 0961 0400     		.2byte	0x4
 8167 0963 F3       		.byte	0xf3
 8168 0964 01       		.uleb128 0x1
 8169 0965 50       		.byte	0x50
 8170 0966 9F       		.byte	0x9f
 8171 0967 80000000 		.4byte	.LVL188
 8172 096b 82000000 		.4byte	.LVL189
 8173 096f 0100     		.2byte	0x1
 8174 0971 54       		.byte	0x54
 8175 0972 82000000 		.4byte	.LVL189
 8176 0976 84000000 		.4byte	.LVL190
 8177 097a 0400     		.2byte	0x4
 8178 097c F3       		.byte	0xf3
 8179 097d 01       		.uleb128 0x1
 8180 097e 50       		.byte	0x50
 8181 097f 9F       		.byte	0x9f
 8182 0980 84000000 		.4byte	.LVL190
 8183 0984 86000000 		.4byte	.LVL191
 8184 0988 0100     		.2byte	0x1
 8185 098a 54       		.byte	0x54
 8186 098b 86000000 		.4byte	.LVL191
 8187 098f 88000000 		.4byte	.LVL192
 8188 0993 0400     		.2byte	0x4
 8189 0995 F3       		.byte	0xf3
 8190 0996 01       		.uleb128 0x1
 8191 0997 50       		.byte	0x50
 8192 0998 9F       		.byte	0x9f
 8193 0999 88000000 		.4byte	.LVL192
 8194 099d 8A000000 		.4byte	.LVL193
 8195 09a1 0100     		.2byte	0x1
 8196 09a3 54       		.byte	0x54
 8197 09a4 8A000000 		.4byte	.LVL193
 8198 09a8 8C000000 		.4byte	.LVL194
 8199 09ac 0400     		.2byte	0x4
 8200 09ae F3       		.byte	0xf3
 8201 09af 01       		.uleb128 0x1
 8202 09b0 50       		.byte	0x50
 8203 09b1 9F       		.byte	0x9f
 8204 09b2 8C000000 		.4byte	.LVL194
 8205 09b6 8E000000 		.4byte	.LVL195
 8206 09ba 0100     		.2byte	0x1
 8207 09bc 54       		.byte	0x54
 8208 09bd 8E000000 		.4byte	.LVL195
 8209 09c1 A4000000 		.4byte	.LFE20
 8210 09c5 0400     		.2byte	0x4
 8211 09c7 F3       		.byte	0xf3
 8212 09c8 01       		.uleb128 0x1
 8213 09c9 50       		.byte	0x50
 8214 09ca 9F       		.byte	0x9f
 8215 09cb 00000000 		.4byte	0
ARM GAS  C:\Users\YUANFA~1\AppData\Local\Temp\ccYDlzYT.s 			page 215


 8216 09cf 00000000 		.4byte	0
 8217              	.LLST58:
 8218 09d3 00000000 		.4byte	.LVL165
 8219 09d7 0F000000 		.4byte	.LVL167-1
 8220 09db 0100     		.2byte	0x1
 8221 09dd 51       		.byte	0x51
 8222 09de 0F000000 		.4byte	.LVL167-1
 8223 09e2 98000000 		.4byte	.LVL198
 8224 09e6 0100     		.2byte	0x1
 8225 09e8 55       		.byte	0x55
 8226 09e9 98000000 		.4byte	.LVL198
 8227 09ed A4000000 		.4byte	.LFE20
 8228 09f1 0400     		.2byte	0x4
 8229 09f3 F3       		.byte	0xf3
 8230 09f4 01       		.uleb128 0x1
 8231 09f5 51       		.byte	0x51
 8232 09f6 9F       		.byte	0x9f
 8233 09f7 00000000 		.4byte	0
 8234 09fb 00000000 		.4byte	0
 8235              	.LLST59:
 8236 09ff 00000000 		.4byte	.LVL165
 8237 0a03 0F000000 		.4byte	.LVL167-1
 8238 0a07 0100     		.2byte	0x1
 8239 0a09 52       		.byte	0x52
 8240 0a0a 0F000000 		.4byte	.LVL167-1
 8241 0a0e 52000000 		.4byte	.LVL173
 8242 0a12 0100     		.2byte	0x1
 8243 0a14 56       		.byte	0x56
 8244 0a15 52000000 		.4byte	.LVL173
 8245 0a19 54000000 		.4byte	.LVL174
 8246 0a1d 0300     		.2byte	0x3
 8247 0a1f 76       		.byte	0x76
 8248 0a20 01       		.sleb128 1
 8249 0a21 9F       		.byte	0x9f
 8250 0a22 54000000 		.4byte	.LVL174
 8251 0a26 70000000 		.4byte	.LVL180
 8252 0a2a 0400     		.2byte	0x4
 8253 0a2c F3       		.byte	0xf3
 8254 0a2d 01       		.uleb128 0x1
 8255 0a2e 52       		.byte	0x52
 8256 0a2f 9F       		.byte	0x9f
 8257 0a30 70000000 		.4byte	.LVL180
 8258 0a34 8E000000 		.4byte	.LVL195
 8259 0a38 0100     		.2byte	0x1
 8260 0a3a 56       		.byte	0x56
 8261 0a3b 8E000000 		.4byte	.LVL195
 8262 0a3f A4000000 		.4byte	.LFE20
 8263 0a43 0400     		.2byte	0x4
 8264 0a45 F3       		.byte	0xf3
 8265 0a46 01       		.uleb128 0x1
 8266 0a47 52       		.byte	0x52
 8267 0a48 9F       		.byte	0x9f
 8268 0a49 00000000 		.4byte	0
 8269 0a4d 00000000 		.4byte	0
 8270              	.LLST60:
 8271 0a51 00000000 		.4byte	.LVL165
 8272 0a55 0F000000 		.4byte	.LVL167-1
ARM GAS  C:\Users\YUANFA~1\AppData\Local\Temp\ccYDlzYT.s 			page 216


 8273 0a59 0100     		.2byte	0x1
 8274 0a5b 53       		.byte	0x53
 8275 0a5c 0F000000 		.4byte	.LVL167-1
 8276 0a60 5E000000 		.4byte	.LVL176
 8277 0a64 0100     		.2byte	0x1
 8278 0a66 57       		.byte	0x57
 8279 0a67 5E000000 		.4byte	.LVL176
 8280 0a6b 70000000 		.4byte	.LVL180
 8281 0a6f 0400     		.2byte	0x4
 8282 0a71 F3       		.byte	0xf3
 8283 0a72 01       		.uleb128 0x1
 8284 0a73 53       		.byte	0x53
 8285 0a74 9F       		.byte	0x9f
 8286 0a75 70000000 		.4byte	.LVL180
 8287 0a79 8E000000 		.4byte	.LVL195
 8288 0a7d 0100     		.2byte	0x1
 8289 0a7f 57       		.byte	0x57
 8290 0a80 8E000000 		.4byte	.LVL195
 8291 0a84 A4000000 		.4byte	.LFE20
 8292 0a88 0400     		.2byte	0x4
 8293 0a8a F3       		.byte	0xf3
 8294 0a8b 01       		.uleb128 0x1
 8295 0a8c 53       		.byte	0x53
 8296 0a8d 9F       		.byte	0x9f
 8297 0a8e 00000000 		.4byte	0
 8298 0a92 00000000 		.4byte	0
 8299              	.LLST61:
 8300 0a96 4A000000 		.4byte	.LVL171
 8301 0a9a 66000000 		.4byte	.LVL177
 8302 0a9e 0100     		.2byte	0x1
 8303 0aa0 53       		.byte	0x53
 8304 0aa1 66000000 		.4byte	.LVL177
 8305 0aa5 70000000 		.4byte	.LVL180
 8306 0aa9 0100     		.2byte	0x1
 8307 0aab 57       		.byte	0x57
 8308 0aac 00000000 		.4byte	0
 8309 0ab0 00000000 		.4byte	0
 8310              	.LLST62:
 8311 0ab4 18000000 		.4byte	.LVL169
 8312 0ab8 40000000 		.4byte	.LVL170
 8313 0abc 0100     		.2byte	0x1
 8314 0abe 50       		.byte	0x50
 8315 0abf 70000000 		.4byte	.LVL180
 8316 0ac3 8E000000 		.4byte	.LVL195
 8317 0ac7 0100     		.2byte	0x1
 8318 0ac9 50       		.byte	0x50
 8319 0aca 00000000 		.4byte	0
 8320 0ace 00000000 		.4byte	0
 8321              	.LLST63:
 8322 0ad2 12000000 		.4byte	.LVL168
 8323 0ad6 6C000000 		.4byte	.LVL179
 8324 0ada 0200     		.2byte	0x2
 8325 0adc 91       		.byte	0x91
 8326 0add 64       		.sleb128 -28
 8327 0ade 70000000 		.4byte	.LVL180
 8328 0ae2 8E000000 		.4byte	.LVL195
 8329 0ae6 0200     		.2byte	0x2
ARM GAS  C:\Users\YUANFA~1\AppData\Local\Temp\ccYDlzYT.s 			page 217


 8330 0ae8 91       		.byte	0x91
 8331 0ae9 64       		.sleb128 -28
 8332 0aea 00000000 		.4byte	0
 8333 0aee 00000000 		.4byte	0
 8334              	.LLST64:
 8335 0af2 0C000000 		.4byte	.LVL166
 8336 0af6 6C000000 		.4byte	.LVL179
 8337 0afa 0200     		.2byte	0x2
 8338 0afc 31       		.byte	0x31
 8339 0afd 9F       		.byte	0x9f
 8340 0afe 6C000000 		.4byte	.LVL179
 8341 0b02 70000000 		.4byte	.LVL180
 8342 0b06 0200     		.2byte	0x2
 8343 0b08 30       		.byte	0x30
 8344 0b09 9F       		.byte	0x9f
 8345 0b0a 70000000 		.4byte	.LVL180
 8346 0b0e 8E000000 		.4byte	.LVL195
 8347 0b12 0200     		.2byte	0x2
 8348 0b14 31       		.byte	0x31
 8349 0b15 9F       		.byte	0x9f
 8350 0b16 8E000000 		.4byte	.LVL195
 8351 0b1a 98000000 		.4byte	.LVL197
 8352 0b1e 0100     		.2byte	0x1
 8353 0b20 54       		.byte	0x54
 8354 0b21 98000000 		.4byte	.LVL197
 8355 0b25 A4000000 		.4byte	.LFE20
 8356 0b29 0100     		.2byte	0x1
 8357 0b2b 50       		.byte	0x50
 8358 0b2c 00000000 		.4byte	0
 8359 0b30 00000000 		.4byte	0
 8360              	.LLST65:
 8361 0b34 00000000 		.4byte	.LVL199
 8362 0b38 09000000 		.4byte	.LVL201-1
 8363 0b3c 0100     		.2byte	0x1
 8364 0b3e 50       		.byte	0x50
 8365 0b3f 09000000 		.4byte	.LVL201-1
 8366 0b43 34000000 		.4byte	.LVL208
 8367 0b47 0100     		.2byte	0x1
 8368 0b49 54       		.byte	0x54
 8369 0b4a 34000000 		.4byte	.LVL208
 8370 0b4e 3C000000 		.4byte	.LVL210
 8371 0b52 0400     		.2byte	0x4
 8372 0b54 F3       		.byte	0xf3
 8373 0b55 01       		.uleb128 0x1
 8374 0b56 50       		.byte	0x50
 8375 0b57 9F       		.byte	0x9f
 8376 0b58 3C000000 		.4byte	.LVL210
 8377 0b5c 3E000000 		.4byte	.LVL211
 8378 0b60 0100     		.2byte	0x1
 8379 0b62 54       		.byte	0x54
 8380 0b63 3E000000 		.4byte	.LVL211
 8381 0b67 40000000 		.4byte	.LVL212
 8382 0b6b 0400     		.2byte	0x4
 8383 0b6d F3       		.byte	0xf3
 8384 0b6e 01       		.uleb128 0x1
 8385 0b6f 50       		.byte	0x50
 8386 0b70 9F       		.byte	0x9f
ARM GAS  C:\Users\YUANFA~1\AppData\Local\Temp\ccYDlzYT.s 			page 218


 8387 0b71 40000000 		.4byte	.LVL212
 8388 0b75 42000000 		.4byte	.LVL213
 8389 0b79 0100     		.2byte	0x1
 8390 0b7b 54       		.byte	0x54
 8391 0b7c 42000000 		.4byte	.LVL213
 8392 0b80 44000000 		.4byte	.LVL214
 8393 0b84 0400     		.2byte	0x4
 8394 0b86 F3       		.byte	0xf3
 8395 0b87 01       		.uleb128 0x1
 8396 0b88 50       		.byte	0x50
 8397 0b89 9F       		.byte	0x9f
 8398 0b8a 44000000 		.4byte	.LVL214
 8399 0b8e 46000000 		.4byte	.LVL215
 8400 0b92 0100     		.2byte	0x1
 8401 0b94 54       		.byte	0x54
 8402 0b95 46000000 		.4byte	.LVL215
 8403 0b99 58000000 		.4byte	.LFE27
 8404 0b9d 0400     		.2byte	0x4
 8405 0b9f F3       		.byte	0xf3
 8406 0ba0 01       		.uleb128 0x1
 8407 0ba1 50       		.byte	0x50
 8408 0ba2 9F       		.byte	0x9f
 8409 0ba3 00000000 		.4byte	0
 8410 0ba7 00000000 		.4byte	0
 8411              	.LLST66:
 8412 0bab 00000000 		.4byte	.LVL199
 8413 0baf 09000000 		.4byte	.LVL201-1
 8414 0bb3 0100     		.2byte	0x1
 8415 0bb5 51       		.byte	0x51
 8416 0bb6 09000000 		.4byte	.LVL201-1
 8417 0bba 2E000000 		.4byte	.LVL206
 8418 0bbe 0100     		.2byte	0x1
 8419 0bc0 55       		.byte	0x55
 8420 0bc1 2E000000 		.4byte	.LVL206
 8421 0bc5 3C000000 		.4byte	.LVL210
 8422 0bc9 0400     		.2byte	0x4
 8423 0bcb F3       		.byte	0xf3
 8424 0bcc 01       		.uleb128 0x1
 8425 0bcd 51       		.byte	0x51
 8426 0bce 9F       		.byte	0x9f
 8427 0bcf 3C000000 		.4byte	.LVL210
 8428 0bd3 46000000 		.4byte	.LVL215
 8429 0bd7 0100     		.2byte	0x1
 8430 0bd9 55       		.byte	0x55
 8431 0bda 46000000 		.4byte	.LVL215
 8432 0bde 58000000 		.4byte	.LFE27
 8433 0be2 0400     		.2byte	0x4
 8434 0be4 F3       		.byte	0xf3
 8435 0be5 01       		.uleb128 0x1
 8436 0be6 51       		.byte	0x51
 8437 0be7 9F       		.byte	0x9f
 8438 0be8 00000000 		.4byte	0
 8439 0bec 00000000 		.4byte	0
 8440              	.LLST67:
 8441 0bf0 2C000000 		.4byte	.LVL205
 8442 0bf4 32000000 		.4byte	.LVL207
 8443 0bf8 0100     		.2byte	0x1
ARM GAS  C:\Users\YUANFA~1\AppData\Local\Temp\ccYDlzYT.s 			page 219


 8444 0bfa 53       		.byte	0x53
 8445 0bfb 32000000 		.4byte	.LVL207
 8446 0bff 3C000000 		.4byte	.LVL210
 8447 0c03 0100     		.2byte	0x1
 8448 0c05 55       		.byte	0x55
 8449 0c06 00000000 		.4byte	0
 8450 0c0a 00000000 		.4byte	0
 8451              	.LLST68:
 8452 0c0e 0C000000 		.4byte	.LVL202
 8453 0c12 4E000000 		.4byte	.LVL218
 8454 0c16 0100     		.2byte	0x1
 8455 0c18 56       		.byte	0x56
 8456 0c19 00000000 		.4byte	0
 8457 0c1d 00000000 		.4byte	0
 8458              	.LLST69:
 8459 0c21 06000000 		.4byte	.LVL200
 8460 0c25 38000000 		.4byte	.LVL209
 8461 0c29 0200     		.2byte	0x2
 8462 0c2b 31       		.byte	0x31
 8463 0c2c 9F       		.byte	0x9f
 8464 0c2d 38000000 		.4byte	.LVL209
 8465 0c31 3C000000 		.4byte	.LVL210
 8466 0c35 0200     		.2byte	0x2
 8467 0c37 30       		.byte	0x30
 8468 0c38 9F       		.byte	0x9f
 8469 0c39 3C000000 		.4byte	.LVL210
 8470 0c3d 46000000 		.4byte	.LVL215
 8471 0c41 0200     		.2byte	0x2
 8472 0c43 31       		.byte	0x31
 8473 0c44 9F       		.byte	0x9f
 8474 0c45 46000000 		.4byte	.LVL215
 8475 0c49 4E000000 		.4byte	.LVL217
 8476 0c4d 0100     		.2byte	0x1
 8477 0c4f 54       		.byte	0x54
 8478 0c50 4E000000 		.4byte	.LVL217
 8479 0c54 58000000 		.4byte	.LFE27
 8480 0c58 0100     		.2byte	0x1
 8481 0c5a 50       		.byte	0x50
 8482 0c5b 00000000 		.4byte	0
 8483 0c5f 00000000 		.4byte	0
 8484              	.LLST70:
 8485 0c63 12000000 		.4byte	.LVL203
 8486 0c67 24000000 		.4byte	.LVL204
 8487 0c6b 0100     		.2byte	0x1
 8488 0c6d 50       		.byte	0x50
 8489 0c6e 3C000000 		.4byte	.LVL210
 8490 0c72 46000000 		.4byte	.LVL215
 8491 0c76 0100     		.2byte	0x1
 8492 0c78 50       		.byte	0x50
 8493 0c79 00000000 		.4byte	0
 8494 0c7d 00000000 		.4byte	0
 8495              	.LLST71:
 8496 0c81 00000000 		.4byte	.LVL219
 8497 0c85 17000000 		.4byte	.LVL221-1
 8498 0c89 0100     		.2byte	0x1
 8499 0c8b 50       		.byte	0x50
 8500 0c8c 17000000 		.4byte	.LVL221-1
ARM GAS  C:\Users\YUANFA~1\AppData\Local\Temp\ccYDlzYT.s 			page 220


 8501 0c90 F4000000 		.4byte	.LVL256
 8502 0c94 0100     		.2byte	0x1
 8503 0c96 54       		.byte	0x54
 8504 0c97 F4000000 		.4byte	.LVL256
 8505 0c9b 10010000 		.4byte	.LFE25
 8506 0c9f 0400     		.2byte	0x4
 8507 0ca1 F3       		.byte	0xf3
 8508 0ca2 01       		.uleb128 0x1
 8509 0ca3 50       		.byte	0x50
 8510 0ca4 9F       		.byte	0x9f
 8511 0ca5 00000000 		.4byte	0
 8512 0ca9 00000000 		.4byte	0
 8513              	.LLST72:
 8514 0cad 00000000 		.4byte	.LVL219
 8515 0cb1 17000000 		.4byte	.LVL221-1
 8516 0cb5 0100     		.2byte	0x1
 8517 0cb7 51       		.byte	0x51
 8518 0cb8 17000000 		.4byte	.LVL221-1
 8519 0cbc F4000000 		.4byte	.LVL257
 8520 0cc0 0100     		.2byte	0x1
 8521 0cc2 55       		.byte	0x55
 8522 0cc3 F4000000 		.4byte	.LVL257
 8523 0cc7 10010000 		.4byte	.LFE25
 8524 0ccb 0400     		.2byte	0x4
 8525 0ccd F3       		.byte	0xf3
 8526 0cce 01       		.uleb128 0x1
 8527 0ccf 51       		.byte	0x51
 8528 0cd0 9F       		.byte	0x9f
 8529 0cd1 00000000 		.4byte	0
 8530 0cd5 00000000 		.4byte	0
 8531              	.LLST73:
 8532 0cd9 00000000 		.4byte	.LVL219
 8533 0cdd 17000000 		.4byte	.LVL221-1
 8534 0ce1 0100     		.2byte	0x1
 8535 0ce3 52       		.byte	0x52
 8536 0ce4 17000000 		.4byte	.LVL221-1
 8537 0ce8 F4000000 		.4byte	.LVL258
 8538 0cec 0100     		.2byte	0x1
 8539 0cee 56       		.byte	0x56
 8540 0cef F4000000 		.4byte	.LVL258
 8541 0cf3 10010000 		.4byte	.LFE25
 8542 0cf7 0400     		.2byte	0x4
 8543 0cf9 F3       		.byte	0xf3
 8544 0cfa 01       		.uleb128 0x1
 8545 0cfb 52       		.byte	0x52
 8546 0cfc 9F       		.byte	0x9f
 8547 0cfd 00000000 		.4byte	0
 8548 0d01 00000000 		.4byte	0
 8549              	.LLST74:
 8550 0d05 00000000 		.4byte	.LVL219
 8551 0d09 17000000 		.4byte	.LVL221-1
 8552 0d0d 0100     		.2byte	0x1
 8553 0d0f 53       		.byte	0x53
 8554 0d10 17000000 		.4byte	.LVL221-1
 8555 0d14 4C000000 		.4byte	.LVL224
 8556 0d18 0100     		.2byte	0x1
 8557 0d1a 57       		.byte	0x57
ARM GAS  C:\Users\YUANFA~1\AppData\Local\Temp\ccYDlzYT.s 			page 221


 8558 0d1b 4C000000 		.4byte	.LVL224
 8559 0d1f CC000000 		.4byte	.LVL239
 8560 0d23 0200     		.2byte	0x2
 8561 0d25 91       		.byte	0x91
 8562 0d26 5C       		.sleb128 -36
 8563 0d27 CC000000 		.4byte	.LVL239
 8564 0d2b E8000000 		.4byte	.LVL253
 8565 0d2f 0100     		.2byte	0x1
 8566 0d31 57       		.byte	0x57
 8567 0d32 E8000000 		.4byte	.LVL253
 8568 0d36 10010000 		.4byte	.LFE25
 8569 0d3a 0200     		.2byte	0x2
 8570 0d3c 91       		.byte	0x91
 8571 0d3d 5C       		.sleb128 -36
 8572 0d3e 00000000 		.4byte	0
 8573 0d42 00000000 		.4byte	0
 8574              	.LLST75:
 8575 0d46 4C000000 		.4byte	.LVL224
 8576 0d4a 50000000 		.4byte	.LVL225
 8577 0d4e 0100     		.2byte	0x1
 8578 0d50 50       		.byte	0x50
 8579 0d51 50000000 		.4byte	.LVL225
 8580 0d55 6C000000 		.4byte	.LVL228
 8581 0d59 0100     		.2byte	0x1
 8582 0d5b 57       		.byte	0x57
 8583 0d5c 00000000 		.4byte	0
 8584 0d60 00000000 		.4byte	0
 8585              	.LLST76:
 8586 0d64 5A000000 		.4byte	.LVL226
 8587 0d68 64000000 		.4byte	.LVL227
 8588 0d6c 0100     		.2byte	0x1
 8589 0d6e 50       		.byte	0x50
 8590 0d6f 64000000 		.4byte	.LVL227
 8591 0d73 CC000000 		.4byte	.LVL239
 8592 0d77 0100     		.2byte	0x1
 8593 0d79 5A       		.byte	0x5a
 8594 0d7a E8000000 		.4byte	.LVL253
 8595 0d7e F2000000 		.4byte	.LVL255
 8596 0d82 0100     		.2byte	0x1
 8597 0d84 5A       		.byte	0x5a
 8598 0d85 00000000 		.4byte	0
 8599 0d89 00000000 		.4byte	0
 8600              	.LLST77:
 8601 0d8d 14000000 		.4byte	.LVL220
 8602 0d91 A8000000 		.4byte	.LVL236
 8603 0d95 0200     		.2byte	0x2
 8604 0d97 30       		.byte	0x30
 8605 0d98 9F       		.byte	0x9f
 8606 0d99 A8000000 		.4byte	.LVL236
 8607 0d9d CC000000 		.4byte	.LVL239
 8608 0da1 0100     		.2byte	0x1
 8609 0da3 57       		.byte	0x57
 8610 0da4 CC000000 		.4byte	.LVL239
 8611 0da8 E8000000 		.4byte	.LVL253
 8612 0dac 0200     		.2byte	0x2
 8613 0dae 30       		.byte	0x30
 8614 0daf 9F       		.byte	0x9f
ARM GAS  C:\Users\YUANFA~1\AppData\Local\Temp\ccYDlzYT.s 			page 222


 8615 0db0 E8000000 		.4byte	.LVL253
 8616 0db4 F2000000 		.4byte	.LVL255
 8617 0db8 0100     		.2byte	0x1
 8618 0dba 57       		.byte	0x57
 8619 0dbb 00000000 		.4byte	0
 8620 0dbf 00000000 		.4byte	0
 8621              	.LLST78:
 8622 0dc3 14000000 		.4byte	.LVL220
 8623 0dc7 A8000000 		.4byte	.LVL236
 8624 0dcb 0200     		.2byte	0x2
 8625 0dcd 30       		.byte	0x30
 8626 0dce 9F       		.byte	0x9f
 8627 0dcf A8000000 		.4byte	.LVL236
 8628 0dd3 CC000000 		.4byte	.LVL239
 8629 0dd7 0100     		.2byte	0x1
 8630 0dd9 58       		.byte	0x58
 8631 0dda CC000000 		.4byte	.LVL239
 8632 0dde E8000000 		.4byte	.LVL253
 8633 0de2 0200     		.2byte	0x2
 8634 0de4 30       		.byte	0x30
 8635 0de5 9F       		.byte	0x9f
 8636 0de6 E8000000 		.4byte	.LVL253
 8637 0dea F0000000 		.4byte	.LVL254
 8638 0dee 0100     		.2byte	0x1
 8639 0df0 53       		.byte	0x53
 8640 0df1 F0000000 		.4byte	.LVL254
 8641 0df5 F2000000 		.4byte	.LVL255
 8642 0df9 0100     		.2byte	0x1
 8643 0dfb 58       		.byte	0x58
 8644 0dfc 00000000 		.4byte	0
 8645 0e00 00000000 		.4byte	0
 8646              	.LLST79:
 8647 0e04 6C000000 		.4byte	.LVL228
 8648 0e08 A8000000 		.4byte	.LVL236
 8649 0e0c 0100     		.2byte	0x1
 8650 0e0e 57       		.byte	0x57
 8651 0e0f 00000000 		.4byte	0
 8652 0e13 00000000 		.4byte	0
 8653              	.LLST80:
 8654 0e17 7C000000 		.4byte	.LVL230
 8655 0e1b 7E000000 		.4byte	.LVL231
 8656 0e1f 0100     		.2byte	0x1
 8657 0e21 50       		.byte	0x50
 8658 0e22 7E000000 		.4byte	.LVL231
 8659 0e26 9E000000 		.4byte	.LVL235
 8660 0e2a 0100     		.2byte	0x1
 8661 0e2c 58       		.byte	0x58
 8662 0e2d 00000000 		.4byte	0
 8663 0e31 00000000 		.4byte	0
 8664              	.LLST81:
 8665 0e35 84000000 		.4byte	.LVL232
 8666 0e39 86000000 		.4byte	.LVL233
 8667 0e3d 0100     		.2byte	0x1
 8668 0e3f 50       		.byte	0x50
 8669 0e40 00000000 		.4byte	0
 8670 0e44 00000000 		.4byte	0
 8671              	.LLST82:
ARM GAS  C:\Users\YUANFA~1\AppData\Local\Temp\ccYDlzYT.s 			page 223


 8672 0e48 90000000 		.4byte	.LVL234
 8673 0e4c 9E000000 		.4byte	.LVL235
 8674 0e50 0100     		.2byte	0x1
 8675 0e52 50       		.byte	0x50
 8676 0e53 00000000 		.4byte	0
 8677 0e57 00000000 		.4byte	0
 8678              	.LLST83:
 8679 0e5b 18000000 		.4byte	.LVL221
 8680 0e5f 46000000 		.4byte	.LVL222
 8681 0e63 0100     		.2byte	0x1
 8682 0e65 50       		.byte	0x50
 8683 0e66 CC000000 		.4byte	.LVL239
 8684 0e6a CE000000 		.4byte	.LVL240
 8685 0e6e 0100     		.2byte	0x1
 8686 0e70 50       		.byte	0x50
 8687 0e71 D0000000 		.4byte	.LVL241
 8688 0e75 D2000000 		.4byte	.LVL242
 8689 0e79 0100     		.2byte	0x1
 8690 0e7b 50       		.byte	0x50
 8691 0e7c D4000000 		.4byte	.LVL243
 8692 0e80 D6000000 		.4byte	.LVL244
 8693 0e84 0100     		.2byte	0x1
 8694 0e86 50       		.byte	0x50
 8695 0e87 D8000000 		.4byte	.LVL245
 8696 0e8b DA000000 		.4byte	.LVL246
 8697 0e8f 0100     		.2byte	0x1
 8698 0e91 50       		.byte	0x50
 8699 0e92 DC000000 		.4byte	.LVL247
 8700 0e96 DE000000 		.4byte	.LVL248
 8701 0e9a 0100     		.2byte	0x1
 8702 0e9c 50       		.byte	0x50
 8703 0e9d E0000000 		.4byte	.LVL249
 8704 0ea1 E2000000 		.4byte	.LVL250
 8705 0ea5 0100     		.2byte	0x1
 8706 0ea7 50       		.byte	0x50
 8707 0ea8 E4000000 		.4byte	.LVL251
 8708 0eac E6000000 		.4byte	.LVL252
 8709 0eb0 0100     		.2byte	0x1
 8710 0eb2 50       		.byte	0x50
 8711 0eb3 00000000 		.4byte	0
 8712 0eb7 00000000 		.4byte	0
 8713              	.LLST84:
 8714 0ebb 14000000 		.4byte	.LVL220
 8715 0ebf CA000000 		.4byte	.LVL238
 8716 0ec3 0200     		.2byte	0x2
 8717 0ec5 31       		.byte	0x31
 8718 0ec6 9F       		.byte	0x9f
 8719 0ec7 CA000000 		.4byte	.LVL238
 8720 0ecb CC000000 		.4byte	.LVL239
 8721 0ecf 0100     		.2byte	0x1
 8722 0ed1 50       		.byte	0x50
 8723 0ed2 CC000000 		.4byte	.LVL239
 8724 0ed6 F2000000 		.4byte	.LVL255
 8725 0eda 0200     		.2byte	0x2
 8726 0edc 31       		.byte	0x31
 8727 0edd 9F       		.byte	0x9f
 8728 0ede F2000000 		.4byte	.LVL255
ARM GAS  C:\Users\YUANFA~1\AppData\Local\Temp\ccYDlzYT.s 			page 224


 8729 0ee2 10010000 		.4byte	.LFE25
 8730 0ee6 0100     		.2byte	0x1
 8731 0ee8 50       		.byte	0x50
 8732 0ee9 00000000 		.4byte	0
 8733 0eed 00000000 		.4byte	0
 8734              	.LLST85:
 8735 0ef1 00000000 		.4byte	.LVL259
 8736 0ef5 0C000000 		.4byte	.LVL261
 8737 0ef9 0100     		.2byte	0x1
 8738 0efb 50       		.byte	0x50
 8739 0efc 0C000000 		.4byte	.LVL261
 8740 0f00 20000000 		.4byte	.LFE31
 8741 0f04 0400     		.2byte	0x4
 8742 0f06 F3       		.byte	0xf3
 8743 0f07 01       		.uleb128 0x1
 8744 0f08 50       		.byte	0x50
 8745 0f09 9F       		.byte	0x9f
 8746 0f0a 00000000 		.4byte	0
 8747 0f0e 00000000 		.4byte	0
 8748              	.LLST86:
 8749 0f12 00000000 		.4byte	.LVL259
 8750 0f16 0F000000 		.4byte	.LVL262-1
 8751 0f1a 0100     		.2byte	0x1
 8752 0f1c 51       		.byte	0x51
 8753 0f1d 0F000000 		.4byte	.LVL262-1
 8754 0f21 1E000000 		.4byte	.LVL264
 8755 0f25 0100     		.2byte	0x1
 8756 0f27 55       		.byte	0x55
 8757 0f28 1E000000 		.4byte	.LVL264
 8758 0f2c 20000000 		.4byte	.LFE31
 8759 0f30 0400     		.2byte	0x4
 8760 0f32 F3       		.byte	0xf3
 8761 0f33 01       		.uleb128 0x1
 8762 0f34 51       		.byte	0x51
 8763 0f35 9F       		.byte	0x9f
 8764 0f36 00000000 		.4byte	0
 8765 0f3a 00000000 		.4byte	0
 8766              	.LLST87:
 8767 0f3e 00000000 		.4byte	.LVL265
 8768 0f42 0A000000 		.4byte	.LVL267
 8769 0f46 0100     		.2byte	0x1
 8770 0f48 50       		.byte	0x50
 8771 0f49 0A000000 		.4byte	.LVL267
 8772 0f4d 1C000000 		.4byte	.LFE32
 8773 0f51 0400     		.2byte	0x4
 8774 0f53 F3       		.byte	0xf3
 8775 0f54 01       		.uleb128 0x1
 8776 0f55 50       		.byte	0x50
 8777 0f56 9F       		.byte	0x9f
 8778 0f57 00000000 		.4byte	0
 8779 0f5b 00000000 		.4byte	0
 8780              	.LLST88:
 8781 0f5f 00000000 		.4byte	.LVL269
 8782 0f63 0C000000 		.4byte	.LVL271
 8783 0f67 0100     		.2byte	0x1
 8784 0f69 50       		.byte	0x50
 8785 0f6a 0C000000 		.4byte	.LVL271
ARM GAS  C:\Users\YUANFA~1\AppData\Local\Temp\ccYDlzYT.s 			page 225


 8786 0f6e 22000000 		.4byte	.LFE33
 8787 0f72 0400     		.2byte	0x4
 8788 0f74 F3       		.byte	0xf3
 8789 0f75 01       		.uleb128 0x1
 8790 0f76 50       		.byte	0x50
 8791 0f77 9F       		.byte	0x9f
 8792 0f78 00000000 		.4byte	0
 8793 0f7c 00000000 		.4byte	0
 8794              	.LLST89:
 8795 0f80 00000000 		.4byte	.LVL269
 8796 0f84 0F000000 		.4byte	.LVL272-1
 8797 0f88 0100     		.2byte	0x1
 8798 0f8a 51       		.byte	0x51
 8799 0f8b 0F000000 		.4byte	.LVL272-1
 8800 0f8f 20000000 		.4byte	.LVL274
 8801 0f93 0100     		.2byte	0x1
 8802 0f95 55       		.byte	0x55
 8803 0f96 20000000 		.4byte	.LVL274
 8804 0f9a 22000000 		.4byte	.LFE33
 8805 0f9e 0400     		.2byte	0x4
 8806 0fa0 F3       		.byte	0xf3
 8807 0fa1 01       		.uleb128 0x1
 8808 0fa2 51       		.byte	0x51
 8809 0fa3 9F       		.byte	0x9f
 8810 0fa4 00000000 		.4byte	0
 8811 0fa8 00000000 		.4byte	0
 8812              	.LLST90:
 8813 0fac 00000000 		.4byte	.LVL275
 8814 0fb0 0A000000 		.4byte	.LVL277
 8815 0fb4 0100     		.2byte	0x1
 8816 0fb6 50       		.byte	0x50
 8817 0fb7 0A000000 		.4byte	.LVL277
 8818 0fbb 1E000000 		.4byte	.LFE34
 8819 0fbf 0400     		.2byte	0x4
 8820 0fc1 F3       		.byte	0xf3
 8821 0fc2 01       		.uleb128 0x1
 8822 0fc3 50       		.byte	0x50
 8823 0fc4 9F       		.byte	0x9f
 8824 0fc5 00000000 		.4byte	0
 8825 0fc9 00000000 		.4byte	0
 8826              	.LLST91:
 8827 0fcd 00000000 		.4byte	.LVL279
 8828 0fd1 0C000000 		.4byte	.LVL280
 8829 0fd5 0100     		.2byte	0x1
 8830 0fd7 50       		.byte	0x50
 8831 0fd8 0C000000 		.4byte	.LVL280
 8832 0fdc 4C000000 		.4byte	.LFE35
 8833 0fe0 0400     		.2byte	0x4
 8834 0fe2 F3       		.byte	0xf3
 8835 0fe3 01       		.uleb128 0x1
 8836 0fe4 50       		.byte	0x50
 8837 0fe5 9F       		.byte	0x9f
 8838 0fe6 00000000 		.4byte	0
 8839 0fea 00000000 		.4byte	0
 8840              	.LLST92:
 8841 0fee 00000000 		.4byte	.LVL279
 8842 0ff2 0F000000 		.4byte	.LVL281-1
ARM GAS  C:\Users\YUANFA~1\AppData\Local\Temp\ccYDlzYT.s 			page 226


 8843 0ff6 0100     		.2byte	0x1
 8844 0ff8 51       		.byte	0x51
 8845 0ff9 0F000000 		.4byte	.LVL281-1
 8846 0ffd 4C000000 		.4byte	.LFE35
 8847 1001 0400     		.2byte	0x4
 8848 1003 F3       		.byte	0xf3
 8849 1004 01       		.uleb128 0x1
 8850 1005 51       		.byte	0x51
 8851 1006 9F       		.byte	0x9f
 8852 1007 00000000 		.4byte	0
 8853 100b 00000000 		.4byte	0
 8854              	.LLST93:
 8855 100f 26000000 		.4byte	.LVL284
 8856 1013 45000000 		.4byte	.LVL290-1
 8857 1017 0100     		.2byte	0x1
 8858 1019 50       		.byte	0x50
 8859 101a 00000000 		.4byte	0
 8860 101e 00000000 		.4byte	0
 8861              	.LLST94:
 8862 1022 22000000 		.4byte	.LVL283
 8863 1026 46000000 		.4byte	.LVL291
 8864 102a 0100     		.2byte	0x1
 8865 102c 55       		.byte	0x55
 8866 102d 00000000 		.4byte	0
 8867 1031 00000000 		.4byte	0
 8868              	.LLST95:
 8869 1035 32000000 		.4byte	.LVL285
 8870 1039 38000000 		.4byte	.LVL286
 8871 103d 0100     		.2byte	0x1
 8872 103f 51       		.byte	0x51
 8873 1040 3A000000 		.4byte	.LVL287
 8874 1044 3C000000 		.4byte	.LVL288
 8875 1048 0100     		.2byte	0x1
 8876 104a 51       		.byte	0x51
 8877 104b 3C000000 		.4byte	.LVL288
 8878 104f 40000000 		.4byte	.LVL289
 8879 1053 0100     		.2byte	0x1
 8880 1055 53       		.byte	0x53
 8881 1056 40000000 		.4byte	.LVL289
 8882 105a 45000000 		.4byte	.LVL290-1
 8883 105e 0100     		.2byte	0x1
 8884 1060 51       		.byte	0x51
 8885 1061 00000000 		.4byte	0
 8886 1065 00000000 		.4byte	0
 8887              	.LLST96:
 8888 1069 00000000 		.4byte	.LVL292
 8889 106d 0A000000 		.4byte	.LVL293
 8890 1071 0100     		.2byte	0x1
 8891 1073 50       		.byte	0x50
 8892 1074 0A000000 		.4byte	.LVL293
 8893 1078 2C000000 		.4byte	.LFE36
 8894 107c 0400     		.2byte	0x4
 8895 107e F3       		.byte	0xf3
 8896 107f 01       		.uleb128 0x1
 8897 1080 50       		.byte	0x50
 8898 1081 9F       		.byte	0x9f
 8899 1082 00000000 		.4byte	0
ARM GAS  C:\Users\YUANFA~1\AppData\Local\Temp\ccYDlzYT.s 			page 227


 8900 1086 00000000 		.4byte	0
 8901              	.LLST97:
 8902 108a 24000000 		.4byte	.LVL295
 8903 108e 26000000 		.4byte	.LVL296
 8904 1092 0100     		.2byte	0x1
 8905 1094 50       		.byte	0x50
 8906 1095 00000000 		.4byte	0
 8907 1099 00000000 		.4byte	0
 8908              	.LLST98:
 8909 109d 00000000 		.4byte	.LVL297
 8910 10a1 06000000 		.4byte	.LVL298
 8911 10a5 0100     		.2byte	0x1
 8912 10a7 50       		.byte	0x50
 8913 10a8 06000000 		.4byte	.LVL298
 8914 10ac 26000000 		.4byte	.LVL302
 8915 10b0 0100     		.2byte	0x1
 8916 10b2 54       		.byte	0x54
 8917 10b3 00000000 		.4byte	0
 8918 10b7 00000000 		.4byte	0
 8919              	.LLST99:
 8920 10bb 2A000000 		.4byte	.LVL307
 8921 10bf 3C000000 		.4byte	.LVL309
 8922 10c3 0100     		.2byte	0x1
 8923 10c5 52       		.byte	0x52
 8924 10c6 00000000 		.4byte	0
 8925 10ca 00000000 		.4byte	0
 8926              	.LLST100:
 8927 10ce 12000000 		.4byte	.LVL306
 8928 10d2 A8000000 		.4byte	.LVL322
 8929 10d6 0100     		.2byte	0x1
 8930 10d8 55       		.byte	0x55
 8931 10d9 00000000 		.4byte	0
 8932 10dd 00000000 		.4byte	0
 8933              	.LLST101:
 8934 10e1 38000000 		.4byte	.LVL308
 8935 10e5 58000000 		.4byte	.LVL312
 8936 10e9 0100     		.2byte	0x1
 8937 10eb 53       		.byte	0x53
 8938 10ec 58000000 		.4byte	.LVL312
 8939 10f0 5C000000 		.4byte	.LVL313
 8940 10f4 0200     		.2byte	0x2
 8941 10f6 74       		.byte	0x74
 8942 10f7 00       		.sleb128 0
 8943 10f8 74000000 		.4byte	.LVL315
 8944 10fc 98000000 		.4byte	.LVL321
 8945 1100 0100     		.2byte	0x1
 8946 1102 56       		.byte	0x56
 8947 1103 00000000 		.4byte	0
 8948 1107 00000000 		.4byte	0
 8949              	.LLST102:
 8950 110b 04000000 		.4byte	.LVL303
 8951 110f 78000000 		.4byte	.LVL316
 8952 1113 0200     		.2byte	0x2
 8953 1115 30       		.byte	0x30
 8954 1116 9F       		.byte	0x9f
 8955 1117 78000000 		.4byte	.LVL316
 8956 111b A8000000 		.4byte	.LVL322
ARM GAS  C:\Users\YUANFA~1\AppData\Local\Temp\ccYDlzYT.s 			page 228


 8957 111f 0100     		.2byte	0x1
 8958 1121 54       		.byte	0x54
 8959 1122 00000000 		.4byte	0
 8960 1126 00000000 		.4byte	0
 8961              	.LLST103:
 8962 112a 00000000 		.4byte	.LVL323
 8963 112e 25000000 		.4byte	.LVL325-1
 8964 1132 0100     		.2byte	0x1
 8965 1134 50       		.byte	0x50
 8966 1135 25000000 		.4byte	.LVL325-1
 8967 1139 A0000000 		.4byte	.LVL338
 8968 113d 0100     		.2byte	0x1
 8969 113f 54       		.byte	0x54
 8970 1140 A0000000 		.4byte	.LVL338
 8971 1144 B6000000 		.4byte	.LVL341
 8972 1148 0400     		.2byte	0x4
 8973 114a F3       		.byte	0xf3
 8974 114b 01       		.uleb128 0x1
 8975 114c 50       		.byte	0x50
 8976 114d 9F       		.byte	0x9f
 8977 114e B6000000 		.4byte	.LVL341
 8978 1152 B8000000 		.4byte	.LVL342
 8979 1156 0100     		.2byte	0x1
 8980 1158 50       		.byte	0x50
 8981 1159 B8000000 		.4byte	.LVL342
 8982 115d BC000000 		.4byte	.LVL343
 8983 1161 0100     		.2byte	0x1
 8984 1163 54       		.byte	0x54
 8985 1164 BC000000 		.4byte	.LVL343
 8986 1168 D8000000 		.4byte	.LFE10
 8987 116c 0400     		.2byte	0x4
 8988 116e F3       		.byte	0xf3
 8989 116f 01       		.uleb128 0x1
 8990 1170 50       		.byte	0x50
 8991 1171 9F       		.byte	0x9f
 8992 1172 00000000 		.4byte	0
 8993 1176 00000000 		.4byte	0
 8994              	.LLST104:
 8995 117a 28000000 		.4byte	.LVL326
 8996 117e 44000000 		.4byte	.LVL332
 8997 1182 0200     		.2byte	0x2
 8998 1184 91       		.byte	0x91
 8999 1185 64       		.sleb128 -28
 9000 1186 00000000 		.4byte	0
 9001 118a 00000000 		.4byte	0
 9002              	.LLST105:
 9003 118e 4C000000 		.4byte	.LVL333
 9004 1192 54000000 		.4byte	.LVL334
 9005 1196 0100     		.2byte	0x1
 9006 1198 53       		.byte	0x53
 9007 1199 54000000 		.4byte	.LVL334
 9008 119d 58000000 		.4byte	.LVL335
 9009 11a1 0700     		.2byte	0x7
 9010 11a3 0C       		.byte	0xc
 9011 11a4 0C0F0340 		.4byte	0x40030f0c
 9012 11a8 06       		.byte	0x6
 9013 11a9 9F       		.byte	0x9f
ARM GAS  C:\Users\YUANFA~1\AppData\Local\Temp\ccYDlzYT.s 			page 229


 9014 11aa 00000000 		.4byte	0
 9015 11ae 00000000 		.4byte	0
 9016              	.LLST106:
 9017 11b2 06000000 		.4byte	.LVL324
 9018 11b6 30000000 		.4byte	.LVL328
 9019 11ba 0200     		.2byte	0x2
 9020 11bc 30       		.byte	0x30
 9021 11bd 9F       		.byte	0x9f
 9022 11be 30000000 		.4byte	.LVL328
 9023 11c2 38000000 		.4byte	.LVL330
 9024 11c6 0200     		.2byte	0x2
 9025 11c8 31       		.byte	0x31
 9026 11c9 9F       		.byte	0x9f
 9027 11ca 38000000 		.4byte	.LVL330
 9028 11ce 3A000000 		.4byte	.LVL331
 9029 11d2 0200     		.2byte	0x2
 9030 11d4 30       		.byte	0x30
 9031 11d5 9F       		.byte	0x9f
 9032 11d6 3A000000 		.4byte	.LVL331
 9033 11da B6000000 		.4byte	.LVL341
 9034 11de 0100     		.2byte	0x1
 9035 11e0 56       		.byte	0x56
 9036 11e1 B6000000 		.4byte	.LVL341
 9037 11e5 BC000000 		.4byte	.LVL343
 9038 11e9 0200     		.2byte	0x2
 9039 11eb 30       		.byte	0x30
 9040 11ec 9F       		.byte	0x9f
 9041 11ed 00000000 		.4byte	0
 9042 11f1 00000000 		.4byte	0
 9043              	.LLST107:
 9044 11f5 00000000 		.4byte	.LVL344
 9045 11f9 08000000 		.4byte	.LVL345
 9046 11fd 0100     		.2byte	0x1
 9047 11ff 50       		.byte	0x50
 9048 1200 08000000 		.4byte	.LVL345
 9049 1204 14000000 		.4byte	.LFE45
 9050 1208 0400     		.2byte	0x4
 9051 120a F3       		.byte	0xf3
 9052 120b 01       		.uleb128 0x1
 9053 120c 50       		.byte	0x50
 9054 120d 9F       		.byte	0x9f
 9055 120e 00000000 		.4byte	0
 9056 1212 00000000 		.4byte	0
 9057              	.LLST108:
 9058 1216 00000000 		.4byte	.LVL347
 9059 121a 12000000 		.4byte	.LVL349
 9060 121e 0100     		.2byte	0x1
 9061 1220 50       		.byte	0x50
 9062 1221 12000000 		.4byte	.LVL349
 9063 1225 40000000 		.4byte	.LVL355
 9064 1229 0100     		.2byte	0x1
 9065 122b 54       		.byte	0x54
 9066 122c 00000000 		.4byte	0
 9067 1230 00000000 		.4byte	0
 9068              	.LLST109:
 9069 1234 04000000 		.4byte	.LVL348
 9070 1238 40000000 		.4byte	.LVL354
ARM GAS  C:\Users\YUANFA~1\AppData\Local\Temp\ccYDlzYT.s 			page 230


 9071 123c 0200     		.2byte	0x2
 9072 123e 30       		.byte	0x30
 9073 123f 9F       		.byte	0x9f
 9074 1240 40000000 		.4byte	.LVL354
 9075 1244 48000000 		.4byte	.LFE12
 9076 1248 0100     		.2byte	0x1
 9077 124a 50       		.byte	0x50
 9078 124b 00000000 		.4byte	0
 9079 124f 00000000 		.4byte	0
 9080              	.LLST110:
 9081 1253 00000000 		.4byte	.LVL356
 9082 1257 11000000 		.4byte	.LVL358-1
 9083 125b 0100     		.2byte	0x1
 9084 125d 50       		.byte	0x50
 9085 125e 11000000 		.4byte	.LVL358-1
 9086 1262 8A000000 		.4byte	.LVL370
 9087 1266 0100     		.2byte	0x1
 9088 1268 54       		.byte	0x54
 9089 1269 8A000000 		.4byte	.LVL370
 9090 126d 8C000000 		.4byte	.LVL371
 9091 1271 0100     		.2byte	0x1
 9092 1273 50       		.byte	0x50
 9093 1274 8C000000 		.4byte	.LVL371
 9094 1278 8E000000 		.4byte	.LVL372
 9095 127c 0100     		.2byte	0x1
 9096 127e 54       		.byte	0x54
 9097 127f 8E000000 		.4byte	.LVL372
 9098 1283 90000000 		.4byte	.LVL373
 9099 1287 0100     		.2byte	0x1
 9100 1289 50       		.byte	0x50
 9101 128a 90000000 		.4byte	.LVL373
 9102 128e 90000000 		.4byte	.LVL374
 9103 1292 0100     		.2byte	0x1
 9104 1294 54       		.byte	0x54
 9105 1295 90000000 		.4byte	.LVL374
 9106 1299 9C000000 		.4byte	.LFE17
 9107 129d 0400     		.2byte	0x4
 9108 129f F3       		.byte	0xf3
 9109 12a0 01       		.uleb128 0x1
 9110 12a1 50       		.byte	0x50
 9111 12a2 9F       		.byte	0x9f
 9112 12a3 00000000 		.4byte	0
 9113 12a7 00000000 		.4byte	0
 9114              	.LLST111:
 9115 12ab 00000000 		.4byte	.LVL356
 9116 12af 11000000 		.4byte	.LVL358-1
 9117 12b3 0100     		.2byte	0x1
 9118 12b5 51       		.byte	0x51
 9119 12b6 11000000 		.4byte	.LVL358-1
 9120 12ba 62000000 		.4byte	.LVL363
 9121 12be 0100     		.2byte	0x1
 9122 12c0 55       		.byte	0x55
 9123 12c1 62000000 		.4byte	.LVL363
 9124 12c5 80000000 		.4byte	.LVL368
 9125 12c9 0400     		.2byte	0x4
 9126 12cb F3       		.byte	0xf3
 9127 12cc 01       		.uleb128 0x1
ARM GAS  C:\Users\YUANFA~1\AppData\Local\Temp\ccYDlzYT.s 			page 231


 9128 12cd 51       		.byte	0x51
 9129 12ce 9F       		.byte	0x9f
 9130 12cf 80000000 		.4byte	.LVL368
 9131 12d3 82000000 		.4byte	.LVL369
 9132 12d7 0100     		.2byte	0x1
 9133 12d9 55       		.byte	0x55
 9134 12da 82000000 		.4byte	.LVL369
 9135 12de 8A000000 		.4byte	.LVL370
 9136 12e2 0400     		.2byte	0x4
 9137 12e4 F3       		.byte	0xf3
 9138 12e5 01       		.uleb128 0x1
 9139 12e6 51       		.byte	0x51
 9140 12e7 9F       		.byte	0x9f
 9141 12e8 8A000000 		.4byte	.LVL370
 9142 12ec 90000000 		.4byte	.LVL373
 9143 12f0 0100     		.2byte	0x1
 9144 12f2 51       		.byte	0x51
 9145 12f3 90000000 		.4byte	.LVL373
 9146 12f7 9C000000 		.4byte	.LFE17
 9147 12fb 0400     		.2byte	0x4
 9148 12fd F3       		.byte	0xf3
 9149 12fe 01       		.uleb128 0x1
 9150 12ff 51       		.byte	0x51
 9151 1300 9F       		.byte	0x9f
 9152 1301 00000000 		.4byte	0
 9153 1305 00000000 		.4byte	0
 9154              	.LLST112:
 9155 1309 06000000 		.4byte	.LVL357
 9156 130d 62000000 		.4byte	.LVL363
 9157 1311 0300     		.2byte	0x3
 9158 1313 08       		.byte	0x8
 9159 1314 FF       		.byte	0xff
 9160 1315 9F       		.byte	0x9f
 9161 1316 62000000 		.4byte	.LVL363
 9162 131a 80000000 		.4byte	.LVL368
 9163 131e 0100     		.2byte	0x1
 9164 1320 55       		.byte	0x55
 9165 1321 80000000 		.4byte	.LVL368
 9166 1325 82000000 		.4byte	.LVL369
 9167 1329 0300     		.2byte	0x3
 9168 132b 08       		.byte	0x8
 9169 132c FF       		.byte	0xff
 9170 132d 9F       		.byte	0x9f
 9171 132e 82000000 		.4byte	.LVL369
 9172 1332 8A000000 		.4byte	.LVL370
 9173 1336 0100     		.2byte	0x1
 9174 1338 55       		.byte	0x55
 9175 1339 8A000000 		.4byte	.LVL370
 9176 133d 90000000 		.4byte	.LVL373
 9177 1341 0300     		.2byte	0x3
 9178 1343 08       		.byte	0x8
 9179 1344 FF       		.byte	0xff
 9180 1345 9F       		.byte	0x9f
 9181 1346 00000000 		.4byte	0
 9182 134a 00000000 		.4byte	0
 9183              	.LLST113:
 9184 134e 12000000 		.4byte	.LVL358
ARM GAS  C:\Users\YUANFA~1\AppData\Local\Temp\ccYDlzYT.s 			page 232


 9185 1352 39000000 		.4byte	.LVL359-1
 9186 1356 0100     		.2byte	0x1
 9187 1358 50       		.byte	0x50
 9188 1359 44000000 		.4byte	.LVL361
 9189 135d 59000000 		.4byte	.LVL362-1
 9190 1361 0100     		.2byte	0x1
 9191 1363 50       		.byte	0x50
 9192 1364 00000000 		.4byte	0
 9193 1368 00000000 		.4byte	0
 9194              	.LLST114:
 9195 136c 06000000 		.4byte	.LVL357
 9196 1370 90000000 		.4byte	.LVL373
 9197 1374 0200     		.2byte	0x2
 9198 1376 30       		.byte	0x30
 9199 1377 9F       		.byte	0x9f
 9200 1378 90000000 		.4byte	.LVL373
 9201 137c 9C000000 		.4byte	.LFE17
 9202 1380 0100     		.2byte	0x1
 9203 1382 50       		.byte	0x50
 9204 1383 00000000 		.4byte	0
 9205 1387 00000000 		.4byte	0
 9206              	.LLST115:
 9207 138b 00000000 		.4byte	.LVL375
 9208 138f 1A000000 		.4byte	.LVL376
 9209 1393 0100     		.2byte	0x1
 9210 1395 50       		.byte	0x50
 9211 1396 1A000000 		.4byte	.LVL376
 9212 139a 4C000000 		.4byte	.LFE46
 9213 139e 0400     		.2byte	0x4
 9214 13a0 F3       		.byte	0xf3
 9215 13a1 01       		.uleb128 0x1
 9216 13a2 50       		.byte	0x50
 9217 13a3 9F       		.byte	0x9f
 9218 13a4 00000000 		.4byte	0
 9219 13a8 00000000 		.4byte	0
 9220              	.LLST116:
 9221 13ac 00000000 		.4byte	.LVL380
 9222 13b0 02000000 		.4byte	.LVL381
 9223 13b4 0100     		.2byte	0x1
 9224 13b6 50       		.byte	0x50
 9225 13b7 02000000 		.4byte	.LVL381
 9226 13bb 10000000 		.4byte	.LFE53
 9227 13bf 0400     		.2byte	0x4
 9228 13c1 F3       		.byte	0xf3
 9229 13c2 01       		.uleb128 0x1
 9230 13c3 50       		.byte	0x50
 9231 13c4 9F       		.byte	0x9f
 9232 13c5 00000000 		.4byte	0
 9233 13c9 00000000 		.4byte	0
 9234              	.LLST117:
 9235 13cd 0C000000 		.4byte	.LVL384
 9236 13d1 1C000000 		.4byte	.LVL387
 9237 13d5 0100     		.2byte	0x1
 9238 13d7 54       		.byte	0x54
 9239 13d8 1E000000 		.4byte	.LVL388
 9240 13dc 22000000 		.4byte	.LVL389
 9241 13e0 0100     		.2byte	0x1
ARM GAS  C:\Users\YUANFA~1\AppData\Local\Temp\ccYDlzYT.s 			page 233


 9242 13e2 54       		.byte	0x54
 9243 13e3 00000000 		.4byte	0
 9244 13e7 00000000 		.4byte	0
 9245              	.LLST118:
 9246 13eb 02000000 		.4byte	.LVL390
 9247 13ef 06000000 		.4byte	.LVL391
 9248 13f3 0200     		.2byte	0x2
 9249 13f5 30       		.byte	0x30
 9250 13f6 9F       		.byte	0x9f
 9251 13f7 06000000 		.4byte	.LVL391
 9252 13fb 1B000000 		.4byte	.LVL393-1
 9253 13ff 0100     		.2byte	0x1
 9254 1401 53       		.byte	0x53
 9255 1402 00000000 		.4byte	0
 9256 1406 00000000 		.4byte	0
 9257              	.LLST119:
 9258 140a 00000000 		.4byte	.LVL400
 9259 140e 06000000 		.4byte	.LVL401
 9260 1412 0100     		.2byte	0x1
 9261 1414 50       		.byte	0x50
 9262 1415 06000000 		.4byte	.LVL401
 9263 1419 10000000 		.4byte	.LFE60
 9264 141d 0400     		.2byte	0x4
 9265 141f F3       		.byte	0xf3
 9266 1420 01       		.uleb128 0x1
 9267 1421 50       		.byte	0x50
 9268 1422 9F       		.byte	0x9f
 9269 1423 00000000 		.4byte	0
 9270 1427 00000000 		.4byte	0
 9271              	.LLST120:
 9272 142b 00000000 		.4byte	.LVL402
 9273 142f 02000000 		.4byte	.LVL403
 9274 1433 0100     		.2byte	0x1
 9275 1435 50       		.byte	0x50
 9276 1436 02000000 		.4byte	.LVL403
 9277 143a 0C000000 		.4byte	.LFE61
 9278 143e 0400     		.2byte	0x4
 9279 1440 F3       		.byte	0xf3
 9280 1441 01       		.uleb128 0x1
 9281 1442 50       		.byte	0x50
 9282 1443 9F       		.byte	0x9f
 9283 1444 00000000 		.4byte	0
 9284 1448 00000000 		.4byte	0
 9285              	.LLST121:
 9286 144c 00000000 		.4byte	.LVL405
 9287 1450 0A000000 		.4byte	.LVL407
 9288 1454 0100     		.2byte	0x1
 9289 1456 50       		.byte	0x50
 9290 1457 0A000000 		.4byte	.LVL407
 9291 145b 20000000 		.4byte	.LFE64
 9292 145f 0400     		.2byte	0x4
 9293 1461 F3       		.byte	0xf3
 9294 1462 01       		.uleb128 0x1
 9295 1463 50       		.byte	0x50
 9296 1464 9F       		.byte	0x9f
 9297 1465 00000000 		.4byte	0
 9298 1469 00000000 		.4byte	0
ARM GAS  C:\Users\YUANFA~1\AppData\Local\Temp\ccYDlzYT.s 			page 234


 9299              	.LLST122:
 9300 146d 08000000 		.4byte	.LVL406
 9301 1471 12000000 		.4byte	.LVL408
 9302 1475 0100     		.2byte	0x1
 9303 1477 52       		.byte	0x52
 9304 1478 12000000 		.4byte	.LVL408
 9305 147c 20000000 		.4byte	.LFE64
 9306 1480 0100     		.2byte	0x1
 9307 1482 50       		.byte	0x50
 9308 1483 00000000 		.4byte	0
 9309 1487 00000000 		.4byte	0
 9310              	.LLST123:
 9311 148b 00000000 		.4byte	.LVL409
 9312 148f 0A000000 		.4byte	.LVL411
 9313 1493 0100     		.2byte	0x1
 9314 1495 50       		.byte	0x50
 9315 1496 0A000000 		.4byte	.LVL411
 9316 149a 20000000 		.4byte	.LFE65
 9317 149e 0400     		.2byte	0x4
 9318 14a0 F3       		.byte	0xf3
 9319 14a1 01       		.uleb128 0x1
 9320 14a2 50       		.byte	0x50
 9321 14a3 9F       		.byte	0x9f
 9322 14a4 00000000 		.4byte	0
 9323 14a8 00000000 		.4byte	0
 9324              	.LLST124:
 9325 14ac 08000000 		.4byte	.LVL410
 9326 14b0 12000000 		.4byte	.LVL412
 9327 14b4 0100     		.2byte	0x1
 9328 14b6 52       		.byte	0x52
 9329 14b7 12000000 		.4byte	.LVL412
 9330 14bb 20000000 		.4byte	.LFE65
 9331 14bf 0100     		.2byte	0x1
 9332 14c1 50       		.byte	0x50
 9333 14c2 00000000 		.4byte	0
 9334 14c6 00000000 		.4byte	0
 9335              	.LLST125:
 9336 14ca 00000000 		.4byte	.LVL413
 9337 14ce 0A000000 		.4byte	.LVL415
 9338 14d2 0100     		.2byte	0x1
 9339 14d4 50       		.byte	0x50
 9340 14d5 0A000000 		.4byte	.LVL415
 9341 14d9 20000000 		.4byte	.LFE66
 9342 14dd 0400     		.2byte	0x4
 9343 14df F3       		.byte	0xf3
 9344 14e0 01       		.uleb128 0x1
 9345 14e1 50       		.byte	0x50
 9346 14e2 9F       		.byte	0x9f
 9347 14e3 00000000 		.4byte	0
 9348 14e7 00000000 		.4byte	0
 9349              	.LLST126:
 9350 14eb 08000000 		.4byte	.LVL414
 9351 14ef 12000000 		.4byte	.LVL416
 9352 14f3 0100     		.2byte	0x1
 9353 14f5 52       		.byte	0x52
 9354 14f6 12000000 		.4byte	.LVL416
 9355 14fa 20000000 		.4byte	.LFE66
ARM GAS  C:\Users\YUANFA~1\AppData\Local\Temp\ccYDlzYT.s 			page 235


 9356 14fe 0100     		.2byte	0x1
 9357 1500 50       		.byte	0x50
 9358 1501 00000000 		.4byte	0
 9359 1505 00000000 		.4byte	0
 9360              	.LLST127:
 9361 1509 00000000 		.4byte	.LVL417
 9362 150d 08000000 		.4byte	.LVL418
 9363 1511 0100     		.2byte	0x1
 9364 1513 50       		.byte	0x50
 9365 1514 08000000 		.4byte	.LVL418
 9366 1518 1C000000 		.4byte	.LVL422
 9367 151c 0400     		.2byte	0x4
 9368 151e F3       		.byte	0xf3
 9369 151f 01       		.uleb128 0x1
 9370 1520 50       		.byte	0x50
 9371 1521 9F       		.byte	0x9f
 9372 1522 1C000000 		.4byte	.LVL422
 9373 1526 22000000 		.4byte	.LVL423
 9374 152a 0100     		.2byte	0x1
 9375 152c 50       		.byte	0x50
 9376 152d 22000000 		.4byte	.LVL423
 9377 1531 36000000 		.4byte	.LVL427
 9378 1535 0400     		.2byte	0x4
 9379 1537 F3       		.byte	0xf3
 9380 1538 01       		.uleb128 0x1
 9381 1539 50       		.byte	0x50
 9382 153a 9F       		.byte	0x9f
 9383 153b 36000000 		.4byte	.LVL427
 9384 153f 3C000000 		.4byte	.LVL428
 9385 1543 0100     		.2byte	0x1
 9386 1545 50       		.byte	0x50
 9387 1546 3C000000 		.4byte	.LVL428
 9388 154a 50000000 		.4byte	.LVL432
 9389 154e 0400     		.2byte	0x4
 9390 1550 F3       		.byte	0xf3
 9391 1551 01       		.uleb128 0x1
 9392 1552 50       		.byte	0x50
 9393 1553 9F       		.byte	0x9f
 9394 1554 50000000 		.4byte	.LVL432
 9395 1558 52000000 		.4byte	.LVL433
 9396 155c 0100     		.2byte	0x1
 9397 155e 50       		.byte	0x50
 9398 155f 52000000 		.4byte	.LVL433
 9399 1563 68000000 		.4byte	.LFE67
 9400 1567 0400     		.2byte	0x4
 9401 1569 F3       		.byte	0xf3
 9402 156a 01       		.uleb128 0x1
 9403 156b 50       		.byte	0x50
 9404 156c 9F       		.byte	0x9f
 9405 156d 00000000 		.4byte	0
 9406 1571 00000000 		.4byte	0
 9407              	.LLST128:
 9408 1575 00000000 		.4byte	.LVL417
 9409 1579 10000000 		.4byte	.LVL420
 9410 157d 0100     		.2byte	0x1
 9411 157f 51       		.byte	0x51
 9412 1580 10000000 		.4byte	.LVL420
ARM GAS  C:\Users\YUANFA~1\AppData\Local\Temp\ccYDlzYT.s 			page 236


 9413 1584 1C000000 		.4byte	.LVL422
 9414 1588 0400     		.2byte	0x4
 9415 158a F3       		.byte	0xf3
 9416 158b 01       		.uleb128 0x1
 9417 158c 51       		.byte	0x51
 9418 158d 9F       		.byte	0x9f
 9419 158e 1C000000 		.4byte	.LVL422
 9420 1592 2A000000 		.4byte	.LVL425
 9421 1596 0100     		.2byte	0x1
 9422 1598 51       		.byte	0x51
 9423 1599 2A000000 		.4byte	.LVL425
 9424 159d 36000000 		.4byte	.LVL427
 9425 15a1 0400     		.2byte	0x4
 9426 15a3 F3       		.byte	0xf3
 9427 15a4 01       		.uleb128 0x1
 9428 15a5 51       		.byte	0x51
 9429 15a6 9F       		.byte	0x9f
 9430 15a7 36000000 		.4byte	.LVL427
 9431 15ab 44000000 		.4byte	.LVL430
 9432 15af 0100     		.2byte	0x1
 9433 15b1 51       		.byte	0x51
 9434 15b2 44000000 		.4byte	.LVL430
 9435 15b6 50000000 		.4byte	.LVL432
 9436 15ba 0400     		.2byte	0x4
 9437 15bc F3       		.byte	0xf3
 9438 15bd 01       		.uleb128 0x1
 9439 15be 51       		.byte	0x51
 9440 15bf 9F       		.byte	0x9f
 9441 15c0 50000000 		.4byte	.LVL432
 9442 15c4 55000000 		.4byte	.LVL434-1
 9443 15c8 0100     		.2byte	0x1
 9444 15ca 51       		.byte	0x51
 9445 15cb 55000000 		.4byte	.LVL434-1
 9446 15cf 68000000 		.4byte	.LFE67
 9447 15d3 0400     		.2byte	0x4
 9448 15d5 F3       		.byte	0xf3
 9449 15d6 01       		.uleb128 0x1
 9450 15d7 51       		.byte	0x51
 9451 15d8 9F       		.byte	0x9f
 9452 15d9 00000000 		.4byte	0
 9453 15dd 00000000 		.4byte	0
 9454              	.LLST129:
 9455 15e1 0E000000 		.4byte	.LVL419
 9456 15e5 18000000 		.4byte	.LVL421
 9457 15e9 0100     		.2byte	0x1
 9458 15eb 52       		.byte	0x52
 9459 15ec 18000000 		.4byte	.LVL421
 9460 15f0 1C000000 		.4byte	.LVL422
 9461 15f4 0100     		.2byte	0x1
 9462 15f6 51       		.byte	0x51
 9463 15f7 28000000 		.4byte	.LVL424
 9464 15fb 32000000 		.4byte	.LVL426
 9465 15ff 0100     		.2byte	0x1
 9466 1601 52       		.byte	0x52
 9467 1602 32000000 		.4byte	.LVL426
 9468 1606 36000000 		.4byte	.LVL427
 9469 160a 0100     		.2byte	0x1
ARM GAS  C:\Users\YUANFA~1\AppData\Local\Temp\ccYDlzYT.s 			page 237


 9470 160c 51       		.byte	0x51
 9471 160d 42000000 		.4byte	.LVL429
 9472 1611 4C000000 		.4byte	.LVL431
 9473 1615 0100     		.2byte	0x1
 9474 1617 52       		.byte	0x52
 9475 1618 4C000000 		.4byte	.LVL431
 9476 161c 50000000 		.4byte	.LVL432
 9477 1620 0100     		.2byte	0x1
 9478 1622 51       		.byte	0x51
 9479 1623 00000000 		.4byte	0
 9480 1627 00000000 		.4byte	0
 9481              		.section	.debug_aranges,"",%progbits
 9482 0000 2C020000 		.4byte	0x22c
 9483 0004 0200     		.2byte	0x2
 9484 0006 00000000 		.4byte	.Ldebug_info0
 9485 000a 04       		.byte	0x4
 9486 000b 00       		.byte	0
 9487 000c 0000     		.2byte	0
 9488 000e 0000     		.2byte	0
 9489 0010 00000000 		.4byte	.LFB1
 9490 0014 14000000 		.4byte	.LFE1-.LFB1
 9491 0018 00000000 		.4byte	.LFB4
 9492 001c 4C000000 		.4byte	.LFE4-.LFB4
 9493 0020 00000000 		.4byte	.LFB2
 9494 0024 18000000 		.4byte	.LFE2-.LFB2
 9495 0028 00000000 		.4byte	.LFB5
 9496 002c 14000000 		.4byte	.LFE5-.LFB5
 9497 0030 00000000 		.4byte	.LFB6
 9498 0034 94000000 		.4byte	.LFE6-.LFB6
 9499 0038 00000000 		.4byte	.LFB7
 9500 003c 34000000 		.4byte	.LFE7-.LFB7
 9501 0040 00000000 		.4byte	.LFB8
 9502 0044 2C000000 		.4byte	.LFE8-.LFB8
 9503 0048 00000000 		.4byte	.LFB9
 9504 004c 24000000 		.4byte	.LFE9-.LFB9
 9505 0050 00000000 		.4byte	.LFB11
 9506 0054 24000000 		.4byte	.LFE11-.LFB11
 9507 0058 00000000 		.4byte	.LFB13
 9508 005c 14000000 		.4byte	.LFE13-.LFB13
 9509 0060 00000000 		.4byte	.LFB14
 9510 0064 14000000 		.4byte	.LFE14-.LFB14
 9511 0068 00000000 		.4byte	.LFB15
 9512 006c 60000000 		.4byte	.LFE15-.LFB15
 9513 0070 00000000 		.4byte	.LFB16
 9514 0074 74010000 		.4byte	.LFE16-.LFB16
 9515 0078 00000000 		.4byte	.LFB19
 9516 007c 28000000 		.4byte	.LFE19-.LFB19
 9517 0080 00000000 		.4byte	.LFB21
 9518 0084 38000000 		.4byte	.LFE21-.LFB21
 9519 0088 00000000 		.4byte	.LFB24
 9520 008c 34000000 		.4byte	.LFE24-.LFB24
 9521 0090 00000000 		.4byte	.LFB26
 9522 0094 78000000 		.4byte	.LFE26-.LFB26
 9523 0098 00000000 		.4byte	.LFB28
 9524 009c 14000000 		.4byte	.LFE28-.LFB28
 9525 00a0 00000000 		.4byte	.LFB29
 9526 00a4 10000000 		.4byte	.LFE29-.LFB29
ARM GAS  C:\Users\YUANFA~1\AppData\Local\Temp\ccYDlzYT.s 			page 238


 9527 00a8 00000000 		.4byte	.LFB30
 9528 00ac 0C000000 		.4byte	.LFE30-.LFB30
 9529 00b0 00000000 		.4byte	.LFB37
 9530 00b4 14000000 		.4byte	.LFE37-.LFB37
 9531 00b8 00000000 		.4byte	.LFB38
 9532 00bc 18000000 		.4byte	.LFE38-.LFB38
 9533 00c0 00000000 		.4byte	.LFB39
 9534 00c4 14000000 		.4byte	.LFE39-.LFB39
 9535 00c8 00000000 		.4byte	.LFB40
 9536 00cc 14000000 		.4byte	.LFE40-.LFB40
 9537 00d0 00000000 		.4byte	.LFB41
 9538 00d4 14000000 		.4byte	.LFE41-.LFB41
 9539 00d8 00000000 		.4byte	.LFB42
 9540 00dc 04000000 		.4byte	.LFE42-.LFB42
 9541 00e0 00000000 		.4byte	.LFB18
 9542 00e4 40000000 		.4byte	.LFE18-.LFB18
 9543 00e8 00000000 		.4byte	.LFB22
 9544 00ec 2C000000 		.4byte	.LFE22-.LFB22
 9545 00f0 00000000 		.4byte	.LFB23
 9546 00f4 2C000000 		.4byte	.LFE23-.LFB23
 9547 00f8 00000000 		.4byte	.LFB20
 9548 00fc A4000000 		.4byte	.LFE20-.LFB20
 9549 0100 00000000 		.4byte	.LFB27
 9550 0104 58000000 		.4byte	.LFE27-.LFB27
 9551 0108 00000000 		.4byte	.LFB25
 9552 010c 10010000 		.4byte	.LFE25-.LFB25
 9553 0110 00000000 		.4byte	.LFB31
 9554 0114 20000000 		.4byte	.LFE31-.LFB31
 9555 0118 00000000 		.4byte	.LFB32
 9556 011c 1C000000 		.4byte	.LFE32-.LFB32
 9557 0120 00000000 		.4byte	.LFB33
 9558 0124 22000000 		.4byte	.LFE33-.LFB33
 9559 0128 00000000 		.4byte	.LFB34
 9560 012c 1E000000 		.4byte	.LFE34-.LFB34
 9561 0130 00000000 		.4byte	.LFB35
 9562 0134 4C000000 		.4byte	.LFE35-.LFB35
 9563 0138 00000000 		.4byte	.LFB36
 9564 013c 2C000000 		.4byte	.LFE36-.LFB36
 9565 0140 00000000 		.4byte	.LFB43
 9566 0144 18000000 		.4byte	.LFE43-.LFB43
 9567 0148 00000000 		.4byte	.LFB44
 9568 014c 30000000 		.4byte	.LFE44-.LFB44
 9569 0150 00000000 		.4byte	.LFB3
 9570 0154 D0000000 		.4byte	.LFE3-.LFB3
 9571 0158 00000000 		.4byte	.LFB10
 9572 015c D8000000 		.4byte	.LFE10-.LFB10
 9573 0160 00000000 		.4byte	.LFB45
 9574 0164 14000000 		.4byte	.LFE45-.LFB45
 9575 0168 00000000 		.4byte	.LFB12
 9576 016c 48000000 		.4byte	.LFE12-.LFB12
 9577 0170 00000000 		.4byte	.LFB17
 9578 0174 9C000000 		.4byte	.LFE17-.LFB17
 9579 0178 00000000 		.4byte	.LFB46
 9580 017c 4C000000 		.4byte	.LFE46-.LFB46
 9581 0180 00000000 		.4byte	.LFB50
 9582 0184 10000000 		.4byte	.LFE50-.LFB50
 9583 0188 00000000 		.4byte	.LFB51
ARM GAS  C:\Users\YUANFA~1\AppData\Local\Temp\ccYDlzYT.s 			page 239


 9584 018c 10000000 		.4byte	.LFE51-.LFB51
 9585 0190 00000000 		.4byte	.LFB49
 9586 0194 18000000 		.4byte	.LFE49-.LFB49
 9587 0198 00000000 		.4byte	.LFB52
 9588 019c 10000000 		.4byte	.LFE52-.LFB52
 9589 01a0 00000000 		.4byte	.LFB53
 9590 01a4 10000000 		.4byte	.LFE53-.LFB53
 9591 01a8 00000000 		.4byte	.LFB54
 9592 01ac 10000000 		.4byte	.LFE54-.LFB54
 9593 01b0 00000000 		.4byte	.LFB55
 9594 01b4 10000000 		.4byte	.LFE55-.LFB55
 9595 01b8 00000000 		.4byte	.LFB56
 9596 01bc 20000000 		.4byte	.LFE56-.LFB56
 9597 01c0 00000000 		.4byte	.LFB57
 9598 01c4 10000000 		.4byte	.LFE57-.LFB57
 9599 01c8 00000000 		.4byte	.LFB58
 9600 01cc 10000000 		.4byte	.LFE58-.LFB58
 9601 01d0 00000000 		.4byte	.LFB62
 9602 01d4 28000000 		.4byte	.LFE62-.LFB62
 9603 01d8 00000000 		.4byte	.LFB59
 9604 01dc 0C000000 		.4byte	.LFE59-.LFB59
 9605 01e0 00000000 		.4byte	.LFB48
 9606 01e4 44000000 		.4byte	.LFE48-.LFB48
 9607 01e8 00000000 		.4byte	.LFB47
 9608 01ec 20000000 		.4byte	.LFE47-.LFB47
 9609 01f0 00000000 		.4byte	.LFB60
 9610 01f4 10000000 		.4byte	.LFE60-.LFB60
 9611 01f8 00000000 		.4byte	.LFB61
 9612 01fc 0C000000 		.4byte	.LFE61-.LFB61
 9613 0200 00000000 		.4byte	.LFB63
 9614 0204 70000000 		.4byte	.LFE63-.LFB63
 9615 0208 00000000 		.4byte	.LFB64
 9616 020c 20000000 		.4byte	.LFE64-.LFB64
 9617 0210 00000000 		.4byte	.LFB65
 9618 0214 20000000 		.4byte	.LFE65-.LFB65
 9619 0218 00000000 		.4byte	.LFB66
 9620 021c 20000000 		.4byte	.LFE66-.LFB66
 9621 0220 00000000 		.4byte	.LFB67
 9622 0224 68000000 		.4byte	.LFE67-.LFB67
 9623 0228 00000000 		.4byte	0
 9624 022c 00000000 		.4byte	0
 9625              		.section	.debug_ranges,"",%progbits
 9626              	.Ldebug_ranges0:
 9627 0000 00000000 		.4byte	.LFB1
 9628 0004 14000000 		.4byte	.LFE1
 9629 0008 00000000 		.4byte	.LFB4
 9630 000c 4C000000 		.4byte	.LFE4
 9631 0010 00000000 		.4byte	.LFB2
 9632 0014 18000000 		.4byte	.LFE2
 9633 0018 00000000 		.4byte	.LFB5
 9634 001c 14000000 		.4byte	.LFE5
 9635 0020 00000000 		.4byte	.LFB6
 9636 0024 94000000 		.4byte	.LFE6
 9637 0028 00000000 		.4byte	.LFB7
 9638 002c 34000000 		.4byte	.LFE7
 9639 0030 00000000 		.4byte	.LFB8
 9640 0034 2C000000 		.4byte	.LFE8
ARM GAS  C:\Users\YUANFA~1\AppData\Local\Temp\ccYDlzYT.s 			page 240


 9641 0038 00000000 		.4byte	.LFB9
 9642 003c 24000000 		.4byte	.LFE9
 9643 0040 00000000 		.4byte	.LFB11
 9644 0044 24000000 		.4byte	.LFE11
 9645 0048 00000000 		.4byte	.LFB13
 9646 004c 14000000 		.4byte	.LFE13
 9647 0050 00000000 		.4byte	.LFB14
 9648 0054 14000000 		.4byte	.LFE14
 9649 0058 00000000 		.4byte	.LFB15
 9650 005c 60000000 		.4byte	.LFE15
 9651 0060 00000000 		.4byte	.LFB16
 9652 0064 74010000 		.4byte	.LFE16
 9653 0068 00000000 		.4byte	.LFB19
 9654 006c 28000000 		.4byte	.LFE19
 9655 0070 00000000 		.4byte	.LFB21
 9656 0074 38000000 		.4byte	.LFE21
 9657 0078 00000000 		.4byte	.LFB24
 9658 007c 34000000 		.4byte	.LFE24
 9659 0080 00000000 		.4byte	.LFB26
 9660 0084 78000000 		.4byte	.LFE26
 9661 0088 00000000 		.4byte	.LFB28
 9662 008c 14000000 		.4byte	.LFE28
 9663 0090 00000000 		.4byte	.LFB29
 9664 0094 10000000 		.4byte	.LFE29
 9665 0098 00000000 		.4byte	.LFB30
 9666 009c 0C000000 		.4byte	.LFE30
 9667 00a0 00000000 		.4byte	.LFB37
 9668 00a4 14000000 		.4byte	.LFE37
 9669 00a8 00000000 		.4byte	.LFB38
 9670 00ac 18000000 		.4byte	.LFE38
 9671 00b0 00000000 		.4byte	.LFB39
 9672 00b4 14000000 		.4byte	.LFE39
 9673 00b8 00000000 		.4byte	.LFB40
 9674 00bc 14000000 		.4byte	.LFE40
 9675 00c0 00000000 		.4byte	.LFB41
 9676 00c4 14000000 		.4byte	.LFE41
 9677 00c8 00000000 		.4byte	.LFB42
 9678 00cc 04000000 		.4byte	.LFE42
 9679 00d0 00000000 		.4byte	.LFB18
 9680 00d4 40000000 		.4byte	.LFE18
 9681 00d8 00000000 		.4byte	.LFB22
 9682 00dc 2C000000 		.4byte	.LFE22
 9683 00e0 00000000 		.4byte	.LFB23
 9684 00e4 2C000000 		.4byte	.LFE23
 9685 00e8 00000000 		.4byte	.LFB20
 9686 00ec A4000000 		.4byte	.LFE20
 9687 00f0 00000000 		.4byte	.LFB27
 9688 00f4 58000000 		.4byte	.LFE27
 9689 00f8 00000000 		.4byte	.LFB25
 9690 00fc 10010000 		.4byte	.LFE25
 9691 0100 00000000 		.4byte	.LFB31
 9692 0104 20000000 		.4byte	.LFE31
 9693 0108 00000000 		.4byte	.LFB32
 9694 010c 1C000000 		.4byte	.LFE32
 9695 0110 00000000 		.4byte	.LFB33
 9696 0114 22000000 		.4byte	.LFE33
 9697 0118 00000000 		.4byte	.LFB34
ARM GAS  C:\Users\YUANFA~1\AppData\Local\Temp\ccYDlzYT.s 			page 241


 9698 011c 1E000000 		.4byte	.LFE34
 9699 0120 00000000 		.4byte	.LFB35
 9700 0124 4C000000 		.4byte	.LFE35
 9701 0128 00000000 		.4byte	.LFB36
 9702 012c 2C000000 		.4byte	.LFE36
 9703 0130 00000000 		.4byte	.LFB43
 9704 0134 18000000 		.4byte	.LFE43
 9705 0138 00000000 		.4byte	.LFB44
 9706 013c 30000000 		.4byte	.LFE44
 9707 0140 00000000 		.4byte	.LFB3
 9708 0144 D0000000 		.4byte	.LFE3
 9709 0148 00000000 		.4byte	.LFB10
 9710 014c D8000000 		.4byte	.LFE10
 9711 0150 00000000 		.4byte	.LFB45
 9712 0154 14000000 		.4byte	.LFE45
 9713 0158 00000000 		.4byte	.LFB12
 9714 015c 48000000 		.4byte	.LFE12
 9715 0160 00000000 		.4byte	.LFB17
 9716 0164 9C000000 		.4byte	.LFE17
 9717 0168 00000000 		.4byte	.LFB46
 9718 016c 4C000000 		.4byte	.LFE46
 9719 0170 00000000 		.4byte	.LFB50
 9720 0174 10000000 		.4byte	.LFE50
 9721 0178 00000000 		.4byte	.LFB51
 9722 017c 10000000 		.4byte	.LFE51
 9723 0180 00000000 		.4byte	.LFB49
 9724 0184 18000000 		.4byte	.LFE49
 9725 0188 00000000 		.4byte	.LFB52
 9726 018c 10000000 		.4byte	.LFE52
 9727 0190 00000000 		.4byte	.LFB53
 9728 0194 10000000 		.4byte	.LFE53
 9729 0198 00000000 		.4byte	.LFB54
 9730 019c 10000000 		.4byte	.LFE54
 9731 01a0 00000000 		.4byte	.LFB55
 9732 01a4 10000000 		.4byte	.LFE55
 9733 01a8 00000000 		.4byte	.LFB56
 9734 01ac 20000000 		.4byte	.LFE56
 9735 01b0 00000000 		.4byte	.LFB57
 9736 01b4 10000000 		.4byte	.LFE57
 9737 01b8 00000000 		.4byte	.LFB58
 9738 01bc 10000000 		.4byte	.LFE58
 9739 01c0 00000000 		.4byte	.LFB62
 9740 01c4 28000000 		.4byte	.LFE62
 9741 01c8 00000000 		.4byte	.LFB59
 9742 01cc 0C000000 		.4byte	.LFE59
 9743 01d0 00000000 		.4byte	.LFB48
 9744 01d4 44000000 		.4byte	.LFE48
 9745 01d8 00000000 		.4byte	.LFB47
 9746 01dc 20000000 		.4byte	.LFE47
 9747 01e0 00000000 		.4byte	.LFB60
 9748 01e4 10000000 		.4byte	.LFE60
 9749 01e8 00000000 		.4byte	.LFB61
 9750 01ec 0C000000 		.4byte	.LFE61
 9751 01f0 00000000 		.4byte	.LFB63
 9752 01f4 70000000 		.4byte	.LFE63
 9753 01f8 00000000 		.4byte	.LFB64
 9754 01fc 20000000 		.4byte	.LFE64
ARM GAS  C:\Users\YUANFA~1\AppData\Local\Temp\ccYDlzYT.s 			page 242


 9755 0200 00000000 		.4byte	.LFB65
 9756 0204 20000000 		.4byte	.LFE65
 9757 0208 00000000 		.4byte	.LFB66
 9758 020c 20000000 		.4byte	.LFE66
 9759 0210 00000000 		.4byte	.LFB67
 9760 0214 68000000 		.4byte	.LFE67
 9761 0218 00000000 		.4byte	0
 9762 021c 00000000 		.4byte	0
 9763              		.section	.debug_line,"",%progbits
 9764              	.Ldebug_line0:
 9765 0000 33080000 		.section	.debug_str,"MS",%progbits,1
 9765      02006700 
 9765      00000201 
 9765      FB0E0D00 
 9765      01010101 
 9766              	.LASF88:
 9767 0000 706C6C46 		.ascii	"pllFreq\000"
 9767      72657100 
 9768              	.LASF102:
 9769 0008 4379496E 		.ascii	"CyIntGetVector\000"
 9769      74476574 
 9769      56656374 
 9769      6F7200
 9770              	.LASF137:
 9771 0017 43795379 		.ascii	"CySysTickClear\000"
 9771      73546963 
 9771      6B436C65 
 9771      617200
 9772              	.LASF109:
 9773 0026 43794465 		.ascii	"CyDelay\000"
 9773      6C617900 
 9774              	.LASF103:
 9775 002e 4379496E 		.ascii	"CyIntSetPriority\000"
 9775      74536574 
 9775      5072696F 
 9775      72697479 
 9775      00
 9776              	.LASF61:
 9777 003f 43795379 		.ascii	"CySysClkPllGetUnlockStatus\000"
 9777      73436C6B 
 9777      506C6C47 
 9777      6574556E 
 9777      6C6F636B 
 9778              	.LASF107:
 9779 005a 4379496E 		.ascii	"CyIntGetPriority\000"
 9779      74476574 
 9779      5072696F 
 9779      72697479 
 9779      00
 9780              	.LASF148:
 9781 006b 43795379 		.ascii	"CySysSetDmacAccessArbPriority\000"
 9781      73536574 
 9781      446D6163 
 9781      41636365 
 9781      73734172 
 9782              	.LASF110:
 9783 0089 6D696C6C 		.ascii	"milliseconds\000"
ARM GAS  C:\Users\YUANFA~1\AppData\Local\Temp\ccYDlzYT.s 			page 243


 9783      69736563 
 9783      6F6E6473 
 9783      00
 9784              	.LASF115:
 9785 0096 696D6F54 		.ascii	"imoTrim1Value\000"
 9785      72696D31 
 9785      56616C75 
 9785      6500
 9786              	.LASF56:
 9787 00a4 72657475 		.ascii	"returnStatus\000"
 9787      726E5374 
 9787      61747573 
 9787      00
 9788              	.LASF153:
 9789 00b1 63796465 		.ascii	"cydelayFreqKhz\000"
 9789      6C617946 
 9789      7265714B 
 9789      687A00
 9790              	.LASF159:
 9791 00c0 43794578 		.ascii	"CyExitCriticalSection\000"
 9791      69744372 
 9791      69746963 
 9791      616C5365 
 9791      6374696F 
 9792              	.LASF95:
 9793 00d6 66657272 		.ascii	"ferr\000"
 9793      00
 9794              	.LASF8:
 9795 00db 756E7369 		.ascii	"unsigned int\000"
 9795      676E6564 
 9795      20696E74 
 9795      00
 9796              	.LASF49:
 9797 00e8 66547269 		.ascii	"fTrim\000"
 9797      6D00
 9798              	.LASF150:
 9799 00ee 696E7465 		.ascii	"interfaceNumber\000"
 9799      72666163 
 9799      654E756D 
 9799      62657200 
 9800              	.LASF89:
 9801 00fe 66726571 		.ascii	"freqTol\000"
 9801      546F6C00 
 9802              	.LASF34:
 9803 0106 43795379 		.ascii	"CySysEnablePumpClock\000"
 9803      73456E61 
 9803      626C6550 
 9803      756D7043 
 9803      6C6F636B 
 9804              	.LASF32:
 9805 011b 696E7465 		.ascii	"interruptState\000"
 9805      72727570 
 9805      74537461 
 9805      746500
 9806              	.LASF130:
 9807 012a 43795379 		.ascii	"CySysClkImoGetWcoLock\000"
 9807      73436C6B 
ARM GAS  C:\Users\YUANFA~1\AppData\Local\Temp\ccYDlzYT.s 			page 244


 9807      496D6F47 
 9807      65745763 
 9807      6F4C6F63 
 9808              	.LASF17:
 9809 0140 72656738 		.ascii	"reg8\000"
 9809      00
 9810              	.LASF40:
 9811 0145 43795379 		.ascii	"CySysClkWriteHfclkDiv\000"
 9811      73436C6B 
 9811      57726974 
 9811      65486663 
 9811      6C6B4469 
 9812              	.LASF73:
 9813 015b 4379496E 		.ascii	"CyIntDisable\000"
 9813      74446973 
 9813      61626C65 
 9813      00
 9814              	.LASF156:
 9815 0168 43795379 		.ascii	"CySysTickInitVar\000"
 9815      73546963 
 9815      6B496E69 
 9815      74566172 
 9815      00
 9816              	.LASF83:
 9817 0179 72656665 		.ascii	"reference\000"
 9817      72656E63 
 9817      6500
 9818              	.LASF140:
 9819 0183 43795379 		.ascii	"CySysTickSetCallback\000"
 9819      73546963 
 9819      6B536574 
 9819      43616C6C 
 9819      6261636B 
 9820              	.LASF68:
 9821 0198 4379456E 		.ascii	"CyEnableInts\000"
 9821      61626C65 
 9821      496E7473 
 9821      00
 9822              	.LASF124:
 9823 01a5 43794465 		.ascii	"CyDelayFreq\000"
 9823      6C617946 
 9823      72657100 
 9824              	.LASF27:
 9825 01b1 63795F73 		.ascii	"cy_sys_clk_pll_struct\000"
 9825      79735F63 
 9825      6C6B5F70 
 9825      6C6C5F73 
 9825      74727563 
 9826              	.LASF42:
 9827 01c7 43795379 		.ascii	"CySysClkEcoStop\000"
 9827      73436C6B 
 9827      45636F53 
 9827      746F7000 
 9828              	.LASF13:
 9829 01d7 666C6F61 		.ascii	"float\000"
 9829      7400
 9830              	.LASF105:
ARM GAS  C:\Users\YUANFA~1\AppData\Local\Temp\ccYDlzYT.s 			page 245


 9831 01dd 73686966 		.ascii	"shift\000"
 9831      7400
 9832              	.LASF163:
 9833 01e3 474E5520 		.ascii	"GNU C11 5.4.1 20160609 (release) [ARM/embedded-5-br"
 9833      43313120 
 9833      352E342E 
 9833      31203230 
 9833      31363036 
 9834 0216 616E6368 		.ascii	"anch revision 237715] -mcpu=cortex-m0plus -mthumb -"
 9834      20726576 
 9834      6973696F 
 9834      6E203233 
 9834      37373135 
 9835 0249 67202D4F 		.ascii	"g -Og -ffunction-sections -ffat-lto-objects\000"
 9835      67202D66 
 9835      66756E63 
 9835      74696F6E 
 9835      2D736563 
 9836              	.LASF12:
 9837 0275 696E7433 		.ascii	"int32\000"
 9837      3200
 9838              	.LASF131:
 9839 027b 43795379 		.ascii	"CySysTickGetReload\000"
 9839      73546963 
 9839      6B476574 
 9839      52656C6F 
 9839      616400
 9840              	.LASF86:
 9841 028e 43795379 		.ascii	"CySysClkPllSetFrequency\000"
 9841      73436C6B 
 9841      506C6C53 
 9841      65744672 
 9841      65717565 
 9842              	.LASF117:
 9843 02a6 43794465 		.ascii	"CyDelayUs\000"
 9843      6C617955 
 9843      7300
 9844              	.LASF7:
 9845 02b0 6C6F6E67 		.ascii	"long long unsigned int\000"
 9845      206C6F6E 
 9845      6720756E 
 9845      7369676E 
 9845      65642069 
 9846              	.LASF65:
 9847 02c7 72656173 		.ascii	"reason\000"
 9847      6F6E00
 9848              	.LASF76:
 9849 02ce 43794861 		.ascii	"CyHalt\000"
 9849      6C7400
 9850              	.LASF36:
 9851 02d5 656E6162 		.ascii	"enable\000"
 9851      6C6500
 9852              	.LASF52:
 9853 02dc 72656754 		.ascii	"regTmp\000"
 9853      6D7000
 9854              	.LASF106:
 9855 02e3 76616C75 		.ascii	"value\000"
ARM GAS  C:\Users\YUANFA~1\AppData\Local\Temp\ccYDlzYT.s 			page 246


 9855      6500
 9856              	.LASF43:
 9857 02e9 43795379 		.ascii	"CySysClkGetSysclkSource\000"
 9857      73436C6B 
 9857      47657453 
 9857      7973636C 
 9857      6B536F75 
 9858              	.LASF90:
 9859 0301 714D696E 		.ascii	"qMin\000"
 9859      00
 9860              	.LASF125:
 9861 0306 43795379 		.ascii	"CySysTickStop\000"
 9861      73546963 
 9861      6B53746F 
 9861      7000
 9862              	.LASF72:
 9863 0314 4379496E 		.ascii	"CyIntGetState\000"
 9863      74476574 
 9863      53746174 
 9863      6500
 9864              	.LASF152:
 9865 0322 63796465 		.ascii	"cydelayFreqHz\000"
 9865      6C617946 
 9865      72657148 
 9865      7A00
 9866              	.LASF87:
 9867 0330 696E7075 		.ascii	"inputFreq\000"
 9867      74467265 
 9867      7100
 9868              	.LASF143:
 9869 033a 43795379 		.ascii	"CySysTickGetCallback\000"
 9869      73546963 
 9869      6B476574 
 9869      43616C6C 
 9869      6261636B 
 9870              	.LASF98:
 9871 034f 6F6C6449 		.ascii	"oldIsr\000"
 9871      737200
 9872              	.LASF92:
 9873 0356 7156616C 		.ascii	"qVal\000"
 9873      00
 9874              	.LASF74:
 9875 035b 4379496E 		.ascii	"CyIntSetPending\000"
 9875      74536574 
 9875      50656E64 
 9875      696E6700 
 9876              	.LASF35:
 9877 036b 636C6B53 		.ascii	"clkSelect\000"
 9877      656C6563 
 9877      7400
 9878              	.LASF67:
 9879 0375 696E7453 		.ascii	"intState\000"
 9879      74617465 
 9879      00
 9880              	.LASF123:
 9881 037e 636F756E 		.ascii	"counts\000"
 9881      747300
ARM GAS  C:\Users\YUANFA~1\AppData\Local\Temp\ccYDlzYT.s 			page 247


 9882              	.LASF31:
 9883 0385 66726571 		.ascii	"freq\000"
 9883      00
 9884              	.LASF60:
 9885 038a 62797061 		.ascii	"bypass\000"
 9885      737300
 9886              	.LASF22:
 9887 0391 63795379 		.ascii	"cySysTickCallback\000"
 9887      73546963 
 9887      6B43616C 
 9887      6C626163 
 9887      6B00
 9888              	.LASF75:
 9889 03a3 4379496E 		.ascii	"CyIntClearPending\000"
 9889      74436C65 
 9889      61725065 
 9889      6E64696E 
 9889      6700
 9890              	.LASF15:
 9891 03b5 63686172 		.ascii	"char\000"
 9891      00
 9892              	.LASF136:
 9893 03ba 43795379 		.ascii	"CySysTickGetCountFlag\000"
 9893      73546963 
 9893      6B476574 
 9893      436F756E 
 9893      74466C61 
 9894              	.LASF160:
 9895 03d0 43794465 		.ascii	"CyDelayCycles\000"
 9895      6C617943 
 9895      79636C65 
 9895      7300
 9896              	.LASF113:
 9897 03de 666C6173 		.ascii	"flashCtlReg\000"
 9897      6843746C 
 9897      52656700 
 9898              	.LASF29:
 9899 03ea 43795379 		.ascii	"CySysClkImoStop\000"
 9899      73436C6B 
 9899      496D6F53 
 9899      746F7000 
 9900              	.LASF30:
 9901 03fa 43795379 		.ascii	"CySysClkWriteHfclkDirect\000"
 9901      73436C6B 
 9901      57726974 
 9901      65486663 
 9901      6C6B4469 
 9902              	.LASF10:
 9903 0413 75696E74 		.ascii	"uint16\000"
 9903      313600
 9904              	.LASF82:
 9905 041a 66656564 		.ascii	"feedback\000"
 9905      6261636B 
 9905      00
 9906              	.LASF101:
 9907 0423 4379496E 		.ascii	"CyIntSetVector\000"
 9907      74536574 
ARM GAS  C:\Users\YUANFA~1\AppData\Local\Temp\ccYDlzYT.s 			page 248


 9907      56656374 
 9907      6F7200
 9908              	.LASF26:
 9909 0432 63795F73 		.ascii	"cy_sys_clk_pll_regs_struct\000"
 9909      79735F63 
 9909      6C6B5F70 
 9909      6C6C5F72 
 9909      6567735F 
 9910              	.LASF24:
 9911 044d 73746174 		.ascii	"status\000"
 9911      757300
 9912              	.LASF146:
 9913 0454 43795379 		.ascii	"CySysSetRamAccessArbPriority\000"
 9913      73536574 
 9913      52616D41 
 9913      63636573 
 9913      73417262 
 9914              	.LASF44:
 9915 0471 43795379 		.ascii	"CySysClkEcoReadStatus\000"
 9915      73436C6B 
 9915      45636F52 
 9915      65616453 
 9915      74617475 
 9916              	.LASF81:
 9917 0487 43795379 		.ascii	"CySysClkPllSetPQ\000"
 9917      73436C6B 
 9917      506C6C53 
 9917      65745051 
 9917      00
 9918              	.LASF48:
 9919 0498 61547269 		.ascii	"aTrim\000"
 9919      6D00
 9920              	.LASF57:
 9921 049e 676D4D69 		.ascii	"gmMin\000"
 9921      6E00
 9922              	.LASF55:
 9923 04a4 6D617841 		.ascii	"maxAmplitude\000"
 9923      6D706C69 
 9923      74756465 
 9923      00
 9924              	.LASF149:
 9925 04b1 43795379 		.ascii	"CySysSetPeripheralAccessArbPriority\000"
 9925      73536574 
 9925      50657269 
 9925      70686572 
 9925      616C4163 
 9926              	.LASF6:
 9927 04d5 6C6F6E67 		.ascii	"long long int\000"
 9927      206C6F6E 
 9927      6720696E 
 9927      7400
 9928              	.LASF111:
 9929 04e3 43795379 		.ascii	"CySysClkImoEnableWcoLock\000"
 9929      73436C6B 
 9929      496D6F45 
 9929      6E61626C 
 9929      6557636F 
ARM GAS  C:\Users\YUANFA~1\AppData\Local\Temp\ccYDlzYT.s 			page 249


 9930              	.LASF97:
 9931 04fc 61646472 		.ascii	"address\000"
 9931      65737300 
 9932              	.LASF127:
 9933 0504 43795379 		.ascii	"CySysTickEnable\000"
 9933      73546963 
 9933      6B456E61 
 9933      626C6500 
 9934              	.LASF64:
 9935 0514 43795379 		.ascii	"CySysGetResetReason\000"
 9935      73476574 
 9935      52657365 
 9935      74526561 
 9935      736F6E00 
 9936              	.LASF147:
 9937 0528 43795379 		.ascii	"CySysSetFlashAccessArbPriority\000"
 9937      73536574 
 9937      466C6173 
 9937      68416363 
 9937      65737341 
 9938              	.LASF100:
 9939 0547 4379496E 		.ascii	"CyIntGetSysVector\000"
 9939      74476574 
 9939      53797356 
 9939      6563746F 
 9939      7200
 9940              	.LASF151:
 9941 0559 43795379 		.ascii	"CySysTickCallbacks\000"
 9941      73546963 
 9941      6B43616C 
 9941      6C626163 
 9941      6B7300
 9942              	.LASF132:
 9943 056c 43795379 		.ascii	"CySysTickGetValue\000"
 9943      73546963 
 9943      6B476574 
 9943      56616C75 
 9943      6500
 9944              	.LASF78:
 9945 057e 43795379 		.ascii	"CySysClkPllGetBypassMode\000"
 9945      73436C6B 
 9945      506C6C47 
 9945      65744279 
 9945      70617373 
 9946              	.LASF19:
 9947 0597 63796973 		.ascii	"cyisraddress\000"
 9947      72616464 
 9947      72657373 
 9947      00
 9948              	.LASF47:
 9949 05a4 77445472 		.ascii	"wDTrim\000"
 9949      696D00
 9950              	.LASF119:
 9951 05ab 43795379 		.ascii	"CySysClkEcoStart\000"
 9951      73436C6B 
 9951      45636F53 
 9951      74617274 
ARM GAS  C:\Users\YUANFA~1\AppData\Local\Temp\ccYDlzYT.s 			page 250


 9951      00
 9952              	.LASF11:
 9953 05bc 75696E74 		.ascii	"uint32\000"
 9953      333200
 9954              	.LASF79:
 9955 05c3 43795379 		.ascii	"CySysClkPllConfigChangeAllowed\000"
 9955      73436C6B 
 9955      506C6C43 
 9955      6F6E6669 
 9955      67436861 
 9956              	.LASF139:
 9957 05e2 43795379 		.ascii	"CySysTickStart\000"
 9957      73546963 
 9957      6B537461 
 9957      727400
 9958              	.LASF166:
 9959 05f1 43795379 		.ascii	"CySysTickServiceCallbacks\000"
 9959      73546963 
 9959      6B536572 
 9959      76696365 
 9959      43616C6C 
 9960              	.LASF69:
 9961 060b 6D61736B 		.ascii	"mask\000"
 9961      00
 9962              	.LASF133:
 9963 0610 43795379 		.ascii	"CySysTickSetClockSource\000"
 9963      73546963 
 9963      6B536574 
 9963      436C6F63 
 9963      6B536F75 
 9964              	.LASF122:
 9965 0628 77616974 		.ascii	"wait\000"
 9965      00
 9966              	.LASF45:
 9967 062d 72657475 		.ascii	"returnValue\000"
 9967      726E5661 
 9967      6C756500 
 9968              	.LASF41:
 9969 0639 43795379 		.ascii	"CySysClkImoStart\000"
 9969      73436C6B 
 9969      496D6F53 
 9969      74617274 
 9969      00
 9970              	.LASF116:
 9971 064a 77636F4C 		.ascii	"wcoLock\000"
 9971      6F636B00 
 9972              	.LASF20:
 9973 0652 6C6F6E67 		.ascii	"long double\000"
 9973      20646F75 
 9973      626C6500 
 9974              	.LASF66:
 9975 065e 43794469 		.ascii	"CyDisableInts\000"
 9975      7361626C 
 9975      65496E74 
 9975      7300
 9976              	.LASF18:
 9977 066c 72656733 		.ascii	"reg32\000"
ARM GAS  C:\Users\YUANFA~1\AppData\Local\Temp\ccYDlzYT.s 			page 251


 9977      3200
 9978              	.LASF134:
 9979 0672 636C6F63 		.ascii	"clockSource\000"
 9979      6B536F75 
 9979      72636500 
 9980              	.LASF33:
 9981 067e 746D7052 		.ascii	"tmpReg\000"
 9981      656700
 9982              	.LASF162:
 9983 0685 43795379 		.ascii	"CySysFlashSetWaitCycles\000"
 9983      73466C61 
 9983      73685365 
 9983      74576169 
 9983      74437963 
 9984              	.LASF23:
 9985 069d 636F6E66 		.ascii	"config\000"
 9985      696700
 9986              	.LASF54:
 9987 06a4 634C6F61 		.ascii	"cLoad\000"
 9987      6400
 9988              	.LASF129:
 9989 06aa 43795379 		.ascii	"CySysTickSetReload\000"
 9989      73546963 
 9989      6B536574 
 9989      52656C6F 
 9989      616400
 9990              	.LASF2:
 9991 06bd 73686F72 		.ascii	"short int\000"
 9991      7420696E 
 9991      7400
 9992              	.LASF39:
 9993 06c7 64697669 		.ascii	"divider\000"
 9993      64657200 
 9994              	.LASF4:
 9995 06cf 6C6F6E67 		.ascii	"long int\000"
 9995      20696E74 
 9995      00
 9996              	.LASF80:
 9997 06d8 706C6C42 		.ascii	"pllBypassMode\000"
 9997      79706173 
 9997      734D6F64 
 9997      6500
 9998              	.LASF53:
 9999 06e6 43795379 		.ascii	"CySysClkConfigureEcoDrive\000"
 9999      73436C6B 
 9999      436F6E66 
 9999      69677572 
 9999      6545636F 
 10000              	.LASF96:
 10001 0700 4379496E 		.ascii	"CyIntSetSysVector\000"
 10001      74536574 
 10001      53797356 
 10001      6563746F 
 10001      7200
 10002              	.LASF104:
 10003 0712 7072696F 		.ascii	"priority\000"
 10003      72697479 
ARM GAS  C:\Users\YUANFA~1\AppData\Local\Temp\ccYDlzYT.s 			page 252


 10003      00
 10004              	.LASF157:
 10005 071b 43795379 		.ascii	"CySysClkPumpConfig\000"
 10005      73436C6B 
 10005      50756D70 
 10005      436F6E66 
 10005      696700
 10006              	.LASF94:
 10007 072e 6676636F 		.ascii	"fvco\000"
 10007      00
 10008              	.LASF38:
 10009 0733 43795379 		.ascii	"CySysClkWriteSysclkDiv\000"
 10009      73436C6B 
 10009      57726974 
 10009      65537973 
 10009      636C6B44 
 10010              	.LASF128:
 10011 074a 43795379 		.ascii	"CySysTickDisableInterrupt\000"
 10011      73546963 
 10011      6B446973 
 10011      61626C65 
 10011      496E7465 
 10012              	.LASF51:
 10013 0764 67547269 		.ascii	"gTrim\000"
 10013      6D00
 10014              	.LASF164:
 10015 076a 47656E65 		.ascii	"Generated_Source\\PSoC4\\CyLib.c\000"
 10015      72617465 
 10015      645F536F 
 10015      75726365 
 10015      5C50536F 
 10016              	.LASF63:
 10017 0789 736F7572 		.ascii	"source\000"
 10017      636500
 10018              	.LASF71:
 10019 0790 6E756D62 		.ascii	"number\000"
 10019      657200
 10020              	.LASF112:
 10021 0797 6C664C69 		.ascii	"lfLimit\000"
 10021      6D697400 
 10022              	.LASF93:
 10023 079f 7056616C 		.ascii	"pVal\000"
 10023      00
 10024              	.LASF138:
 10025 07a4 43795379 		.ascii	"CySysTickInit\000"
 10025      73546963 
 10025      6B496E69 
 10025      7400
 10026              	.LASF58:
 10027 07b2 43795379 		.ascii	"CySysClkPllStop\000"
 10027      73436C6B 
 10027      506C6C53 
 10027      746F7000 
 10028              	.LASF145:
 10029 07c2 756E6971 		.ascii	"uniqueId\000"
 10029      75654964 
 10029      00
ARM GAS  C:\Users\YUANFA~1\AppData\Local\Temp\ccYDlzYT.s 			page 253


 10030              	.LASF91:
 10031 07cb 714D6178 		.ascii	"qMax\000"
 10031      00
 10032              	.LASF21:
 10033 07d0 73697A65 		.ascii	"sizetype\000"
 10033      74797065 
 10033      00
 10034              	.LASF59:
 10035 07d9 43795379 		.ascii	"CySysClkPllSetBypassMode\000"
 10035      73436C6B 
 10035      506C6C53 
 10035      65744279 
 10035      70617373 
 10036              	.LASF46:
 10037 07f2 43795379 		.ascii	"CySysClkConfigureEcoTrim\000"
 10037      73436C6B 
 10037      436F6E66 
 10037      69677572 
 10037      6545636F 
 10038              	.LASF5:
 10039 080b 6C6F6E67 		.ascii	"long unsigned int\000"
 10039      20756E73 
 10039      69676E65 
 10039      6420696E 
 10039      7400
 10040              	.LASF142:
 10041 081d 72657456 		.ascii	"retVal\000"
 10041      616C00
 10042              	.LASF50:
 10043 0824 72547269 		.ascii	"rTrim\000"
 10043      6D00
 10044              	.LASF135:
 10045 082a 43795379 		.ascii	"CySysTickGetClockSource\000"
 10045      73546963 
 10045      6B476574 
 10045      436C6F63 
 10045      6B536F75 
 10046              	.LASF108:
 10047 0842 4379536F 		.ascii	"CySoftwareReset\000"
 10047      66747761 
 10047      72655265 
 10047      73657400 
 10048              	.LASF16:
 10049 0852 63797374 		.ascii	"cystatus\000"
 10049      61747573 
 10049      00
 10050              	.LASF120:
 10051 085b 74696D65 		.ascii	"timeoutUs\000"
 10051      6F757455 
 10051      7300
 10052              	.LASF1:
 10053 0865 756E7369 		.ascii	"unsigned char\000"
 10053      676E6564 
 10053      20636861 
 10053      7200
 10054              	.LASF154:
 10055 0873 63796465 		.ascii	"cydelayFreqMhz\000"
ARM GAS  C:\Users\YUANFA~1\AppData\Local\Temp\ccYDlzYT.s 			page 254


 10055      6C617946 
 10055      7265714D 
 10055      687A00
 10056              	.LASF99:
 10057 0882 72616D56 		.ascii	"ramVectorTable\000"
 10057      6563746F 
 10057      72546162 
 10057      6C6500
 10058              	.LASF144:
 10059 0891 43794765 		.ascii	"CyGetUniqueId\000"
 10059      74556E69 
 10059      71756549 
 10059      6400
 10060              	.LASF141:
 10061 089f 66756E63 		.ascii	"function\000"
 10061      74696F6E 
 10061      00
 10062              	.LASF25:
 10063 08a8 74657374 		.ascii	"test\000"
 10063      00
 10064              	.LASF77:
 10065 08ad 43795379 		.ascii	"CySysClkPllGetLockStatus\000"
 10065      73436C6B 
 10065      506C6C47 
 10065      65744C6F 
 10065      636B5374 
 10066              	.LASF118:
 10067 08c6 6D696372 		.ascii	"microseconds\000"
 10067      6F736563 
 10067      6F6E6473 
 10067      00
 10068              	.LASF161:
 10069 08d3 43795379 		.ascii	"CySysClkWcoEnabled\000"
 10069      73436C6B 
 10069      57636F45 
 10069      6E61626C 
 10069      656400
 10070              	.LASF121:
 10071 08e6 43795379 		.ascii	"CySysClkPllStart\000"
 10071      73436C6B 
 10071      506C6C53 
 10071      74617274 
 10071      00
 10072              	.LASF126:
 10073 08f7 43795379 		.ascii	"CySysTickEnableInterrupt\000"
 10073      73546963 
 10073      6B456E61 
 10073      626C6549 
 10073      6E746572 
 10074              	.LASF155:
 10075 0910 63796465 		.ascii	"cydelay32kMs\000"
 10075      6C617933 
 10075      326B4D73 
 10075      00
 10076              	.LASF85:
 10077 091d 43795379 		.ascii	"CySysClkPllSetOutputDivider\000"
 10077      73436C6B 
ARM GAS  C:\Users\YUANFA~1\AppData\Local\Temp\ccYDlzYT.s 			page 255


 10077      506C6C53 
 10077      65744F75 
 10077      74707574 
 10078              	.LASF165:
 10079 0939 5C5C4D61 		.ascii	"\\\\Mac\\Home\\Documents\\PSoC Creator\\touch-panel"
 10079      635C486F 
 10079      6D655C44 
 10079      6F63756D 
 10079      656E7473 
 10080 0966 5C434330 		.ascii	"\\CC03\\CC03_CSD\\wk1.cydsn\000"
 10080      335C4343 
 10080      30335F43 
 10080      53445C77 
 10080      6B312E63 
 10081              	.LASF28:
 10082 097f 43795379 		.ascii	"CySysClkImoDisableWcoLock\000"
 10082      73436C6B 
 10082      496D6F44 
 10082      69736162 
 10082      6C655763 
 10083              	.LASF114:
 10084 0999 43795379 		.ascii	"CySysClkWriteImoFreq\000"
 10084      73436C6B 
 10084      57726974 
 10084      65496D6F 
 10084      46726571 
 10085              	.LASF70:
 10086 09ae 4379496E 		.ascii	"CyIntEnable\000"
 10086      74456E61 
 10086      626C6500 
 10087              	.LASF62:
 10088 09ba 43795379 		.ascii	"CySysClkPllSetSource\000"
 10088      73436C6B 
 10088      506C6C53 
 10088      6574536F 
 10088      75726365 
 10089              	.LASF158:
 10090 09cf 4379456E 		.ascii	"CyEnterCriticalSection\000"
 10090      74657243 
 10090      72697469 
 10090      63616C53 
 10090      65637469 
 10091              	.LASF0:
 10092 09e6 7369676E 		.ascii	"signed char\000"
 10092      65642063 
 10092      68617200 
 10093              	.LASF3:
 10094 09f2 73686F72 		.ascii	"short unsigned int\000"
 10094      7420756E 
 10094      7369676E 
 10094      65642069 
 10094      6E7400
 10095              	.LASF84:
 10096 0a05 63757272 		.ascii	"current\000"
 10096      656E7400 
 10097              	.LASF9:
 10098 0a0d 75696E74 		.ascii	"uint8\000"
ARM GAS  C:\Users\YUANFA~1\AppData\Local\Temp\ccYDlzYT.s 			page 256


 10098      3800
 10099              	.LASF14:
 10100 0a13 646F7562 		.ascii	"double\000"
 10100      6C6500
 10101              	.LASF37:
 10102 0a1a 73797363 		.ascii	"sysclkSource\000"
 10102      6C6B536F 
 10102      75726365 
 10102      00
 10103              		.ident	"GCC: (GNU Tools for ARM Embedded Processors) 5.4.1 20160609 (release) [ARM/embedded-5-bran
