ARM GAS  C:\Users\YUANFA~1\AppData\Local\Temp\ccFPSgYX.s 			page 1


   1              		.syntax unified
   2              		.cpu cortex-m0plus
   3              		.fpu softvfp
   4              		.eabi_attribute 20, 1
   5              		.eabi_attribute 21, 1
   6              		.eabi_attribute 23, 3
   7              		.eabi_attribute 24, 1
   8              		.eabi_attribute 25, 1
   9              		.eabi_attribute 26, 1
  10              		.eabi_attribute 30, 1
  11              		.eabi_attribute 34, 0
  12              		.eabi_attribute 18, 4
  13              		.thumb
  14              		.syntax unified
  15              		.file	"main.c"
  16              		.text
  17              	.Ltext0:
  18              		.cfi_sections	.debug_frame
  19              		.section	.text.print,"ax",%progbits
  20              		.align	2
  21              		.global	print
  22              		.code	16
  23              		.thumb_func
  24              		.type	print, %function
  25              	print:
  26              	.LFB33:
  27              		.file 1 "main.c"
   1:main.c        **** /* ========================================
   2:main.c        ****  *
   3:main.c        ****  * Copyright YOUR COMPANY, THE YEAR
   4:main.c        ****  * All Rights Reserved
   5:main.c        ****  * UNPUBLISHED, LICENSED SOFTWARE.
   6:main.c        ****  *
   7:main.c        ****  * CONFIDENTIAL AND PROPRIETARY INFORMATION
   8:main.c        ****  * WHICH IS THE PROPERTY OF your company.
   9:main.c        ****  *
  10:main.c        ****  * ========================================
  11:main.c        **** */
  12:main.c        **** #include "project.h"
  13:main.c        **** 
  14:main.c        **** void print(char* msg) {
  28              		.loc 1 14 0
  29              		.cfi_startproc
  30              		@ args = 0, pretend = 0, frame = 0
  31              		@ frame_needed = 0, uses_anonymous_args = 0
  32              	.LVL0:
  33 0000 10B5     		push	{r4, lr}
  34              		.cfi_def_cfa_offset 8
  35              		.cfi_offset 4, -8
  36              		.cfi_offset 14, -4
  15:main.c        ****     UART_UartPutString(msg);
  37              		.loc 1 15 0
  38 0002 FFF7FEFF 		bl	UART_UartPutString
  39              	.LVL1:
  16:main.c        ****     UART_UartPutString("\r\n");
  40              		.loc 1 16 0
  41 0006 0248     		ldr	r0, .L2
ARM GAS  C:\Users\YUANFA~1\AppData\Local\Temp\ccFPSgYX.s 			page 2


  42 0008 FFF7FEFF 		bl	UART_UartPutString
  43              	.LVL2:
  17:main.c        **** }
  44              		.loc 1 17 0
  45              		@ sp needed
  46 000c 10BD     		pop	{r4, pc}
  47              	.L3:
  48 000e C046     		.align	2
  49              	.L2:
  50 0010 00000000 		.word	.LC0
  51              		.cfi_endproc
  52              	.LFE33:
  53              		.size	print, .-print
  54              		.section	.text.getCapSenseState,"ax",%progbits
  55              		.align	2
  56              		.global	getCapSenseState
  57              		.code	16
  58              		.thumb_func
  59              		.type	getCapSenseState, %function
  60              	getCapSenseState:
  61              	.LFB34:
  18:main.c        **** 
  19:main.c        **** void getCapSenseState(CapSense_TST_MEASUREMENT_STATUS_ENUM state) {
  62              		.loc 1 19 0
  63              		.cfi_startproc
  64              		@ args = 0, pretend = 0, frame = 0
  65              		@ frame_needed = 0, uses_anonymous_args = 0
  66              	.LVL3:
  67 0000 10B5     		push	{r4, lr}
  68              		.cfi_def_cfa_offset 8
  69              		.cfi_offset 4, -8
  70              		.cfi_offset 14, -4
  20:main.c        ****     switch (state) {
  71              		.loc 1 20 0
  72 0002 0528     		cmp	r0, #5
  73 0004 17D8     		bhi	.L5
  74 0006 8000     		lsls	r0, r0, #2
  75              	.LVL4:
  76 0008 0D4B     		ldr	r3, .L13
  77 000a 1B58     		ldr	r3, [r3, r0]
  78 000c 9F46     		mov	pc, r3
  79              		.section	.rodata
  80              		.align	2
  81              	.L7:
  82 0000 0E000000 		.word	.L6
  83 0004 16000000 		.word	.L8
  84 0008 36000000 		.word	.L5
  85 000c 2E000000 		.word	.L9
  86 0010 1E000000 		.word	.L10
  87 0014 26000000 		.word	.L11
  88              		.section	.text.getCapSenseState
  89              	.L6:
  21:main.c        ****         case CapSense_TST_MEASUREMENT_SUCCESS:
  22:main.c        ****             print("SUCCESS");
  90              		.loc 1 22 0
  91 000e 0D48     		ldr	r0, .L13+4
  92 0010 FFF7FEFF 		bl	print
ARM GAS  C:\Users\YUANFA~1\AppData\Local\Temp\ccFPSgYX.s 			page 3


  93              	.LVL5:
  23:main.c        ****             break;
  94              		.loc 1 23 0
  95 0014 12E0     		b	.L4
  96              	.L8:
  24:main.c        ****         case CapSense_TST_MEASUREMENT_BAD_PARAM:
  25:main.c        ****             print("BAD_PARAM");
  97              		.loc 1 25 0
  98 0016 0C48     		ldr	r0, .L13+8
  99 0018 FFF7FEFF 		bl	print
 100              	.LVL6:
  26:main.c        ****             break;
 101              		.loc 1 26 0
 102 001c 0EE0     		b	.L4
 103              	.L10:
  27:main.c        ****         case CapSense_TST_MEASUREMENT_LOW_LIMIT:
  28:main.c        ****             print("LOW_LIMIT");
 104              		.loc 1 28 0
 105 001e 0B48     		ldr	r0, .L13+12
 106 0020 FFF7FEFF 		bl	print
 107              	.LVL7:
  29:main.c        ****             break;
 108              		.loc 1 29 0
 109 0024 0AE0     		b	.L4
 110              	.L11:
  30:main.c        ****         case CapSense_TST_MEASUREMENT_HIGH_LIMIT:
  31:main.c        ****             print("HIGH_LIMIT");
 111              		.loc 1 31 0
 112 0026 0A48     		ldr	r0, .L13+16
 113 0028 FFF7FEFF 		bl	print
 114              	.LVL8:
  32:main.c        ****             break;
 115              		.loc 1 32 0
 116 002c 06E0     		b	.L4
 117              	.L9:
  33:main.c        ****         case CapSense_TST_MEASUREMENT_ERROR:
  34:main.c        ****             print("ERROR");
 118              		.loc 1 34 0
 119 002e 0948     		ldr	r0, .L13+20
 120 0030 FFF7FEFF 		bl	print
 121              	.LVL9:
  35:main.c        ****             break;
 122              		.loc 1 35 0
 123 0034 02E0     		b	.L4
 124              	.L5:
  36:main.c        ****         default:
  37:main.c        ****             print("what?");
 125              		.loc 1 37 0
 126 0036 0848     		ldr	r0, .L13+24
 127 0038 FFF7FEFF 		bl	print
 128              	.LVL10:
 129              	.L4:
  38:main.c        ****     }
  39:main.c        **** }
 130              		.loc 1 39 0
 131              		@ sp needed
 132 003c 10BD     		pop	{r4, pc}
ARM GAS  C:\Users\YUANFA~1\AppData\Local\Temp\ccFPSgYX.s 			page 4


 133              	.L14:
 134 003e C046     		.align	2
 135              	.L13:
 136 0040 00000000 		.word	.L7
 137 0044 04000000 		.word	.LC3
 138 0048 0C000000 		.word	.LC5
 139 004c 18000000 		.word	.LC7
 140 0050 24000000 		.word	.LC9
 141 0054 30000000 		.word	.LC11
 142 0058 38000000 		.word	.LC13
 143              		.cfi_endproc
 144              	.LFE34:
 145              		.size	getCapSenseState, .-getCapSenseState
 146              		.section	.text.showElectrodeIsShorted,"ax",%progbits
 147              		.align	2
 148              		.global	showElectrodeIsShorted
 149              		.code	16
 150              		.thumb_func
 151              		.type	showElectrodeIsShorted, %function
 152              	showElectrodeIsShorted:
 153              	.LFB35:
  40:main.c        **** 
  41:main.c        **** void showElectrodeIsShorted(uint32 wid, uint32 sid) {
 154              		.loc 1 41 0
 155              		.cfi_startproc
 156              		@ args = 0, pretend = 0, frame = 8
 157              		@ frame_needed = 0, uses_anonymous_args = 0
 158              	.LVL11:
 159 0000 70B5     		push	{r4, r5, r6, lr}
 160              		.cfi_def_cfa_offset 16
 161              		.cfi_offset 4, -16
 162              		.cfi_offset 5, -12
 163              		.cfi_offset 6, -8
 164              		.cfi_offset 14, -4
 165 0002 82B0     		sub	sp, sp, #8
 166              		.cfi_def_cfa_offset 24
 167 0004 0500     		movs	r5, r0
 168 0006 0E00     		movs	r6, r1
  42:main.c        ****     CapSense_TST_MEASUREMENT_STATUS_ENUM stateParam;
  43:main.c        ****     uint32 val = CapSense_GetSensorCapacitance(wid, sid, &stateParam);
 169              		.loc 1 43 0
 170 0008 6B46     		mov	r3, sp
 171 000a DC1D     		adds	r4, r3, #7
 172 000c 2200     		movs	r2, r4
 173 000e FFF7FEFF 		bl	CapSense_GetSensorCapacitance
 174              	.LVL12:
  44:main.c        ****     uint32 stateElectrode = CapSense_CheckIntegritySensorPins(wid, sid);
 175              		.loc 1 44 0
 176 0012 3100     		movs	r1, r6
 177 0014 2800     		movs	r0, r5
 178 0016 FFF7FEFF 		bl	CapSense_CheckIntegritySensorPins
 179              	.LVL13:
 180 001a 0500     		movs	r5, r0
 181              	.LVL14:
  45:main.c        ****     getCapSenseState(stateParam);
 182              		.loc 1 45 0
 183 001c 2078     		ldrb	r0, [r4]
ARM GAS  C:\Users\YUANFA~1\AppData\Local\Temp\ccFPSgYX.s 			page 5


 184              	.LVL15:
 185 001e FFF7FEFF 		bl	getCapSenseState
 186              	.LVL16:
  46:main.c        ****     UART_UartPutString(" ");
 187              		.loc 1 46 0
 188 0022 0C48     		ldr	r0, .L19
 189 0024 FFF7FEFF 		bl	UART_UartPutString
 190              	.LVL17:
  47:main.c        ****     if (stateElectrode == CYRET_SUCCESS) UART_UartPutString("SUCCESS");
 191              		.loc 1 47 0
 192 0028 002D     		cmp	r5, #0
 193 002a 03D1     		bne	.L16
 194              		.loc 1 47 0 is_stmt 0 discriminator 1
 195 002c 0A48     		ldr	r0, .L19+4
 196 002e FFF7FEFF 		bl	UART_UartPutString
 197              	.LVL18:
 198 0032 0AE0     		b	.L17
 199              	.L16:
  48:main.c        ****     else if (stateElectrode == CapSense_TST_SNS_SHORT) UART_UartPutString("SHORT");
 200              		.loc 1 48 0 is_stmt 1
 201 0034 8023     		movs	r3, #128
 202 0036 5B00     		lsls	r3, r3, #1
 203 0038 9D42     		cmp	r5, r3
 204 003a 03D1     		bne	.L18
 205              		.loc 1 48 0 is_stmt 0 discriminator 1
 206 003c 0748     		ldr	r0, .L19+8
 207 003e FFF7FEFF 		bl	UART_UartPutString
 208              	.LVL19:
 209 0042 02E0     		b	.L17
 210              	.L18:
  49:main.c        ****     else UART_UartPutString("BAD");
 211              		.loc 1 49 0 is_stmt 1
 212 0044 0648     		ldr	r0, .L19+12
 213 0046 FFF7FEFF 		bl	UART_UartPutString
 214              	.LVL20:
 215              	.L17:
  50:main.c        ****     UART_UartPutString("\r\n");
 216              		.loc 1 50 0
 217 004a 0648     		ldr	r0, .L19+16
 218 004c FFF7FEFF 		bl	UART_UartPutString
 219              	.LVL21:
  51:main.c        **** }
 220              		.loc 1 51 0
 221 0050 02B0     		add	sp, sp, #8
 222              		@ sp needed
 223              	.LVL22:
 224              	.LVL23:
 225 0052 70BD     		pop	{r4, r5, r6, pc}
 226              	.L20:
 227              		.align	2
 228              	.L19:
 229 0054 40000000 		.word	.LC15
 230 0058 04000000 		.word	.LC3
 231 005c 44000000 		.word	.LC18
 232 0060 4C000000 		.word	.LC20
 233 0064 00000000 		.word	.LC0
 234              		.cfi_endproc
ARM GAS  C:\Users\YUANFA~1\AppData\Local\Temp\ccFPSgYX.s 			page 6


 235              	.LFE35:
 236              		.size	showElectrodeIsShorted, .-showElectrodeIsShorted
 237              		.section	.text.getCapacitanceValueCSD,"ax",%progbits
 238              		.align	2
 239              		.global	getCapacitanceValueCSD
 240              		.code	16
 241              		.thumb_func
 242              		.type	getCapacitanceValueCSD, %function
 243              	getCapacitanceValueCSD:
 244              	.LFB36:
  52:main.c        **** 
  53:main.c        **** void getCapacitanceValueCSD(uint32 wid, uint32 sid) {
 245              		.loc 1 53 0
 246              		.cfi_startproc
 247              		@ args = 0, pretend = 0, frame = 40
 248              		@ frame_needed = 0, uses_anonymous_args = 0
 249              	.LVL24:
 250 0000 00B5     		push	{lr}
 251              		.cfi_def_cfa_offset 4
 252              		.cfi_offset 14, -4
 253 0002 8BB0     		sub	sp, sp, #44
 254              		.cfi_def_cfa_offset 48
  54:main.c        ****     char res[30];
  55:main.c        ****     CapSense_TST_MEASUREMENT_STATUS_ENUM state;
  56:main.c        ****     uint32 val = CapSense_GetSensorCapacitance(wid, sid, &state);
 255              		.loc 1 56 0
 256 0004 6B46     		mov	r3, sp
 257 0006 DA1D     		adds	r2, r3, #7
 258 0008 FFF7FEFF 		bl	CapSense_GetSensorCapacitance
 259              	.LVL25:
 260 000c 0200     		movs	r2, r0
 261              	.LVL26:
  57:main.c        ****     sprintf(res, "%lu", val);
 262              		.loc 1 57 0
 263 000e 0649     		ldr	r1, .L22
 264 0010 02A8     		add	r0, sp, #8
 265              	.LVL27:
 266 0012 FFF7FEFF 		bl	sprintf
 267              	.LVL28:
  58:main.c        ****     UART_UartPutString(res);
 268              		.loc 1 58 0
 269 0016 02A8     		add	r0, sp, #8
 270 0018 FFF7FEFF 		bl	UART_UartPutString
 271              	.LVL29:
  59:main.c        ****     UART_UartPutString(" ");
 272              		.loc 1 59 0
 273 001c 0348     		ldr	r0, .L22+4
 274 001e FFF7FEFF 		bl	UART_UartPutString
 275              	.LVL30:
  60:main.c        **** }
 276              		.loc 1 60 0
 277 0022 0BB0     		add	sp, sp, #44
 278              		@ sp needed
 279 0024 00BD     		pop	{pc}
 280              	.L23:
 281 0026 C046     		.align	2
 282              	.L22:
ARM GAS  C:\Users\YUANFA~1\AppData\Local\Temp\ccFPSgYX.s 			page 7


 283 0028 50000000 		.word	.LC23
 284 002c 40000000 		.word	.LC15
 285              		.cfi_endproc
 286              	.LFE36:
 287              		.size	getCapacitanceValueCSD, .-getCapacitanceValueCSD
 288              		.section	.text.PrintAll,"ax",%progbits
 289              		.align	2
 290              		.global	PrintAll
 291              		.code	16
 292              		.thumb_func
 293              		.type	PrintAll, %function
 294              	PrintAll:
 295              	.LFB37:
  61:main.c        **** 
  62:main.c        **** void PrintAll(){
 296              		.loc 1 62 0
 297              		.cfi_startproc
 298              		@ args = 0, pretend = 0, frame = 0
 299              		@ frame_needed = 0, uses_anonymous_args = 0
 300 0000 10B5     		push	{r4, lr}
 301              		.cfi_def_cfa_offset 8
 302              		.cfi_offset 4, -8
 303              		.cfi_offset 14, -4
  63:main.c        ****     getCapacitanceValueCSD(CapSense_BUTTON0_WDGT_ID, CapSense_BUTTON0_SNS0_ID);
 304              		.loc 1 63 0
 305 0002 0021     		movs	r1, #0
 306 0004 0020     		movs	r0, #0
 307 0006 FFF7FEFF 		bl	getCapacitanceValueCSD
 308              	.LVL31:
  64:main.c        ****     getCapacitanceValueCSD(CapSense_BUTTON1_WDGT_ID, CapSense_BUTTON1_SNS0_ID);
 309              		.loc 1 64 0
 310 000a 0021     		movs	r1, #0
 311 000c 0120     		movs	r0, #1
 312 000e FFF7FEFF 		bl	getCapacitanceValueCSD
 313              	.LVL32:
  65:main.c        ****     getCapacitanceValueCSD(CapSense_BUTTON2_WDGT_ID, CapSense_BUTTON2_SNS0_ID);
 314              		.loc 1 65 0
 315 0012 0021     		movs	r1, #0
 316 0014 0220     		movs	r0, #2
 317 0016 FFF7FEFF 		bl	getCapacitanceValueCSD
 318              	.LVL33:
  66:main.c        ****     getCapacitanceValueCSD(CapSense_BUTTON3_WDGT_ID, CapSense_BUTTON3_SNS0_ID);
 319              		.loc 1 66 0
 320 001a 0021     		movs	r1, #0
 321 001c 0320     		movs	r0, #3
 322 001e FFF7FEFF 		bl	getCapacitanceValueCSD
 323              	.LVL34:
  67:main.c        ****     getCapacitanceValueCSD(CapSense_BUTTON4_WDGT_ID, CapSense_BUTTON4_SNS0_ID);
 324              		.loc 1 67 0
 325 0022 0021     		movs	r1, #0
 326 0024 0420     		movs	r0, #4
 327 0026 FFF7FEFF 		bl	getCapacitanceValueCSD
 328              	.LVL35:
  68:main.c        ****     getCapacitanceValueCSD(CapSense_BUTTON5_WDGT_ID, CapSense_BUTTON5_SNS0_ID);
 329              		.loc 1 68 0
 330 002a 0021     		movs	r1, #0
 331 002c 0520     		movs	r0, #5
ARM GAS  C:\Users\YUANFA~1\AppData\Local\Temp\ccFPSgYX.s 			page 8


 332 002e FFF7FEFF 		bl	getCapacitanceValueCSD
 333              	.LVL36:
  69:main.c        ****     getCapacitanceValueCSD(CapSense_BUTTON6_WDGT_ID, CapSense_BUTTON6_SNS0_ID);
 334              		.loc 1 69 0
 335 0032 0021     		movs	r1, #0
 336 0034 0620     		movs	r0, #6
 337 0036 FFF7FEFF 		bl	getCapacitanceValueCSD
 338              	.LVL37:
  70:main.c        ****     getCapacitanceValueCSD(CapSense_BUTTON7_WDGT_ID, CapSense_BUTTON7_SNS0_ID);
 339              		.loc 1 70 0
 340 003a 0021     		movs	r1, #0
 341 003c 0720     		movs	r0, #7
 342 003e FFF7FEFF 		bl	getCapacitanceValueCSD
 343              	.LVL38:
  71:main.c        ****     getCapacitanceValueCSD(CapSense_BUTTON8_WDGT_ID, CapSense_BUTTON8_SNS0_ID);
 344              		.loc 1 71 0
 345 0042 0021     		movs	r1, #0
 346 0044 0820     		movs	r0, #8
 347 0046 FFF7FEFF 		bl	getCapacitanceValueCSD
 348              	.LVL39:
  72:main.c        ****     getCapacitanceValueCSD(CapSense_BUTTON9_WDGT_ID, CapSense_BUTTON9_SNS0_ID);
 349              		.loc 1 72 0
 350 004a 0021     		movs	r1, #0
 351 004c 0920     		movs	r0, #9
 352 004e FFF7FEFF 		bl	getCapacitanceValueCSD
 353              	.LVL40:
  73:main.c        ****     getCapacitanceValueCSD(CapSense_BUTTON10_WDGT_ID, CapSense_BUTTON10_SNS0_ID);
 354              		.loc 1 73 0
 355 0052 0021     		movs	r1, #0
 356 0054 0A20     		movs	r0, #10
 357 0056 FFF7FEFF 		bl	getCapacitanceValueCSD
 358              	.LVL41:
  74:main.c        ****     getCapacitanceValueCSD(CapSense_BUTTON11_WDGT_ID, CapSense_BUTTON11_SNS0_ID);
 359              		.loc 1 74 0
 360 005a 0021     		movs	r1, #0
 361 005c 0B20     		movs	r0, #11
 362 005e FFF7FEFF 		bl	getCapacitanceValueCSD
 363              	.LVL42:
  75:main.c        ****     getCapacitanceValueCSD(CapSense_BUTTON12_WDGT_ID, CapSense_BUTTON12_SNS0_ID);
 364              		.loc 1 75 0
 365 0062 0021     		movs	r1, #0
 366 0064 0C20     		movs	r0, #12
 367 0066 FFF7FEFF 		bl	getCapacitanceValueCSD
 368              	.LVL43:
  76:main.c        ****     getCapacitanceValueCSD(CapSense_BUTTON13_WDGT_ID, CapSense_BUTTON13_SNS0_ID);
 369              		.loc 1 76 0
 370 006a 0021     		movs	r1, #0
 371 006c 0D20     		movs	r0, #13
 372 006e FFF7FEFF 		bl	getCapacitanceValueCSD
 373              	.LVL44:
  77:main.c        ****     getCapacitanceValueCSD(CapSense_BUTTON14_WDGT_ID, CapSense_BUTTON14_SNS0_ID);
 374              		.loc 1 77 0
 375 0072 0021     		movs	r1, #0
 376 0074 0E20     		movs	r0, #14
 377 0076 FFF7FEFF 		bl	getCapacitanceValueCSD
 378              	.LVL45:
  78:main.c        ****     getCapacitanceValueCSD(CapSense_BUTTON15_WDGT_ID, CapSense_BUTTON15_SNS0_ID);
ARM GAS  C:\Users\YUANFA~1\AppData\Local\Temp\ccFPSgYX.s 			page 9


 379              		.loc 1 78 0
 380 007a 0021     		movs	r1, #0
 381 007c 0F20     		movs	r0, #15
 382 007e FFF7FEFF 		bl	getCapacitanceValueCSD
 383              	.LVL46:
  79:main.c        ****     getCapacitanceValueCSD(CapSense_BUTTON16_WDGT_ID, CapSense_BUTTON16_SNS0_ID);
 384              		.loc 1 79 0
 385 0082 0021     		movs	r1, #0
 386 0084 1020     		movs	r0, #16
 387 0086 FFF7FEFF 		bl	getCapacitanceValueCSD
 388              	.LVL47:
  80:main.c        ****     getCapacitanceValueCSD(CapSense_BUTTON17_WDGT_ID, CapSense_BUTTON17_SNS0_ID);
 389              		.loc 1 80 0
 390 008a 0021     		movs	r1, #0
 391 008c 1120     		movs	r0, #17
 392 008e FFF7FEFF 		bl	getCapacitanceValueCSD
 393              	.LVL48:
  81:main.c        ****     getCapacitanceValueCSD(CapSense_BUTTON18_WDGT_ID, CapSense_BUTTON18_SNS0_ID);
 394              		.loc 1 81 0
 395 0092 0021     		movs	r1, #0
 396 0094 1220     		movs	r0, #18
 397 0096 FFF7FEFF 		bl	getCapacitanceValueCSD
 398              	.LVL49:
  82:main.c        ****     UART_UartPutString("\r\n");
 399              		.loc 1 82 0
 400 009a 0248     		ldr	r0, .L25
 401 009c FFF7FEFF 		bl	UART_UartPutString
 402              	.LVL50:
  83:main.c        **** }
 403              		.loc 1 83 0
 404              		@ sp needed
 405 00a0 10BD     		pop	{r4, pc}
 406              	.L26:
 407 00a2 C046     		.align	2
 408              	.L25:
 409 00a4 00000000 		.word	.LC0
 410              		.cfi_endproc
 411              	.LFE37:
 412              		.size	PrintAll, .-PrintAll
 413              		.section	.text.main,"ax",%progbits
 414              		.align	2
 415              		.global	main
 416              		.code	16
 417              		.thumb_func
 418              		.type	main, %function
 419              	main:
 420              	.LFB38:
  84:main.c        **** 
  85:main.c        **** int main(void)
  86:main.c        **** {
 421              		.loc 1 86 0
 422              		.cfi_startproc
 423              		@ Volatile: function does not return.
 424              		@ args = 0, pretend = 0, frame = 0
 425              		@ frame_needed = 0, uses_anonymous_args = 0
 426 0000 10B5     		push	{r4, lr}
 427              		.cfi_def_cfa_offset 8
ARM GAS  C:\Users\YUANFA~1\AppData\Local\Temp\ccFPSgYX.s 			page 10


 428              		.cfi_offset 4, -8
 429              		.cfi_offset 14, -4
  87:main.c        ****     CyGlobalIntEnable;
 430              		.loc 1 87 0
 431              		.syntax divided
 432              	@ 87 "main.c" 1
 433 0002 62B6     		CPSIE   i
 434              	@ 0 "" 2
  88:main.c        ****     
  89:main.c        ****     UART_Start();
 435              		.loc 1 89 0
 436              		.thumb
 437              		.syntax unified
 438 0004 FFF7FEFF 		bl	UART_Start
 439              	.LVL51:
  90:main.c        ****     print("Start!");
 440              		.loc 1 90 0
 441 0008 0748     		ldr	r0, .L29
 442 000a FFF7FEFF 		bl	print
 443              	.LVL52:
  91:main.c        ****     
  92:main.c        ****     CapSense_Start();
 444              		.loc 1 92 0
 445 000e FFF7FEFF 		bl	CapSense_Start
 446              	.LVL53:
 447              	.L28:
  93:main.c        ****     
  94:main.c        ****     for(;;)
  95:main.c        ****     {
  96:main.c        ****         CapSense_ProcessAllWidgets();
 448              		.loc 1 96 0 discriminator 1
 449 0012 FFF7FEFF 		bl	CapSense_ProcessAllWidgets
 450              	.LVL54:
  97:main.c        ****         
  98:main.c        ****         PrintAll();
 451              		.loc 1 98 0 discriminator 1
 452 0016 FFF7FEFF 		bl	PrintAll
 453              	.LVL55:
  99:main.c        ****         CyDelay(100);
 454              		.loc 1 99 0 discriminator 1
 455 001a 6420     		movs	r0, #100
 456 001c FFF7FEFF 		bl	CyDelay
 457              	.LVL56:
 100:main.c        ****         
 101:main.c        ****         CapSense_ScanAllWidgets();
 458              		.loc 1 101 0 discriminator 1
 459 0020 FFF7FEFF 		bl	CapSense_ScanAllWidgets
 460              	.LVL57:
 461 0024 F5E7     		b	.L28
 462              	.L30:
 463 0026 C046     		.align	2
 464              	.L29:
 465 0028 54000000 		.word	.LC27
 466              		.cfi_endproc
 467              	.LFE38:
 468              		.size	main, .-main
 469              		.section	.rodata.str1.4,"aMS",%progbits,1
ARM GAS  C:\Users\YUANFA~1\AppData\Local\Temp\ccFPSgYX.s 			page 11


 470              		.align	2
 471              	.LC0:
 472 0000 0D0A00   		.ascii	"\015\012\000"
 473 0003 00       		.space	1
 474              	.LC3:
 475 0004 53554343 		.ascii	"SUCCESS\000"
 475      45535300 
 476              	.LC5:
 477 000c 4241445F 		.ascii	"BAD_PARAM\000"
 477      50415241 
 477      4D00
 478 0016 0000     		.space	2
 479              	.LC7:
 480 0018 4C4F575F 		.ascii	"LOW_LIMIT\000"
 480      4C494D49 
 480      5400
 481 0022 0000     		.space	2
 482              	.LC9:
 483 0024 48494748 		.ascii	"HIGH_LIMIT\000"
 483      5F4C494D 
 483      495400
 484 002f 00       		.space	1
 485              	.LC11:
 486 0030 4552524F 		.ascii	"ERROR\000"
 486      5200
 487 0036 0000     		.space	2
 488              	.LC13:
 489 0038 77686174 		.ascii	"what?\000"
 489      3F00
 490 003e 0000     		.space	2
 491              	.LC15:
 492 0040 2000     		.ascii	" \000"
 493 0042 0000     		.space	2
 494              	.LC18:
 495 0044 53484F52 		.ascii	"SHORT\000"
 495      5400
 496 004a 0000     		.space	2
 497              	.LC20:
 498 004c 42414400 		.ascii	"BAD\000"
 499              	.LC23:
 500 0050 256C7500 		.ascii	"%lu\000"
 501              	.LC27:
 502 0054 53746172 		.ascii	"Start!\000"
 502      742100
 503              		.text
 504              	.Letext0:
 505              		.file 2 "Generated_Source\\PSoC4/cytypes.h"
 506              		.file 3 "Generated_Source\\PSoC4/CapSense_Structure.h"
 507              		.file 4 "Generated_Source\\PSoC4/UART_SPI_UART.h"
 508              		.file 5 "Generated_Source\\PSoC4/CapSense_SelfTest.h"
 509              		.file 6 "<built-in>"
 510              		.file 7 "Generated_Source\\PSoC4/UART.h"
 511              		.file 8 "Generated_Source\\PSoC4/CapSense_Control.h"
 512              		.file 9 "Generated_Source\\PSoC4/CyLib.h"
 513              		.file 10 "Generated_Source\\PSoC4/CapSense_Sensing.h"