ARM GAS  C:\Users\YUANFA~1\AppData\Local\Temp\cctOMKNb.s 			page 1


   1              		.syntax unified
   2              		.cpu cortex-m0plus
   3              		.fpu softvfp
   4              		.eabi_attribute 20, 1
   5              		.eabi_attribute 21, 1
   6              		.eabi_attribute 23, 3
   7              		.eabi_attribute 24, 1
   8              		.eabi_attribute 25, 1
   9              		.eabi_attribute 26, 1
  10              		.eabi_attribute 30, 1
  11              		.eabi_attribute 34, 0
  12              		.eabi_attribute 18, 4
  13              		.thumb
  14              		.syntax unified
  15              		.file	"CapSense_Centroid_LL.c"
  16              		.text
  17              	.Ltext0:
  18              		.cfi_sections	.debug_frame
  19              		.section	.text.CapSense_TransferTouch,"ax",%progbits
  20              		.align	2
  21              		.code	16
  22              		.thumb_func
  23              		.type	CapSense_TransferTouch, %function
  24              	CapSense_TransferTouch:
  25              	.LFB4:
  26              		.file 1 "Generated_Source\\PSoC4\\CapSense_Centroid_LL.c"
   1:Generated_Source\PSoC4/CapSense_Centroid_LL.c **** /***************************************************************************//**
   2:Generated_Source\PSoC4/CapSense_Centroid_LL.c **** * \file CapSense_Centroid_LL.c
   3:Generated_Source\PSoC4/CapSense_Centroid_LL.c **** * \version 7.0
   4:Generated_Source\PSoC4/CapSense_Centroid_LL.c **** *
   5:Generated_Source\PSoC4/CapSense_Centroid_LL.c **** * \brief
   6:Generated_Source\PSoC4/CapSense_Centroid_LL.c **** *   This file provides the source code for the centroid calculation methods
   7:Generated_Source\PSoC4/CapSense_Centroid_LL.c **** *   of the Component.
   8:Generated_Source\PSoC4/CapSense_Centroid_LL.c **** *
   9:Generated_Source\PSoC4/CapSense_Centroid_LL.c **** * \see CapSense v7.0 Datasheet
  10:Generated_Source\PSoC4/CapSense_Centroid_LL.c **** *
  11:Generated_Source\PSoC4/CapSense_Centroid_LL.c **** *//*****************************************************************************
  12:Generated_Source\PSoC4/CapSense_Centroid_LL.c **** * Copyright (2016-2019), Cypress Semiconductor Corporation.
  13:Generated_Source\PSoC4/CapSense_Centroid_LL.c **** ********************************************************************************
  14:Generated_Source\PSoC4/CapSense_Centroid_LL.c **** * This software is owned by Cypress Semiconductor Corporation (Cypress) and is
  15:Generated_Source\PSoC4/CapSense_Centroid_LL.c **** * protected by and subject to worldwide patent protection (United States and
  16:Generated_Source\PSoC4/CapSense_Centroid_LL.c **** * foreign), United States copyright laws and international treaty provisions.
  17:Generated_Source\PSoC4/CapSense_Centroid_LL.c **** * Cypress hereby grants to licensee a personal, non-exclusive, non-transferable
  18:Generated_Source\PSoC4/CapSense_Centroid_LL.c **** * license to copy, use, modify, create derivative works of, and compile the
  19:Generated_Source\PSoC4/CapSense_Centroid_LL.c **** * Cypress Source Code and derivative works for the sole purpose of creating
  20:Generated_Source\PSoC4/CapSense_Centroid_LL.c **** * custom software in support of licensee product to be used only in conjunction
  21:Generated_Source\PSoC4/CapSense_Centroid_LL.c **** * with a Cypress integrated circuit as specified in the applicable agreement.
  22:Generated_Source\PSoC4/CapSense_Centroid_LL.c **** * Any reproduction, modification, translation, compilation, or representation of
  23:Generated_Source\PSoC4/CapSense_Centroid_LL.c **** * this software except as specified above is prohibited without the express
  24:Generated_Source\PSoC4/CapSense_Centroid_LL.c **** * written permission of Cypress.
  25:Generated_Source\PSoC4/CapSense_Centroid_LL.c **** *
  26:Generated_Source\PSoC4/CapSense_Centroid_LL.c **** * Disclaimer: CYPRESS MAKES NO WARRANTY OF ANY KIND, EXPRESS OR IMPLIED, WITH
  27:Generated_Source\PSoC4/CapSense_Centroid_LL.c **** * REGARD TO THIS MATERIAL, INCLUDING, BUT NOT LIMITED TO, THE IMPLIED
  28:Generated_Source\PSoC4/CapSense_Centroid_LL.c **** * WARRANTIES OF MERCHANTABILITY AND FITNESS FOR A PARTICULAR PURPOSE.
  29:Generated_Source\PSoC4/CapSense_Centroid_LL.c **** * Cypress reserves the right to make changes without further notice to the
  30:Generated_Source\PSoC4/CapSense_Centroid_LL.c **** * materials described herein. Cypress does not assume any liability arising out
  31:Generated_Source\PSoC4/CapSense_Centroid_LL.c **** * of the application or use of any product or circuit described herein. Cypress
ARM GAS  C:\Users\YUANFA~1\AppData\Local\Temp\cctOMKNb.s 			page 2


  32:Generated_Source\PSoC4/CapSense_Centroid_LL.c **** * does not authorize its products for use as critical components in life-support
  33:Generated_Source\PSoC4/CapSense_Centroid_LL.c **** * systems where a malfunction or failure may reasonably be expected to result in
  34:Generated_Source\PSoC4/CapSense_Centroid_LL.c **** * significant injury to the user. The inclusion of Cypress' product in a life-
  35:Generated_Source\PSoC4/CapSense_Centroid_LL.c **** * support systems application implies that the manufacturer assumes all risk of
  36:Generated_Source\PSoC4/CapSense_Centroid_LL.c **** * such use and in doing so indemnifies Cypress against all charges. Use may be
  37:Generated_Source\PSoC4/CapSense_Centroid_LL.c **** * limited by and subject to the applicable Cypress software license agreement.
  38:Generated_Source\PSoC4/CapSense_Centroid_LL.c **** *******************************************************************************/
  39:Generated_Source\PSoC4/CapSense_Centroid_LL.c **** 
  40:Generated_Source\PSoC4/CapSense_Centroid_LL.c **** #include "cytypes.h"
  41:Generated_Source\PSoC4/CapSense_Centroid_LL.c **** #include "CyLib.h"
  42:Generated_Source\PSoC4/CapSense_Centroid_LL.c **** #include "CapSense_Centroid_LL.h"
  43:Generated_Source\PSoC4/CapSense_Centroid_LL.c **** #include "CapSense_Configuration.h"
  44:Generated_Source\PSoC4/CapSense_Centroid_LL.c **** #include "CapSense_Structure.h"
  45:Generated_Source\PSoC4/CapSense_Centroid_LL.c **** #include "CapSense_Filter.h"
  46:Generated_Source\PSoC4/CapSense_Centroid_LL.c **** 
  47:Generated_Source\PSoC4/CapSense_Centroid_LL.c **** /*******************************************************************************
  48:Generated_Source\PSoC4/CapSense_Centroid_LL.c **** * Local definition
  49:Generated_Source\PSoC4/CapSense_Centroid_LL.c **** *******************************************************************************/
  50:Generated_Source\PSoC4/CapSense_Centroid_LL.c **** #if CapSense_CSX_TOUCHPAD_WIDGET_EN
  51:Generated_Source\PSoC4/CapSense_Centroid_LL.c ****     #define CapSense_CSX_TOUCHPAD_BUFFER_SIZE \
  52:Generated_Source\PSoC4/CapSense_Centroid_LL.c ****             (((CapSense_CSX_MAX_LOCAL_PEAKS + 3u) * sizeof(int8)) +                                
  53:Generated_Source\PSoC4/CapSense_Centroid_LL.c ****             (CapSense_CSX_MAX_LOCAL_PEAKS * CapSense_CSX_MAX_LOCAL_PEAKS * sizeof(int32)) + /* dist
  54:Generated_Source\PSoC4/CapSense_Centroid_LL.c ****             (CapSense_CSX_MAX_LOCAL_PEAKS * sizeof(int32)) +                                       
  55:Generated_Source\PSoC4/CapSense_Centroid_LL.c ****             (CapSense_CSX_MAX_LOCAL_PEAKS * sizeof(int8)) +                                        
  56:Generated_Source\PSoC4/CapSense_Centroid_LL.c ****             (CapSense_CSX_MAX_LOCAL_PEAKS * sizeof(int8)) +                                        
  57:Generated_Source\PSoC4/CapSense_Centroid_LL.c ****             (CapSense_CSX_MAX_LOCAL_PEAKS * sizeof(int8)))                                         
  58:Generated_Source\PSoC4/CapSense_Centroid_LL.c **** 
  59:Generated_Source\PSoC4/CapSense_Centroid_LL.c ****     #define CapSense_CSX_TOUCHPAD_FT_ON_FAIL                (0x81u)
  60:Generated_Source\PSoC4/CapSense_Centroid_LL.c ****     #define CapSense_CSX_TOUCHPAD_TOUCH_ABSENT_ID           (0x82u)
  61:Generated_Source\PSoC4/CapSense_Centroid_LL.c ****     #define CapSense_CSX_TOUCHPAD_DEBOUNCE_ENABLE           (0u)
  62:Generated_Source\PSoC4/CapSense_Centroid_LL.c ****     #define CapSense_CSX_TOUCHPAD_TOUCH_MIN_ID              (0u)
  63:Generated_Source\PSoC4/CapSense_Centroid_LL.c ****     #define CapSense_CSX_TOUCHPAD_TOUCH_MAX_ID              (CapSense_CSX_MAX_LOCAL_PEAKS - 1u)
  64:Generated_Source\PSoC4/CapSense_Centroid_LL.c ****     #define CapSense_CSX_TOUCHPAD_INT32                     (0x7FFFFFFFu)
  65:Generated_Source\PSoC4/CapSense_Centroid_LL.c ****     #define CapSense_CSX_TOUCHPAD_TOUCH_DOWN                (0x80u)
  66:Generated_Source\PSoC4/CapSense_Centroid_LL.c ****     #define CapSense_CSX_TOUCHPAD_LIFT_OFF                  (0x40u)
  67:Generated_Source\PSoC4/CapSense_Centroid_LL.c ****     #define CapSense_CSX_TOUCHPAD_DEBOUNCE_MASK             (0x3Fu)
  68:Generated_Source\PSoC4/CapSense_Centroid_LL.c ****     #define CapSense_CSX_TOUCHPAD_POSITION_NONE             (0xFFFFu)
  69:Generated_Source\PSoC4/CapSense_Centroid_LL.c ****     #define CapSense_CSX_TOUCHPAD_Z_SHIFT                   (0x04u)
  70:Generated_Source\PSoC4/CapSense_Centroid_LL.c ****     #define CapSense_CSX_TOUCHPAD_PADDING                   (3Lu)
  71:Generated_Source\PSoC4/CapSense_Centroid_LL.c ****     #define CapSense_CSX_TOUCHPAD_CENTROID_LENGTH           (3u)
  72:Generated_Source\PSoC4/CapSense_Centroid_LL.c ****     #define CapSense_CSX_TOUCHPAD_CENTROID_PREVIOUS         (0u)
  73:Generated_Source\PSoC4/CapSense_Centroid_LL.c ****     #define CapSense_CSX_TOUCHPAD_CENTROID_CENTER           (1u)
  74:Generated_Source\PSoC4/CapSense_Centroid_LL.c ****     #define CapSense_CSX_TOUCHPAD_CENTROID_NEXT             (2u)
  75:Generated_Source\PSoC4/CapSense_Centroid_LL.c **** 
  76:Generated_Source\PSoC4/CapSense_Centroid_LL.c **** #endif /* CapSense_CSX_TOUCHPAD_WIDGET_EN */
  77:Generated_Source\PSoC4/CapSense_Centroid_LL.c **** 
  78:Generated_Source\PSoC4/CapSense_Centroid_LL.c **** /*******************************************************************************
  79:Generated_Source\PSoC4/CapSense_Centroid_LL.c **** * Static variables definition
  80:Generated_Source\PSoC4/CapSense_Centroid_LL.c **** *******************************************************************************/
  81:Generated_Source\PSoC4/CapSense_Centroid_LL.c **** #if ((CapSense_ENABLE == CapSense_CENTROID_3X3_CSD_EN) || \
  82:Generated_Source\PSoC4/CapSense_Centroid_LL.c ****      (CapSense_ENABLE  == CapSense_SLIDER_WIDGET_EN))
  83:Generated_Source\PSoC4/CapSense_Centroid_LL.c ****     static uint8 localMax[CapSense_NUM_CENTROIDS];
  84:Generated_Source\PSoC4/CapSense_Centroid_LL.c ****     static CapSense_THRESHOLD_TYPE localDiffArray[CapSense_NUM_CENTROIDS][3u];
  85:Generated_Source\PSoC4/CapSense_Centroid_LL.c ****     static uint8 localMaxIndex;
  86:Generated_Source\PSoC4/CapSense_Centroid_LL.c **** #endif
  87:Generated_Source\PSoC4/CapSense_Centroid_LL.c **** 
  88:Generated_Source\PSoC4/CapSense_Centroid_LL.c **** #if ( 0u !=CapSense_CSX_TOUCHPAD_WIDGET_EN)
ARM GAS  C:\Users\YUANFA~1\AppData\Local\Temp\cctOMKNb.s 			page 3


  89:Generated_Source\PSoC4/CapSense_Centroid_LL.c ****     static CapSense_CSX_TOUCHPAD_DATA_STRUCT newTouches;
  90:Generated_Source\PSoC4/CapSense_Centroid_LL.c ****     static CapSense_CSX_TOUCHPAD_DATA_STRUCT *ptrNewTouches = &newTouches;
  91:Generated_Source\PSoC4/CapSense_Centroid_LL.c ****     static uint8 newActiveIDs = 0u;
  92:Generated_Source\PSoC4/CapSense_Centroid_LL.c ****     static uint8 oldActiveIDs = 0u;
  93:Generated_Source\PSoC4/CapSense_Centroid_LL.c **** 
  94:Generated_Source\PSoC4/CapSense_Centroid_LL.c ****     typedef int32 CapSense_CSX_TOUCHPAD_DISTANCE_MAP[CapSense_CSX_MAX_LOCAL_PEAKS];
  95:Generated_Source\PSoC4/CapSense_Centroid_LL.c **** #endif /* ( 0u !=CapSense_CSX_TOUCHPAD_WIDGET_EN) */
  96:Generated_Source\PSoC4/CapSense_Centroid_LL.c **** 
  97:Generated_Source\PSoC4/CapSense_Centroid_LL.c **** /*******************************************************************************
  98:Generated_Source\PSoC4/CapSense_Centroid_LL.c **** * API Prototypes
  99:Generated_Source\PSoC4/CapSense_Centroid_LL.c **** *******************************************************************************/
 100:Generated_Source\PSoC4/CapSense_Centroid_LL.c **** #if (((CapSense_ENABLE == CapSense_CENTROID_3X3_CSD_EN) || \
 101:Generated_Source\PSoC4/CapSense_Centroid_LL.c ****       (CapSense_ENABLE  == CapSense_SLIDER_WIDGET_EN)) && \
 102:Generated_Source\PSoC4/CapSense_Centroid_LL.c ****       (CapSense_ENABLE == CapSense_4PTS_LOCAL_MAX_EN))
 103:Generated_Source\PSoC4/CapSense_Centroid_LL.c **** static void CapSense_SaveLocalMax(CapSense_RAM_SNS_STRUCT ptrSns[],
 104:Generated_Source\PSoC4/CapSense_Centroid_LL.c ****                                                   uint32 snsCount, uint32 fingerThreshold, uint32 s
 105:Generated_Source\PSoC4/CapSense_Centroid_LL.c **** #endif
 106:Generated_Source\PSoC4/CapSense_Centroid_LL.c **** 
 107:Generated_Source\PSoC4/CapSense_Centroid_LL.c **** #if (0u !=CapSense_CSX_TOUCHPAD_WIDGET_EN)
 108:Generated_Source\PSoC4/CapSense_Centroid_LL.c ****     static void CapSense_TransferTouch(uint32 newIndex, uint32 oldIndex, CapSense_CSX_TOUCHPAD_DATA
 109:Generated_Source\PSoC4/CapSense_Centroid_LL.c ****     static void CapSense_NewTouch(uint32 newIndex, uint8 onDebounce, uint16 fingerOnThreshold);
 110:Generated_Source\PSoC4/CapSense_Centroid_LL.c ****     CY_INLINE static uint8 CapSense_GetLowestId(uint16 idMask);
 111:Generated_Source\PSoC4/CapSense_Centroid_LL.c ****     static uint32 CapSense_CalcDistance(uint32 newIndex, uint32 oldIndex, CapSense_CSX_TOUCHPAD_DAT
 112:Generated_Source\PSoC4/CapSense_Centroid_LL.c ****     static void CapSense_Hungarian(uint8 rowCount, uint8 colCount, int8 *fingerPosIndex,
 113:Generated_Source\PSoC4/CapSense_Centroid_LL.c ****                                            CapSense_CSX_TOUCHPAD_DISTANCE_MAP *distanceMap);
 114:Generated_Source\PSoC4/CapSense_Centroid_LL.c ****     static void CapSense_FillDistanceMap(CapSense_CSX_TOUCHPAD_DISTANCE_MAP *distanceMap,
 115:Generated_Source\PSoC4/CapSense_Centroid_LL.c ****                                                  CapSense_CSX_TOUCHPAD_DATA_STRUCT *ptrOldTouches);
 116:Generated_Source\PSoC4/CapSense_Centroid_LL.c ****     CY_INLINE static void CapSense_TouchDownDebounce(void);
 117:Generated_Source\PSoC4/CapSense_Centroid_LL.c ****     CY_INLINE static void CapSense_SortByAge(void);
 118:Generated_Source\PSoC4/CapSense_Centroid_LL.c ****     static void CapSense_CopyTouchRecord(CapSense_CSX_TOUCHPAD_PEAK_STRUCT *destination,
 119:Generated_Source\PSoC4/CapSense_Centroid_LL.c ****                                                            CapSense_CSX_TOUCHPAD_PEAK_STRUCT *sourc
 120:Generated_Source\PSoC4/CapSense_Centroid_LL.c ****     #if (0u != CapSense_OFF_DEBOUNCE_EN)
 121:Generated_Source\PSoC4/CapSense_Centroid_LL.c ****     CY_INLINE static void CapSense_LiftOffDebounce(uint8 offDebounce,
 122:Generated_Source\PSoC4/CapSense_Centroid_LL.c ****                                                            CapSense_CSX_TOUCHPAD_DATA_STRUCT *ptrOl
 123:Generated_Source\PSoC4/CapSense_Centroid_LL.c ****     #endif /* (0u != CapSense_OFF_DEBOUNCE_EN) */
 124:Generated_Source\PSoC4/CapSense_Centroid_LL.c **** #endif /* (0u !=CapSense_CSX_TOUCHPAD_WIDGET_EN) */
 125:Generated_Source\PSoC4/CapSense_Centroid_LL.c **** 
 126:Generated_Source\PSoC4/CapSense_Centroid_LL.c **** #if ((CapSense_ENABLE == CapSense_CENTROID_3X3_CSD_EN) || \
 127:Generated_Source\PSoC4/CapSense_Centroid_LL.c ****      (CapSense_ENABLE  == CapSense_SLIDER_WIDGET_EN))
 128:Generated_Source\PSoC4/CapSense_Centroid_LL.c **** #if (CapSense_ENABLE == CapSense_4PTS_LOCAL_MAX_EN)
 129:Generated_Source\PSoC4/CapSense_Centroid_LL.c **** /*******************************************************************************
 130:Generated_Source\PSoC4/CapSense_Centroid_LL.c **** * Function Name: CapSense_DpFindLocalMaxSd4pts
 131:Generated_Source\PSoC4/CapSense_Centroid_LL.c **** ****************************************************************************//**
 132:Generated_Source\PSoC4/CapSense_Centroid_LL.c **** *
 133:Generated_Source\PSoC4/CapSense_Centroid_LL.c **** * \brief
 134:Generated_Source\PSoC4/CapSense_Centroid_LL.c **** *   Finds the maximum in the widget differences and prepares array with maximum difference
 135:Generated_Source\PSoC4/CapSense_Centroid_LL.c **** *   and it's neighbour differences in Legacy mode (only one touch can be found).
 136:Generated_Source\PSoC4/CapSense_Centroid_LL.c **** *   Finds the maxima in the widget differences and prepares arrays with maxima difference
 137:Generated_Source\PSoC4/CapSense_Centroid_LL.c **** *   and theirs neighbour differences in Multi-Touch mode (maximum three touches can be found).
 138:Generated_Source\PSoC4/CapSense_Centroid_LL.c **** *   This API is used in conjunction with CapSense_DpCalcLinearCentroid or
 139:Generated_Source\PSoC4/CapSense_Centroid_LL.c **** *   CapSense__DpCalcRadialCentroid, because they use shared static data: localMax[],
 140:Generated_Source\PSoC4/CapSense_Centroid_LL.c **** *   localDiffArray[][3u], localMaxIndex.
 141:Generated_Source\PSoC4/CapSense_Centroid_LL.c **** *
 142:Generated_Source\PSoC4/CapSense_Centroid_LL.c **** * \details
 143:Generated_Source\PSoC4/CapSense_Centroid_LL.c **** *   The localMax[] is used to store the index of the maximum/maxima.
 144:Generated_Source\PSoC4/CapSense_Centroid_LL.c **** *   The localDiffArray[][] is used to store values of the maximum/maxima and neighbour differences.
 145:Generated_Source\PSoC4/CapSense_Centroid_LL.c **** *   The localMaxIndex is used to store the number of maxima have been actually found.
ARM GAS  C:\Users\YUANFA~1\AppData\Local\Temp\cctOMKNb.s 			page 4


 146:Generated_Source\PSoC4/CapSense_Centroid_LL.c **** *   The used finding method checks for 4 points : current, next, previous and before previous
 147:Generated_Source\PSoC4/CapSense_Centroid_LL.c **** *   sensor's position. Depends on these points differences it chooses the previous or before
 148:Generated_Source\PSoC4/CapSense_Centroid_LL.c **** *   previous position. For radial sliders an closed character of a widget is taken into the account
 149:Generated_Source\PSoC4/CapSense_Centroid_LL.c **** *
 150:Generated_Source\PSoC4/CapSense_Centroid_LL.c **** * \param ptrFlashWdgt
 151:Generated_Source\PSoC4/CapSense_Centroid_LL.c **** *   The pointer to the the widget flash structure.
 152:Generated_Source\PSoC4/CapSense_Centroid_LL.c **** *
 153:Generated_Source\PSoC4/CapSense_Centroid_LL.c **** * \param ptrSns
 154:Generated_Source\PSoC4/CapSense_Centroid_LL.c **** *   The pointer to the the first sensor.
 155:Generated_Source\PSoC4/CapSense_Centroid_LL.c **** *
 156:Generated_Source\PSoC4/CapSense_Centroid_LL.c **** * \param snsCount
 157:Generated_Source\PSoC4/CapSense_Centroid_LL.c **** *   The total sensor number in the widget.
 158:Generated_Source\PSoC4/CapSense_Centroid_LL.c **** *
 159:Generated_Source\PSoC4/CapSense_Centroid_LL.c **** * \param fingerThreshold
 160:Generated_Source\PSoC4/CapSense_Centroid_LL.c **** *   The finger threshold in the widget.
 161:Generated_Source\PSoC4/CapSense_Centroid_LL.c **** *
 162:Generated_Source\PSoC4/CapSense_Centroid_LL.c **** * \return Returns the number of maxima found.
 163:Generated_Source\PSoC4/CapSense_Centroid_LL.c **** *
 164:Generated_Source\PSoC4/CapSense_Centroid_LL.c **** *******************************************************************************/
 165:Generated_Source\PSoC4/CapSense_Centroid_LL.c **** uint32 CapSense_DpFindLocalMaxSd4pts(CapSense_FLASH_WD_STRUCT const *ptrFlashWdgt,
 166:Generated_Source\PSoC4/CapSense_Centroid_LL.c ****                                               CapSense_RAM_SNS_STRUCT ptrSns[],
 167:Generated_Source\PSoC4/CapSense_Centroid_LL.c ****                                               uint32 snsCount, uint32 fingerThreshold)
 168:Generated_Source\PSoC4/CapSense_Centroid_LL.c **** {
 169:Generated_Source\PSoC4/CapSense_Centroid_LL.c ****     uint32 i;
 170:Generated_Source\PSoC4/CapSense_Centroid_LL.c ****     CapSense_RAM_SNS_STRUCT *localPtrSns = ptrSns;
 171:Generated_Source\PSoC4/CapSense_Centroid_LL.c ****     localMaxIndex = 0u;
 172:Generated_Source\PSoC4/CapSense_Centroid_LL.c ****     int32 slope0 = 0;
 173:Generated_Source\PSoC4/CapSense_Centroid_LL.c ****     int32 slope1 = (int32)localPtrSns[0].diff;
 174:Generated_Source\PSoC4/CapSense_Centroid_LL.c ****     int32 slope2 = 0;
 175:Generated_Source\PSoC4/CapSense_Centroid_LL.c ****     int32 slopeLast = -(int32)localPtrSns[snsCount - 1u].diff;
 176:Generated_Source\PSoC4/CapSense_Centroid_LL.c **** 
 177:Generated_Source\PSoC4/CapSense_Centroid_LL.c ****     #if (0u != CapSense_TOTAL_RADIAL_SLIDERS)
 178:Generated_Source\PSoC4/CapSense_Centroid_LL.c ****         if ((CapSense_WD_TYPE_ENUM)ptrFlashWdgt->wdgtType == CapSense_WD_RADIAL_SLIDER_E)
 179:Generated_Source\PSoC4/CapSense_Centroid_LL.c ****         {
 180:Generated_Source\PSoC4/CapSense_Centroid_LL.c ****             slope1 = (int32)localPtrSns[0].diff - (int32)localPtrSns[snsCount - 1u].diff;
 181:Generated_Source\PSoC4/CapSense_Centroid_LL.c ****             slope2 = (int32)localPtrSns[snsCount - 1u].diff - (int32)localPtrSns[snsCount - 2u].dif
 182:Generated_Source\PSoC4/CapSense_Centroid_LL.c ****             slopeLast = slope1;
 183:Generated_Source\PSoC4/CapSense_Centroid_LL.c ****         }
 184:Generated_Source\PSoC4/CapSense_Centroid_LL.c ****     #else
 185:Generated_Source\PSoC4/CapSense_Centroid_LL.c ****         /* Typecast the parameter to avoid a compiler warning */
 186:Generated_Source\PSoC4/CapSense_Centroid_LL.c ****         (void) ptrFlashWdgt;
 187:Generated_Source\PSoC4/CapSense_Centroid_LL.c ****     #endif
 188:Generated_Source\PSoC4/CapSense_Centroid_LL.c **** 
 189:Generated_Source\PSoC4/CapSense_Centroid_LL.c ****     /* Search local maxima for sensorId from 0 to snsCount - 1 */
 190:Generated_Source\PSoC4/CapSense_Centroid_LL.c ****     for (i = 0uL; i < snsCount; i++ )
 191:Generated_Source\PSoC4/CapSense_Centroid_LL.c ****     {
 192:Generated_Source\PSoC4/CapSense_Centroid_LL.c ****         /* Check for the last sensor */
 193:Generated_Source\PSoC4/CapSense_Centroid_LL.c ****         if ((snsCount - 1uL) == i)
 194:Generated_Source\PSoC4/CapSense_Centroid_LL.c ****         {
 195:Generated_Source\PSoC4/CapSense_Centroid_LL.c ****             slope0 = slopeLast;
 196:Generated_Source\PSoC4/CapSense_Centroid_LL.c ****         }
 197:Generated_Source\PSoC4/CapSense_Centroid_LL.c ****         else
 198:Generated_Source\PSoC4/CapSense_Centroid_LL.c ****         {
 199:Generated_Source\PSoC4/CapSense_Centroid_LL.c ****             slope0 = (int32)localPtrSns[i + 1u].diff - (int32)localPtrSns[i].diff;
 200:Generated_Source\PSoC4/CapSense_Centroid_LL.c ****         }
 201:Generated_Source\PSoC4/CapSense_Centroid_LL.c **** 
 202:Generated_Source\PSoC4/CapSense_Centroid_LL.c ****         if(0 > slope0)
ARM GAS  C:\Users\YUANFA~1\AppData\Local\Temp\cctOMKNb.s 			page 5


 203:Generated_Source\PSoC4/CapSense_Centroid_LL.c ****         {
 204:Generated_Source\PSoC4/CapSense_Centroid_LL.c ****             if(0 < slope1)
 205:Generated_Source\PSoC4/CapSense_Centroid_LL.c ****             {
 206:Generated_Source\PSoC4/CapSense_Centroid_LL.c ****                 CapSense_SaveLocalMax(ptrSns, snsCount, fingerThreshold, i);
 207:Generated_Source\PSoC4/CapSense_Centroid_LL.c ****             }
 208:Generated_Source\PSoC4/CapSense_Centroid_LL.c ****             else
 209:Generated_Source\PSoC4/CapSense_Centroid_LL.c ****             {
 210:Generated_Source\PSoC4/CapSense_Centroid_LL.c ****                 if(0 == slope1)
 211:Generated_Source\PSoC4/CapSense_Centroid_LL.c ****                 {
 212:Generated_Source\PSoC4/CapSense_Centroid_LL.c ****                     if(0 == slope2)
 213:Generated_Source\PSoC4/CapSense_Centroid_LL.c ****                     {
 214:Generated_Source\PSoC4/CapSense_Centroid_LL.c ****                         CapSense_SaveLocalMax(ptrSns, snsCount, fingerThreshold, (i - 1uL));
 215:Generated_Source\PSoC4/CapSense_Centroid_LL.c ****                     }
 216:Generated_Source\PSoC4/CapSense_Centroid_LL.c ****                     else
 217:Generated_Source\PSoC4/CapSense_Centroid_LL.c ****                     {
 218:Generated_Source\PSoC4/CapSense_Centroid_LL.c ****                         if (0 < slope2)
 219:Generated_Source\PSoC4/CapSense_Centroid_LL.c ****                         {
 220:Generated_Source\PSoC4/CapSense_Centroid_LL.c ****                             if (slope2 > (-slope0))
 221:Generated_Source\PSoC4/CapSense_Centroid_LL.c ****                             {
 222:Generated_Source\PSoC4/CapSense_Centroid_LL.c ****                                 CapSense_SaveLocalMax(ptrSns, snsCount, fingerThreshold, i);
 223:Generated_Source\PSoC4/CapSense_Centroid_LL.c ****                             }
 224:Generated_Source\PSoC4/CapSense_Centroid_LL.c ****                             else
 225:Generated_Source\PSoC4/CapSense_Centroid_LL.c ****                             {
 226:Generated_Source\PSoC4/CapSense_Centroid_LL.c ****                                 CapSense_SaveLocalMax(ptrSns, snsCount, fingerThreshold, (i - 1uL))
 227:Generated_Source\PSoC4/CapSense_Centroid_LL.c ****                             }
 228:Generated_Source\PSoC4/CapSense_Centroid_LL.c ****                         }
 229:Generated_Source\PSoC4/CapSense_Centroid_LL.c ****                     }
 230:Generated_Source\PSoC4/CapSense_Centroid_LL.c ****                 }
 231:Generated_Source\PSoC4/CapSense_Centroid_LL.c ****             }
 232:Generated_Source\PSoC4/CapSense_Centroid_LL.c ****             if (localMaxIndex >= CapSense_NUM_CENTROIDS)
 233:Generated_Source\PSoC4/CapSense_Centroid_LL.c ****             {
 234:Generated_Source\PSoC4/CapSense_Centroid_LL.c ****                 break;
 235:Generated_Source\PSoC4/CapSense_Centroid_LL.c ****             }
 236:Generated_Source\PSoC4/CapSense_Centroid_LL.c ****         }
 237:Generated_Source\PSoC4/CapSense_Centroid_LL.c ****         slope2 = slope1;
 238:Generated_Source\PSoC4/CapSense_Centroid_LL.c ****         slope1 = slope0;
 239:Generated_Source\PSoC4/CapSense_Centroid_LL.c ****     }
 240:Generated_Source\PSoC4/CapSense_Centroid_LL.c **** 
 241:Generated_Source\PSoC4/CapSense_Centroid_LL.c ****     return (uint32)(localMaxIndex);
 242:Generated_Source\PSoC4/CapSense_Centroid_LL.c **** }
 243:Generated_Source\PSoC4/CapSense_Centroid_LL.c **** 
 244:Generated_Source\PSoC4/CapSense_Centroid_LL.c **** /*******************************************************************************
 245:Generated_Source\PSoC4/CapSense_Centroid_LL.c **** * Function Name: CapSense_SaveLocalMax
 246:Generated_Source\PSoC4/CapSense_Centroid_LL.c **** ****************************************************************************//**
 247:Generated_Source\PSoC4/CapSense_Centroid_LL.c **** *
 248:Generated_Source\PSoC4/CapSense_Centroid_LL.c **** * \brief
 249:Generated_Source\PSoC4/CapSense_Centroid_LL.c **** *   Stores a found local maximum in the arrays.
 250:Generated_Source\PSoC4/CapSense_Centroid_LL.c **** *
 251:Generated_Source\PSoC4/CapSense_Centroid_LL.c **** * \details
 252:Generated_Source\PSoC4/CapSense_Centroid_LL.c **** *   Stores a found local maximum in the localMax array if the difference is greater
 253:Generated_Source\PSoC4/CapSense_Centroid_LL.c **** *   than a finger threshold. Prepares arrays with maximum neighbour differences for
 254:Generated_Source\PSoC4/CapSense_Centroid_LL.c **** *   position calculations.
 255:Generated_Source\PSoC4/CapSense_Centroid_LL.c **** *
 256:Generated_Source\PSoC4/CapSense_Centroid_LL.c **** * \param *ptrSns
 257:Generated_Source\PSoC4/CapSense_Centroid_LL.c **** *   A pointer to sensor RAM structure of a found local maximum.
 258:Generated_Source\PSoC4/CapSense_Centroid_LL.c **** *
 259:Generated_Source\PSoC4/CapSense_Centroid_LL.c **** * \param snsCount
ARM GAS  C:\Users\YUANFA~1\AppData\Local\Temp\cctOMKNb.s 			page 6


 260:Generated_Source\PSoC4/CapSense_Centroid_LL.c **** *   The total sensor number in the widget.
 261:Generated_Source\PSoC4/CapSense_Centroid_LL.c **** *
 262:Generated_Source\PSoC4/CapSense_Centroid_LL.c **** * \param fingerThreshold
 263:Generated_Source\PSoC4/CapSense_Centroid_LL.c **** *   A fingerThreshold to compare with a sensor difference.
 264:Generated_Source\PSoC4/CapSense_Centroid_LL.c **** *
 265:Generated_Source\PSoC4/CapSense_Centroid_LL.c **** * \param snsIndex
 266:Generated_Source\PSoC4/CapSense_Centroid_LL.c **** *   An index of a sensor with a found local maximum.
 267:Generated_Source\PSoC4/CapSense_Centroid_LL.c **** *
 268:Generated_Source\PSoC4/CapSense_Centroid_LL.c **** *******************************************************************************/
 269:Generated_Source\PSoC4/CapSense_Centroid_LL.c **** static void CapSense_SaveLocalMax(CapSense_RAM_SNS_STRUCT ptrSns[],
 270:Generated_Source\PSoC4/CapSense_Centroid_LL.c ****                                                     uint32 snsCount, uint32 fingerThreshold, uint32
 271:Generated_Source\PSoC4/CapSense_Centroid_LL.c **** {
 272:Generated_Source\PSoC4/CapSense_Centroid_LL.c ****     CapSense_THRESHOLD_TYPE currentDiff = ptrSns[snsIndex].diff;
 273:Generated_Source\PSoC4/CapSense_Centroid_LL.c **** 
 274:Generated_Source\PSoC4/CapSense_Centroid_LL.c ****     if (currentDiff > fingerThreshold)
 275:Generated_Source\PSoC4/CapSense_Centroid_LL.c ****     {
 276:Generated_Source\PSoC4/CapSense_Centroid_LL.c ****         /* Store found Peak */
 277:Generated_Source\PSoC4/CapSense_Centroid_LL.c ****         localMax[localMaxIndex] = (uint8)snsIndex;
 278:Generated_Source\PSoC4/CapSense_Centroid_LL.c ****         localDiffArray[localMaxIndex][CapSense_CENTROID_POS] = currentDiff;
 279:Generated_Source\PSoC4/CapSense_Centroid_LL.c **** 
 280:Generated_Source\PSoC4/CapSense_Centroid_LL.c ****         /* Store neighbour differences */
 281:Generated_Source\PSoC4/CapSense_Centroid_LL.c ****         if (snsIndex == 0u)
 282:Generated_Source\PSoC4/CapSense_Centroid_LL.c ****         {
 283:Generated_Source\PSoC4/CapSense_Centroid_LL.c ****             localDiffArray[localMaxIndex][CapSense_CENTROID_POS_PREV] = ptrSns[snsCount - 1u].diff;
 284:Generated_Source\PSoC4/CapSense_Centroid_LL.c ****             localDiffArray[localMaxIndex][CapSense_CENTROID_POS_NEXT] = ptrSns[snsIndex + 1u].diff;
 285:Generated_Source\PSoC4/CapSense_Centroid_LL.c ****         }
 286:Generated_Source\PSoC4/CapSense_Centroid_LL.c ****         else if (snsIndex == (snsCount - 1u))
 287:Generated_Source\PSoC4/CapSense_Centroid_LL.c ****         {
 288:Generated_Source\PSoC4/CapSense_Centroid_LL.c ****             localDiffArray[localMaxIndex][CapSense_CENTROID_POS_PREV] = ptrSns[snsIndex - 1u].diff;
 289:Generated_Source\PSoC4/CapSense_Centroid_LL.c ****             localDiffArray[localMaxIndex][CapSense_CENTROID_POS_NEXT] = ptrSns[0u].diff;
 290:Generated_Source\PSoC4/CapSense_Centroid_LL.c ****         }
 291:Generated_Source\PSoC4/CapSense_Centroid_LL.c ****         else
 292:Generated_Source\PSoC4/CapSense_Centroid_LL.c ****         {
 293:Generated_Source\PSoC4/CapSense_Centroid_LL.c ****             localDiffArray[localMaxIndex][CapSense_CENTROID_POS_PREV] = ptrSns[snsIndex - 1u].diff;
 294:Generated_Source\PSoC4/CapSense_Centroid_LL.c ****             localDiffArray[localMaxIndex][CapSense_CENTROID_POS_NEXT] = ptrSns[snsIndex + 1u].diff;
 295:Generated_Source\PSoC4/CapSense_Centroid_LL.c ****         }
 296:Generated_Source\PSoC4/CapSense_Centroid_LL.c **** 
 297:Generated_Source\PSoC4/CapSense_Centroid_LL.c ****         localMaxIndex++;
 298:Generated_Source\PSoC4/CapSense_Centroid_LL.c ****     }
 299:Generated_Source\PSoC4/CapSense_Centroid_LL.c **** }
 300:Generated_Source\PSoC4/CapSense_Centroid_LL.c **** #else /* (CapSense_ENABLE == CapSense_4PTS_LOCAL_MAX_EN) */
 301:Generated_Source\PSoC4/CapSense_Centroid_LL.c **** 
 302:Generated_Source\PSoC4/CapSense_Centroid_LL.c **** /*******************************************************************************
 303:Generated_Source\PSoC4/CapSense_Centroid_LL.c **** * Function Name: CapSense_DpFindLocalMaxSd
 304:Generated_Source\PSoC4/CapSense_Centroid_LL.c **** ****************************************************************************//**
 305:Generated_Source\PSoC4/CapSense_Centroid_LL.c **** *
 306:Generated_Source\PSoC4/CapSense_Centroid_LL.c **** * \brief
 307:Generated_Source\PSoC4/CapSense_Centroid_LL.c **** *   Finds the maximum in the widget differences and prepares array with maximum difference
 308:Generated_Source\PSoC4/CapSense_Centroid_LL.c **** *   and it's neighbour differences in Legacy mode (only one touch can be found).
 309:Generated_Source\PSoC4/CapSense_Centroid_LL.c **** *   Finds the maxima in the widget differences and prepares arrays with maxima difference
 310:Generated_Source\PSoC4/CapSense_Centroid_LL.c **** *   and theirs neighbour differences in Multi-Touch mode (maximum three touches can be found).
 311:Generated_Source\PSoC4/CapSense_Centroid_LL.c **** *   This API is used in conjunction with CapSense_DpCalcLinearCentroid or
 312:Generated_Source\PSoC4/CapSense_Centroid_LL.c **** *   CapSense__DpCalcRadialCentroid, because they use shared static data: localMax[],
 313:Generated_Source\PSoC4/CapSense_Centroid_LL.c **** *   localDiffArray[][3u], localMaxIndex.
 314:Generated_Source\PSoC4/CapSense_Centroid_LL.c **** *
 315:Generated_Source\PSoC4/CapSense_Centroid_LL.c **** * \details
 316:Generated_Source\PSoC4/CapSense_Centroid_LL.c **** *   The localMax[] is used to store the index of the maximum/maxima.
ARM GAS  C:\Users\YUANFA~1\AppData\Local\Temp\cctOMKNb.s 			page 7


 317:Generated_Source\PSoC4/CapSense_Centroid_LL.c **** *   The localDiffArray[][] is used to store values of the maximum/maxima and neighbour differences.
 318:Generated_Source\PSoC4/CapSense_Centroid_LL.c **** *   The localMaxIndex is used to store the number of maxima have been actually found.
 319:Generated_Source\PSoC4/CapSense_Centroid_LL.c **** *
 320:Generated_Source\PSoC4/CapSense_Centroid_LL.c **** * \param ptrSns The pointer to the first sensor.
 321:Generated_Source\PSoC4/CapSense_Centroid_LL.c **** * \param snsCount The total sensor number in the widget.
 322:Generated_Source\PSoC4/CapSense_Centroid_LL.c **** * \param fingerThreshold The finger threshold in the widget.
 323:Generated_Source\PSoC4/CapSense_Centroid_LL.c **** *
 324:Generated_Source\PSoC4/CapSense_Centroid_LL.c **** * \return Returns the number of maxima found.
 325:Generated_Source\PSoC4/CapSense_Centroid_LL.c **** *
 326:Generated_Source\PSoC4/CapSense_Centroid_LL.c **** *******************************************************************************/
 327:Generated_Source\PSoC4/CapSense_Centroid_LL.c **** uint32 CapSense_DpFindLocalMaxSd(CapSense_RAM_SNS_STRUCT ptrSns[], uint32 snsCount,
 328:Generated_Source\PSoC4/CapSense_Centroid_LL.c ****                                                                                    uint32 fingerThr
 329:Generated_Source\PSoC4/CapSense_Centroid_LL.c **** {
 330:Generated_Source\PSoC4/CapSense_Centroid_LL.c ****     uint32 i;
 331:Generated_Source\PSoC4/CapSense_Centroid_LL.c ****     uint32 sensorId;
 332:Generated_Source\PSoC4/CapSense_Centroid_LL.c **** 
 333:Generated_Source\PSoC4/CapSense_Centroid_LL.c ****     #if (CapSense_NUM_CENTROIDS == 0x01u)
 334:Generated_Source\PSoC4/CapSense_Centroid_LL.c ****         CapSense_RAM_SNS_STRUCT *localPtrSns = ptrSns;
 335:Generated_Source\PSoC4/CapSense_Centroid_LL.c ****         CapSense_THRESHOLD_TYPE temp = 0u;
 336:Generated_Source\PSoC4/CapSense_Centroid_LL.c ****     #endif
 337:Generated_Source\PSoC4/CapSense_Centroid_LL.c **** 
 338:Generated_Source\PSoC4/CapSense_Centroid_LL.c ****     localMaxIndex = 0u;
 339:Generated_Source\PSoC4/CapSense_Centroid_LL.c **** 
 340:Generated_Source\PSoC4/CapSense_Centroid_LL.c ****     #if (CapSense_NUM_CENTROIDS == 0x01u)
 341:Generated_Source\PSoC4/CapSense_Centroid_LL.c ****         for (sensorId = 0u; sensorId < snsCount; sensorId++)
 342:Generated_Source\PSoC4/CapSense_Centroid_LL.c ****         {
 343:Generated_Source\PSoC4/CapSense_Centroid_LL.c ****             if ((localPtrSns->diff > fingerThreshold) && (localPtrSns->diff > temp))
 344:Generated_Source\PSoC4/CapSense_Centroid_LL.c ****             {
 345:Generated_Source\PSoC4/CapSense_Centroid_LL.c ****                 localMax[0u] = LO8(sensorId);
 346:Generated_Source\PSoC4/CapSense_Centroid_LL.c ****                 temp = localPtrSns->diff;
 347:Generated_Source\PSoC4/CapSense_Centroid_LL.c ****                 localMaxIndex = 1u;
 348:Generated_Source\PSoC4/CapSense_Centroid_LL.c ****             }
 349:Generated_Source\PSoC4/CapSense_Centroid_LL.c ****             localPtrSns++;
 350:Generated_Source\PSoC4/CapSense_Centroid_LL.c ****         }
 351:Generated_Source\PSoC4/CapSense_Centroid_LL.c ****     #else /* (CapSense_NUM_CENTROIDS == 0x01u) */
 352:Generated_Source\PSoC4/CapSense_Centroid_LL.c **** 
 353:Generated_Source\PSoC4/CapSense_Centroid_LL.c ****         if ((ptrSns[0u].diff > fingerThreshold) && (ptrSns[0u].diff >= ptrSns[1u].diff))
 354:Generated_Source\PSoC4/CapSense_Centroid_LL.c ****         {
 355:Generated_Source\PSoC4/CapSense_Centroid_LL.c ****             localMax[localMaxIndex] = 0u;
 356:Generated_Source\PSoC4/CapSense_Centroid_LL.c ****             localMaxIndex = 1u;
 357:Generated_Source\PSoC4/CapSense_Centroid_LL.c ****         }
 358:Generated_Source\PSoC4/CapSense_Centroid_LL.c **** 
 359:Generated_Source\PSoC4/CapSense_Centroid_LL.c ****         if ((ptrSns[snsCount - 1u].diff > fingerThreshold) && (ptrSns[snsCount - 1u].diff > ptrSns[
 360:Generated_Source\PSoC4/CapSense_Centroid_LL.c ****         {
 361:Generated_Source\PSoC4/CapSense_Centroid_LL.c ****             localMax[localMaxIndex] = (uint8)(snsCount - 1u);
 362:Generated_Source\PSoC4/CapSense_Centroid_LL.c ****             localMaxIndex++;
 363:Generated_Source\PSoC4/CapSense_Centroid_LL.c ****         }
 364:Generated_Source\PSoC4/CapSense_Centroid_LL.c **** 
 365:Generated_Source\PSoC4/CapSense_Centroid_LL.c ****         #if (CapSense_NUM_CENTROIDS == 0x02u)
 366:Generated_Source\PSoC4/CapSense_Centroid_LL.c ****             if (localMaxIndex < CapSense_NUM_CENTROIDS)
 367:Generated_Source\PSoC4/CapSense_Centroid_LL.c ****             {
 368:Generated_Source\PSoC4/CapSense_Centroid_LL.c ****         #endif /* (CapSense_NUM_CENTROIDS == 0x02u) */
 369:Generated_Source\PSoC4/CapSense_Centroid_LL.c ****                 for (sensorId = 1u; sensorId < (snsCount - 1u); sensorId++)
 370:Generated_Source\PSoC4/CapSense_Centroid_LL.c ****                 {
 371:Generated_Source\PSoC4/CapSense_Centroid_LL.c ****                     if ((ptrSns[sensorId].diff > fingerThreshold) && (ptrSns[sensorId].diff >= ptrS
 372:Generated_Source\PSoC4/CapSense_Centroid_LL.c ****                     {
 373:Generated_Source\PSoC4/CapSense_Centroid_LL.c ****                         if (ptrSns[sensorId].diff > ptrSns[sensorId - 1u].diff)
ARM GAS  C:\Users\YUANFA~1\AppData\Local\Temp\cctOMKNb.s 			page 8


 374:Generated_Source\PSoC4/CapSense_Centroid_LL.c ****                         {
 375:Generated_Source\PSoC4/CapSense_Centroid_LL.c ****                             localMax[localMaxIndex] = (uint8)sensorId;
 376:Generated_Source\PSoC4/CapSense_Centroid_LL.c ****                             localMaxIndex++;
 377:Generated_Source\PSoC4/CapSense_Centroid_LL.c **** 
 378:Generated_Source\PSoC4/CapSense_Centroid_LL.c ****                             if (localMaxIndex >= CapSense_NUM_CENTROIDS)
 379:Generated_Source\PSoC4/CapSense_Centroid_LL.c ****                             {
 380:Generated_Source\PSoC4/CapSense_Centroid_LL.c ****                                 break;
 381:Generated_Source\PSoC4/CapSense_Centroid_LL.c ****                             }
 382:Generated_Source\PSoC4/CapSense_Centroid_LL.c ****                         }
 383:Generated_Source\PSoC4/CapSense_Centroid_LL.c ****                     }
 384:Generated_Source\PSoC4/CapSense_Centroid_LL.c ****                 }
 385:Generated_Source\PSoC4/CapSense_Centroid_LL.c ****         #if (CapSense_NUM_CENTROIDS == 0x02u)
 386:Generated_Source\PSoC4/CapSense_Centroid_LL.c ****             }
 387:Generated_Source\PSoC4/CapSense_Centroid_LL.c ****         #endif /* (CapSense_NUM_CENTROIDS == 0x02u) */
 388:Generated_Source\PSoC4/CapSense_Centroid_LL.c ****     #endif /* #if (CapSense_NUM_CENTROIDS == 0x01u) */
 389:Generated_Source\PSoC4/CapSense_Centroid_LL.c **** 
 390:Generated_Source\PSoC4/CapSense_Centroid_LL.c ****     if (localMaxIndex != 0u)
 391:Generated_Source\PSoC4/CapSense_Centroid_LL.c ****     {
 392:Generated_Source\PSoC4/CapSense_Centroid_LL.c ****         /* Prepare single-dimension centroid calculation array */
 393:Generated_Source\PSoC4/CapSense_Centroid_LL.c ****         for (i = 0u; i < localMaxIndex; i++)
 394:Generated_Source\PSoC4/CapSense_Centroid_LL.c ****         {
 395:Generated_Source\PSoC4/CapSense_Centroid_LL.c ****              localDiffArray[i][CapSense_CENTROID_POS] = ptrSns[localMax[i]].diff;
 396:Generated_Source\PSoC4/CapSense_Centroid_LL.c **** 
 397:Generated_Source\PSoC4/CapSense_Centroid_LL.c ****             if (localMax[i] == 0u)
 398:Generated_Source\PSoC4/CapSense_Centroid_LL.c ****             {
 399:Generated_Source\PSoC4/CapSense_Centroid_LL.c ****                 localDiffArray[i][CapSense_CENTROID_POS_PREV] = ptrSns[snsCount - 1u].diff;
 400:Generated_Source\PSoC4/CapSense_Centroid_LL.c ****                 localDiffArray[i][CapSense_CENTROID_POS_NEXT] = ptrSns[localMax[i] + 1u].diff;
 401:Generated_Source\PSoC4/CapSense_Centroid_LL.c ****             }
 402:Generated_Source\PSoC4/CapSense_Centroid_LL.c ****             else if (localMax[i] == ((uint8)(snsCount - 1u)))
 403:Generated_Source\PSoC4/CapSense_Centroid_LL.c ****             {
 404:Generated_Source\PSoC4/CapSense_Centroid_LL.c ****                 localDiffArray[i][CapSense_CENTROID_POS_PREV] = ptrSns[localMax[i] - 1u].diff;
 405:Generated_Source\PSoC4/CapSense_Centroid_LL.c ****                 localDiffArray[i][CapSense_CENTROID_POS_NEXT] = ptrSns[0u].diff;
 406:Generated_Source\PSoC4/CapSense_Centroid_LL.c ****             }
 407:Generated_Source\PSoC4/CapSense_Centroid_LL.c ****             else
 408:Generated_Source\PSoC4/CapSense_Centroid_LL.c ****             {
 409:Generated_Source\PSoC4/CapSense_Centroid_LL.c ****                 localDiffArray[i][CapSense_CENTROID_POS_PREV] = ptrSns[localMax[i] - 1u].diff;
 410:Generated_Source\PSoC4/CapSense_Centroid_LL.c ****                 localDiffArray[i][CapSense_CENTROID_POS_NEXT] = ptrSns[localMax[i] + 1u].diff;
 411:Generated_Source\PSoC4/CapSense_Centroid_LL.c ****             }
 412:Generated_Source\PSoC4/CapSense_Centroid_LL.c ****         }
 413:Generated_Source\PSoC4/CapSense_Centroid_LL.c ****     }
 414:Generated_Source\PSoC4/CapSense_Centroid_LL.c ****     /* Return status to check if at least one maximum has been found */
 415:Generated_Source\PSoC4/CapSense_Centroid_LL.c ****     return (uint32)(localMaxIndex);
 416:Generated_Source\PSoC4/CapSense_Centroid_LL.c **** }
 417:Generated_Source\PSoC4/CapSense_Centroid_LL.c **** #endif /* (CapSense_ENABLE == CapSense_4PTS_LOCAL_MAX_EN) */
 418:Generated_Source\PSoC4/CapSense_Centroid_LL.c **** #endif /* ((CapSense_ENABLE == CapSense_CENTROID_3X3_CSD_EN) || \
 419:Generated_Source\PSoC4/CapSense_Centroid_LL.c ****           (CapSense_ENABLE  == CapSense_SLIDER_WIDGET_EN)) */
 420:Generated_Source\PSoC4/CapSense_Centroid_LL.c **** 
 421:Generated_Source\PSoC4/CapSense_Centroid_LL.c **** #if CapSense_TOTAL_DIPLEXED_SLIDERS
 422:Generated_Source\PSoC4/CapSense_Centroid_LL.c **** /*******************************************************************************
 423:Generated_Source\PSoC4/CapSense_Centroid_LL.c **** * Function Name: CapSense_DpFindLocalMaxDiplex
 424:Generated_Source\PSoC4/CapSense_Centroid_LL.c **** ****************************************************************************//**
 425:Generated_Source\PSoC4/CapSense_Centroid_LL.c **** *
 426:Generated_Source\PSoC4/CapSense_Centroid_LL.c **** * \brief
 427:Generated_Source\PSoC4/CapSense_Centroid_LL.c **** *   Finds the maximum in the widget differences. Used only for diplexed linear slider.
 428:Generated_Source\PSoC4/CapSense_Centroid_LL.c **** *
 429:Generated_Source\PSoC4/CapSense_Centroid_LL.c **** * \details
 430:Generated_Source\PSoC4/CapSense_Centroid_LL.c **** *   The localMax[] is used to store the index of the maximum/maxima.
ARM GAS  C:\Users\YUANFA~1\AppData\Local\Temp\cctOMKNb.s 			page 9


 431:Generated_Source\PSoC4/CapSense_Centroid_LL.c **** *   The localDiffArray[][] is used to store values of the maximum/maxima and neighbour differences.
 432:Generated_Source\PSoC4/CapSense_Centroid_LL.c **** *   The localMaxIndex is used to store the number of maxima have been actually found.
 433:Generated_Source\PSoC4/CapSense_Centroid_LL.c **** *
 434:Generated_Source\PSoC4/CapSense_Centroid_LL.c **** * \param ptrSns The pointer to the first sensor.
 435:Generated_Source\PSoC4/CapSense_Centroid_LL.c **** * \param snsCount The total sensor number in the widget.
 436:Generated_Source\PSoC4/CapSense_Centroid_LL.c **** * \param diplexTable The pointer to the diplex table.
 437:Generated_Source\PSoC4/CapSense_Centroid_LL.c **** * \param fingerThreshold The finger threshold in the widget.
 438:Generated_Source\PSoC4/CapSense_Centroid_LL.c **** *
 439:Generated_Source\PSoC4/CapSense_Centroid_LL.c **** * \return Returns the number of maxima found.
 440:Generated_Source\PSoC4/CapSense_Centroid_LL.c **** *
 441:Generated_Source\PSoC4/CapSense_Centroid_LL.c **** *******************************************************************************/
 442:Generated_Source\PSoC4/CapSense_Centroid_LL.c **** uint32 CapSense_DpFindLocalMaxDiplex(
 443:Generated_Source\PSoC4/CapSense_Centroid_LL.c ****                         CapSense_RAM_SNS_STRUCT ptrSns[],
 444:Generated_Source\PSoC4/CapSense_Centroid_LL.c ****                         uint32 snsCount,
 445:Generated_Source\PSoC4/CapSense_Centroid_LL.c ****                         uint8 const diplexTable[],
 446:Generated_Source\PSoC4/CapSense_Centroid_LL.c ****                         uint32 fingerThreshold)
 447:Generated_Source\PSoC4/CapSense_Centroid_LL.c **** {
 448:Generated_Source\PSoC4/CapSense_Centroid_LL.c ****     uint32 sensorId;
 449:Generated_Source\PSoC4/CapSense_Centroid_LL.c ****     uint32 diplexSensorId;
 450:Generated_Source\PSoC4/CapSense_Centroid_LL.c **** 
 451:Generated_Source\PSoC4/CapSense_Centroid_LL.c ****     uint32 biggestStartPos = 0u;
 452:Generated_Source\PSoC4/CapSense_Centroid_LL.c ****     uint32 biggestSize = 0u;
 453:Generated_Source\PSoC4/CapSense_Centroid_LL.c ****     uint32 curStartPos = 0u;
 454:Generated_Source\PSoC4/CapSense_Centroid_LL.c ****     uint32 curSize = 0u;
 455:Generated_Source\PSoC4/CapSense_Centroid_LL.c ****     CapSense_THRESHOLD_TYPE temp = 0u;
 456:Generated_Source\PSoC4/CapSense_Centroid_LL.c **** 
 457:Generated_Source\PSoC4/CapSense_Centroid_LL.c ****     localMaxIndex = 0u;
 458:Generated_Source\PSoC4/CapSense_Centroid_LL.c **** 
 459:Generated_Source\PSoC4/CapSense_Centroid_LL.c ****     for (sensorId = 0u; sensorId < (snsCount << 1u); sensorId++)
 460:Generated_Source\PSoC4/CapSense_Centroid_LL.c ****     {
 461:Generated_Source\PSoC4/CapSense_Centroid_LL.c ****         diplexSensorId = diplexTable[sensorId];
 462:Generated_Source\PSoC4/CapSense_Centroid_LL.c **** 
 463:Generated_Source\PSoC4/CapSense_Centroid_LL.c ****         if (ptrSns[diplexSensorId].diff > fingerThreshold)
 464:Generated_Source\PSoC4/CapSense_Centroid_LL.c ****         {
 465:Generated_Source\PSoC4/CapSense_Centroid_LL.c ****             if (0u == curSize)
 466:Generated_Source\PSoC4/CapSense_Centroid_LL.c ****             {
 467:Generated_Source\PSoC4/CapSense_Centroid_LL.c ****                 curStartPos = sensorId;
 468:Generated_Source\PSoC4/CapSense_Centroid_LL.c ****             }
 469:Generated_Source\PSoC4/CapSense_Centroid_LL.c **** 
 470:Generated_Source\PSoC4/CapSense_Centroid_LL.c ****             curSize++;
 471:Generated_Source\PSoC4/CapSense_Centroid_LL.c ****         }
 472:Generated_Source\PSoC4/CapSense_Centroid_LL.c ****         else
 473:Generated_Source\PSoC4/CapSense_Centroid_LL.c ****         {
 474:Generated_Source\PSoC4/CapSense_Centroid_LL.c ****             if (curSize > biggestSize)
 475:Generated_Source\PSoC4/CapSense_Centroid_LL.c ****             {
 476:Generated_Source\PSoC4/CapSense_Centroid_LL.c ****                 biggestSize = curSize;
 477:Generated_Source\PSoC4/CapSense_Centroid_LL.c ****                 biggestStartPos = curStartPos;
 478:Generated_Source\PSoC4/CapSense_Centroid_LL.c ****             }
 479:Generated_Source\PSoC4/CapSense_Centroid_LL.c ****             curSize = 0u;
 480:Generated_Source\PSoC4/CapSense_Centroid_LL.c ****         }
 481:Generated_Source\PSoC4/CapSense_Centroid_LL.c ****     }
 482:Generated_Source\PSoC4/CapSense_Centroid_LL.c **** 
 483:Generated_Source\PSoC4/CapSense_Centroid_LL.c ****     if (curSize > biggestSize)
 484:Generated_Source\PSoC4/CapSense_Centroid_LL.c ****     {
 485:Generated_Source\PSoC4/CapSense_Centroid_LL.c ****         biggestSize = curSize;
 486:Generated_Source\PSoC4/CapSense_Centroid_LL.c ****         biggestStartPos = curStartPos;
 487:Generated_Source\PSoC4/CapSense_Centroid_LL.c ****     }
ARM GAS  C:\Users\YUANFA~1\AppData\Local\Temp\cctOMKNb.s 			page 10


 488:Generated_Source\PSoC4/CapSense_Centroid_LL.c **** 
 489:Generated_Source\PSoC4/CapSense_Centroid_LL.c ****     if (biggestSize >= CapSense_CENTROID_DIPLEX_SECTION_LENGTH)
 490:Generated_Source\PSoC4/CapSense_Centroid_LL.c ****     {
 491:Generated_Source\PSoC4/CapSense_Centroid_LL.c ****         for (sensorId = biggestStartPos; sensorId < (biggestStartPos + biggestSize); sensorId++)
 492:Generated_Source\PSoC4/CapSense_Centroid_LL.c ****         {
 493:Generated_Source\PSoC4/CapSense_Centroid_LL.c ****             diplexSensorId = diplexTable[sensorId];
 494:Generated_Source\PSoC4/CapSense_Centroid_LL.c **** 
 495:Generated_Source\PSoC4/CapSense_Centroid_LL.c ****             if (ptrSns[diplexSensorId].diff > temp)
 496:Generated_Source\PSoC4/CapSense_Centroid_LL.c ****             {
 497:Generated_Source\PSoC4/CapSense_Centroid_LL.c ****                 localMax[0u] = LO8(sensorId);
 498:Generated_Source\PSoC4/CapSense_Centroid_LL.c ****                 temp = ptrSns[diplexSensorId].diff;
 499:Generated_Source\PSoC4/CapSense_Centroid_LL.c ****                 localMaxIndex = 1u;
 500:Generated_Source\PSoC4/CapSense_Centroid_LL.c ****             }
 501:Generated_Source\PSoC4/CapSense_Centroid_LL.c ****         }
 502:Generated_Source\PSoC4/CapSense_Centroid_LL.c **** 
 503:Generated_Source\PSoC4/CapSense_Centroid_LL.c ****         /* Prepare single-dimension centroid calculation array */
 504:Generated_Source\PSoC4/CapSense_Centroid_LL.c ****         if (localMax[0u] == 0u)
 505:Generated_Source\PSoC4/CapSense_Centroid_LL.c ****         {
 506:Generated_Source\PSoC4/CapSense_Centroid_LL.c ****             localDiffArray[0u][CapSense_CENTROID_POS_PREV] = 0u;
 507:Generated_Source\PSoC4/CapSense_Centroid_LL.c ****             localDiffArray[0u][CapSense_CENTROID_POS] = ptrSns[localMax[0u]].diff;
 508:Generated_Source\PSoC4/CapSense_Centroid_LL.c ****             localDiffArray[0u][CapSense_CENTROID_POS_NEXT] = ptrSns[localMax[0u] + 1u].diff;
 509:Generated_Source\PSoC4/CapSense_Centroid_LL.c **** 
 510:Generated_Source\PSoC4/CapSense_Centroid_LL.c ****         }
 511:Generated_Source\PSoC4/CapSense_Centroid_LL.c ****         else if (localMax[0u] == ((snsCount << 1u) - 1u))
 512:Generated_Source\PSoC4/CapSense_Centroid_LL.c ****         {
 513:Generated_Source\PSoC4/CapSense_Centroid_LL.c ****             diplexSensorId = diplexTable[localMax[0u] - 1u];
 514:Generated_Source\PSoC4/CapSense_Centroid_LL.c ****             localDiffArray[0u][CapSense_CENTROID_POS_PREV] = ptrSns[diplexSensorId].diff;
 515:Generated_Source\PSoC4/CapSense_Centroid_LL.c ****             diplexSensorId = diplexTable[localMax[0u]];
 516:Generated_Source\PSoC4/CapSense_Centroid_LL.c ****             localDiffArray[0u][CapSense_CENTROID_POS] = ptrSns[diplexSensorId].diff;
 517:Generated_Source\PSoC4/CapSense_Centroid_LL.c ****             localDiffArray[0u][CapSense_CENTROID_POS_NEXT] = 0u;
 518:Generated_Source\PSoC4/CapSense_Centroid_LL.c ****         }
 519:Generated_Source\PSoC4/CapSense_Centroid_LL.c ****         else
 520:Generated_Source\PSoC4/CapSense_Centroid_LL.c ****         {
 521:Generated_Source\PSoC4/CapSense_Centroid_LL.c ****             diplexSensorId = diplexTable[localMax[0u] - 1u];
 522:Generated_Source\PSoC4/CapSense_Centroid_LL.c ****             localDiffArray[0u][CapSense_CENTROID_POS_PREV] = ptrSns[diplexSensorId].diff;
 523:Generated_Source\PSoC4/CapSense_Centroid_LL.c ****             diplexSensorId = diplexTable[localMax[0u]];
 524:Generated_Source\PSoC4/CapSense_Centroid_LL.c ****             localDiffArray[0u][CapSense_CENTROID_POS] = ptrSns[diplexSensorId].diff;
 525:Generated_Source\PSoC4/CapSense_Centroid_LL.c ****             diplexSensorId = diplexTable[localMax[0u] + 1u];
 526:Generated_Source\PSoC4/CapSense_Centroid_LL.c ****             localDiffArray[0u][CapSense_CENTROID_POS_NEXT] = ptrSns[diplexSensorId].diff;
 527:Generated_Source\PSoC4/CapSense_Centroid_LL.c ****         }
 528:Generated_Source\PSoC4/CapSense_Centroid_LL.c ****     }
 529:Generated_Source\PSoC4/CapSense_Centroid_LL.c **** 
 530:Generated_Source\PSoC4/CapSense_Centroid_LL.c ****     return (uint32)(localMaxIndex);
 531:Generated_Source\PSoC4/CapSense_Centroid_LL.c **** }
 532:Generated_Source\PSoC4/CapSense_Centroid_LL.c **** #endif /* #if CapSense_TOTAL_DIPLEXED_SLIDERS */
 533:Generated_Source\PSoC4/CapSense_Centroid_LL.c **** 
 534:Generated_Source\PSoC4/CapSense_Centroid_LL.c **** 
 535:Generated_Source\PSoC4/CapSense_Centroid_LL.c **** #if ((0u != CapSense_TOTAL_LINEAR_SLIDERS) || \
 536:Generated_Source\PSoC4/CapSense_Centroid_LL.c ****      (CapSense_ENABLE == CapSense_CENTROID_3X3_CSD_EN))
 537:Generated_Source\PSoC4/CapSense_Centroid_LL.c **** /*******************************************************************************
 538:Generated_Source\PSoC4/CapSense_Centroid_LL.c **** * Function Name: CapSense_DpCalcLinearCentroid
 539:Generated_Source\PSoC4/CapSense_Centroid_LL.c **** ****************************************************************************//**
 540:Generated_Source\PSoC4/CapSense_Centroid_LL.c **** *
 541:Generated_Source\PSoC4/CapSense_Centroid_LL.c **** * \brief
 542:Generated_Source\PSoC4/CapSense_Centroid_LL.c **** *   Calculates the position of the linear slider.
 543:Generated_Source\PSoC4/CapSense_Centroid_LL.c **** *
 544:Generated_Source\PSoC4/CapSense_Centroid_LL.c **** * \details
ARM GAS  C:\Users\YUANFA~1\AppData\Local\Temp\cctOMKNb.s 			page 11


 545:Generated_Source\PSoC4/CapSense_Centroid_LL.c **** *   The localMax[] is used to store the index of the maximum/maxima.
 546:Generated_Source\PSoC4/CapSense_Centroid_LL.c **** *   The localDiffArray[][] is used to store values of the maximum/maxima and neighbour differences.
 547:Generated_Source\PSoC4/CapSense_Centroid_LL.c **** *   The localMaxIndex is used to store the number of maxima have been actually found.
 548:Generated_Source\PSoC4/CapSense_Centroid_LL.c **** *
 549:Generated_Source\PSoC4/CapSense_Centroid_LL.c **** * \param position
 550:Generated_Source\PSoC4/CapSense_Centroid_LL.c **** *  The pointer to the position array for temporary position storage.
 551:Generated_Source\PSoC4/CapSense_Centroid_LL.c **** *
 552:Generated_Source\PSoC4/CapSense_Centroid_LL.c **** * \param multiplier
 553:Generated_Source\PSoC4/CapSense_Centroid_LL.c **** *  The multiplier used for position calculation. Contains the widget resolution and total sensor
 554:Generated_Source\PSoC4/CapSense_Centroid_LL.c **** *  information. It is generated by customizer.
 555:Generated_Source\PSoC4/CapSense_Centroid_LL.c **** *
 556:Generated_Source\PSoC4/CapSense_Centroid_LL.c **** * \param snsCount
 557:Generated_Source\PSoC4/CapSense_Centroid_LL.c **** *  The number of sensors in the linear slider. The doubled snsCount has to be passed
 558:Generated_Source\PSoC4/CapSense_Centroid_LL.c **** *  if this API is called for diplexed slider.
 559:Generated_Source\PSoC4/CapSense_Centroid_LL.c **** *
 560:Generated_Source\PSoC4/CapSense_Centroid_LL.c **** * \param offset
 561:Generated_Source\PSoC4/CapSense_Centroid_LL.c **** *  The additional position offset as half of the multiplier.
 562:Generated_Source\PSoC4/CapSense_Centroid_LL.c **** *
 563:Generated_Source\PSoC4/CapSense_Centroid_LL.c **** * \return Returns the number of positions calculated.
 564:Generated_Source\PSoC4/CapSense_Centroid_LL.c **** *
 565:Generated_Source\PSoC4/CapSense_Centroid_LL.c **** *******************************************************************************/
 566:Generated_Source\PSoC4/CapSense_Centroid_LL.c **** uint32 CapSense_DpCalcLinearCentroid(uint16 position[], uint32 multiplier, uint32 snsCount, uint32 
 567:Generated_Source\PSoC4/CapSense_Centroid_LL.c **** {
 568:Generated_Source\PSoC4/CapSense_Centroid_LL.c ****     int32 numerator;
 569:Generated_Source\PSoC4/CapSense_Centroid_LL.c ****     int32 denominator;
 570:Generated_Source\PSoC4/CapSense_Centroid_LL.c ****     uint32 i;
 571:Generated_Source\PSoC4/CapSense_Centroid_LL.c **** 
 572:Generated_Source\PSoC4/CapSense_Centroid_LL.c ****     for (i = 0u; i < localMaxIndex; i++)
 573:Generated_Source\PSoC4/CapSense_Centroid_LL.c ****     {
 574:Generated_Source\PSoC4/CapSense_Centroid_LL.c ****         /*
 575:Generated_Source\PSoC4/CapSense_Centroid_LL.c ****          * The CapSense_DpFindLocalMaxSd API prepares the unified localDiffArray[][] for linear and
 576:Generated_Source\PSoC4/CapSense_Centroid_LL.c ****          *  Therefore, the difference of the first and the last elements of linear slider are clear
 577:Generated_Source\PSoC4/CapSense_Centroid_LL.c ****          */
 578:Generated_Source\PSoC4/CapSense_Centroid_LL.c **** 
 579:Generated_Source\PSoC4/CapSense_Centroid_LL.c ****         if (localMax[i] == 0u)
 580:Generated_Source\PSoC4/CapSense_Centroid_LL.c ****         {
 581:Generated_Source\PSoC4/CapSense_Centroid_LL.c ****             localDiffArray[i][CapSense_CENTROID_POS_PREV] = 0u;
 582:Generated_Source\PSoC4/CapSense_Centroid_LL.c ****         }
 583:Generated_Source\PSoC4/CapSense_Centroid_LL.c ****         else
 584:Generated_Source\PSoC4/CapSense_Centroid_LL.c ****         {
 585:Generated_Source\PSoC4/CapSense_Centroid_LL.c ****             if (localMax[i] == (snsCount - 1u))
 586:Generated_Source\PSoC4/CapSense_Centroid_LL.c ****             {
 587:Generated_Source\PSoC4/CapSense_Centroid_LL.c ****                 localDiffArray[i][CapSense_CENTROID_POS_NEXT] = 0u;
 588:Generated_Source\PSoC4/CapSense_Centroid_LL.c ****             }
 589:Generated_Source\PSoC4/CapSense_Centroid_LL.c ****         }
 590:Generated_Source\PSoC4/CapSense_Centroid_LL.c **** 
 591:Generated_Source\PSoC4/CapSense_Centroid_LL.c ****         /* Si+1 - Si-1 */
 592:Generated_Source\PSoC4/CapSense_Centroid_LL.c ****         numerator = (int32) localDiffArray[i][CapSense_CENTROID_POS_NEXT] -
 593:Generated_Source\PSoC4/CapSense_Centroid_LL.c ****                     (int32) localDiffArray[i][CapSense_CENTROID_POS_PREV];
 594:Generated_Source\PSoC4/CapSense_Centroid_LL.c **** 
 595:Generated_Source\PSoC4/CapSense_Centroid_LL.c ****         /* Si+1 + Si + Si-1 */
 596:Generated_Source\PSoC4/CapSense_Centroid_LL.c ****         denominator = (int32) localDiffArray[i][CapSense_CENTROID_POS_PREV] +
 597:Generated_Source\PSoC4/CapSense_Centroid_LL.c ****                       (int32) localDiffArray[i][CapSense_CENTROID_POS] +
 598:Generated_Source\PSoC4/CapSense_Centroid_LL.c ****                       (int32) localDiffArray[i][CapSense_CENTROID_POS_NEXT];
 599:Generated_Source\PSoC4/CapSense_Centroid_LL.c **** 
 600:Generated_Source\PSoC4/CapSense_Centroid_LL.c ****         denominator = ((numerator * (int32)multiplier) / denominator) +
 601:Generated_Source\PSoC4/CapSense_Centroid_LL.c ****                       (((int32)localMax[i] * (int32)multiplier) + (int32)offset);
ARM GAS  C:\Users\YUANFA~1\AppData\Local\Temp\cctOMKNb.s 			page 12


 602:Generated_Source\PSoC4/CapSense_Centroid_LL.c **** 
 603:Generated_Source\PSoC4/CapSense_Centroid_LL.c ****         /* Round result and shift 8 bits left */
 604:Generated_Source\PSoC4/CapSense_Centroid_LL.c ****         position[i] = LO16(((uint32)denominator + CapSense_CENTROID_ROUND_VALUE) >> 8u);
 605:Generated_Source\PSoC4/CapSense_Centroid_LL.c ****     }
 606:Generated_Source\PSoC4/CapSense_Centroid_LL.c ****     return (uint32)(localMaxIndex);
 607:Generated_Source\PSoC4/CapSense_Centroid_LL.c **** }
 608:Generated_Source\PSoC4/CapSense_Centroid_LL.c **** #endif /* ((0u != CapSense_TOTAL_LINEAR_SLIDERS) || \
 609:Generated_Source\PSoC4/CapSense_Centroid_LL.c ****           (CapSense_ENABLE == CapSense_CENTROID_3X3_CSD_EN)) */
 610:Generated_Source\PSoC4/CapSense_Centroid_LL.c **** 
 611:Generated_Source\PSoC4/CapSense_Centroid_LL.c **** 
 612:Generated_Source\PSoC4/CapSense_Centroid_LL.c **** #if CapSense_TOTAL_RADIAL_SLIDERS
 613:Generated_Source\PSoC4/CapSense_Centroid_LL.c **** /*******************************************************************************
 614:Generated_Source\PSoC4/CapSense_Centroid_LL.c **** * Function Name: CapSense_DpCalcRadialCentroid
 615:Generated_Source\PSoC4/CapSense_Centroid_LL.c **** ****************************************************************************//**
 616:Generated_Source\PSoC4/CapSense_Centroid_LL.c **** *
 617:Generated_Source\PSoC4/CapSense_Centroid_LL.c **** * \brief
 618:Generated_Source\PSoC4/CapSense_Centroid_LL.c **** *   Calculates the position of the radial slider.
 619:Generated_Source\PSoC4/CapSense_Centroid_LL.c **** *
 620:Generated_Source\PSoC4/CapSense_Centroid_LL.c **** * \details
 621:Generated_Source\PSoC4/CapSense_Centroid_LL.c **** *   The localMax[] is used to store the index of the maximum/maxima.
 622:Generated_Source\PSoC4/CapSense_Centroid_LL.c **** *   The localDiffArray[][] is used to store values of the maximum/maxima and neighbour differences.
 623:Generated_Source\PSoC4/CapSense_Centroid_LL.c **** *   The localMaxIndex is used to store the number of maxima have been actually found.
 624:Generated_Source\PSoC4/CapSense_Centroid_LL.c **** *
 625:Generated_Source\PSoC4/CapSense_Centroid_LL.c **** * \param *position The pointer to the position array for temporary storage.
 626:Generated_Source\PSoC4/CapSense_Centroid_LL.c **** * \param multiplier The multiplier used for position calculation.
 627:Generated_Source\PSoC4/CapSense_Centroid_LL.c **** *                       Contains the widget resolution and total sensor information. It is generate
 628:Generated_Source\PSoC4/CapSense_Centroid_LL.c **** * \param snsCount The total sensor number in the widget.
 629:Generated_Source\PSoC4/CapSense_Centroid_LL.c **** *
 630:Generated_Source\PSoC4/CapSense_Centroid_LL.c **** * \return Returns the number of positions calculated.
 631:Generated_Source\PSoC4/CapSense_Centroid_LL.c **** *
 632:Generated_Source\PSoC4/CapSense_Centroid_LL.c **** *******************************************************************************/
 633:Generated_Source\PSoC4/CapSense_Centroid_LL.c **** uint32 CapSense_DpCalcRadialCentroid(uint16 position[], uint32 multiplier, uint32 snsCount)
 634:Generated_Source\PSoC4/CapSense_Centroid_LL.c **** {
 635:Generated_Source\PSoC4/CapSense_Centroid_LL.c ****     int32 numerator;
 636:Generated_Source\PSoC4/CapSense_Centroid_LL.c ****     int32 denominator;
 637:Generated_Source\PSoC4/CapSense_Centroid_LL.c ****     uint32 i;
 638:Generated_Source\PSoC4/CapSense_Centroid_LL.c **** 
 639:Generated_Source\PSoC4/CapSense_Centroid_LL.c ****     for (i = 0u; i < localMaxIndex; i++)
 640:Generated_Source\PSoC4/CapSense_Centroid_LL.c ****     {
 641:Generated_Source\PSoC4/CapSense_Centroid_LL.c ****         /* Si+1 - Si-1 */
 642:Generated_Source\PSoC4/CapSense_Centroid_LL.c ****         numerator = (int32) localDiffArray[i][CapSense_CENTROID_POS_NEXT] -
 643:Generated_Source\PSoC4/CapSense_Centroid_LL.c ****                     (int32) localDiffArray[i][CapSense_CENTROID_POS_PREV];
 644:Generated_Source\PSoC4/CapSense_Centroid_LL.c **** 
 645:Generated_Source\PSoC4/CapSense_Centroid_LL.c ****         /* Si+1 + Si + Si-1 */
 646:Generated_Source\PSoC4/CapSense_Centroid_LL.c ****         denominator = (int32) localDiffArray[i][CapSense_CENTROID_POS_PREV] +
 647:Generated_Source\PSoC4/CapSense_Centroid_LL.c ****                       (int32) localDiffArray[i][CapSense_CENTROID_POS] +
 648:Generated_Source\PSoC4/CapSense_Centroid_LL.c ****                       (int32) localDiffArray[i][CapSense_CENTROID_POS_NEXT];
 649:Generated_Source\PSoC4/CapSense_Centroid_LL.c **** 
 650:Generated_Source\PSoC4/CapSense_Centroid_LL.c ****         denominator = ((numerator * (int32)multiplier) / denominator) +
 651:Generated_Source\PSoC4/CapSense_Centroid_LL.c ****                        ((int32)localMax[i] * (int32)multiplier);
 652:Generated_Source\PSoC4/CapSense_Centroid_LL.c **** 
 653:Generated_Source\PSoC4/CapSense_Centroid_LL.c ****         if (denominator < 0)
 654:Generated_Source\PSoC4/CapSense_Centroid_LL.c ****         {
 655:Generated_Source\PSoC4/CapSense_Centroid_LL.c ****             denominator += ((int32)snsCount * (int32)multiplier);
 656:Generated_Source\PSoC4/CapSense_Centroid_LL.c ****         }
 657:Generated_Source\PSoC4/CapSense_Centroid_LL.c **** 
 658:Generated_Source\PSoC4/CapSense_Centroid_LL.c ****         /* Round result and shift 8 bits left */
ARM GAS  C:\Users\YUANFA~1\AppData\Local\Temp\cctOMKNb.s 			page 13


 659:Generated_Source\PSoC4/CapSense_Centroid_LL.c ****         position[i] = LO16(((uint32)denominator + CapSense_CENTROID_ROUND_VALUE) >> 8u);
 660:Generated_Source\PSoC4/CapSense_Centroid_LL.c ****     }
 661:Generated_Source\PSoC4/CapSense_Centroid_LL.c ****     return (uint32)(localMaxIndex);
 662:Generated_Source\PSoC4/CapSense_Centroid_LL.c **** }
 663:Generated_Source\PSoC4/CapSense_Centroid_LL.c **** #endif /* #if CapSense_TOTAL_RADIAL_SLIDERS */
 664:Generated_Source\PSoC4/CapSense_Centroid_LL.c **** 
 665:Generated_Source\PSoC4/CapSense_Centroid_LL.c **** 
 666:Generated_Source\PSoC4/CapSense_Centroid_LL.c **** #if ( 0u != CapSense_CSX_TOUCHPAD_WIDGET_EN)
 667:Generated_Source\PSoC4/CapSense_Centroid_LL.c **** /*******************************************************************************
 668:Generated_Source\PSoC4/CapSense_Centroid_LL.c **** * Function Name: CapSense_DpFindLocalMaxDd
 669:Generated_Source\PSoC4/CapSense_Centroid_LL.c **** ****************************************************************************//**
 670:Generated_Source\PSoC4/CapSense_Centroid_LL.c **** *
 671:Generated_Source\PSoC4/CapSense_Centroid_LL.c **** * \brief
 672:Generated_Source\PSoC4/CapSense_Centroid_LL.c **** *   Finds up to 5 local maxima in the CSX TouchPad difference data.
 673:Generated_Source\PSoC4/CapSense_Centroid_LL.c **** *
 674:Generated_Source\PSoC4/CapSense_Centroid_LL.c **** * \details
 675:Generated_Source\PSoC4/CapSense_Centroid_LL.c **** *  The column and row number of each maximum and total number of found maxima
 676:Generated_Source\PSoC4/CapSense_Centroid_LL.c **** *  are stored in the structure pointed by ptr2CsxTouchpad in
 677:Generated_Source\PSoC4/CapSense_Centroid_LL.c **** *  the Flash Widget Structure.
 678:Generated_Source\PSoC4/CapSense_Centroid_LL.c **** *
 679:Generated_Source\PSoC4/CapSense_Centroid_LL.c **** * \param ptrFlashWdgt The pointer to the Flash Widget Structure.
 680:Generated_Source\PSoC4/CapSense_Centroid_LL.c **** *
 681:Generated_Source\PSoC4/CapSense_Centroid_LL.c **** *******************************************************************************/
 682:Generated_Source\PSoC4/CapSense_Centroid_LL.c **** void CapSense_DpFindLocalMaxDd(
 683:Generated_Source\PSoC4/CapSense_Centroid_LL.c ****                         CapSense_FLASH_WD_STRUCT const *ptrFlashWdgt)
 684:Generated_Source\PSoC4/CapSense_Centroid_LL.c **** {
 685:Generated_Source\PSoC4/CapSense_Centroid_LL.c ****     CapSense_RAM_WD_CSX_TOUCHPAD_STRUCT *ptrWidgetRam = ptrFlashWdgt->ptr2WdgtRam;
 686:Generated_Source\PSoC4/CapSense_Centroid_LL.c ****     CapSense_RAM_SNS_STRUCT *ptrSensor =  ptrFlashWdgt->ptr2SnsRam;
 687:Generated_Source\PSoC4/CapSense_Centroid_LL.c ****     uint16 signalThreshold = (uint16)ptrWidgetRam->fingerTh - ptrWidgetRam->hysteresis;
 688:Generated_Source\PSoC4/CapSense_Centroid_LL.c ****     uint16 currDiff;
 689:Generated_Source\PSoC4/CapSense_Centroid_LL.c ****     uint8 rx;
 690:Generated_Source\PSoC4/CapSense_Centroid_LL.c ****     uint8 tx;
 691:Generated_Source\PSoC4/CapSense_Centroid_LL.c ****     uint8 snsShift;
 692:Generated_Source\PSoC4/CapSense_Centroid_LL.c ****     uint8 lastRx = ptrFlashWdgt->numCols - 1u;
 693:Generated_Source\PSoC4/CapSense_Centroid_LL.c ****     uint8 lastTx = ptrFlashWdgt->numRows - 1u;
 694:Generated_Source\PSoC4/CapSense_Centroid_LL.c ****     uint32 proceed = 0u;
 695:Generated_Source\PSoC4/CapSense_Centroid_LL.c **** 
 696:Generated_Source\PSoC4/CapSense_Centroid_LL.c ****     /* Initialize new touches structure */
 697:Generated_Source\PSoC4/CapSense_Centroid_LL.c ****     ptrNewTouches->touchNum = 0u;
 698:Generated_Source\PSoC4/CapSense_Centroid_LL.c **** 
 699:Generated_Source\PSoC4/CapSense_Centroid_LL.c ****     /* Go through all Rx electrodes */
 700:Generated_Source\PSoC4/CapSense_Centroid_LL.c ****     for (rx = 0u; rx <= lastRx; rx++)
 701:Generated_Source\PSoC4/CapSense_Centroid_LL.c ****     {
 702:Generated_Source\PSoC4/CapSense_Centroid_LL.c ****         /* Go through all Tx and RX(changed above) electrodes intersections and check if local maxi
 703:Generated_Source\PSoC4/CapSense_Centroid_LL.c ****         for (tx = 0u; tx <= lastTx; tx++)
 704:Generated_Source\PSoC4/CapSense_Centroid_LL.c ****         {
 705:Generated_Source\PSoC4/CapSense_Centroid_LL.c ****             proceed = 0u;
 706:Generated_Source\PSoC4/CapSense_Centroid_LL.c **** 
 707:Generated_Source\PSoC4/CapSense_Centroid_LL.c ****             currDiff = ptrSensor->diff;
 708:Generated_Source\PSoC4/CapSense_Centroid_LL.c **** 
 709:Generated_Source\PSoC4/CapSense_Centroid_LL.c ****             if (currDiff < signalThreshold)
 710:Generated_Source\PSoC4/CapSense_Centroid_LL.c ****             {
 711:Generated_Source\PSoC4/CapSense_Centroid_LL.c ****                 proceed = 1u;
 712:Generated_Source\PSoC4/CapSense_Centroid_LL.c ****             }
 713:Generated_Source\PSoC4/CapSense_Centroid_LL.c **** 
 714:Generated_Source\PSoC4/CapSense_Centroid_LL.c ****             /*
 715:Generated_Source\PSoC4/CapSense_Centroid_LL.c ****             * Check local maximum requirement: Comparing raw count of a local maximum candidate wit
ARM GAS  C:\Users\YUANFA~1\AppData\Local\Temp\cctOMKNb.s 			page 14


 716:Generated_Source\PSoC4/CapSense_Centroid_LL.c ****             * raw counts of sensors from the previous row.
 717:Generated_Source\PSoC4/CapSense_Centroid_LL.c ****             */
 718:Generated_Source\PSoC4/CapSense_Centroid_LL.c ****             if ((0u == proceed) && (rx > 0u))
 719:Generated_Source\PSoC4/CapSense_Centroid_LL.c ****             {
 720:Generated_Source\PSoC4/CapSense_Centroid_LL.c ****                 /* Sensor(i-1, j+1) */
 721:Generated_Source\PSoC4/CapSense_Centroid_LL.c ****                 snsShift = lastTx;
 722:Generated_Source\PSoC4/CapSense_Centroid_LL.c **** 
 723:Generated_Source\PSoC4/CapSense_Centroid_LL.c ****                 if ((tx < lastTx) && (currDiff <= (ptrSensor - snsShift)->diff))
 724:Generated_Source\PSoC4/CapSense_Centroid_LL.c ****                 {
 725:Generated_Source\PSoC4/CapSense_Centroid_LL.c ****                     proceed = 1u;
 726:Generated_Source\PSoC4/CapSense_Centroid_LL.c ****                 }
 727:Generated_Source\PSoC4/CapSense_Centroid_LL.c **** 
 728:Generated_Source\PSoC4/CapSense_Centroid_LL.c ****                 if (0u == proceed)
 729:Generated_Source\PSoC4/CapSense_Centroid_LL.c ****                 {
 730:Generated_Source\PSoC4/CapSense_Centroid_LL.c ****                     /* Sensor(i-1, j) */
 731:Generated_Source\PSoC4/CapSense_Centroid_LL.c ****                     snsShift++;
 732:Generated_Source\PSoC4/CapSense_Centroid_LL.c **** 
 733:Generated_Source\PSoC4/CapSense_Centroid_LL.c ****                     if (currDiff <= (ptrSensor - snsShift)->diff)
 734:Generated_Source\PSoC4/CapSense_Centroid_LL.c ****                     {
 735:Generated_Source\PSoC4/CapSense_Centroid_LL.c ****                         proceed = 1u;
 736:Generated_Source\PSoC4/CapSense_Centroid_LL.c ****                     }
 737:Generated_Source\PSoC4/CapSense_Centroid_LL.c ****                 }
 738:Generated_Source\PSoC4/CapSense_Centroid_LL.c **** 
 739:Generated_Source\PSoC4/CapSense_Centroid_LL.c ****                 if (0u == proceed)
 740:Generated_Source\PSoC4/CapSense_Centroid_LL.c ****                 {
 741:Generated_Source\PSoC4/CapSense_Centroid_LL.c ****                     /* Sensor(i-1, j-1) */
 742:Generated_Source\PSoC4/CapSense_Centroid_LL.c ****                     snsShift++;
 743:Generated_Source\PSoC4/CapSense_Centroid_LL.c **** 
 744:Generated_Source\PSoC4/CapSense_Centroid_LL.c ****                     if ((tx > 0u) && (currDiff <= (ptrSensor - snsShift)->diff))
 745:Generated_Source\PSoC4/CapSense_Centroid_LL.c ****                     {
 746:Generated_Source\PSoC4/CapSense_Centroid_LL.c ****                         proceed = 1u;
 747:Generated_Source\PSoC4/CapSense_Centroid_LL.c ****                     }
 748:Generated_Source\PSoC4/CapSense_Centroid_LL.c ****                 }
 749:Generated_Source\PSoC4/CapSense_Centroid_LL.c ****             }
 750:Generated_Source\PSoC4/CapSense_Centroid_LL.c **** 
 751:Generated_Source\PSoC4/CapSense_Centroid_LL.c ****             /*
 752:Generated_Source\PSoC4/CapSense_Centroid_LL.c ****             * Check local maximum requirement: Comparing raw count of a local maximum candidate wit
 753:Generated_Source\PSoC4/CapSense_Centroid_LL.c ****             * raw counts of sensors from the next row.
 754:Generated_Source\PSoC4/CapSense_Centroid_LL.c ****             */
 755:Generated_Source\PSoC4/CapSense_Centroid_LL.c ****             if ((0u == proceed) && (rx < lastRx))
 756:Generated_Source\PSoC4/CapSense_Centroid_LL.c ****             {
 757:Generated_Source\PSoC4/CapSense_Centroid_LL.c ****                 /* Sensor(i+1, j+1) */
 758:Generated_Source\PSoC4/CapSense_Centroid_LL.c ****                 snsShift = lastTx + 2u;
 759:Generated_Source\PSoC4/CapSense_Centroid_LL.c **** 
 760:Generated_Source\PSoC4/CapSense_Centroid_LL.c ****                 if ((tx < lastTx) && (currDiff < (ptrSensor + snsShift)->diff))
 761:Generated_Source\PSoC4/CapSense_Centroid_LL.c ****                 {
 762:Generated_Source\PSoC4/CapSense_Centroid_LL.c ****                     proceed = 1u;
 763:Generated_Source\PSoC4/CapSense_Centroid_LL.c ****                 }
 764:Generated_Source\PSoC4/CapSense_Centroid_LL.c **** 
 765:Generated_Source\PSoC4/CapSense_Centroid_LL.c ****                 if (0u == proceed)
 766:Generated_Source\PSoC4/CapSense_Centroid_LL.c ****                 {
 767:Generated_Source\PSoC4/CapSense_Centroid_LL.c ****                     /* Sensor(i+1, j) */
 768:Generated_Source\PSoC4/CapSense_Centroid_LL.c ****                     snsShift--;
 769:Generated_Source\PSoC4/CapSense_Centroid_LL.c **** 
 770:Generated_Source\PSoC4/CapSense_Centroid_LL.c ****                     if (currDiff < (ptrSensor + snsShift)->diff)
 771:Generated_Source\PSoC4/CapSense_Centroid_LL.c ****                     {
 772:Generated_Source\PSoC4/CapSense_Centroid_LL.c ****                         proceed = 1u;
ARM GAS  C:\Users\YUANFA~1\AppData\Local\Temp\cctOMKNb.s 			page 15


 773:Generated_Source\PSoC4/CapSense_Centroid_LL.c ****                     }
 774:Generated_Source\PSoC4/CapSense_Centroid_LL.c ****                 }
 775:Generated_Source\PSoC4/CapSense_Centroid_LL.c **** 
 776:Generated_Source\PSoC4/CapSense_Centroid_LL.c ****                 if (0u == proceed)
 777:Generated_Source\PSoC4/CapSense_Centroid_LL.c ****                 {
 778:Generated_Source\PSoC4/CapSense_Centroid_LL.c ****                     /* Sensor(i+1, j-1) */
 779:Generated_Source\PSoC4/CapSense_Centroid_LL.c ****                     snsShift--;
 780:Generated_Source\PSoC4/CapSense_Centroid_LL.c **** 
 781:Generated_Source\PSoC4/CapSense_Centroid_LL.c ****                     if ((tx > 0u) && (currDiff < (ptrSensor + snsShift)->diff))
 782:Generated_Source\PSoC4/CapSense_Centroid_LL.c ****                     {
 783:Generated_Source\PSoC4/CapSense_Centroid_LL.c ****                         proceed = 1u;
 784:Generated_Source\PSoC4/CapSense_Centroid_LL.c ****                     }
 785:Generated_Source\PSoC4/CapSense_Centroid_LL.c ****                 }
 786:Generated_Source\PSoC4/CapSense_Centroid_LL.c ****             }
 787:Generated_Source\PSoC4/CapSense_Centroid_LL.c **** 
 788:Generated_Source\PSoC4/CapSense_Centroid_LL.c ****             /*
 789:Generated_Source\PSoC4/CapSense_Centroid_LL.c ****             * Check local maximum requirement: Comparing raw count of a local maximum candidate wit
 790:Generated_Source\PSoC4/CapSense_Centroid_LL.c ****             * raw counts of sensors from the same row
 791:Generated_Source\PSoC4/CapSense_Centroid_LL.c ****             * Sensor(i, j+1)
 792:Generated_Source\PSoC4/CapSense_Centroid_LL.c ****             */
 793:Generated_Source\PSoC4/CapSense_Centroid_LL.c ****             if ((0u == proceed) && (tx < lastTx))
 794:Generated_Source\PSoC4/CapSense_Centroid_LL.c ****             {
 795:Generated_Source\PSoC4/CapSense_Centroid_LL.c ****                 if (currDiff < (ptrSensor + 1u)->diff)
 796:Generated_Source\PSoC4/CapSense_Centroid_LL.c ****                 {
 797:Generated_Source\PSoC4/CapSense_Centroid_LL.c ****                     proceed = 1u;
 798:Generated_Source\PSoC4/CapSense_Centroid_LL.c ****                 }
 799:Generated_Source\PSoC4/CapSense_Centroid_LL.c ****             }
 800:Generated_Source\PSoC4/CapSense_Centroid_LL.c **** 
 801:Generated_Source\PSoC4/CapSense_Centroid_LL.c ****             /* Sensor(i, j-1) */
 802:Generated_Source\PSoC4/CapSense_Centroid_LL.c ****             if ((0u == proceed) && (tx > 0u))
 803:Generated_Source\PSoC4/CapSense_Centroid_LL.c ****             {
 804:Generated_Source\PSoC4/CapSense_Centroid_LL.c ****                 if (currDiff <= (ptrSensor - 1u)->diff)
 805:Generated_Source\PSoC4/CapSense_Centroid_LL.c ****                 {
 806:Generated_Source\PSoC4/CapSense_Centroid_LL.c ****                     proceed = 1u;
 807:Generated_Source\PSoC4/CapSense_Centroid_LL.c ****                 }
 808:Generated_Source\PSoC4/CapSense_Centroid_LL.c ****             }
 809:Generated_Source\PSoC4/CapSense_Centroid_LL.c **** 
 810:Generated_Source\PSoC4/CapSense_Centroid_LL.c ****             /* Add local maximum to the touch structure if there is a room */
 811:Generated_Source\PSoC4/CapSense_Centroid_LL.c ****             if ((0u == proceed) && (ptrNewTouches->touchNum < CapSense_CSX_MAX_LOCAL_PEAKS))
 812:Generated_Source\PSoC4/CapSense_Centroid_LL.c ****             {
 813:Generated_Source\PSoC4/CapSense_Centroid_LL.c ****                 ptrNewTouches->touch[ptrNewTouches->touchNum].x = rx;
 814:Generated_Source\PSoC4/CapSense_Centroid_LL.c ****                 ptrNewTouches->touch[ptrNewTouches->touchNum].y = tx;
 815:Generated_Source\PSoC4/CapSense_Centroid_LL.c **** 
 816:Generated_Source\PSoC4/CapSense_Centroid_LL.c ****                 ptrNewTouches->touch[ptrNewTouches->touchNum].rawCount = currDiff;
 817:Generated_Source\PSoC4/CapSense_Centroid_LL.c ****                 ptrNewTouches->touchNum++;
 818:Generated_Source\PSoC4/CapSense_Centroid_LL.c ****             }
 819:Generated_Source\PSoC4/CapSense_Centroid_LL.c **** 
 820:Generated_Source\PSoC4/CapSense_Centroid_LL.c ****             ptrSensor++;
 821:Generated_Source\PSoC4/CapSense_Centroid_LL.c ****         }
 822:Generated_Source\PSoC4/CapSense_Centroid_LL.c ****     }
 823:Generated_Source\PSoC4/CapSense_Centroid_LL.c **** }
 824:Generated_Source\PSoC4/CapSense_Centroid_LL.c **** 
 825:Generated_Source\PSoC4/CapSense_Centroid_LL.c **** 
 826:Generated_Source\PSoC4/CapSense_Centroid_LL.c **** /* CY_ID633 */
 827:Generated_Source\PSoC4/CapSense_Centroid_LL.c **** #if defined(__ICCARM__)
 828:Generated_Source\PSoC4/CapSense_Centroid_LL.c ****     #pragma optimize=none
 829:Generated_Source\PSoC4/CapSense_Centroid_LL.c **** #endif /* (__ICCARM__) */
ARM GAS  C:\Users\YUANFA~1\AppData\Local\Temp\cctOMKNb.s 			page 16


 830:Generated_Source\PSoC4/CapSense_Centroid_LL.c **** /*******************************************************************************
 831:Generated_Source\PSoC4/CapSense_Centroid_LL.c **** * Function Name: CapSense_DpCalcTouchPadCentroid
 832:Generated_Source\PSoC4/CapSense_Centroid_LL.c **** ****************************************************************************//**
 833:Generated_Source\PSoC4/CapSense_Centroid_LL.c **** *
 834:Generated_Source\PSoC4/CapSense_Centroid_LL.c **** * \brief
 835:Generated_Source\PSoC4/CapSense_Centroid_LL.c **** *   Calculates the position for each local maximum using the 3x3 algorithm.
 836:Generated_Source\PSoC4/CapSense_Centroid_LL.c **** *
 837:Generated_Source\PSoC4/CapSense_Centroid_LL.c **** * \details
 838:Generated_Source\PSoC4/CapSense_Centroid_LL.c **** *  Stores a result in the structure pointed by ptr2CsxTouchpad at the same
 839:Generated_Source\PSoC4/CapSense_Centroid_LL.c **** *  fields as the column/row number.
 840:Generated_Source\PSoC4/CapSense_Centroid_LL.c **** *
 841:Generated_Source\PSoC4/CapSense_Centroid_LL.c **** * \param ptrFlashWdgt The pointer to the Flash Widget Structure.
 842:Generated_Source\PSoC4/CapSense_Centroid_LL.c **** *
 843:Generated_Source\PSoC4/CapSense_Centroid_LL.c **** *******************************************************************************/
 844:Generated_Source\PSoC4/CapSense_Centroid_LL.c **** void CapSense_DpCalcTouchPadCentroid(
 845:Generated_Source\PSoC4/CapSense_Centroid_LL.c ****                         CapSense_FLASH_WD_STRUCT const *ptrFlashWdgt)
 846:Generated_Source\PSoC4/CapSense_Centroid_LL.c **** {
 847:Generated_Source\PSoC4/CapSense_Centroid_LL.c ****     CapSense_RAM_SNS_STRUCT *ptrSensor =  ptrFlashWdgt->ptr2SnsRam;
 848:Generated_Source\PSoC4/CapSense_Centroid_LL.c ****     uint8 number;
 849:Generated_Source\PSoC4/CapSense_Centroid_LL.c ****     uint8 i;
 850:Generated_Source\PSoC4/CapSense_Centroid_LL.c ****     uint8 j;
 851:Generated_Source\PSoC4/CapSense_Centroid_LL.c ****     uint8 lastRx = ptrFlashWdgt->numCols - 1u;
 852:Generated_Source\PSoC4/CapSense_Centroid_LL.c ****     uint8 lastTx = ptrFlashWdgt->numRows - 1u;
 853:Generated_Source\PSoC4/CapSense_Centroid_LL.c ****     uint16 centroid[3u][3u];
 854:Generated_Source\PSoC4/CapSense_Centroid_LL.c ****     int32 weightedSumX;
 855:Generated_Source\PSoC4/CapSense_Centroid_LL.c ****     int32 weightedSumY;
 856:Generated_Source\PSoC4/CapSense_Centroid_LL.c ****     uint32 totalSum;
 857:Generated_Source\PSoC4/CapSense_Centroid_LL.c **** 
 858:Generated_Source\PSoC4/CapSense_Centroid_LL.c ****     for(number = 0u; number < ptrNewTouches->touchNum; number++)
 859:Generated_Source\PSoC4/CapSense_Centroid_LL.c ****     {
 860:Generated_Source\PSoC4/CapSense_Centroid_LL.c ****         /* Set the sensor pointer to the local maximum sensor */
 861:Generated_Source\PSoC4/CapSense_Centroid_LL.c ****         ptrSensor =  ptrFlashWdgt->ptr2SnsRam;
 862:Generated_Source\PSoC4/CapSense_Centroid_LL.c ****         ptrSensor += (ptrNewTouches->touch[number].y + (ptrNewTouches->touch[number].x * ptrFlashWd
 863:Generated_Source\PSoC4/CapSense_Centroid_LL.c **** 
 864:Generated_Source\PSoC4/CapSense_Centroid_LL.c ****         /* Prepare 3x3 centroid two dimensional array */
 865:Generated_Source\PSoC4/CapSense_Centroid_LL.c ****         /* Fill each row */
 866:Generated_Source\PSoC4/CapSense_Centroid_LL.c ****         for (i = 0u; i < CapSense_CSX_TOUCHPAD_CENTROID_LENGTH; i++)
 867:Generated_Source\PSoC4/CapSense_Centroid_LL.c ****         {
 868:Generated_Source\PSoC4/CapSense_Centroid_LL.c ****             /* The first  condition could be valid only when local max on the first row (0 row) of 
 869:Generated_Source\PSoC4/CapSense_Centroid_LL.c ****              * The second condition could be valid only when local max on the last row of Touchpad
 870:Generated_Source\PSoC4/CapSense_Centroid_LL.c ****              * Then corresponding row (zero or the last) of 3x3 array is initialized to 0u */
 871:Generated_Source\PSoC4/CapSense_Centroid_LL.c ****             if (((((int32)ptrNewTouches->touch[number].x - 1) + (int32)i) < 0) ||
 872:Generated_Source\PSoC4/CapSense_Centroid_LL.c ****                 ((((int32)ptrNewTouches->touch[number].x - 1) + (int32)i) > (int32)lastRx))
 873:Generated_Source\PSoC4/CapSense_Centroid_LL.c ****             {
 874:Generated_Source\PSoC4/CapSense_Centroid_LL.c ****                 centroid[CapSense_CSX_TOUCHPAD_CENTROID_PREVIOUS][i] = 0u;
 875:Generated_Source\PSoC4/CapSense_Centroid_LL.c ****                 centroid[CapSense_CSX_TOUCHPAD_CENTROID_CENTER][i] = 0u;
 876:Generated_Source\PSoC4/CapSense_Centroid_LL.c ****                 centroid[CapSense_CSX_TOUCHPAD_CENTROID_NEXT][i] = 0u;
 877:Generated_Source\PSoC4/CapSense_Centroid_LL.c ****             }
 878:Generated_Source\PSoC4/CapSense_Centroid_LL.c ****             else
 879:Generated_Source\PSoC4/CapSense_Centroid_LL.c ****             {
 880:Generated_Source\PSoC4/CapSense_Centroid_LL.c ****                 /* Fill each column */
 881:Generated_Source\PSoC4/CapSense_Centroid_LL.c ****                 for (j = 0u; j < CapSense_CSX_TOUCHPAD_CENTROID_LENGTH; j++)
 882:Generated_Source\PSoC4/CapSense_Centroid_LL.c ****                 {
 883:Generated_Source\PSoC4/CapSense_Centroid_LL.c ****                     /* The first  condition could be valid only when local max on the first column 
 884:Generated_Source\PSoC4/CapSense_Centroid_LL.c ****                      * The second condition could be valid only when local max on the last column o
 885:Generated_Source\PSoC4/CapSense_Centroid_LL.c ****                      * Then corresponding column (zero or the last) of 3x3 array is initialized to 
 886:Generated_Source\PSoC4/CapSense_Centroid_LL.c ****                     if (((((int32)ptrNewTouches->touch[number].y - 1) + (int32)j) < 0) ||
ARM GAS  C:\Users\YUANFA~1\AppData\Local\Temp\cctOMKNb.s 			page 17


 887:Generated_Source\PSoC4/CapSense_Centroid_LL.c ****                         ((((int32)ptrNewTouches->touch[number].y - 1) + (int32)j) > (int32)lastTx))
 888:Generated_Source\PSoC4/CapSense_Centroid_LL.c ****                     {
 889:Generated_Source\PSoC4/CapSense_Centroid_LL.c ****                         centroid[j][i] = 0u;
 890:Generated_Source\PSoC4/CapSense_Centroid_LL.c ****                     }
 891:Generated_Source\PSoC4/CapSense_Centroid_LL.c ****                     else
 892:Generated_Source\PSoC4/CapSense_Centroid_LL.c ****                     {
 893:Generated_Source\PSoC4/CapSense_Centroid_LL.c ****                         centroid[j][i] = (uint16)(ptrSensor + (((i - 1u) * ptrFlashWdgt->numRows) +
 894:Generated_Source\PSoC4/CapSense_Centroid_LL.c ****                     }
 895:Generated_Source\PSoC4/CapSense_Centroid_LL.c ****                 }
 896:Generated_Source\PSoC4/CapSense_Centroid_LL.c ****             }
 897:Generated_Source\PSoC4/CapSense_Centroid_LL.c ****         }
 898:Generated_Source\PSoC4/CapSense_Centroid_LL.c **** 
 899:Generated_Source\PSoC4/CapSense_Centroid_LL.c ****         weightedSumX = 0;
 900:Generated_Source\PSoC4/CapSense_Centroid_LL.c ****         weightedSumY = 0;
 901:Generated_Source\PSoC4/CapSense_Centroid_LL.c ****         totalSum = 0u;
 902:Generated_Source\PSoC4/CapSense_Centroid_LL.c **** 
 903:Generated_Source\PSoC4/CapSense_Centroid_LL.c ****         /* Calculate centroid */
 904:Generated_Source\PSoC4/CapSense_Centroid_LL.c ****         for (i = 0u; i < CapSense_CSX_TOUCHPAD_CENTROID_LENGTH; i++)
 905:Generated_Source\PSoC4/CapSense_Centroid_LL.c ****         {
 906:Generated_Source\PSoC4/CapSense_Centroid_LL.c ****             for (j = 0u; j < CapSense_CSX_TOUCHPAD_CENTROID_LENGTH; j++)
 907:Generated_Source\PSoC4/CapSense_Centroid_LL.c ****             {
 908:Generated_Source\PSoC4/CapSense_Centroid_LL.c ****                 totalSum += centroid[i][j];
 909:Generated_Source\PSoC4/CapSense_Centroid_LL.c ****                 weightedSumX += (int32)centroid[i][j] * ((int32)j - 1);
 910:Generated_Source\PSoC4/CapSense_Centroid_LL.c ****                 weightedSumY += (int32)centroid[i][j] * ((int32)i - 1);
 911:Generated_Source\PSoC4/CapSense_Centroid_LL.c ****             }
 912:Generated_Source\PSoC4/CapSense_Centroid_LL.c ****         }
 913:Generated_Source\PSoC4/CapSense_Centroid_LL.c **** 
 914:Generated_Source\PSoC4/CapSense_Centroid_LL.c ****         /* The X position is calculated.
 915:Generated_Source\PSoC4/CapSense_Centroid_LL.c ****         * The weightedSumX value depends on a finger position shifted regarding the X electrode (pt
 916:Generated_Source\PSoC4/CapSense_Centroid_LL.c ****         * The multiplier ptrFlashWdgt->xCentroidMultiplier is a short from:
 917:Generated_Source\PSoC4/CapSense_Centroid_LL.c ****         * CapSense_TOUCHPAD0_X_RESOLUTION * 256u) / (CapSense_TOUCHPAD0_NUM_RX - CONFIG))
 918:Generated_Source\PSoC4/CapSense_Centroid_LL.c ****         * where CONFIG = 0 or 1 depends on TouchpadMultiplerMethod parameter
 919:Generated_Source\PSoC4/CapSense_Centroid_LL.c ****         */
 920:Generated_Source\PSoC4/CapSense_Centroid_LL.c ****         weightedSumX = ((weightedSumX * (int32)ptrFlashWdgt->xCentroidMultiplier) / (int32)totalSum
 921:Generated_Source\PSoC4/CapSense_Centroid_LL.c ****                         ((int32)ptrNewTouches->touch[number].x * (int32)ptrFlashWdgt->xCentroidMult
 922:Generated_Source\PSoC4/CapSense_Centroid_LL.c ****         /* Position correction for half of a sensor */
 923:Generated_Source\PSoC4/CapSense_Centroid_LL.c ****         #if (CapSense_ENABLE == CapSense_TOUCHPAD_MULT_METHOD)
 924:Generated_Source\PSoC4/CapSense_Centroid_LL.c ****             weightedSumX += (((int32)ptrFlashWdgt->xCentroidMultiplier) / 2);
 925:Generated_Source\PSoC4/CapSense_Centroid_LL.c ****         #endif
 926:Generated_Source\PSoC4/CapSense_Centroid_LL.c **** 
 927:Generated_Source\PSoC4/CapSense_Centroid_LL.c ****         /* The X position is rounded to the nearest integer value and normalized to the resolution 
 928:Generated_Source\PSoC4/CapSense_Centroid_LL.c ****         ptrNewTouches->touch[number].x = LO16(((uint32)weightedSumX + CapSense_CENTROID_ROUND_VALUE
 929:Generated_Source\PSoC4/CapSense_Centroid_LL.c **** 
 930:Generated_Source\PSoC4/CapSense_Centroid_LL.c ****         /* The Y position is calculated.
 931:Generated_Source\PSoC4/CapSense_Centroid_LL.c ****         * The weightedSumY value depends on a finger position shifted regarding the Y electrode (pt
 932:Generated_Source\PSoC4/CapSense_Centroid_LL.c ****         * The multiplier ptrFlashWdgt->yCentroidMultiplier is a short from:
 933:Generated_Source\PSoC4/CapSense_Centroid_LL.c ****         * CapSense_TOUCHPAD0_Y_RESOLUTION * 256u) / (CapSense_TOUCHPAD0_NUM_TX - CONFIG))
 934:Generated_Source\PSoC4/CapSense_Centroid_LL.c ****         * where CONFIG = 0 or 1 depends on TouchpadMultiplerMethod parameter
 935:Generated_Source\PSoC4/CapSense_Centroid_LL.c ****         */
 936:Generated_Source\PSoC4/CapSense_Centroid_LL.c ****         weightedSumY = ((weightedSumY * (int32)ptrFlashWdgt->yCentroidMultiplier) / (int32)totalSum
 937:Generated_Source\PSoC4/CapSense_Centroid_LL.c ****                         ((int32)ptrNewTouches->touch[number].y * (int32)ptrFlashWdgt->yCentroidMult
 938:Generated_Source\PSoC4/CapSense_Centroid_LL.c ****         /* Position correction for half of a sensor */
 939:Generated_Source\PSoC4/CapSense_Centroid_LL.c ****         #if (CapSense_ENABLE == CapSense_TOUCHPAD_MULT_METHOD)
 940:Generated_Source\PSoC4/CapSense_Centroid_LL.c ****             weightedSumY += (((int32)ptrFlashWdgt->yCentroidMultiplier) / 2);
 941:Generated_Source\PSoC4/CapSense_Centroid_LL.c ****         #endif
 942:Generated_Source\PSoC4/CapSense_Centroid_LL.c **** 
 943:Generated_Source\PSoC4/CapSense_Centroid_LL.c ****         /* The Y position is rounded to the nearest integer value and normalized to the resolution 
ARM GAS  C:\Users\YUANFA~1\AppData\Local\Temp\cctOMKNb.s 			page 18


 944:Generated_Source\PSoC4/CapSense_Centroid_LL.c ****         ptrNewTouches->touch[number].y = LO16(((uint32)weightedSumY + CapSense_CENTROID_ROUND_VALUE
 945:Generated_Source\PSoC4/CapSense_Centroid_LL.c **** 
 946:Generated_Source\PSoC4/CapSense_Centroid_LL.c ****         /* The z value is a sum of raw counts of sensors that form 3x3 matrix with a local maximum 
 947:Generated_Source\PSoC4/CapSense_Centroid_LL.c ****         ptrNewTouches->touch[number].z = LO8(totalSum >> CapSense_CSX_TOUCHPAD_Z_SHIFT);
 948:Generated_Source\PSoC4/CapSense_Centroid_LL.c ****     }
 949:Generated_Source\PSoC4/CapSense_Centroid_LL.c **** }
 950:Generated_Source\PSoC4/CapSense_Centroid_LL.c **** 
 951:Generated_Source\PSoC4/CapSense_Centroid_LL.c **** 
 952:Generated_Source\PSoC4/CapSense_Centroid_LL.c **** /*******************************************************************************
 953:Generated_Source\PSoC4/CapSense_Centroid_LL.c **** * Function Name: CapSense_DpTouchTracking
 954:Generated_Source\PSoC4/CapSense_Centroid_LL.c **** ****************************************************************************//**
 955:Generated_Source\PSoC4/CapSense_Centroid_LL.c **** *
 956:Generated_Source\PSoC4/CapSense_Centroid_LL.c **** * \brief
 957:Generated_Source\PSoC4/CapSense_Centroid_LL.c **** *   Tracks the found touches:
 958:Generated_Source\PSoC4/CapSense_Centroid_LL.c **** *    - associates them with previous touches (DistanceMap, Hungarian)
 959:Generated_Source\PSoC4/CapSense_Centroid_LL.c **** *    - applies the position filters
 960:Generated_Source\PSoC4/CapSense_Centroid_LL.c **** *    - suppresses excessive touches
 961:Generated_Source\PSoC4/CapSense_Centroid_LL.c **** *
 962:Generated_Source\PSoC4/CapSense_Centroid_LL.c **** * \details
 963:Generated_Source\PSoC4/CapSense_Centroid_LL.c **** *  The final touch data is placed into a structure pointed by the ptr2CsxTouchpad
 964:Generated_Source\PSoC4/CapSense_Centroid_LL.c **** *  member of the Flash Widget Structure.
 965:Generated_Source\PSoC4/CapSense_Centroid_LL.c **** *
 966:Generated_Source\PSoC4/CapSense_Centroid_LL.c **** * \param ptrFlashWdgt The pointer to the Flash Widget Structure.
 967:Generated_Source\PSoC4/CapSense_Centroid_LL.c **** *
 968:Generated_Source\PSoC4/CapSense_Centroid_LL.c **** *******************************************************************************/
 969:Generated_Source\PSoC4/CapSense_Centroid_LL.c **** void CapSense_DpTouchTracking(
 970:Generated_Source\PSoC4/CapSense_Centroid_LL.c ****                         CapSense_FLASH_WD_STRUCT const *ptrFlashWdgt)
 971:Generated_Source\PSoC4/CapSense_Centroid_LL.c **** {
 972:Generated_Source\PSoC4/CapSense_Centroid_LL.c ****     CapSense_RAM_WD_CSX_TOUCHPAD_STRUCT *ptrWidgetRam = ptrFlashWdgt->ptr2WdgtRam;
 973:Generated_Source\PSoC4/CapSense_Centroid_LL.c ****     CapSense_CSX_TOUCHPAD_DATA_STRUCT *ptrOldTouches = ptrFlashWdgt->ptr2CsxTouchpad;
 974:Generated_Source\PSoC4/CapSense_Centroid_LL.c ****     CapSense_CSX_TOUCHPAD_DISTANCE_MAP *distanceMap;
 975:Generated_Source\PSoC4/CapSense_Centroid_LL.c ****     int8 *fingerPosIndex;
 976:Generated_Source\PSoC4/CapSense_Centroid_LL.c ****     static int8 touchPadBuffer[CapSense_CSX_TOUCHPAD_BUFFER_SIZE];
 977:Generated_Source\PSoC4/CapSense_Centroid_LL.c ****     uint32 i;
 978:Generated_Source\PSoC4/CapSense_Centroid_LL.c ****     uint8 newTouchNum = ptrNewTouches->touchNum;
 979:Generated_Source\PSoC4/CapSense_Centroid_LL.c ****     uint16 fingerOnThreshold = (uint16)ptrWidgetRam->fingerTh + ptrWidgetRam->hysteresis;
 980:Generated_Source\PSoC4/CapSense_Centroid_LL.c **** 
 981:Generated_Source\PSoC4/CapSense_Centroid_LL.c ****     if ((0u != newTouchNum) || (0u != ptrOldTouches->touchNum))
 982:Generated_Source\PSoC4/CapSense_Centroid_LL.c ****     {
 983:Generated_Source\PSoC4/CapSense_Centroid_LL.c ****         /* Initialize variables */
 984:Generated_Source\PSoC4/CapSense_Centroid_LL.c ****         newActiveIDs = 0u;
 985:Generated_Source\PSoC4/CapSense_Centroid_LL.c ****         /* Getting active touch IDs from previous scan */
 986:Generated_Source\PSoC4/CapSense_Centroid_LL.c ****         oldActiveIDs = 0u;
 987:Generated_Source\PSoC4/CapSense_Centroid_LL.c ****         for (i = 0u; i < ptrOldTouches->touchNum; i++)
 988:Generated_Source\PSoC4/CapSense_Centroid_LL.c ****         {
 989:Generated_Source\PSoC4/CapSense_Centroid_LL.c ****             oldActiveIDs |= (uint8)(1u << ptrOldTouches->touch[i].id);
 990:Generated_Source\PSoC4/CapSense_Centroid_LL.c ****         }
 991:Generated_Source\PSoC4/CapSense_Centroid_LL.c **** 
 992:Generated_Source\PSoC4/CapSense_Centroid_LL.c ****         /* Set up the fingerPosIndex to the head of scratch buffer. It will be used to hold associa
 993:Generated_Source\PSoC4/CapSense_Centroid_LL.c ****         fingerPosIndex = touchPadBuffer;
 994:Generated_Source\PSoC4/CapSense_Centroid_LL.c **** 
 995:Generated_Source\PSoC4/CapSense_Centroid_LL.c ****         /* This is a int32 matrix sized MAX_LOCAL_PEAKS x MAX_LOCAL_PEAKS. Make sure its start addr
 996:Generated_Source\PSoC4/CapSense_Centroid_LL.c ****         distanceMap = (CapSense_CSX_TOUCHPAD_DISTANCE_MAP *)
 997:Generated_Source\PSoC4/CapSense_Centroid_LL.c ****                       (((uint32)touchPadBuffer + (CapSense_CSX_MAX_LOCAL_PEAKS + CapSense_CSX_TOUCH
 998:Generated_Source\PSoC4/CapSense_Centroid_LL.c ****                         (uint32)~CapSense_CSX_TOUCHPAD_PADDING);
 999:Generated_Source\PSoC4/CapSense_Centroid_LL.c **** 
1000:Generated_Source\PSoC4/CapSense_Centroid_LL.c ****         if (0u < newTouchNum)
ARM GAS  C:\Users\YUANFA~1\AppData\Local\Temp\cctOMKNb.s 			page 19


1001:Generated_Source\PSoC4/CapSense_Centroid_LL.c ****         {
1002:Generated_Source\PSoC4/CapSense_Centroid_LL.c ****             for (i = CapSense_CSX_MAX_LOCAL_PEAKS; i-- > 0u;)
1003:Generated_Source\PSoC4/CapSense_Centroid_LL.c ****             {
1004:Generated_Source\PSoC4/CapSense_Centroid_LL.c ****                 /* Set all new touches structure array members as not assigned */
1005:Generated_Source\PSoC4/CapSense_Centroid_LL.c ****                 ptrNewTouches->touch[i].id = CapSense_CSX_TOUCHPAD_UNDEFINED;
1006:Generated_Source\PSoC4/CapSense_Centroid_LL.c ****             }
1007:Generated_Source\PSoC4/CapSense_Centroid_LL.c **** 
1008:Generated_Source\PSoC4/CapSense_Centroid_LL.c ****             if (0u == ptrOldTouches->touchNum)
1009:Generated_Source\PSoC4/CapSense_Centroid_LL.c ****             {
1010:Generated_Source\PSoC4/CapSense_Centroid_LL.c ****                 /* If the previous touch tracking had not any touches. */
1011:Generated_Source\PSoC4/CapSense_Centroid_LL.c ****                 for (i = 0u; i < newTouchNum; i++)
1012:Generated_Source\PSoC4/CapSense_Centroid_LL.c ****                 {
1013:Generated_Source\PSoC4/CapSense_Centroid_LL.c ****                     /* Initializes a new touch, set ID to next value and Age to 0. */
1014:Generated_Source\PSoC4/CapSense_Centroid_LL.c ****                     CapSense_NewTouch(i, ptrWidgetRam->onDebounce, fingerOnThreshold);
1015:Generated_Source\PSoC4/CapSense_Centroid_LL.c ****                 }
1016:Generated_Source\PSoC4/CapSense_Centroid_LL.c ****             }
1017:Generated_Source\PSoC4/CapSense_Centroid_LL.c ****             else
1018:Generated_Source\PSoC4/CapSense_Centroid_LL.c ****             {
1019:Generated_Source\PSoC4/CapSense_Centroid_LL.c ****                 /* General case */
1020:Generated_Source\PSoC4/CapSense_Centroid_LL.c ****                 if (newTouchNum >= ptrOldTouches->touchNum)
1021:Generated_Source\PSoC4/CapSense_Centroid_LL.c ****                 {
1022:Generated_Source\PSoC4/CapSense_Centroid_LL.c ****                     if ((1u == newTouchNum) && (1u == ptrOldTouches->touchNum))
1023:Generated_Source\PSoC4/CapSense_Centroid_LL.c ****                     {
1024:Generated_Source\PSoC4/CapSense_Centroid_LL.c ****                         /* Don't call Hungarian for 1 current and 1 previous touch. */
1025:Generated_Source\PSoC4/CapSense_Centroid_LL.c ****                         fingerPosIndex[0u] = 0;
1026:Generated_Source\PSoC4/CapSense_Centroid_LL.c ****                     }
1027:Generated_Source\PSoC4/CapSense_Centroid_LL.c ****                     else
1028:Generated_Source\PSoC4/CapSense_Centroid_LL.c ****                     {
1029:Generated_Source\PSoC4/CapSense_Centroid_LL.c ****                         /* Calculating and filling Distance Map array. */
1030:Generated_Source\PSoC4/CapSense_Centroid_LL.c ****                         CapSense_FillDistanceMap(distanceMap, ptrOldTouches);
1031:Generated_Source\PSoC4/CapSense_Centroid_LL.c **** 
1032:Generated_Source\PSoC4/CapSense_Centroid_LL.c ****                         /* Call Hungarian method procedure. */
1033:Generated_Source\PSoC4/CapSense_Centroid_LL.c ****                         CapSense_Hungarian(newTouchNum, ptrOldTouches->touchNum, fingerPosIndex, di
1034:Generated_Source\PSoC4/CapSense_Centroid_LL.c ****                     }
1035:Generated_Source\PSoC4/CapSense_Centroid_LL.c **** 
1036:Generated_Source\PSoC4/CapSense_Centroid_LL.c ****                     for (i = 0u; i < ptrOldTouches->touchNum; i++)
1037:Generated_Source\PSoC4/CapSense_Centroid_LL.c ****                     {
1038:Generated_Source\PSoC4/CapSense_Centroid_LL.c ****                         if (ptrWidgetRam->velocity <
1039:Generated_Source\PSoC4/CapSense_Centroid_LL.c ****                             CapSense_CalcDistance((uint32)fingerPosIndex[i], i, ptrOldTouches))
1040:Generated_Source\PSoC4/CapSense_Centroid_LL.c ****                         {
1041:Generated_Source\PSoC4/CapSense_Centroid_LL.c ****                             /* Set new ID and reset Age. */
1042:Generated_Source\PSoC4/CapSense_Centroid_LL.c ****                             CapSense_NewTouch((uint32)fingerPosIndex[i], ptrWidgetRam->onDebounce, 
1043:Generated_Source\PSoC4/CapSense_Centroid_LL.c ****                         }
1044:Generated_Source\PSoC4/CapSense_Centroid_LL.c ****                         else
1045:Generated_Source\PSoC4/CapSense_Centroid_LL.c ****                         {
1046:Generated_Source\PSoC4/CapSense_Centroid_LL.c ****                             /* Set ID to previous value and increase Age. */
1047:Generated_Source\PSoC4/CapSense_Centroid_LL.c ****                             newActiveIDs |= (uint8)(1u << (ptrOldTouches->touch[i].id));
1048:Generated_Source\PSoC4/CapSense_Centroid_LL.c ****                             CapSense_TransferTouch((uint32)fingerPosIndex[i], i, ptrOldTouches);
1049:Generated_Source\PSoC4/CapSense_Centroid_LL.c ****                         }
1050:Generated_Source\PSoC4/CapSense_Centroid_LL.c ****                     }
1051:Generated_Source\PSoC4/CapSense_Centroid_LL.c **** 
1052:Generated_Source\PSoC4/CapSense_Centroid_LL.c ****                     /* Added new fingers, they need to assign ID. */
1053:Generated_Source\PSoC4/CapSense_Centroid_LL.c ****                     if (newTouchNum > ptrOldTouches->touchNum)
1054:Generated_Source\PSoC4/CapSense_Centroid_LL.c ****                     {
1055:Generated_Source\PSoC4/CapSense_Centroid_LL.c ****                         /* Search new fingers. */
1056:Generated_Source\PSoC4/CapSense_Centroid_LL.c ****                         for (i = 0u; i < newTouchNum; i++)
1057:Generated_Source\PSoC4/CapSense_Centroid_LL.c ****                         {
ARM GAS  C:\Users\YUANFA~1\AppData\Local\Temp\cctOMKNb.s 			page 20


1058:Generated_Source\PSoC4/CapSense_Centroid_LL.c ****                             /* New finger found. */
1059:Generated_Source\PSoC4/CapSense_Centroid_LL.c ****                             if (ptrNewTouches->touch[i].id == CapSense_CSX_TOUCHPAD_UNDEFINED)
1060:Generated_Source\PSoC4/CapSense_Centroid_LL.c ****                             {
1061:Generated_Source\PSoC4/CapSense_Centroid_LL.c ****                                 CapSense_NewTouch(i, ptrWidgetRam->onDebounce, fingerOnThreshold);
1062:Generated_Source\PSoC4/CapSense_Centroid_LL.c ****                             }
1063:Generated_Source\PSoC4/CapSense_Centroid_LL.c ****                         }
1064:Generated_Source\PSoC4/CapSense_Centroid_LL.c ****                     }
1065:Generated_Source\PSoC4/CapSense_Centroid_LL.c ****                 }
1066:Generated_Source\PSoC4/CapSense_Centroid_LL.c ****                 else
1067:Generated_Source\PSoC4/CapSense_Centroid_LL.c ****                 {
1068:Generated_Source\PSoC4/CapSense_Centroid_LL.c ****                     /* newTouchNum is less than ptrOldTouches->touchNum */
1069:Generated_Source\PSoC4/CapSense_Centroid_LL.c **** 
1070:Generated_Source\PSoC4/CapSense_Centroid_LL.c ****                     /* Calculating and filling Distance Map array. */
1071:Generated_Source\PSoC4/CapSense_Centroid_LL.c ****                     CapSense_FillDistanceMap(distanceMap, ptrOldTouches);
1072:Generated_Source\PSoC4/CapSense_Centroid_LL.c **** 
1073:Generated_Source\PSoC4/CapSense_Centroid_LL.c ****                     /* Call Hungarian method procedure. */
1074:Generated_Source\PSoC4/CapSense_Centroid_LL.c ****                     CapSense_Hungarian(ptrOldTouches->touchNum, newTouchNum, fingerPosIndex, distan
1075:Generated_Source\PSoC4/CapSense_Centroid_LL.c **** 
1076:Generated_Source\PSoC4/CapSense_Centroid_LL.c ****                     for (i = 0u; i < newTouchNum; i++)
1077:Generated_Source\PSoC4/CapSense_Centroid_LL.c ****                     {
1078:Generated_Source\PSoC4/CapSense_Centroid_LL.c ****                         if (ptrWidgetRam->velocity <
1079:Generated_Source\PSoC4/CapSense_Centroid_LL.c ****                             CapSense_CalcDistance(i, (uint32)fingerPosIndex[i], ptrOldTouches))
1080:Generated_Source\PSoC4/CapSense_Centroid_LL.c ****                         {
1081:Generated_Source\PSoC4/CapSense_Centroid_LL.c ****                             /* Set new ID and reset Age. */
1082:Generated_Source\PSoC4/CapSense_Centroid_LL.c ****                             CapSense_NewTouch(i, ptrWidgetRam->onDebounce, fingerOnThreshold);
1083:Generated_Source\PSoC4/CapSense_Centroid_LL.c ****                         }
1084:Generated_Source\PSoC4/CapSense_Centroid_LL.c ****                         else
1085:Generated_Source\PSoC4/CapSense_Centroid_LL.c ****                         {
1086:Generated_Source\PSoC4/CapSense_Centroid_LL.c ****                             /* Set ID to previous value and increase Age. */
1087:Generated_Source\PSoC4/CapSense_Centroid_LL.c ****                             newActiveIDs |= (uint8)(1u << (ptrOldTouches->touch[i].id));
1088:Generated_Source\PSoC4/CapSense_Centroid_LL.c ****                             CapSense_TransferTouch(i, (uint32)fingerPosIndex[i], ptrOldTouches);
1089:Generated_Source\PSoC4/CapSense_Centroid_LL.c ****                         }
1090:Generated_Source\PSoC4/CapSense_Centroid_LL.c ****                     }
1091:Generated_Source\PSoC4/CapSense_Centroid_LL.c ****                 }
1092:Generated_Source\PSoC4/CapSense_Centroid_LL.c ****             }
1093:Generated_Source\PSoC4/CapSense_Centroid_LL.c **** 
1094:Generated_Source\PSoC4/CapSense_Centroid_LL.c ****             CapSense_TouchDownDebounce();
1095:Generated_Source\PSoC4/CapSense_Centroid_LL.c ****         }
1096:Generated_Source\PSoC4/CapSense_Centroid_LL.c **** 
1097:Generated_Source\PSoC4/CapSense_Centroid_LL.c ****         #if CapSense_OFF_DEBOUNCE_EN
1098:Generated_Source\PSoC4/CapSense_Centroid_LL.c ****             CapSense_LiftOffDebounce(ptrWidgetRam->offDebounce, ptrOldTouches);
1099:Generated_Source\PSoC4/CapSense_Centroid_LL.c ****         #endif
1100:Generated_Source\PSoC4/CapSense_Centroid_LL.c **** 
1101:Generated_Source\PSoC4/CapSense_Centroid_LL.c ****         if ((ptrNewTouches->touchNum >= 1u) || (ptrOldTouches->touchNum != 0u))
1102:Generated_Source\PSoC4/CapSense_Centroid_LL.c ****         {
1103:Generated_Source\PSoC4/CapSense_Centroid_LL.c ****             CapSense_SortByAge();
1104:Generated_Source\PSoC4/CapSense_Centroid_LL.c ****         }
1105:Generated_Source\PSoC4/CapSense_Centroid_LL.c **** 
1106:Generated_Source\PSoC4/CapSense_Centroid_LL.c ****         /* Store new touches as old touches */
1107:Generated_Source\PSoC4/CapSense_Centroid_LL.c ****         for (i = ptrNewTouches->touchNum; i-- > 0u;)
1108:Generated_Source\PSoC4/CapSense_Centroid_LL.c ****         {
1109:Generated_Source\PSoC4/CapSense_Centroid_LL.c ****             CapSense_CopyTouchRecord(&ptrOldTouches->touch[i], &ptrNewTouches->touch[i]);
1110:Generated_Source\PSoC4/CapSense_Centroid_LL.c ****         }
1111:Generated_Source\PSoC4/CapSense_Centroid_LL.c **** 
1112:Generated_Source\PSoC4/CapSense_Centroid_LL.c ****         ptrOldTouches->touchNum = ptrNewTouches->touchNum;
1113:Generated_Source\PSoC4/CapSense_Centroid_LL.c **** 
1114:Generated_Source\PSoC4/CapSense_Centroid_LL.c ****         /* Save ID allocation masks for usage in the next iteration. */
ARM GAS  C:\Users\YUANFA~1\AppData\Local\Temp\cctOMKNb.s 			page 21


1115:Generated_Source\PSoC4/CapSense_Centroid_LL.c ****         oldActiveIDs = newActiveIDs;
1116:Generated_Source\PSoC4/CapSense_Centroid_LL.c ****     }
1117:Generated_Source\PSoC4/CapSense_Centroid_LL.c ****  }
1118:Generated_Source\PSoC4/CapSense_Centroid_LL.c **** 
1119:Generated_Source\PSoC4/CapSense_Centroid_LL.c **** 
1120:Generated_Source\PSoC4/CapSense_Centroid_LL.c **** /*******************************************************************************
1121:Generated_Source\PSoC4/CapSense_Centroid_LL.c **** * Function Name: CapSense_TransferTouch
1122:Generated_Source\PSoC4/CapSense_Centroid_LL.c **** ****************************************************************************//**
1123:Generated_Source\PSoC4/CapSense_Centroid_LL.c **** *
1124:Generated_Source\PSoC4/CapSense_Centroid_LL.c **** * \brief
1125:Generated_Source\PSoC4/CapSense_Centroid_LL.c **** *   Copies ID, increments age and decrements debounce(if debounce > 0) parameters
1126:Generated_Source\PSoC4/CapSense_Centroid_LL.c **** *   for the new touch that has been detected also in the old touches.
1127:Generated_Source\PSoC4/CapSense_Centroid_LL.c **** *
1128:Generated_Source\PSoC4/CapSense_Centroid_LL.c **** * \details
1129:Generated_Source\PSoC4/CapSense_Centroid_LL.c **** *   Copies ID, increments age and decrements debounce(if debounce > 0) parameters
1130:Generated_Source\PSoC4/CapSense_Centroid_LL.c **** *   for the new touch that has been detected also in the old touches.
1131:Generated_Source\PSoC4/CapSense_Centroid_LL.c **** *
1132:Generated_Source\PSoC4/CapSense_Centroid_LL.c **** * \param newIndex The touch index of touch array in the new touches structure.
1133:Generated_Source\PSoC4/CapSense_Centroid_LL.c **** * \param oldIndex The touch index of touch array in the old touches structure.
1134:Generated_Source\PSoC4/CapSense_Centroid_LL.c **** * \param ptrOldTouches The pointer to the old touches structure.
1135:Generated_Source\PSoC4/CapSense_Centroid_LL.c **** *
1136:Generated_Source\PSoC4/CapSense_Centroid_LL.c **** *******************************************************************************/
1137:Generated_Source\PSoC4/CapSense_Centroid_LL.c **** static void CapSense_TransferTouch(
1138:Generated_Source\PSoC4/CapSense_Centroid_LL.c ****                             uint32 newIndex, uint32 oldIndex, CapSense_CSX_TOUCHPAD_DATA_STRUCT *pt
1139:Generated_Source\PSoC4/CapSense_Centroid_LL.c **** {
  27              		.loc 1 1139 0
  28              		.cfi_startproc
  29              		@ args = 0, pretend = 0, frame = 0
  30              		@ frame_needed = 0, uses_anonymous_args = 0
  31              	.LVL0:
  32 0000 F0B5     		push	{r4, r5, r6, r7, lr}
  33              		.cfi_def_cfa_offset 20
  34              		.cfi_offset 4, -20
  35              		.cfi_offset 5, -16
  36              		.cfi_offset 6, -12
  37              		.cfi_offset 7, -8
  38              		.cfi_offset 14, -4
1140:Generated_Source\PSoC4/CapSense_Centroid_LL.c ****     ptrNewTouches->touch[newIndex].id = ptrOldTouches->touch[oldIndex].id;
  39              		.loc 1 1140 0
  40 0002 4E00     		lsls	r6, r1, #1
  41 0004 7318     		adds	r3, r6, r1
  42 0006 9C00     		lsls	r4, r3, #2
  43 0008 1419     		adds	r4, r2, r4
  44 000a 677A     		ldrb	r7, [r4, #9]
  45 000c 4500     		lsls	r5, r0, #1
  46 000e 2D18     		adds	r5, r5, r0
  47 0010 AB00     		lsls	r3, r5, #2
  48 0012 0D4D     		ldr	r5, .L4
  49 0014 EB18     		adds	r3, r5, r3
  50 0016 5F72     		strb	r7, [r3, #9]
1141:Generated_Source\PSoC4/CapSense_Centroid_LL.c **** 
1142:Generated_Source\PSoC4/CapSense_Centroid_LL.c ****     ptrNewTouches->touch[newIndex].age = ptrOldTouches->touch[oldIndex].age + 1u;
  51              		.loc 1 1142 0
  52 0018 E488     		ldrh	r4, [r4, #6]
  53 001a 0134     		adds	r4, r4, #1
  54 001c DC80     		strh	r4, [r3, #6]
1143:Generated_Source\PSoC4/CapSense_Centroid_LL.c **** 
ARM GAS  C:\Users\YUANFA~1\AppData\Local\Temp\cctOMKNb.s 			page 22


1144:Generated_Source\PSoC4/CapSense_Centroid_LL.c ****     /* Decrement debounce counter if the touch in touch down ot lift off stage (debounce counter > 
1145:Generated_Source\PSoC4/CapSense_Centroid_LL.c ****     if (0u != (ptrOldTouches->touch[oldIndex].debounce & CapSense_CSX_TOUCHPAD_DEBOUNCE_MASK))
  55              		.loc 1 1145 0
  56 001e 7118     		adds	r1, r6, r1
  57              	.LVL1:
  58 0020 8B00     		lsls	r3, r1, #2
  59 0022 D318     		adds	r3, r2, r3
  60 0024 9B7A     		ldrb	r3, [r3, #10]
  61 0026 9A06     		lsls	r2, r3, #26
  62 0028 06D0     		beq	.L2
  63              	.LVL2:
1146:Generated_Source\PSoC4/CapSense_Centroid_LL.c ****     {
1147:Generated_Source\PSoC4/CapSense_Centroid_LL.c ****         ptrNewTouches->touch[newIndex].debounce = ptrOldTouches->touch[oldIndex].debounce - 1u;
  64              		.loc 1 1147 0
  65 002a 4200     		lsls	r2, r0, #1
  66 002c 1018     		adds	r0, r2, r0
  67              	.LVL3:
  68 002e 8200     		lsls	r2, r0, #2
  69 0030 AA18     		adds	r2, r5, r2
  70 0032 013B     		subs	r3, r3, #1
  71 0034 9372     		strb	r3, [r2, #10]
  72 0036 05E0     		b	.L1
  73              	.LVL4:
  74              	.L2:
1148:Generated_Source\PSoC4/CapSense_Centroid_LL.c ****     }
1149:Generated_Source\PSoC4/CapSense_Centroid_LL.c ****     else
1150:Generated_Source\PSoC4/CapSense_Centroid_LL.c ****     {
1151:Generated_Source\PSoC4/CapSense_Centroid_LL.c ****         ptrNewTouches->touch[newIndex].debounce = ptrOldTouches->touch[oldIndex].debounce;
  75              		.loc 1 1151 0
  76 0038 4200     		lsls	r2, r0, #1
  77 003a 1018     		adds	r0, r2, r0
  78              	.LVL5:
  79 003c 8200     		lsls	r2, r0, #2
  80 003e 0249     		ldr	r1, .L4
  81 0040 8A18     		adds	r2, r1, r2
  82 0042 9372     		strb	r3, [r2, #10]
  83              	.L1:
1152:Generated_Source\PSoC4/CapSense_Centroid_LL.c ****     }
1153:Generated_Source\PSoC4/CapSense_Centroid_LL.c **** }
  84              		.loc 1 1153 0
  85              		@ sp needed
  86 0044 F0BD     		pop	{r4, r5, r6, r7, pc}
  87              	.L5:
  88 0046 C046     		.align	2
  89              	.L4:
  90 0048 00000000 		.word	.LANCHOR0
  91              		.cfi_endproc
  92              	.LFE4:
  93              		.size	CapSense_TransferTouch, .-CapSense_TransferTouch
  94              		.section	.text.CapSense_NewTouch,"ax",%progbits
  95              		.align	2
  96              		.code	16
  97              		.thumb_func
  98              		.type	CapSense_NewTouch, %function
  99              	CapSense_NewTouch:
 100              	.LFB5:
1154:Generated_Source\PSoC4/CapSense_Centroid_LL.c **** 
ARM GAS  C:\Users\YUANFA~1\AppData\Local\Temp\cctOMKNb.s 			page 23


1155:Generated_Source\PSoC4/CapSense_Centroid_LL.c **** 
1156:Generated_Source\PSoC4/CapSense_Centroid_LL.c **** /*******************************************************************************
1157:Generated_Source\PSoC4/CapSense_Centroid_LL.c **** * Function Name: CapSense_NewTouch
1158:Generated_Source\PSoC4/CapSense_Centroid_LL.c **** ****************************************************************************//**
1159:Generated_Source\PSoC4/CapSense_Centroid_LL.c **** *
1160:Generated_Source\PSoC4/CapSense_Centroid_LL.c **** * \brief
1161:Generated_Source\PSoC4/CapSense_Centroid_LL.c **** *   Set ID, age and on debounce parameters for a new touch.
1162:Generated_Source\PSoC4/CapSense_Centroid_LL.c **** *
1163:Generated_Source\PSoC4/CapSense_Centroid_LL.c **** * \details
1164:Generated_Source\PSoC4/CapSense_Centroid_LL.c **** *   Raw count of a local maximum has to be higher than fingerOnThreshold threshold
1165:Generated_Source\PSoC4/CapSense_Centroid_LL.c **** *   so the new touch is accepted. If raw count is lower than the fingerOnThreshold
1166:Generated_Source\PSoC4/CapSense_Centroid_LL.c **** *   than corresponding touch is marked with CapSense_CSX_TOUCHPAD_FT_ON_FAIL
1167:Generated_Source\PSoC4/CapSense_Centroid_LL.c **** *   ID and will be deleted from new touches structure in CapSense_SortByAge()
1168:Generated_Source\PSoC4/CapSense_Centroid_LL.c **** *   (new touches structure is reorganized in this case).
1169:Generated_Source\PSoC4/CapSense_Centroid_LL.c **** *
1170:Generated_Source\PSoC4/CapSense_Centroid_LL.c **** * \param newIndex The touch index of touch array in the new touches structure.
1171:Generated_Source\PSoC4/CapSense_Centroid_LL.c **** * \param onDebounce Counter value for touch down procedure.
1172:Generated_Source\PSoC4/CapSense_Centroid_LL.c **** * \param fingerOnThreshold The finger ON threshold (finger threshold + hysteresis)
1173:Generated_Source\PSoC4/CapSense_Centroid_LL.c **** *
1174:Generated_Source\PSoC4/CapSense_Centroid_LL.c **** *******************************************************************************/
1175:Generated_Source\PSoC4/CapSense_Centroid_LL.c **** static void CapSense_NewTouch(uint32 newIndex, uint8 onDebounce, uint16 fingerOnThreshold)
1176:Generated_Source\PSoC4/CapSense_Centroid_LL.c **** {
 101              		.loc 1 1176 0
 102              		.cfi_startproc
 103              		@ args = 0, pretend = 0, frame = 0
 104              		@ frame_needed = 0, uses_anonymous_args = 0
 105              	.LVL6:
 106 0000 F0B5     		push	{r4, r5, r6, r7, lr}
 107              		.cfi_def_cfa_offset 20
 108              		.cfi_offset 4, -20
 109              		.cfi_offset 5, -16
 110              		.cfi_offset 6, -12
 111              		.cfi_offset 7, -8
 112              		.cfi_offset 14, -4
1177:Generated_Source\PSoC4/CapSense_Centroid_LL.c ****     uint32 idx;
1178:Generated_Source\PSoC4/CapSense_Centroid_LL.c **** 
1179:Generated_Source\PSoC4/CapSense_Centroid_LL.c ****     /* Touch is not accepted */
1180:Generated_Source\PSoC4/CapSense_Centroid_LL.c ****     if (ptrNewTouches->touch[newIndex].rawCount < fingerOnThreshold)
 113              		.loc 1 1180 0
 114 0002 4400     		lsls	r4, r0, #1
 115 0004 2418     		adds	r4, r4, r0
 116 0006 A300     		lsls	r3, r4, #2
 117 0008 184C     		ldr	r4, .L12
 118 000a E318     		adds	r3, r4, r3
 119 000c 9B88     		ldrh	r3, [r3, #4]
 120 000e 9342     		cmp	r3, r2
 121 0010 06D2     		bcs	.L7
1181:Generated_Source\PSoC4/CapSense_Centroid_LL.c ****     {
1182:Generated_Source\PSoC4/CapSense_Centroid_LL.c ****         ptrNewTouches->touch[newIndex].id = CapSense_CSX_TOUCHPAD_FT_ON_FAIL;
 122              		.loc 1 1182 0
 123 0012 4300     		lsls	r3, r0, #1
 124 0014 1818     		adds	r0, r3, r0
 125              	.LVL7:
 126 0016 8300     		lsls	r3, r0, #2
 127 0018 E318     		adds	r3, r4, r3
 128 001a 8122     		movs	r2, #129
 129              	.LVL8:
ARM GAS  C:\Users\YUANFA~1\AppData\Local\Temp\cctOMKNb.s 			page 24


 130 001c 5A72     		strb	r2, [r3, #9]
 131 001e 23E0     		b	.L6
 132              	.LVL9:
 133              	.L7:
1183:Generated_Source\PSoC4/CapSense_Centroid_LL.c ****     }
1184:Generated_Source\PSoC4/CapSense_Centroid_LL.c ****     else
1185:Generated_Source\PSoC4/CapSense_Centroid_LL.c ****     {
1186:Generated_Source\PSoC4/CapSense_Centroid_LL.c ****         /* Create a bit map of ID's currently used and previously used and search for the new lowes
1187:Generated_Source\PSoC4/CapSense_Centroid_LL.c ****         idx = CapSense_GetLowestId(((uint16)oldActiveIDs | (uint16)newActiveIDs));
 134              		.loc 1 1187 0
 135 0020 124B     		ldr	r3, .L12
 136 0022 3E22     		movs	r2, #62
 137              	.LVL10:
 138 0024 9C5C     		ldrb	r4, [r3, r2]
 139 0026 0132     		adds	r2, r2, #1
 140 0028 9A5C     		ldrb	r2, [r3, r2]
 141 002a 2243     		orrs	r2, r4
 142              	.LVL11:
 143              	.LBB6:
 144              	.LBB7:
1188:Generated_Source\PSoC4/CapSense_Centroid_LL.c **** 
1189:Generated_Source\PSoC4/CapSense_Centroid_LL.c ****         /* Indicate that ID is now taken */
1190:Generated_Source\PSoC4/CapSense_Centroid_LL.c ****         newActiveIDs |= (uint8)(1u << idx);
1191:Generated_Source\PSoC4/CapSense_Centroid_LL.c **** 
1192:Generated_Source\PSoC4/CapSense_Centroid_LL.c ****         /* Set the ID */
1193:Generated_Source\PSoC4/CapSense_Centroid_LL.c ****         ptrNewTouches->touch[newIndex].id = LO8(idx);
1194:Generated_Source\PSoC4/CapSense_Centroid_LL.c **** 
1195:Generated_Source\PSoC4/CapSense_Centroid_LL.c ****         /* Set the age */
1196:Generated_Source\PSoC4/CapSense_Centroid_LL.c ****         ptrNewTouches->touch[newIndex].age = 1u;
1197:Generated_Source\PSoC4/CapSense_Centroid_LL.c **** 
1198:Generated_Source\PSoC4/CapSense_Centroid_LL.c ****         /* New Finger goes through touchdown debounce procedure if required */
1199:Generated_Source\PSoC4/CapSense_Centroid_LL.c ****         ptrNewTouches->touch[newIndex].debounce = onDebounce | CapSense_CSX_TOUCHPAD_TOUCH_DOWN;
1200:Generated_Source\PSoC4/CapSense_Centroid_LL.c ****     }
1201:Generated_Source\PSoC4/CapSense_Centroid_LL.c **** }
1202:Generated_Source\PSoC4/CapSense_Centroid_LL.c **** 
1203:Generated_Source\PSoC4/CapSense_Centroid_LL.c **** 
1204:Generated_Source\PSoC4/CapSense_Centroid_LL.c **** /*******************************************************************************
1205:Generated_Source\PSoC4/CapSense_Centroid_LL.c **** * Function Name: CapSense_GetLowestId
1206:Generated_Source\PSoC4/CapSense_Centroid_LL.c **** ****************************************************************************//**
1207:Generated_Source\PSoC4/CapSense_Centroid_LL.c **** *
1208:Generated_Source\PSoC4/CapSense_Centroid_LL.c **** * \brief
1209:Generated_Source\PSoC4/CapSense_Centroid_LL.c **** *   Returns the lowest available touch ID.
1210:Generated_Source\PSoC4/CapSense_Centroid_LL.c **** *
1211:Generated_Source\PSoC4/CapSense_Centroid_LL.c **** * \details
1212:Generated_Source\PSoC4/CapSense_Centroid_LL.c **** *   Returns the lowest available touch ID.
1213:Generated_Source\PSoC4/CapSense_Centroid_LL.c **** *
1214:Generated_Source\PSoC4/CapSense_Centroid_LL.c **** * \param idMask The mask of IDs used in new and old touches.
1215:Generated_Source\PSoC4/CapSense_Centroid_LL.c **** *
1216:Generated_Source\PSoC4/CapSense_Centroid_LL.c **** * \return   Returns the lowest available touch ID. If no ID was available,
1217:Generated_Source\PSoC4/CapSense_Centroid_LL.c **** *           CapSense_CSX_TOUCHPAD_TOUCH_ABSENT_ID is returned.
1218:Generated_Source\PSoC4/CapSense_Centroid_LL.c **** *
1219:Generated_Source\PSoC4/CapSense_Centroid_LL.c **** *******************************************************************************/
1220:Generated_Source\PSoC4/CapSense_Centroid_LL.c **** CY_INLINE static uint8 CapSense_GetLowestId(uint16 idMask)
1221:Generated_Source\PSoC4/CapSense_Centroid_LL.c **** {
1222:Generated_Source\PSoC4/CapSense_Centroid_LL.c ****     uint32 idx;
1223:Generated_Source\PSoC4/CapSense_Centroid_LL.c ****     uint32 touchId = CapSense_CSX_TOUCHPAD_TOUCH_ABSENT_ID;
1224:Generated_Source\PSoC4/CapSense_Centroid_LL.c **** 
ARM GAS  C:\Users\YUANFA~1\AppData\Local\Temp\cctOMKNb.s 			page 25


1225:Generated_Source\PSoC4/CapSense_Centroid_LL.c ****     /* Search for the lowest available ID. */
1226:Generated_Source\PSoC4/CapSense_Centroid_LL.c ****     idMask >>= CapSense_CSX_TOUCHPAD_TOUCH_MIN_ID;
1227:Generated_Source\PSoC4/CapSense_Centroid_LL.c **** 
1228:Generated_Source\PSoC4/CapSense_Centroid_LL.c ****     for (idx = CapSense_CSX_TOUCHPAD_TOUCH_MIN_ID; idx <= CapSense_CSX_TOUCHPAD_TOUCH_MAX_ID; idx++
 145              		.loc 1 1228 0
 146 002c 0023     		movs	r3, #0
 147 002e 03E0     		b	.L9
 148              	.LVL12:
 149              	.L11:
1229:Generated_Source\PSoC4/CapSense_Centroid_LL.c ****     {
1230:Generated_Source\PSoC4/CapSense_Centroid_LL.c ****         /* Determine if the new ID is available. */
1231:Generated_Source\PSoC4/CapSense_Centroid_LL.c ****         if (0u == (idMask & 1u))
 150              		.loc 1 1231 0
 151 0030 D507     		lsls	r5, r2, #31
 152 0032 04D5     		bpl	.L10
1232:Generated_Source\PSoC4/CapSense_Centroid_LL.c ****         {
1233:Generated_Source\PSoC4/CapSense_Centroid_LL.c ****             touchId = idx;
1234:Generated_Source\PSoC4/CapSense_Centroid_LL.c ****             break;
1235:Generated_Source\PSoC4/CapSense_Centroid_LL.c ****         }
1236:Generated_Source\PSoC4/CapSense_Centroid_LL.c **** 
1237:Generated_Source\PSoC4/CapSense_Centroid_LL.c ****         idMask >>= 1u;
 153              		.loc 1 1237 0
 154 0034 5208     		lsrs	r2, r2, #1
 155              	.LVL13:
1228:Generated_Source\PSoC4/CapSense_Centroid_LL.c ****     {
 156              		.loc 1 1228 0
 157 0036 0133     		adds	r3, r3, #1
 158              	.LVL14:
 159              	.L9:
 160 0038 042B     		cmp	r3, #4
 161 003a F9D9     		bls	.L11
1223:Generated_Source\PSoC4/CapSense_Centroid_LL.c **** 
 162              		.loc 1 1223 0
 163 003c 8223     		movs	r3, #130
 164              	.LVL15:
 165              	.L10:
 166              	.LBE7:
 167              	.LBE6:
1190:Generated_Source\PSoC4/CapSense_Centroid_LL.c **** 
 168              		.loc 1 1190 0
 169 003e FF22     		movs	r2, #255
 170 0040 1A40     		ands	r2, r3
 171              	.LVL16:
 172 0042 0126     		movs	r6, #1
 173 0044 3500     		movs	r5, r6
 174 0046 9540     		lsls	r5, r5, r2
 175 0048 2A00     		movs	r2, r5
 176              	.LVL17:
 177 004a 084D     		ldr	r5, .L12
 178 004c 1443     		orrs	r4, r2
 179 004e 3E22     		movs	r2, #62
 180 0050 AC54     		strb	r4, [r5, r2]
1193:Generated_Source\PSoC4/CapSense_Centroid_LL.c **** 
 181              		.loc 1 1193 0
 182 0052 4400     		lsls	r4, r0, #1
 183 0054 2718     		adds	r7, r4, r0
 184 0056 BA00     		lsls	r2, r7, #2
ARM GAS  C:\Users\YUANFA~1\AppData\Local\Temp\cctOMKNb.s 			page 26


 185 0058 AA18     		adds	r2, r5, r2
 186 005a 5372     		strb	r3, [r2, #9]
1196:Generated_Source\PSoC4/CapSense_Centroid_LL.c **** 
 187              		.loc 1 1196 0
 188 005c D680     		strh	r6, [r2, #6]
1199:Generated_Source\PSoC4/CapSense_Centroid_LL.c ****     }
 189              		.loc 1 1199 0
 190 005e 1300     		movs	r3, r2
 191              	.LVL18:
 192 0060 8022     		movs	r2, #128
 193 0062 5242     		rsbs	r2, r2, #0
 194 0064 1143     		orrs	r1, r2
 195              	.LVL19:
 196 0066 9972     		strb	r1, [r3, #10]
 197              	.LVL20:
 198              	.L6:
1201:Generated_Source\PSoC4/CapSense_Centroid_LL.c **** 
 199              		.loc 1 1201 0
 200              		@ sp needed
 201 0068 F0BD     		pop	{r4, r5, r6, r7, pc}
 202              	.L13:
 203 006a C046     		.align	2
 204              	.L12:
 205 006c 00000000 		.word	.LANCHOR0
 206              		.cfi_endproc
 207              	.LFE5:
 208              		.size	CapSense_NewTouch, .-CapSense_NewTouch
 209              		.section	.text.CapSense_CalcDistance,"ax",%progbits
 210              		.align	2
 211              		.code	16
 212              		.thumb_func
 213              		.type	CapSense_CalcDistance, %function
 214              	CapSense_CalcDistance:
 215              	.LFB8:
1238:Generated_Source\PSoC4/CapSense_Centroid_LL.c ****     }
1239:Generated_Source\PSoC4/CapSense_Centroid_LL.c **** 
1240:Generated_Source\PSoC4/CapSense_Centroid_LL.c ****     /* Return an indicator of failure. */
1241:Generated_Source\PSoC4/CapSense_Centroid_LL.c ****     return (uint8)(touchId);
1242:Generated_Source\PSoC4/CapSense_Centroid_LL.c **** }
1243:Generated_Source\PSoC4/CapSense_Centroid_LL.c **** 
1244:Generated_Source\PSoC4/CapSense_Centroid_LL.c **** 
1245:Generated_Source\PSoC4/CapSense_Centroid_LL.c **** /*******************************************************************************
1246:Generated_Source\PSoC4/CapSense_Centroid_LL.c **** * Function Name: CapSense_TouchDownDebounce
1247:Generated_Source\PSoC4/CapSense_Centroid_LL.c **** ****************************************************************************//**
1248:Generated_Source\PSoC4/CapSense_Centroid_LL.c **** *
1249:Generated_Source\PSoC4/CapSense_Centroid_LL.c **** * \brief
1250:Generated_Source\PSoC4/CapSense_Centroid_LL.c **** *   Handles touch down de-bouncing.
1251:Generated_Source\PSoC4/CapSense_Centroid_LL.c **** *
1252:Generated_Source\PSoC4/CapSense_Centroid_LL.c **** * \details
1253:Generated_Source\PSoC4/CapSense_Centroid_LL.c **** *   Even if a new touch is detected it is not considered as active until
1254:Generated_Source\PSoC4/CapSense_Centroid_LL.c **** *   on debounce counter has not reached zero. If on debounce counter has reached zero
1255:Generated_Source\PSoC4/CapSense_Centroid_LL.c **** *   the touch down mask is cleared. Otherwise the age of the new finger is cleared
1256:Generated_Source\PSoC4/CapSense_Centroid_LL.c **** *   (it is considered as not active)
1257:Generated_Source\PSoC4/CapSense_Centroid_LL.c **** *
1258:Generated_Source\PSoC4/CapSense_Centroid_LL.c **** *******************************************************************************/
1259:Generated_Source\PSoC4/CapSense_Centroid_LL.c **** CY_INLINE static void CapSense_TouchDownDebounce(void)
1260:Generated_Source\PSoC4/CapSense_Centroid_LL.c **** {
ARM GAS  C:\Users\YUANFA~1\AppData\Local\Temp\cctOMKNb.s 			page 27


1261:Generated_Source\PSoC4/CapSense_Centroid_LL.c ****     uint32 i;
1262:Generated_Source\PSoC4/CapSense_Centroid_LL.c **** 
1263:Generated_Source\PSoC4/CapSense_Centroid_LL.c ****     for (i = 0u; i < ptrNewTouches->touchNum; i++)
1264:Generated_Source\PSoC4/CapSense_Centroid_LL.c ****     {
1265:Generated_Source\PSoC4/CapSense_Centroid_LL.c ****         /* If it is a touchdown debouncing finger its age is set to zero */
1266:Generated_Source\PSoC4/CapSense_Centroid_LL.c ****         if (0u != (ptrNewTouches->touch[i].debounce & CapSense_CSX_TOUCHPAD_TOUCH_DOWN))
1267:Generated_Source\PSoC4/CapSense_Centroid_LL.c ****         {
1268:Generated_Source\PSoC4/CapSense_Centroid_LL.c ****             if ((ptrNewTouches->touch[i].debounce & CapSense_CSX_TOUCHPAD_DEBOUNCE_MASK) <= 1u)
1269:Generated_Source\PSoC4/CapSense_Centroid_LL.c ****             {
1270:Generated_Source\PSoC4/CapSense_Centroid_LL.c ****                 /* If debounce counter reached zero than touch down stage
1271:Generated_Source\PSoC4/CapSense_Centroid_LL.c ****                  * is finished and corresponding mask is cleared
1272:Generated_Source\PSoC4/CapSense_Centroid_LL.c ****                  */
1273:Generated_Source\PSoC4/CapSense_Centroid_LL.c ****                 ptrNewTouches->touch[i].debounce &=
1274:Generated_Source\PSoC4/CapSense_Centroid_LL.c ****                     (uint8)~(CapSense_CSX_TOUCHPAD_TOUCH_DOWN | CapSense_CSX_TOUCHPAD_DEBOUNCE_MASK
1275:Generated_Source\PSoC4/CapSense_Centroid_LL.c ****             }
1276:Generated_Source\PSoC4/CapSense_Centroid_LL.c ****             else
1277:Generated_Source\PSoC4/CapSense_Centroid_LL.c ****             {
1278:Generated_Source\PSoC4/CapSense_Centroid_LL.c ****                 /* Set the age to zero - finger is not active */
1279:Generated_Source\PSoC4/CapSense_Centroid_LL.c ****                 ptrNewTouches->touch[i].age = 0u;
1280:Generated_Source\PSoC4/CapSense_Centroid_LL.c ****             }
1281:Generated_Source\PSoC4/CapSense_Centroid_LL.c ****         }
1282:Generated_Source\PSoC4/CapSense_Centroid_LL.c ****     }
1283:Generated_Source\PSoC4/CapSense_Centroid_LL.c **** }
1284:Generated_Source\PSoC4/CapSense_Centroid_LL.c **** 
1285:Generated_Source\PSoC4/CapSense_Centroid_LL.c **** 
1286:Generated_Source\PSoC4/CapSense_Centroid_LL.c **** #if (0u != CapSense_OFF_DEBOUNCE_EN)
1287:Generated_Source\PSoC4/CapSense_Centroid_LL.c **** /*******************************************************************************
1288:Generated_Source\PSoC4/CapSense_Centroid_LL.c **** * Function Name: CapSense_LiftOffDebounce
1289:Generated_Source\PSoC4/CapSense_Centroid_LL.c **** ****************************************************************************//**
1290:Generated_Source\PSoC4/CapSense_Centroid_LL.c **** *
1291:Generated_Source\PSoC4/CapSense_Centroid_LL.c **** * \brief
1292:Generated_Source\PSoC4/CapSense_Centroid_LL.c **** *   Handles lift off de-bouncing.
1293:Generated_Source\PSoC4/CapSense_Centroid_LL.c **** *
1294:Generated_Source\PSoC4/CapSense_Centroid_LL.c **** * \details
1295:Generated_Source\PSoC4/CapSense_Centroid_LL.c **** *   Even if a touch is not present in new touches, but present in old
1296:Generated_Source\PSoC4/CapSense_Centroid_LL.c **** *   touches this means it is lift off event. This touch is considered as active and
1297:Generated_Source\PSoC4/CapSense_Centroid_LL.c **** *   is added to new touches structure until the offDebounce counter reaches zero.
1298:Generated_Source\PSoC4/CapSense_Centroid_LL.c **** *   The offDebounce counter is set when lift off event is detected and is decremented
1299:Generated_Source\PSoC4/CapSense_Centroid_LL.c **** *   each time the CapSense_LiftOffDebounce() API is called.
1300:Generated_Source\PSoC4/CapSense_Centroid_LL.c **** *
1301:Generated_Source\PSoC4/CapSense_Centroid_LL.c **** * \param offDebounce   The off debounce counter value.
1302:Generated_Source\PSoC4/CapSense_Centroid_LL.c **** * \param ptrOldTouches The pointer to the old touches structure.
1303:Generated_Source\PSoC4/CapSense_Centroid_LL.c **** *
1304:Generated_Source\PSoC4/CapSense_Centroid_LL.c **** *******************************************************************************/
1305:Generated_Source\PSoC4/CapSense_Centroid_LL.c **** CY_INLINE static void CapSense_LiftOffDebounce(uint8 offDebounce,
1306:Generated_Source\PSoC4/CapSense_Centroid_LL.c ****                                                        CapSense_CSX_TOUCHPAD_DATA_STRUCT *ptrOldTou
1307:Generated_Source\PSoC4/CapSense_Centroid_LL.c **** {
1308:Generated_Source\PSoC4/CapSense_Centroid_LL.c ****     uint32 i;
1309:Generated_Source\PSoC4/CapSense_Centroid_LL.c ****     uint8 liftOffMask = (uint8)(~newActiveIDs) & oldActiveIDs;
1310:Generated_Source\PSoC4/CapSense_Centroid_LL.c **** 
1311:Generated_Source\PSoC4/CapSense_Centroid_LL.c ****     if(liftOffMask != 0u)
1312:Generated_Source\PSoC4/CapSense_Centroid_LL.c ****     {
1313:Generated_Source\PSoC4/CapSense_Centroid_LL.c ****         for (i = 0u; i < ptrOldTouches->touchNum; i++)
1314:Generated_Source\PSoC4/CapSense_Centroid_LL.c ****         {
1315:Generated_Source\PSoC4/CapSense_Centroid_LL.c ****             /*
1316:Generated_Source\PSoC4/CapSense_Centroid_LL.c ****              * The old touch is not found in the new touches.
1317:Generated_Source\PSoC4/CapSense_Centroid_LL.c ****              * Lift off procedure starts and the old touch is copied to the new touches if there is
ARM GAS  C:\Users\YUANFA~1\AppData\Local\Temp\cctOMKNb.s 			page 28


1318:Generated_Source\PSoC4/CapSense_Centroid_LL.c ****              */
1319:Generated_Source\PSoC4/CapSense_Centroid_LL.c **** 
1320:Generated_Source\PSoC4/CapSense_Centroid_LL.c ****             if (((uint8)(0x01u << ptrOldTouches->touch[i].id) & liftOffMask) != 0u)
1321:Generated_Source\PSoC4/CapSense_Centroid_LL.c ****             {
1322:Generated_Source\PSoC4/CapSense_Centroid_LL.c ****                 /* If there is a room in new touches structure and the old touch is not under touch
1323:Generated_Source\PSoC4/CapSense_Centroid_LL.c ****                 if ((ptrNewTouches->touchNum < CapSense_CSX_MAX_LOCAL_PEAKS) &&
1324:Generated_Source\PSoC4/CapSense_Centroid_LL.c ****                     (0u == (ptrOldTouches->touch[i].debounce & CapSense_CSX_TOUCHPAD_TOUCH_DOWN)))
1325:Generated_Source\PSoC4/CapSense_Centroid_LL.c ****                 {
1326:Generated_Source\PSoC4/CapSense_Centroid_LL.c ****                     /* Lift off debouncing starts if there is not lift off mask in the old touch */
1327:Generated_Source\PSoC4/CapSense_Centroid_LL.c ****                     if ((ptrOldTouches->touch[i].debounce & CapSense_CSX_TOUCHPAD_LIFT_OFF) == 0u)
1328:Generated_Source\PSoC4/CapSense_Centroid_LL.c ****                     {
1329:Generated_Source\PSoC4/CapSense_Centroid_LL.c ****                         ptrOldTouches->touch[i].debounce = offDebounce | CapSense_CSX_TOUCHPAD_LIFT
1330:Generated_Source\PSoC4/CapSense_Centroid_LL.c **** 
1331:Generated_Source\PSoC4/CapSense_Centroid_LL.c ****                         /* Copy the old finger data to the new one using TransferTouch API to manag
1332:Generated_Source\PSoC4/CapSense_Centroid_LL.c ****                         CapSense_TransferTouch((uint32)ptrNewTouches->touchNum, i, ptrOldTouches);
1333:Generated_Source\PSoC4/CapSense_Centroid_LL.c ****                         ptrNewTouches->touch[ptrNewTouches->touchNum].x = ptrOldTouches->touch[i].x
1334:Generated_Source\PSoC4/CapSense_Centroid_LL.c ****                         ptrNewTouches->touch[ptrNewTouches->touchNum].y = ptrOldTouches->touch[i].y
1335:Generated_Source\PSoC4/CapSense_Centroid_LL.c ****                         ptrNewTouches->touch[ptrNewTouches->touchNum].z = ptrOldTouches->touch[i].z
1336:Generated_Source\PSoC4/CapSense_Centroid_LL.c ****                         ptrNewTouches->touch[ptrNewTouches->touchNum].rawCount = ptrOldTouches->tou
1337:Generated_Source\PSoC4/CapSense_Centroid_LL.c ****                         ptrNewTouches->touchNum++;
1338:Generated_Source\PSoC4/CapSense_Centroid_LL.c ****                     }
1339:Generated_Source\PSoC4/CapSense_Centroid_LL.c ****                     else
1340:Generated_Source\PSoC4/CapSense_Centroid_LL.c ****                     {
1341:Generated_Source\PSoC4/CapSense_Centroid_LL.c ****                         /* Check whether debounce counter is reached zero if there is a lift off ma
1342:Generated_Source\PSoC4/CapSense_Centroid_LL.c ****                        if ((ptrOldTouches->touch[i].debounce & CapSense_CSX_TOUCHPAD_DEBOUNCE_MASK)
1343:Generated_Source\PSoC4/CapSense_Centroid_LL.c ****                        {
1344:Generated_Source\PSoC4/CapSense_Centroid_LL.c ****                             /* Clear lift off mask if debounce counter has reached zero */
1345:Generated_Source\PSoC4/CapSense_Centroid_LL.c ****                             ptrOldTouches->touch[i].debounce &= (uint8)~CapSense_CSX_TOUCHPAD_LIFT_
1346:Generated_Source\PSoC4/CapSense_Centroid_LL.c ****                        }
1347:Generated_Source\PSoC4/CapSense_Centroid_LL.c ****                        else
1348:Generated_Source\PSoC4/CapSense_Centroid_LL.c ****                        {
1349:Generated_Source\PSoC4/CapSense_Centroid_LL.c ****                             /* Copy the old finger data to the new one using TransferTouch API to m
1350:Generated_Source\PSoC4/CapSense_Centroid_LL.c ****                             CapSense_TransferTouch((uint32)ptrNewTouches->touchNum, i, ptrOldTouche
1351:Generated_Source\PSoC4/CapSense_Centroid_LL.c ****                             ptrNewTouches->touch[ptrNewTouches->touchNum].x = ptrOldTouches->touch[
1352:Generated_Source\PSoC4/CapSense_Centroid_LL.c ****                             ptrNewTouches->touch[ptrNewTouches->touchNum].y = ptrOldTouches->touch[
1353:Generated_Source\PSoC4/CapSense_Centroid_LL.c ****                             ptrNewTouches->touch[ptrNewTouches->touchNum].z = ptrOldTouches->touch[
1354:Generated_Source\PSoC4/CapSense_Centroid_LL.c ****                             ptrNewTouches->touch[ptrNewTouches->touchNum].rawCount = ptrOldTouches-
1355:Generated_Source\PSoC4/CapSense_Centroid_LL.c ****                             ptrNewTouches->touchNum++;
1356:Generated_Source\PSoC4/CapSense_Centroid_LL.c ****                        }
1357:Generated_Source\PSoC4/CapSense_Centroid_LL.c ****                     }
1358:Generated_Source\PSoC4/CapSense_Centroid_LL.c ****                 }
1359:Generated_Source\PSoC4/CapSense_Centroid_LL.c ****             }
1360:Generated_Source\PSoC4/CapSense_Centroid_LL.c ****         }
1361:Generated_Source\PSoC4/CapSense_Centroid_LL.c ****     }
1362:Generated_Source\PSoC4/CapSense_Centroid_LL.c **** }
1363:Generated_Source\PSoC4/CapSense_Centroid_LL.c **** #endif /* (0u != CapSense_OFF_DEBOUNCE_EN) */
1364:Generated_Source\PSoC4/CapSense_Centroid_LL.c **** 
1365:Generated_Source\PSoC4/CapSense_Centroid_LL.c **** /*******************************************************************************
1366:Generated_Source\PSoC4/CapSense_Centroid_LL.c **** * Function Name: CapSense_CalcDistance
1367:Generated_Source\PSoC4/CapSense_Centroid_LL.c **** ****************************************************************************//**
1368:Generated_Source\PSoC4/CapSense_Centroid_LL.c **** *
1369:Generated_Source\PSoC4/CapSense_Centroid_LL.c **** * \brief
1370:Generated_Source\PSoC4/CapSense_Centroid_LL.c **** *   Calculates squared distance between old and new touches pointed by the input
1371:Generated_Source\PSoC4/CapSense_Centroid_LL.c **** *   parameters.
1372:Generated_Source\PSoC4/CapSense_Centroid_LL.c **** *
1373:Generated_Source\PSoC4/CapSense_Centroid_LL.c **** * \details
1374:Generated_Source\PSoC4/CapSense_Centroid_LL.c **** *   Calculates squared distance between old and new touches pointed by the input
ARM GAS  C:\Users\YUANFA~1\AppData\Local\Temp\cctOMKNb.s 			page 29


1375:Generated_Source\PSoC4/CapSense_Centroid_LL.c **** *   parameters.
1376:Generated_Source\PSoC4/CapSense_Centroid_LL.c **** *
1377:Generated_Source\PSoC4/CapSense_Centroid_LL.c **** * \param newIndex      The index of touch in the new touches structure.
1378:Generated_Source\PSoC4/CapSense_Centroid_LL.c **** * \param oldIndex      The index of touch in the old touches structure.
1379:Generated_Source\PSoC4/CapSense_Centroid_LL.c **** * \param ptrOldTouches The pointer to the old touches structure.
1380:Generated_Source\PSoC4/CapSense_Centroid_LL.c **** *
1381:Generated_Source\PSoC4/CapSense_Centroid_LL.c **** * \return Returns the squared distance.
1382:Generated_Source\PSoC4/CapSense_Centroid_LL.c **** *
1383:Generated_Source\PSoC4/CapSense_Centroid_LL.c **** *******************************************************************************/
1384:Generated_Source\PSoC4/CapSense_Centroid_LL.c **** static uint32 CapSense_CalcDistance(uint32 newIndex, uint32 oldIndex,
1385:Generated_Source\PSoC4/CapSense_Centroid_LL.c ****                                                       CapSense_CSX_TOUCHPAD_DATA_STRUCT *ptrOldTouc
1386:Generated_Source\PSoC4/CapSense_Centroid_LL.c **** {
 216              		.loc 1 1386 0
 217              		.cfi_startproc
 218              		@ args = 0, pretend = 0, frame = 0
 219              		@ frame_needed = 0, uses_anonymous_args = 0
 220              	.LVL21:
 221 0000 F0B5     		push	{r4, r5, r6, r7, lr}
 222              		.cfi_def_cfa_offset 20
 223              		.cfi_offset 4, -20
 224              		.cfi_offset 5, -16
 225              		.cfi_offset 6, -12
 226              		.cfi_offset 7, -8
 227              		.cfi_offset 14, -4
1387:Generated_Source\PSoC4/CapSense_Centroid_LL.c ****     int32 result;
1388:Generated_Source\PSoC4/CapSense_Centroid_LL.c ****     int32 xDistance = (int32)(ptrOldTouches->touch[oldIndex].x) - (int32)(ptrNewTouches->touch[newI
 228              		.loc 1 1388 0
 229 0002 4D00     		lsls	r5, r1, #1
 230 0004 6C18     		adds	r4, r5, r1
 231 0006 A300     		lsls	r3, r4, #2
 232 0008 9B5A     		ldrh	r3, [r3, r2]
 233 000a 9C46     		mov	ip, r3
 234 000c 094E     		ldr	r6, .L15
 235 000e 4700     		lsls	r7, r0, #1
 236 0010 3C18     		adds	r4, r7, r0
 237 0012 A300     		lsls	r3, r4, #2
 238 0014 9B5B     		ldrh	r3, [r3, r6]
 239 0016 6446     		mov	r4, ip
 240 0018 E41A     		subs	r4, r4, r3
 241              	.LVL22:
1389:Generated_Source\PSoC4/CapSense_Centroid_LL.c ****     int32 yDistance = (int32)(ptrOldTouches->touch[oldIndex].y) - (int32)(ptrNewTouches->touch[newI
 242              		.loc 1 1389 0
 243 001a 6918     		adds	r1, r5, r1
 244              	.LVL23:
 245 001c 8D00     		lsls	r5, r1, #2
 246 001e 5519     		adds	r5, r2, r5
 247 0020 6A88     		ldrh	r2, [r5, #2]
 248              	.LVL24:
 249 0022 3818     		adds	r0, r7, r0
 250              	.LVL25:
 251 0024 8300     		lsls	r3, r0, #2
 252 0026 F318     		adds	r3, r6, r3
 253 0028 5B88     		ldrh	r3, [r3, #2]
 254 002a D31A     		subs	r3, r2, r3
 255              	.LVL26:
1390:Generated_Source\PSoC4/CapSense_Centroid_LL.c **** 
1391:Generated_Source\PSoC4/CapSense_Centroid_LL.c ****     result = ((xDistance * xDistance) + (yDistance *yDistance));
ARM GAS  C:\Users\YUANFA~1\AppData\Local\Temp\cctOMKNb.s 			page 30


 256              		.loc 1 1391 0
 257 002c 6443     		muls	r4, r4
 258              	.LVL27:
 259 002e 5B43     		muls	r3, r3
 260              	.LVL28:
 261 0030 E018     		adds	r0, r4, r3
 262              	.LVL29:
1392:Generated_Source\PSoC4/CapSense_Centroid_LL.c ****     return (uint32)result;
1393:Generated_Source\PSoC4/CapSense_Centroid_LL.c **** }
 263              		.loc 1 1393 0
 264              		@ sp needed
 265              	.LVL30:
 266              	.LVL31:
 267 0032 F0BD     		pop	{r4, r5, r6, r7, pc}
 268              	.L16:
 269              		.align	2
 270              	.L15:
 271 0034 00000000 		.word	.LANCHOR0
 272              		.cfi_endproc
 273              	.LFE8:
 274              		.size	CapSense_CalcDistance, .-CapSense_CalcDistance
 275              		.section	.text.CapSense_FillDistanceMap,"ax",%progbits
 276              		.align	2
 277              		.code	16
 278              		.thumb_func
 279              		.type	CapSense_FillDistanceMap, %function
 280              	CapSense_FillDistanceMap:
 281              	.LFB9:
1394:Generated_Source\PSoC4/CapSense_Centroid_LL.c **** 
1395:Generated_Source\PSoC4/CapSense_Centroid_LL.c **** 
1396:Generated_Source\PSoC4/CapSense_Centroid_LL.c **** /*******************************************************************************
1397:Generated_Source\PSoC4/CapSense_Centroid_LL.c **** * Function Name: CapSense_FillDistanceMap
1398:Generated_Source\PSoC4/CapSense_Centroid_LL.c **** ****************************************************************************//**
1399:Generated_Source\PSoC4/CapSense_Centroid_LL.c **** *
1400:Generated_Source\PSoC4/CapSense_Centroid_LL.c **** * \brief
1401:Generated_Source\PSoC4/CapSense_Centroid_LL.c **** *   Populates the distance map used for the Hungarian method with distance
1402:Generated_Source\PSoC4/CapSense_Centroid_LL.c **** *   squared values.
1403:Generated_Source\PSoC4/CapSense_Centroid_LL.c **** *
1404:Generated_Source\PSoC4/CapSense_Centroid_LL.c **** * \details
1405:Generated_Source\PSoC4/CapSense_Centroid_LL.c **** *   Distance squared is used instead of distance to eliminate square root
1406:Generated_Source\PSoC4/CapSense_Centroid_LL.c **** *   calculation, which requires a lot of execution time.
1407:Generated_Source\PSoC4/CapSense_Centroid_LL.c **** *
1408:Generated_Source\PSoC4/CapSense_Centroid_LL.c **** * \param distanceMap   The pointer to a 2-dimensional array of int32's
1409:Generated_Source\PSoC4/CapSense_Centroid_LL.c **** *                          with dimensions CapSense_CSX_MAX_LOCAL_PEAKS x
1410:Generated_Source\PSoC4/CapSense_Centroid_LL.c **** *                          CapSense_CSX_MAX_LOCAL_PEAKS
1411:Generated_Source\PSoC4/CapSense_Centroid_LL.c **** * \param ptrOldTouches The pointer to the old touches structure.
1412:Generated_Source\PSoC4/CapSense_Centroid_LL.c **** *
1413:Generated_Source\PSoC4/CapSense_Centroid_LL.c **** * \return The contents of distanceMap[][] are modified.
1414:Generated_Source\PSoC4/CapSense_Centroid_LL.c **** *
1415:Generated_Source\PSoC4/CapSense_Centroid_LL.c **** *******************************************************************************/
1416:Generated_Source\PSoC4/CapSense_Centroid_LL.c **** static void CapSense_FillDistanceMap(CapSense_CSX_TOUCHPAD_DISTANCE_MAP *distanceMap,
1417:Generated_Source\PSoC4/CapSense_Centroid_LL.c ****                                              CapSense_CSX_TOUCHPAD_DATA_STRUCT *ptrOldTouches)
1418:Generated_Source\PSoC4/CapSense_Centroid_LL.c **** {
 282              		.loc 1 1418 0
 283              		.cfi_startproc
 284              		@ args = 0, pretend = 0, frame = 8
 285              		@ frame_needed = 0, uses_anonymous_args = 0
ARM GAS  C:\Users\YUANFA~1\AppData\Local\Temp\cctOMKNb.s 			page 31


 286              	.LVL32:
 287 0000 F0B5     		push	{r4, r5, r6, r7, lr}
 288              		.cfi_def_cfa_offset 20
 289              		.cfi_offset 4, -20
 290              		.cfi_offset 5, -16
 291              		.cfi_offset 6, -12
 292              		.cfi_offset 7, -8
 293              		.cfi_offset 14, -4
 294 0002 83B0     		sub	sp, sp, #12
 295              		.cfi_def_cfa_offset 32
 296 0004 0600     		movs	r6, r0
 297 0006 0191     		str	r1, [sp, #4]
1419:Generated_Source\PSoC4/CapSense_Centroid_LL.c ****     uint32 i;
1420:Generated_Source\PSoC4/CapSense_Centroid_LL.c ****     uint32 j;
1421:Generated_Source\PSoC4/CapSense_Centroid_LL.c **** 
1422:Generated_Source\PSoC4/CapSense_Centroid_LL.c ****     if (ptrNewTouches->touchNum >= ptrOldTouches->touchNum)
 298              		.loc 1 1422 0
 299 0008 3C23     		movs	r3, #60
 300 000a 1C4A     		ldr	r2, .L28
 301 000c D25C     		ldrb	r2, [r2, r3]
 302 000e CB5C     		ldrb	r3, [r1, r3]
 303 0010 9A42     		cmp	r2, r3
 304 0012 2DD3     		bcc	.L24
1423:Generated_Source\PSoC4/CapSense_Centroid_LL.c ****     {
1424:Generated_Source\PSoC4/CapSense_Centroid_LL.c ****         for (i = ptrNewTouches->touchNum; i-- > 0u; )
 305              		.loc 1 1424 0
 306 0014 1300     		movs	r3, r2
 307              	.LVL33:
 308 0016 13E0     		b	.L19
 309              	.LVL34:
 310              	.L22:
1425:Generated_Source\PSoC4/CapSense_Centroid_LL.c ****         {
1426:Generated_Source\PSoC4/CapSense_Centroid_LL.c ****             for (j = ptrOldTouches->touchNum; j-- > 0u; )
 311              		.loc 1 1426 0
 312 0018 3C23     		movs	r3, #60
 313 001a 019A     		ldr	r2, [sp, #4]
 314 001c D35C     		ldrb	r3, [r2, r3]
 315              	.LVL35:
 316 001e 0BE0     		b	.L20
 317              	.LVL36:
 318              	.L21:
1427:Generated_Source\PSoC4/CapSense_Centroid_LL.c ****             {
1428:Generated_Source\PSoC4/CapSense_Centroid_LL.c ****                 distanceMap[i][j] = (int32)CapSense_CalcDistance(i, j, ptrOldTouches);
 319              		.loc 1 1428 0
 320 0020 AA00     		lsls	r2, r5, #2
 321 0022 5219     		adds	r2, r2, r5
 322 0024 9300     		lsls	r3, r2, #2
 323 0026 F418     		adds	r4, r6, r3
 324 0028 019A     		ldr	r2, [sp, #4]
 325 002a 3900     		movs	r1, r7
 326 002c 2800     		movs	r0, r5
 327 002e FFF7FEFF 		bl	CapSense_CalcDistance
 328              	.LVL37:
 329 0032 BB00     		lsls	r3, r7, #2
 330 0034 1851     		str	r0, [r3, r4]
1426:Generated_Source\PSoC4/CapSense_Centroid_LL.c ****             {
 331              		.loc 1 1426 0
ARM GAS  C:\Users\YUANFA~1\AppData\Local\Temp\cctOMKNb.s 			page 32


 332 0036 3B00     		movs	r3, r7
 333              	.LVL38:
 334              	.L20:
1426:Generated_Source\PSoC4/CapSense_Centroid_LL.c ****             {
 335              		.loc 1 1426 0 is_stmt 0 discriminator 1
 336 0038 5F1E     		subs	r7, r3, #1
 337              	.LVL39:
 338 003a 002B     		cmp	r3, #0
 339 003c F0D1     		bne	.L21
1424:Generated_Source\PSoC4/CapSense_Centroid_LL.c ****         {
 340              		.loc 1 1424 0 is_stmt 1
 341 003e 2B00     		movs	r3, r5
 342              	.LVL40:
 343              	.L19:
1424:Generated_Source\PSoC4/CapSense_Centroid_LL.c ****         {
 344              		.loc 1 1424 0 is_stmt 0 discriminator 1
 345 0040 5D1E     		subs	r5, r3, #1
 346              	.LVL41:
 347 0042 002B     		cmp	r3, #0
 348 0044 E8D1     		bne	.L22
 349 0046 16E0     		b	.L17
 350              	.L27:
1429:Generated_Source\PSoC4/CapSense_Centroid_LL.c ****             }
1430:Generated_Source\PSoC4/CapSense_Centroid_LL.c ****         }
1431:Generated_Source\PSoC4/CapSense_Centroid_LL.c ****     }
1432:Generated_Source\PSoC4/CapSense_Centroid_LL.c ****     else
1433:Generated_Source\PSoC4/CapSense_Centroid_LL.c ****     {
1434:Generated_Source\PSoC4/CapSense_Centroid_LL.c ****         for (i = ptrOldTouches->touchNum; i-- > 0u;)
1435:Generated_Source\PSoC4/CapSense_Centroid_LL.c ****         {
1436:Generated_Source\PSoC4/CapSense_Centroid_LL.c ****             for (j = ptrNewTouches->touchNum; j-- > 0u;)
 351              		.loc 1 1436 0 is_stmt 1
 352 0048 3C23     		movs	r3, #60
 353 004a 0C4A     		ldr	r2, .L28
 354 004c D35C     		ldrb	r3, [r2, r3]
 355              	.LVL42:
 356 004e 0BE0     		b	.L25
 357              	.LVL43:
 358              	.L26:
1437:Generated_Source\PSoC4/CapSense_Centroid_LL.c ****             {
1438:Generated_Source\PSoC4/CapSense_Centroid_LL.c ****                 distanceMap[i][j] = (int32)CapSense_CalcDistance(j, i, ptrOldTouches);
 359              		.loc 1 1438 0
 360 0050 AA00     		lsls	r2, r5, #2
 361 0052 5219     		adds	r2, r2, r5
 362 0054 9300     		lsls	r3, r2, #2
 363 0056 F418     		adds	r4, r6, r3
 364 0058 019A     		ldr	r2, [sp, #4]
 365 005a 2900     		movs	r1, r5
 366 005c 3800     		movs	r0, r7
 367 005e FFF7FEFF 		bl	CapSense_CalcDistance
 368              	.LVL44:
 369 0062 BB00     		lsls	r3, r7, #2
 370 0064 1851     		str	r0, [r3, r4]
1436:Generated_Source\PSoC4/CapSense_Centroid_LL.c ****             {
 371              		.loc 1 1436 0
 372 0066 3B00     		movs	r3, r7
 373              	.LVL45:
 374              	.L25:
ARM GAS  C:\Users\YUANFA~1\AppData\Local\Temp\cctOMKNb.s 			page 33


1436:Generated_Source\PSoC4/CapSense_Centroid_LL.c ****             {
 375              		.loc 1 1436 0 is_stmt 0 discriminator 1
 376 0068 5F1E     		subs	r7, r3, #1
 377              	.LVL46:
 378 006a 002B     		cmp	r3, #0
 379 006c F0D1     		bne	.L26
1434:Generated_Source\PSoC4/CapSense_Centroid_LL.c ****         {
 380              		.loc 1 1434 0 is_stmt 1
 381 006e 2B00     		movs	r3, r5
 382              	.LVL47:
 383              	.L24:
1434:Generated_Source\PSoC4/CapSense_Centroid_LL.c ****         {
 384              		.loc 1 1434 0 is_stmt 0 discriminator 1
 385 0070 5D1E     		subs	r5, r3, #1
 386              	.LVL48:
 387 0072 002B     		cmp	r3, #0
 388 0074 E8D1     		bne	.L27
 389              	.L17:
1439:Generated_Source\PSoC4/CapSense_Centroid_LL.c ****             }
1440:Generated_Source\PSoC4/CapSense_Centroid_LL.c ****         }
1441:Generated_Source\PSoC4/CapSense_Centroid_LL.c ****     }
1442:Generated_Source\PSoC4/CapSense_Centroid_LL.c **** }
 390              		.loc 1 1442 0 is_stmt 1
 391 0076 03B0     		add	sp, sp, #12
 392              		@ sp needed
 393              	.LVL49:
 394              	.LVL50:
 395 0078 F0BD     		pop	{r4, r5, r6, r7, pc}
 396              	.L29:
 397 007a C046     		.align	2
 398              	.L28:
 399 007c 00000000 		.word	.LANCHOR0
 400              		.cfi_endproc
 401              	.LFE9:
 402              		.size	CapSense_FillDistanceMap, .-CapSense_FillDistanceMap
 403              		.section	.text.CapSense_CopyTouchRecord,"ax",%progbits
 404              		.align	2
 405              		.code	16
 406              		.thumb_func
 407              		.type	CapSense_CopyTouchRecord, %function
 408              	CapSense_CopyTouchRecord:
 409              	.LFB12:
1443:Generated_Source\PSoC4/CapSense_Centroid_LL.c **** 
1444:Generated_Source\PSoC4/CapSense_Centroid_LL.c **** 
1445:Generated_Source\PSoC4/CapSense_Centroid_LL.c **** /*******************************************************************************
1446:Generated_Source\PSoC4/CapSense_Centroid_LL.c **** * Function Name: CapSense_Hungarian
1447:Generated_Source\PSoC4/CapSense_Centroid_LL.c **** ****************************************************************************//**
1448:Generated_Source\PSoC4/CapSense_Centroid_LL.c **** *
1449:Generated_Source\PSoC4/CapSense_Centroid_LL.c **** * \brief
1450:Generated_Source\PSoC4/CapSense_Centroid_LL.c **** *   Executes the Hungarian Method on a distance map to track motion of two touch sets
1451:Generated_Source\PSoC4/CapSense_Centroid_LL.c **** *   (old touches vs new touches)
1452:Generated_Source\PSoC4/CapSense_Centroid_LL.c **** *
1453:Generated_Source\PSoC4/CapSense_Centroid_LL.c **** * \details
1454:Generated_Source\PSoC4/CapSense_Centroid_LL.c **** *   This function uses the Hungarian method described in specification 001-63362.
1455:Generated_Source\PSoC4/CapSense_Centroid_LL.c **** *   There is no bounds checking on the parameters. It is the calling function's
1456:Generated_Source\PSoC4/CapSense_Centroid_LL.c **** *   responsibility to ensure parameter validity.
1457:Generated_Source\PSoC4/CapSense_Centroid_LL.c **** *
ARM GAS  C:\Users\YUANFA~1\AppData\Local\Temp\cctOMKNb.s 			page 34


1458:Generated_Source\PSoC4/CapSense_Centroid_LL.c **** * \param rowCount       Number of elements in row of distanceMap matrix. This value must be
1459:Generated_Source\PSoC4/CapSense_Centroid_LL.c **** *                       greater than or equal to colCount.
1460:Generated_Source\PSoC4/CapSense_Centroid_LL.c **** * \param colCount       Number of elements in column of distanceMap matrix.This value must
1461:Generated_Source\PSoC4/CapSense_Centroid_LL.c **** *                       be greater than or equal to 1.
1462:Generated_Source\PSoC4/CapSense_Centroid_LL.c **** * \param fingerPosIndex The pointer to an array where associations between the
1463:Generated_Source\PSoC4/CapSense_Centroid_LL.c **** *                             previous and current touches are returned.
1464:Generated_Source\PSoC4/CapSense_Centroid_LL.c **** * \param distanceMap    The 2-dimensional map of distances between the nodes in each
1465:Generated_Source\PSoC4/CapSense_Centroid_LL.c **** *                          coordinate set. The 1st index of distanceMap corresponds to nodes
1466:Generated_Source\PSoC4/CapSense_Centroid_LL.c **** *                          in the 1st coordinate data set, and the 2nd index of distanceMap
1467:Generated_Source\PSoC4/CapSense_Centroid_LL.c **** *                          corresponds to the 2nd coordinate data set. Each element in
1468:Generated_Source\PSoC4/CapSense_Centroid_LL.c **** *                          distanceMap is the square of the distance between the
1469:Generated_Source\PSoC4/CapSense_Centroid_LL.c **** *                          corresponding coordinates in the 1st and 2nd data set.
1470:Generated_Source\PSoC4/CapSense_Centroid_LL.c **** *
1471:Generated_Source\PSoC4/CapSense_Centroid_LL.c **** *
1472:Generated_Source\PSoC4/CapSense_Centroid_LL.c **** * \return Returns fingerPosIndex, the associations between the 1st and 2nd coordinate set are
1473:Generated_Source\PSoC4/CapSense_Centroid_LL.c **** *                          returned in the array referenced by this pointer. It is indexed
1474:Generated_Source\PSoC4/CapSense_Centroid_LL.c **** *                          by the 2nd coordinate set, and its elements are the corresponding
1475:Generated_Source\PSoC4/CapSense_Centroid_LL.c **** *                          index in the 1st coordinate set.
1476:Generated_Source\PSoC4/CapSense_Centroid_LL.c **** *
1477:Generated_Source\PSoC4/CapSense_Centroid_LL.c **** *******************************************************************************/
1478:Generated_Source\PSoC4/CapSense_Centroid_LL.c **** static void CapSense_Hungarian(uint8 rowCount, uint8 colCount, int8 *fingerPosIndex,
1479:Generated_Source\PSoC4/CapSense_Centroid_LL.c ****                              CapSense_CSX_TOUCHPAD_DISTANCE_MAP *distanceMap)
1480:Generated_Source\PSoC4/CapSense_Centroid_LL.c **** {
1481:Generated_Source\PSoC4/CapSense_Centroid_LL.c ****     int32 col[CapSense_CSX_MAX_LOCAL_PEAKS];
1482:Generated_Source\PSoC4/CapSense_Centroid_LL.c ****     int32 row[CapSense_CSX_MAX_LOCAL_PEAKS];
1483:Generated_Source\PSoC4/CapSense_Centroid_LL.c ****     int32 *mins;
1484:Generated_Source\PSoC4/CapSense_Centroid_LL.c ****     int32 delta;
1485:Generated_Source\PSoC4/CapSense_Centroid_LL.c **** 
1486:Generated_Source\PSoC4/CapSense_Centroid_LL.c ****     int8 *links;
1487:Generated_Source\PSoC4/CapSense_Centroid_LL.c ****     int8 *visited;
1488:Generated_Source\PSoC4/CapSense_Centroid_LL.c ****     int8 *markIndices;
1489:Generated_Source\PSoC4/CapSense_Centroid_LL.c **** 
1490:Generated_Source\PSoC4/CapSense_Centroid_LL.c ****     int32 colValue = 0;
1491:Generated_Source\PSoC4/CapSense_Centroid_LL.c ****     int32 markedI = 0;
1492:Generated_Source\PSoC4/CapSense_Centroid_LL.c ****     int32 markedJ = 0;
1493:Generated_Source\PSoC4/CapSense_Centroid_LL.c ****     int32 i = 0;
1494:Generated_Source\PSoC4/CapSense_Centroid_LL.c ****     int32 i1 = 0;
1495:Generated_Source\PSoC4/CapSense_Centroid_LL.c ****     int32 j = 0;
1496:Generated_Source\PSoC4/CapSense_Centroid_LL.c ****     int32 j1 = 0;
1497:Generated_Source\PSoC4/CapSense_Centroid_LL.c **** 
1498:Generated_Source\PSoC4/CapSense_Centroid_LL.c ****     mins = (int32 *)(distanceMap + CapSense_CSX_MAX_LOCAL_PEAKS);
1499:Generated_Source\PSoC4/CapSense_Centroid_LL.c ****     links = (int8 *)(mins + CapSense_CSX_MAX_LOCAL_PEAKS);
1500:Generated_Source\PSoC4/CapSense_Centroid_LL.c ****     visited = links + CapSense_CSX_MAX_LOCAL_PEAKS;
1501:Generated_Source\PSoC4/CapSense_Centroid_LL.c ****     markIndices = visited + CapSense_CSX_MAX_LOCAL_PEAKS;
1502:Generated_Source\PSoC4/CapSense_Centroid_LL.c **** 
1503:Generated_Source\PSoC4/CapSense_Centroid_LL.c ****     (void)memset(col, 0, (uint32)colCount * 4u);
1504:Generated_Source\PSoC4/CapSense_Centroid_LL.c **** 
1505:Generated_Source\PSoC4/CapSense_Centroid_LL.c ****     /* Initialize row and markIndices arrays */
1506:Generated_Source\PSoC4/CapSense_Centroid_LL.c ****     for (i1 = (int32)rowCount; i1-- > 0;)
1507:Generated_Source\PSoC4/CapSense_Centroid_LL.c ****     {
1508:Generated_Source\PSoC4/CapSense_Centroid_LL.c ****         row[i1] = 0;
1509:Generated_Source\PSoC4/CapSense_Centroid_LL.c ****         markIndices[i1] = -1;
1510:Generated_Source\PSoC4/CapSense_Centroid_LL.c ****     }
1511:Generated_Source\PSoC4/CapSense_Centroid_LL.c **** 
1512:Generated_Source\PSoC4/CapSense_Centroid_LL.c ****     /* Go through all columns */
1513:Generated_Source\PSoC4/CapSense_Centroid_LL.c ****     for (i = (int32)colCount; i-- > 0;)
1514:Generated_Source\PSoC4/CapSense_Centroid_LL.c ****     {
ARM GAS  C:\Users\YUANFA~1\AppData\Local\Temp\cctOMKNb.s 			page 35


1515:Generated_Source\PSoC4/CapSense_Centroid_LL.c ****         /* Initialize visited, links, mins arrays. They used for every column */
1516:Generated_Source\PSoC4/CapSense_Centroid_LL.c ****         for (i1 = (int32)rowCount; i1-- > 0;)
1517:Generated_Source\PSoC4/CapSense_Centroid_LL.c ****         {
1518:Generated_Source\PSoC4/CapSense_Centroid_LL.c ****             visited[i1] = 0;
1519:Generated_Source\PSoC4/CapSense_Centroid_LL.c ****             links[i1] = -1;
1520:Generated_Source\PSoC4/CapSense_Centroid_LL.c ****             mins[i1] = (int32)CapSense_CSX_TOUCHPAD_INT32;
1521:Generated_Source\PSoC4/CapSense_Centroid_LL.c ****         }
1522:Generated_Source\PSoC4/CapSense_Centroid_LL.c **** 
1523:Generated_Source\PSoC4/CapSense_Centroid_LL.c ****         /* Next two variables are used to mark column and row */
1524:Generated_Source\PSoC4/CapSense_Centroid_LL.c ****         markedI = i;
1525:Generated_Source\PSoC4/CapSense_Centroid_LL.c ****         markedJ = -1;
1526:Generated_Source\PSoC4/CapSense_Centroid_LL.c **** 
1527:Generated_Source\PSoC4/CapSense_Centroid_LL.c ****         while (markedI != -1)
1528:Generated_Source\PSoC4/CapSense_Centroid_LL.c ****         {
1529:Generated_Source\PSoC4/CapSense_Centroid_LL.c ****             j = -1;
1530:Generated_Source\PSoC4/CapSense_Centroid_LL.c ****             colValue = col[markedI];
1531:Generated_Source\PSoC4/CapSense_Centroid_LL.c **** 
1532:Generated_Source\PSoC4/CapSense_Centroid_LL.c ****             /* Go through all rows */
1533:Generated_Source\PSoC4/CapSense_Centroid_LL.c ****             for (j1 = (int32)rowCount; j1-- > 0;)
1534:Generated_Source\PSoC4/CapSense_Centroid_LL.c ****             {
1535:Generated_Source\PSoC4/CapSense_Centroid_LL.c ****                 if (visited[j1] == 0)
1536:Generated_Source\PSoC4/CapSense_Centroid_LL.c ****                 {
1537:Generated_Source\PSoC4/CapSense_Centroid_LL.c ****                     delta = distanceMap[j1][markedI] - row[j1] - colValue;
1538:Generated_Source\PSoC4/CapSense_Centroid_LL.c **** 
1539:Generated_Source\PSoC4/CapSense_Centroid_LL.c ****                     /* Find the minimum element index in column i */
1540:Generated_Source\PSoC4/CapSense_Centroid_LL.c ****                     if (mins[j1] > delta)
1541:Generated_Source\PSoC4/CapSense_Centroid_LL.c ****                     {
1542:Generated_Source\PSoC4/CapSense_Centroid_LL.c ****                         mins[j1] = delta;
1543:Generated_Source\PSoC4/CapSense_Centroid_LL.c ****                         links[j1] = (int8)markedJ;
1544:Generated_Source\PSoC4/CapSense_Centroid_LL.c ****                     }
1545:Generated_Source\PSoC4/CapSense_Centroid_LL.c **** 
1546:Generated_Source\PSoC4/CapSense_Centroid_LL.c ****                     if ((j == -1) || (mins[j1] < mins[j]))
1547:Generated_Source\PSoC4/CapSense_Centroid_LL.c ****                     {
1548:Generated_Source\PSoC4/CapSense_Centroid_LL.c ****                         j = j1;
1549:Generated_Source\PSoC4/CapSense_Centroid_LL.c ****                     }
1550:Generated_Source\PSoC4/CapSense_Centroid_LL.c ****                 }
1551:Generated_Source\PSoC4/CapSense_Centroid_LL.c ****             }
1552:Generated_Source\PSoC4/CapSense_Centroid_LL.c **** 
1553:Generated_Source\PSoC4/CapSense_Centroid_LL.c ****             delta = mins[j];
1554:Generated_Source\PSoC4/CapSense_Centroid_LL.c **** 
1555:Generated_Source\PSoC4/CapSense_Centroid_LL.c ****             /* Go through all row */
1556:Generated_Source\PSoC4/CapSense_Centroid_LL.c ****             for (j1 = (int32)rowCount; j1-- > 0;)
1557:Generated_Source\PSoC4/CapSense_Centroid_LL.c ****             {
1558:Generated_Source\PSoC4/CapSense_Centroid_LL.c ****                 if (visited[j1] != 0)
1559:Generated_Source\PSoC4/CapSense_Centroid_LL.c ****                 {
1560:Generated_Source\PSoC4/CapSense_Centroid_LL.c ****                     col[markIndices[j1]] += delta;
1561:Generated_Source\PSoC4/CapSense_Centroid_LL.c ****                     row[j1] -= delta;
1562:Generated_Source\PSoC4/CapSense_Centroid_LL.c ****                 }
1563:Generated_Source\PSoC4/CapSense_Centroid_LL.c ****                 else
1564:Generated_Source\PSoC4/CapSense_Centroid_LL.c ****                 {
1565:Generated_Source\PSoC4/CapSense_Centroid_LL.c ****                     mins[j1] -= delta;
1566:Generated_Source\PSoC4/CapSense_Centroid_LL.c ****                 }
1567:Generated_Source\PSoC4/CapSense_Centroid_LL.c ****             }
1568:Generated_Source\PSoC4/CapSense_Centroid_LL.c **** 
1569:Generated_Source\PSoC4/CapSense_Centroid_LL.c ****             col[i] +=  delta;
1570:Generated_Source\PSoC4/CapSense_Centroid_LL.c **** 
1571:Generated_Source\PSoC4/CapSense_Centroid_LL.c ****             visited[j] = 1;
ARM GAS  C:\Users\YUANFA~1\AppData\Local\Temp\cctOMKNb.s 			page 36


1572:Generated_Source\PSoC4/CapSense_Centroid_LL.c ****             markedJ = j;
1573:Generated_Source\PSoC4/CapSense_Centroid_LL.c ****             markedI = markIndices[j];
1574:Generated_Source\PSoC4/CapSense_Centroid_LL.c ****         }
1575:Generated_Source\PSoC4/CapSense_Centroid_LL.c **** 
1576:Generated_Source\PSoC4/CapSense_Centroid_LL.c ****         while (links[j] != -1)
1577:Generated_Source\PSoC4/CapSense_Centroid_LL.c ****         {
1578:Generated_Source\PSoC4/CapSense_Centroid_LL.c ****             markIndices[j] = markIndices[links[j]];
1579:Generated_Source\PSoC4/CapSense_Centroid_LL.c ****             j = links[j];
1580:Generated_Source\PSoC4/CapSense_Centroid_LL.c ****         }
1581:Generated_Source\PSoC4/CapSense_Centroid_LL.c **** 
1582:Generated_Source\PSoC4/CapSense_Centroid_LL.c ****         markIndices[j] = (int8)i;
1583:Generated_Source\PSoC4/CapSense_Centroid_LL.c ****     }
1584:Generated_Source\PSoC4/CapSense_Centroid_LL.c **** 
1585:Generated_Source\PSoC4/CapSense_Centroid_LL.c ****     /* Provide an association between two sets of touches */
1586:Generated_Source\PSoC4/CapSense_Centroid_LL.c ****     for (j = (int32)rowCount; j-- > 0;)
1587:Generated_Source\PSoC4/CapSense_Centroid_LL.c ****     {
1588:Generated_Source\PSoC4/CapSense_Centroid_LL.c ****         if (markIndices[j] != -1)
1589:Generated_Source\PSoC4/CapSense_Centroid_LL.c ****         {
1590:Generated_Source\PSoC4/CapSense_Centroid_LL.c ****             fingerPosIndex[markIndices[j]] = (int8)j;
1591:Generated_Source\PSoC4/CapSense_Centroid_LL.c ****         }
1592:Generated_Source\PSoC4/CapSense_Centroid_LL.c ****     }
1593:Generated_Source\PSoC4/CapSense_Centroid_LL.c **** }
1594:Generated_Source\PSoC4/CapSense_Centroid_LL.c **** 
1595:Generated_Source\PSoC4/CapSense_Centroid_LL.c **** 
1596:Generated_Source\PSoC4/CapSense_Centroid_LL.c **** /*******************************************************************************
1597:Generated_Source\PSoC4/CapSense_Centroid_LL.c **** * Function Name: CapSense_SortByAge
1598:Generated_Source\PSoC4/CapSense_Centroid_LL.c **** ****************************************************************************//**
1599:Generated_Source\PSoC4/CapSense_Centroid_LL.c **** *
1600:Generated_Source\PSoC4/CapSense_Centroid_LL.c **** * \brief
1601:Generated_Source\PSoC4/CapSense_Centroid_LL.c **** *   Sorts the new touches array by age (in decrementing order) and Id (in incrementing order) field
1602:Generated_Source\PSoC4/CapSense_Centroid_LL.c **** *
1603:Generated_Source\PSoC4/CapSense_Centroid_LL.c **** * \details
1604:Generated_Source\PSoC4/CapSense_Centroid_LL.c **** *   Sorts the new touches array by age (in decrementing order) and Id (in incrementing order) field
1605:Generated_Source\PSoC4/CapSense_Centroid_LL.c **** *
1606:Generated_Source\PSoC4/CapSense_Centroid_LL.c **** *******************************************************************************/
1607:Generated_Source\PSoC4/CapSense_Centroid_LL.c **** CY_INLINE static void CapSense_SortByAge(void)
1608:Generated_Source\PSoC4/CapSense_Centroid_LL.c **** {
1609:Generated_Source\PSoC4/CapSense_Centroid_LL.c ****     uint32 i;
1610:Generated_Source\PSoC4/CapSense_Centroid_LL.c ****     uint32 j;
1611:Generated_Source\PSoC4/CapSense_Centroid_LL.c ****     CapSense_CSX_TOUCHPAD_PEAK_STRUCT tempTouch;
1612:Generated_Source\PSoC4/CapSense_Centroid_LL.c ****     uint32 newTouchNum = ptrNewTouches->touchNum;
1613:Generated_Source\PSoC4/CapSense_Centroid_LL.c **** 
1614:Generated_Source\PSoC4/CapSense_Centroid_LL.c ****     /*
1615:Generated_Source\PSoC4/CapSense_Centroid_LL.c ****      * Delete failed touch by coping(rewriting) the last touch content to the failed touch.
1616:Generated_Source\PSoC4/CapSense_Centroid_LL.c ****      * If the last touch record is invalid try the penult touch record and so on.
1617:Generated_Source\PSoC4/CapSense_Centroid_LL.c ****      */
1618:Generated_Source\PSoC4/CapSense_Centroid_LL.c **** 
1619:Generated_Source\PSoC4/CapSense_Centroid_LL.c ****     for (i = 0u; i < newTouchNum; i++)
1620:Generated_Source\PSoC4/CapSense_Centroid_LL.c ****     {
1621:Generated_Source\PSoC4/CapSense_Centroid_LL.c ****         if (ptrNewTouches->touch[i].id > CapSense_CSX_TOUCHPAD_TOUCH_MAX_ID)
1622:Generated_Source\PSoC4/CapSense_Centroid_LL.c ****         {
1623:Generated_Source\PSoC4/CapSense_Centroid_LL.c ****             for (j = (newTouchNum - 1u); j > i; j--)
1624:Generated_Source\PSoC4/CapSense_Centroid_LL.c ****             {
1625:Generated_Source\PSoC4/CapSense_Centroid_LL.c ****                 /* Check the touch records from the last to the current.
1626:Generated_Source\PSoC4/CapSense_Centroid_LL.c ****                  * If the touch record is valid then replace the current touch record
1627:Generated_Source\PSoC4/CapSense_Centroid_LL.c ****                  */
1628:Generated_Source\PSoC4/CapSense_Centroid_LL.c ****                 if (ptrNewTouches->touch[j].id <= CapSense_CSX_TOUCHPAD_TOUCH_MAX_ID)
ARM GAS  C:\Users\YUANFA~1\AppData\Local\Temp\cctOMKNb.s 			page 37


1629:Generated_Source\PSoC4/CapSense_Centroid_LL.c ****                 {
1630:Generated_Source\PSoC4/CapSense_Centroid_LL.c ****                     CapSense_CopyTouchRecord(&ptrNewTouches->touch[i], &ptrNewTouches->touch[j]);
1631:Generated_Source\PSoC4/CapSense_Centroid_LL.c **** 
1632:Generated_Source\PSoC4/CapSense_Centroid_LL.c ****                     /* Finish the loop. The valid touch record is found and copied down */
1633:Generated_Source\PSoC4/CapSense_Centroid_LL.c ****                     break;
1634:Generated_Source\PSoC4/CapSense_Centroid_LL.c ****                 }
1635:Generated_Source\PSoC4/CapSense_Centroid_LL.c ****                 else
1636:Generated_Source\PSoC4/CapSense_Centroid_LL.c ****                 {
1637:Generated_Source\PSoC4/CapSense_Centroid_LL.c ****                     /* Decrement the number of touch records.
1638:Generated_Source\PSoC4/CapSense_Centroid_LL.c ****                      * The last touch record is invalid - try the penult touch record
1639:Generated_Source\PSoC4/CapSense_Centroid_LL.c ****                      */
1640:Generated_Source\PSoC4/CapSense_Centroid_LL.c ****                     newTouchNum--;
1641:Generated_Source\PSoC4/CapSense_Centroid_LL.c ****                 }
1642:Generated_Source\PSoC4/CapSense_Centroid_LL.c ****             }
1643:Generated_Source\PSoC4/CapSense_Centroid_LL.c **** 
1644:Generated_Source\PSoC4/CapSense_Centroid_LL.c ****             /* Decrement the number of touch records.
1645:Generated_Source\PSoC4/CapSense_Centroid_LL.c ****              * The last touch record is valid and copied to the current position (i)
1646:Generated_Source\PSoC4/CapSense_Centroid_LL.c ****              */
1647:Generated_Source\PSoC4/CapSense_Centroid_LL.c ****             newTouchNum--;
1648:Generated_Source\PSoC4/CapSense_Centroid_LL.c ****         }
1649:Generated_Source\PSoC4/CapSense_Centroid_LL.c ****     }
1650:Generated_Source\PSoC4/CapSense_Centroid_LL.c **** 
1651:Generated_Source\PSoC4/CapSense_Centroid_LL.c ****     /* Set new number of touches */
1652:Generated_Source\PSoC4/CapSense_Centroid_LL.c ****     ptrNewTouches->touchNum = (uint8)newTouchNum;
1653:Generated_Source\PSoC4/CapSense_Centroid_LL.c **** 
1654:Generated_Source\PSoC4/CapSense_Centroid_LL.c ****     /* Sort new touches structure */
1655:Generated_Source\PSoC4/CapSense_Centroid_LL.c ****     for (i = 0u; i < newTouchNum; i++)
1656:Generated_Source\PSoC4/CapSense_Centroid_LL.c ****     {
1657:Generated_Source\PSoC4/CapSense_Centroid_LL.c ****         for (j = (i + 1u); j < newTouchNum; j++)
1658:Generated_Source\PSoC4/CapSense_Centroid_LL.c ****         {
1659:Generated_Source\PSoC4/CapSense_Centroid_LL.c ****             /* if next touches have higher age or lower id with the same age then swap touches */
1660:Generated_Source\PSoC4/CapSense_Centroid_LL.c ****             if ((ptrNewTouches->touch[i].age < ptrNewTouches->touch[j].age)      ||
1661:Generated_Source\PSoC4/CapSense_Centroid_LL.c ****                 ((ptrNewTouches->touch[i].age == ptrNewTouches->touch[j].age) &&
1662:Generated_Source\PSoC4/CapSense_Centroid_LL.c ****                  (ptrNewTouches->touch[i].id > ptrNewTouches->touch[j].id)))
1663:Generated_Source\PSoC4/CapSense_Centroid_LL.c ****             {
1664:Generated_Source\PSoC4/CapSense_Centroid_LL.c ****                 /* Swap touches */
1665:Generated_Source\PSoC4/CapSense_Centroid_LL.c ****                 CapSense_CopyTouchRecord(&tempTouch, &ptrNewTouches->touch[i]);
1666:Generated_Source\PSoC4/CapSense_Centroid_LL.c ****                 CapSense_CopyTouchRecord(&ptrNewTouches->touch[i], &ptrNewTouches->touch[j]);
1667:Generated_Source\PSoC4/CapSense_Centroid_LL.c ****                 CapSense_CopyTouchRecord(&ptrNewTouches->touch[j], &tempTouch);
1668:Generated_Source\PSoC4/CapSense_Centroid_LL.c ****             }
1669:Generated_Source\PSoC4/CapSense_Centroid_LL.c ****         }
1670:Generated_Source\PSoC4/CapSense_Centroid_LL.c ****     }
1671:Generated_Source\PSoC4/CapSense_Centroid_LL.c **** }
1672:Generated_Source\PSoC4/CapSense_Centroid_LL.c **** 
1673:Generated_Source\PSoC4/CapSense_Centroid_LL.c **** 
1674:Generated_Source\PSoC4/CapSense_Centroid_LL.c **** /*******************************************************************************
1675:Generated_Source\PSoC4/CapSense_Centroid_LL.c **** * Function Name: CapSense_CopyTouchRecord
1676:Generated_Source\PSoC4/CapSense_Centroid_LL.c **** ****************************************************************************//**
1677:Generated_Source\PSoC4/CapSense_Centroid_LL.c **** *
1678:Generated_Source\PSoC4/CapSense_Centroid_LL.c **** * \brief
1679:Generated_Source\PSoC4/CapSense_Centroid_LL.c **** *   Copies content from the source touch structure to the destination touch structure.
1680:Generated_Source\PSoC4/CapSense_Centroid_LL.c **** *
1681:Generated_Source\PSoC4/CapSense_Centroid_LL.c **** * \details
1682:Generated_Source\PSoC4/CapSense_Centroid_LL.c **** *   Copies content from the source touch structure to the destination touch structure.
1683:Generated_Source\PSoC4/CapSense_Centroid_LL.c **** *
1684:Generated_Source\PSoC4/CapSense_Centroid_LL.c **** * \param *destination The pointer to the destination touch structure.
1685:Generated_Source\PSoC4/CapSense_Centroid_LL.c **** * \param *source      The pointer to the source touch structure.
ARM GAS  C:\Users\YUANFA~1\AppData\Local\Temp\cctOMKNb.s 			page 38


1686:Generated_Source\PSoC4/CapSense_Centroid_LL.c **** *
1687:Generated_Source\PSoC4/CapSense_Centroid_LL.c **** *******************************************************************************/
1688:Generated_Source\PSoC4/CapSense_Centroid_LL.c **** static void CapSense_CopyTouchRecord(CapSense_CSX_TOUCHPAD_PEAK_STRUCT *destination,
1689:Generated_Source\PSoC4/CapSense_Centroid_LL.c ****                                                        CapSense_CSX_TOUCHPAD_PEAK_STRUCT *source)
1690:Generated_Source\PSoC4/CapSense_Centroid_LL.c **** {
 410              		.loc 1 1690 0
 411              		.cfi_startproc
 412              		@ args = 0, pretend = 0, frame = 0
 413              		@ frame_needed = 0, uses_anonymous_args = 0
 414              		@ link register save eliminated.
 415              	.LVL51:
1691:Generated_Source\PSoC4/CapSense_Centroid_LL.c ****     destination->x        =  source->x;
 416              		.loc 1 1691 0
 417 0000 0B88     		ldrh	r3, [r1]
 418 0002 0380     		strh	r3, [r0]
1692:Generated_Source\PSoC4/CapSense_Centroid_LL.c ****     destination->y        =  source->y;
 419              		.loc 1 1692 0
 420 0004 4B88     		ldrh	r3, [r1, #2]
 421 0006 4380     		strh	r3, [r0, #2]
1693:Generated_Source\PSoC4/CapSense_Centroid_LL.c ****     destination->z        =  source->z;
 422              		.loc 1 1693 0
 423 0008 0B7A     		ldrb	r3, [r1, #8]
 424 000a 0372     		strb	r3, [r0, #8]
1694:Generated_Source\PSoC4/CapSense_Centroid_LL.c ****     destination->rawCount =  source->rawCount;
 425              		.loc 1 1694 0
 426 000c 8B88     		ldrh	r3, [r1, #4]
 427 000e 8380     		strh	r3, [r0, #4]
1695:Generated_Source\PSoC4/CapSense_Centroid_LL.c ****     destination->id       =  source->id;
 428              		.loc 1 1695 0
 429 0010 4B7A     		ldrb	r3, [r1, #9]
 430 0012 4372     		strb	r3, [r0, #9]
1696:Generated_Source\PSoC4/CapSense_Centroid_LL.c ****     destination->age      =  source->age;
 431              		.loc 1 1696 0
 432 0014 CB88     		ldrh	r3, [r1, #6]
 433 0016 C380     		strh	r3, [r0, #6]
1697:Generated_Source\PSoC4/CapSense_Centroid_LL.c ****     destination->debounce =  source->debounce;
 434              		.loc 1 1697 0
 435 0018 8B7A     		ldrb	r3, [r1, #10]
 436 001a 8372     		strb	r3, [r0, #10]
1698:Generated_Source\PSoC4/CapSense_Centroid_LL.c **** }
 437              		.loc 1 1698 0
 438              		@ sp needed
 439 001c 7047     		bx	lr
 440              		.cfi_endproc
 441              	.LFE12:
 442              		.size	CapSense_CopyTouchRecord, .-CapSense_CopyTouchRecord
 443 001e C046     		.section	.text.CapSense_Hungarian,"ax",%progbits
 444              		.align	2
 445              		.code	16
 446              		.thumb_func
 447              		.type	CapSense_Hungarian, %function
 448              	CapSense_Hungarian:
 449              	.LFB10:
1480:Generated_Source\PSoC4/CapSense_Centroid_LL.c ****     int32 col[CapSense_CSX_MAX_LOCAL_PEAKS];
 450              		.loc 1 1480 0
 451              		.cfi_startproc
 452              		@ args = 0, pretend = 0, frame = 56
ARM GAS  C:\Users\YUANFA~1\AppData\Local\Temp\cctOMKNb.s 			page 39


 453              		@ frame_needed = 0, uses_anonymous_args = 0
 454              	.LVL52:
 455 0000 F0B5     		push	{r4, r5, r6, r7, lr}
 456              		.cfi_def_cfa_offset 20
 457              		.cfi_offset 4, -20
 458              		.cfi_offset 5, -16
 459              		.cfi_offset 6, -12
 460              		.cfi_offset 7, -8
 461              		.cfi_offset 14, -4
 462 0002 5F46     		mov	r7, fp
 463 0004 5646     		mov	r6, r10
 464 0006 4D46     		mov	r5, r9
 465 0008 4446     		mov	r4, r8
 466 000a F0B4     		push	{r4, r5, r6, r7}
 467              		.cfi_def_cfa_offset 36
 468              		.cfi_offset 8, -36
 469              		.cfi_offset 9, -32
 470              		.cfi_offset 10, -28
 471              		.cfi_offset 11, -24
 472 000c 8FB0     		sub	sp, sp, #60
 473              		.cfi_def_cfa_offset 96
 474 000e 0090     		str	r0, [sp]
 475 0010 0F00     		movs	r7, r1
 476 0012 0392     		str	r2, [sp, #12]
 477 0014 9A46     		mov	r10, r3
 478              	.LVL53:
1498:Generated_Source\PSoC4/CapSense_Centroid_LL.c ****     links = (int8 *)(mins + CapSense_CSX_MAX_LOCAL_PEAKS);
 479              		.loc 1 1498 0
 480 0016 1D00     		movs	r5, r3
 481 0018 6435     		adds	r5, r5, #100
 482              	.LVL54:
1499:Generated_Source\PSoC4/CapSense_Centroid_LL.c ****     visited = links + CapSense_CSX_MAX_LOCAL_PEAKS;
 483              		.loc 1 1499 0
 484 001a 7823     		movs	r3, #120
 485              	.LVL55:
 486 001c 5344     		add	r3, r3, r10
 487 001e 9B46     		mov	fp, r3
 488              	.LVL56:
1500:Generated_Source\PSoC4/CapSense_Centroid_LL.c ****     markIndices = visited + CapSense_CSX_MAX_LOCAL_PEAKS;
 489              		.loc 1 1500 0
 490 0020 5446     		mov	r4, r10
 491 0022 7D34     		adds	r4, r4, #125
 492              	.LVL57:
1501:Generated_Source\PSoC4/CapSense_Centroid_LL.c **** 
 493              		.loc 1 1501 0
 494 0024 5646     		mov	r6, r10
 495 0026 8236     		adds	r6, r6, #130
 496              	.LVL58:
1503:Generated_Source\PSoC4/CapSense_Centroid_LL.c **** 
 497              		.loc 1 1503 0
 498 0028 8A00     		lsls	r2, r1, #2
 499              	.LVL59:
 500 002a 0021     		movs	r1, #0
 501              	.LVL60:
 502 002c 09A8     		add	r0, sp, #36
 503              	.LVL61:
 504 002e FFF7FEFF 		bl	memset
ARM GAS  C:\Users\YUANFA~1\AppData\Local\Temp\cctOMKNb.s 			page 40


 505              	.LVL62:
1506:Generated_Source\PSoC4/CapSense_Centroid_LL.c ****     {
 506              		.loc 1 1506 0
 507 0032 009B     		ldr	r3, [sp]
 508 0034 0193     		str	r3, [sp, #4]
 509              	.LVL63:
 510 0036 06E0     		b	.L32
 511              	.LVL64:
 512              	.L33:
1508:Generated_Source\PSoC4/CapSense_Centroid_LL.c ****         markIndices[i1] = -1;
 513              		.loc 1 1508 0
 514 0038 9300     		lsls	r3, r2, #2
 515 003a 0021     		movs	r1, #0
 516 003c 04A8     		add	r0, sp, #16
 517 003e 1950     		str	r1, [r3, r0]
1509:Generated_Source\PSoC4/CapSense_Centroid_LL.c ****     }
 518              		.loc 1 1509 0
 519 0040 FF23     		movs	r3, #255
 520 0042 B354     		strb	r3, [r6, r2]
1506:Generated_Source\PSoC4/CapSense_Centroid_LL.c ****     {
 521              		.loc 1 1506 0
 522 0044 1300     		movs	r3, r2
 523              	.LVL65:
 524              	.L32:
1506:Generated_Source\PSoC4/CapSense_Centroid_LL.c ****     {
 525              		.loc 1 1506 0 is_stmt 0 discriminator 1
 526 0046 5A1E     		subs	r2, r3, #1
 527              	.LVL66:
 528 0048 002B     		cmp	r3, #0
 529 004a F5DC     		bgt	.L33
1513:Generated_Source\PSoC4/CapSense_Centroid_LL.c ****     {
 530              		.loc 1 1513 0 is_stmt 1
 531 004c 3B00     		movs	r3, r7
 532              	.LVL67:
1495:Generated_Source\PSoC4/CapSense_Centroid_LL.c ****     int32 j1 = 0;
 533              		.loc 1 1495 0
 534 004e 0027     		movs	r7, #0
 535 0050 B446     		mov	ip, r6
1513:Generated_Source\PSoC4/CapSense_Centroid_LL.c ****     {
 536              		.loc 1 1513 0
 537 0052 8AE0     		b	.L34
 538              	.LVL68:
 539              	.L35:
1518:Generated_Source\PSoC4/CapSense_Centroid_LL.c ****             links[i1] = -1;
 540              		.loc 1 1518 0
 541 0054 E218     		adds	r2, r4, r3
 542 0056 0021     		movs	r1, #0
 543 0058 1170     		strb	r1, [r2]
1519:Generated_Source\PSoC4/CapSense_Centroid_LL.c ****             mins[i1] = (int32)CapSense_CSX_TOUCHPAD_INT32;
 544              		.loc 1 1519 0
 545 005a FF22     		movs	r2, #255
 546 005c C254     		strb	r2, [r0, r3]
1520:Generated_Source\PSoC4/CapSense_Centroid_LL.c ****         }
 547              		.loc 1 1520 0
 548 005e 9A00     		lsls	r2, r3, #2
 549 0060 4E49     		ldr	r1, .L55
 550 0062 A950     		str	r1, [r5, r2]
ARM GAS  C:\Users\YUANFA~1\AppData\Local\Temp\cctOMKNb.s 			page 41


1516:Generated_Source\PSoC4/CapSense_Centroid_LL.c ****         {
 551              		.loc 1 1516 0
 552 0064 1A00     		movs	r2, r3
 553 0066 01E0     		b	.L48
 554              	.LVL69:
 555              	.L54:
 556 0068 019A     		ldr	r2, [sp, #4]
 557              	.LVL70:
 558 006a 5846     		mov	r0, fp
 559              	.LVL71:
 560              	.L48:
1516:Generated_Source\PSoC4/CapSense_Centroid_LL.c ****         {
 561              		.loc 1 1516 0 is_stmt 0 discriminator 1
 562 006c 531E     		subs	r3, r2, #1
 563              	.LVL72:
 564 006e 002A     		cmp	r2, #0
 565 0070 F0DC     		bgt	.L35
 566 0072 8346     		mov	fp, r0
 567 0074 029E     		ldr	r6, [sp, #8]
 568 0076 0123     		movs	r3, #1
 569              	.LVL73:
 570 0078 5B42     		rsbs	r3, r3, #0
 571 007a 9946     		mov	r9, r3
 572 007c 5EE0     		b	.L36
 573              	.LVL74:
 574              	.L45:
1530:Generated_Source\PSoC4/CapSense_Centroid_LL.c **** 
 575              		.loc 1 1530 0 is_stmt 1
 576 007e B300     		lsls	r3, r6, #2
 577 0080 09AA     		add	r2, sp, #36
 578 0082 9B58     		ldr	r3, [r3, r2]
 579 0084 9846     		mov	r8, r3
 580              	.LVL75:
1533:Generated_Source\PSoC4/CapSense_Centroid_LL.c ****             {
 581              		.loc 1 1533 0
 582 0086 019A     		ldr	r2, [sp, #4]
1529:Generated_Source\PSoC4/CapSense_Centroid_LL.c ****             colValue = col[markedI];
 583              		.loc 1 1529 0
 584 0088 0127     		movs	r7, #1
 585 008a 7F42     		rsbs	r7, r7, #0
 586 008c 0096     		str	r6, [sp]
1533:Generated_Source\PSoC4/CapSense_Centroid_LL.c ****             {
 587              		.loc 1 1533 0
 588 008e 22E0     		b	.L37
 589              	.LVL76:
 590              	.L40:
1535:Generated_Source\PSoC4/CapSense_Centroid_LL.c ****                 {
 591              		.loc 1 1535 0
 592 0090 E256     		ldrsb	r2, [r4, r3]
 593 0092 002A     		cmp	r2, #0
 594 0094 1ED1     		bne	.L38
1537:Generated_Source\PSoC4/CapSense_Centroid_LL.c **** 
 595              		.loc 1 1537 0
 596 0096 9900     		lsls	r1, r3, #2
 597 0098 C818     		adds	r0, r1, r3
 598 009a 8200     		lsls	r2, r0, #2
 599 009c 5244     		add	r2, r2, r10
ARM GAS  C:\Users\YUANFA~1\AppData\Local\Temp\cctOMKNb.s 			page 42


 600 009e 0098     		ldr	r0, [sp]
 601 00a0 8000     		lsls	r0, r0, #2
 602 00a2 8258     		ldr	r2, [r0, r2]
 603 00a4 04AE     		add	r6, sp, #16
 604 00a6 8859     		ldr	r0, [r1, r6]
 605 00a8 121A     		subs	r2, r2, r0
 606 00aa 4046     		mov	r0, r8
 607 00ac 121A     		subs	r2, r2, r0
 608              	.LVL77:
1540:Generated_Source\PSoC4/CapSense_Centroid_LL.c ****                     {
 609              		.loc 1 1540 0
 610 00ae 6918     		adds	r1, r5, r1
 611 00b0 0868     		ldr	r0, [r1]
 612 00b2 8242     		cmp	r2, r0
 613 00b4 03DA     		bge	.L39
1542:Generated_Source\PSoC4/CapSense_Centroid_LL.c ****                         links[j1] = (int8)markedJ;
 614              		.loc 1 1542 0
 615 00b6 0A60     		str	r2, [r1]
1543:Generated_Source\PSoC4/CapSense_Centroid_LL.c ****                     }
 616              		.loc 1 1543 0
 617 00b8 5A46     		mov	r2, fp
 618              	.LVL78:
 619 00ba 4846     		mov	r0, r9
 620 00bc D054     		strb	r0, [r2, r3]
 621              	.LVL79:
 622              	.L39:
1546:Generated_Source\PSoC4/CapSense_Centroid_LL.c ****                     {
 623              		.loc 1 1546 0
 624 00be 7A1C     		adds	r2, r7, #1
 625 00c0 05D0     		beq	.L52
1546:Generated_Source\PSoC4/CapSense_Centroid_LL.c ****                     {
 626              		.loc 1 1546 0 is_stmt 0 discriminator 1
 627 00c2 0968     		ldr	r1, [r1]
 628 00c4 BA00     		lsls	r2, r7, #2
 629 00c6 5259     		ldr	r2, [r2, r5]
 630 00c8 9142     		cmp	r1, r2
 631 00ca 02DB     		blt	.L53
 632 00cc 02E0     		b	.L38
 633              	.L52:
1548:Generated_Source\PSoC4/CapSense_Centroid_LL.c ****                     }
 634              		.loc 1 1548 0 is_stmt 1
 635 00ce 1F00     		movs	r7, r3
 636              	.LVL80:
 637 00d0 00E0     		b	.L38
 638              	.LVL81:
 639              	.L53:
 640 00d2 1F00     		movs	r7, r3
 641              	.LVL82:
 642              	.L38:
 643 00d4 1A00     		movs	r2, r3
 644              	.LVL83:
 645              	.L37:
1533:Generated_Source\PSoC4/CapSense_Centroid_LL.c ****             {
 646              		.loc 1 1533 0 discriminator 1
 647 00d6 531E     		subs	r3, r2, #1
 648              	.LVL84:
 649 00d8 002A     		cmp	r2, #0
ARM GAS  C:\Users\YUANFA~1\AppData\Local\Temp\cctOMKNb.s 			page 43


 650 00da D9DC     		bgt	.L40
1553:Generated_Source\PSoC4/CapSense_Centroid_LL.c **** 
 651              		.loc 1 1553 0
 652 00dc B846     		mov	r8, r7
 653              	.LVL85:
 654 00de BB00     		lsls	r3, r7, #2
 655              	.LVL86:
 656 00e0 E858     		ldr	r0, [r5, r3]
 657              	.LVL87:
1556:Generated_Source\PSoC4/CapSense_Centroid_LL.c ****             {
 658              		.loc 1 1556 0
 659 00e2 019B     		ldr	r3, [sp, #4]
 660 00e4 6146     		mov	r1, ip
 661 00e6 BC46     		mov	ip, r7
 662              	.LVL88:
 663 00e8 16E0     		b	.L41
 664              	.LVL89:
 665              	.L44:
1558:Generated_Source\PSoC4/CapSense_Centroid_LL.c ****                 {
 666              		.loc 1 1558 0
 667 00ea A356     		ldrsb	r3, [r4, r2]
 668 00ec 002B     		cmp	r3, #0
 669 00ee 0DD0     		beq	.L42
1560:Generated_Source\PSoC4/CapSense_Centroid_LL.c ****                     row[j1] -= delta;
 670              		.loc 1 1560 0
 671 00f0 8E56     		ldrsb	r6, [r1, r2]
 672 00f2 09AB     		add	r3, sp, #36
 673 00f4 B600     		lsls	r6, r6, #2
 674 00f6 F758     		ldr	r7, [r6, r3]
 675 00f8 3F18     		adds	r7, r7, r0
 676 00fa F750     		str	r7, [r6, r3]
1561:Generated_Source\PSoC4/CapSense_Centroid_LL.c ****                 }
 677              		.loc 1 1561 0
 678 00fc 9600     		lsls	r6, r2, #2
 679 00fe 04AB     		add	r3, sp, #16
 680 0100 F358     		ldr	r3, [r6, r3]
 681 0102 0093     		str	r3, [sp]
 682 0104 1B1A     		subs	r3, r3, r0
 683 0106 04AF     		add	r7, sp, #16
 684 0108 F351     		str	r3, [r6, r7]
 685 010a 04E0     		b	.L43
 686              	.L42:
1565:Generated_Source\PSoC4/CapSense_Centroid_LL.c ****                 }
 687              		.loc 1 1565 0
 688 010c 9300     		lsls	r3, r2, #2
 689 010e EB18     		adds	r3, r5, r3
 690 0110 1E68     		ldr	r6, [r3]
 691 0112 361A     		subs	r6, r6, r0
 692 0114 1E60     		str	r6, [r3]
 693              	.L43:
 694 0116 1300     		movs	r3, r2
 695              	.LVL90:
 696              	.L41:
1556:Generated_Source\PSoC4/CapSense_Centroid_LL.c ****             {
 697              		.loc 1 1556 0 discriminator 1
 698 0118 5A1E     		subs	r2, r3, #1
 699              	.LVL91:
ARM GAS  C:\Users\YUANFA~1\AppData\Local\Temp\cctOMKNb.s 			page 44


 700 011a 002B     		cmp	r3, #0
 701 011c E5DC     		bgt	.L44
 702 011e 6746     		mov	r7, ip
 703 0120 8C46     		mov	ip, r1
1569:Generated_Source\PSoC4/CapSense_Centroid_LL.c **** 
 704              		.loc 1 1569 0
 705 0122 09AB     		add	r3, sp, #36
 706 0124 029A     		ldr	r2, [sp, #8]
 707              	.LVL92:
 708 0126 9200     		lsls	r2, r2, #2
 709 0128 D158     		ldr	r1, [r2, r3]
 710              	.LVL93:
 711 012a 8946     		mov	r9, r1
 712              	.LVL94:
 713 012c 4844     		add	r0, r0, r9
 714              	.LVL95:
 715 012e D050     		str	r0, [r2, r3]
1571:Generated_Source\PSoC4/CapSense_Centroid_LL.c ****             markedJ = j;
 716              		.loc 1 1571 0
 717 0130 0123     		movs	r3, #1
 718 0132 4246     		mov	r2, r8
 719 0134 A354     		strb	r3, [r4, r2]
 720              	.LVL96:
1573:Generated_Source\PSoC4/CapSense_Centroid_LL.c ****         }
 721              		.loc 1 1573 0
 722 0136 6346     		mov	r3, ip
 723 0138 9E56     		ldrsb	r6, [r3, r2]
 724              	.LVL97:
1572:Generated_Source\PSoC4/CapSense_Centroid_LL.c ****             markedI = markIndices[j];
 725              		.loc 1 1572 0
 726 013a B946     		mov	r9, r7
 727              	.LVL98:
 728              	.L36:
1527:Generated_Source\PSoC4/CapSense_Centroid_LL.c ****         {
 729              		.loc 1 1527 0
 730 013c 731C     		adds	r3, r6, #1
 731 013e 9ED1     		bne	.L45
 732 0140 5E46     		mov	r6, fp
 733              	.LVL99:
 734 0142 A046     		mov	r8, r4
 735 0144 6046     		mov	r0, ip
 736 0146 03E0     		b	.L46
 737              	.LVL100:
 738              	.L47:
1578:Generated_Source\PSoC4/CapSense_Centroid_LL.c ****             j = links[j];
 739              		.loc 1 1578 0
 740 0148 8356     		ldrsb	r3, [r0, r2]
 741              	.LVL101:
 742 014a C355     		strb	r3, [r0, r7]
1579:Generated_Source\PSoC4/CapSense_Centroid_LL.c ****         }
 743              		.loc 1 1579 0
 744 014c 0027     		movs	r7, #0
 745              	.LVL102:
 746 014e CF57     		ldrsb	r7, [r1, r7]
 747              	.LVL103:
 748              	.L46:
1576:Generated_Source\PSoC4/CapSense_Centroid_LL.c ****         {
ARM GAS  C:\Users\YUANFA~1\AppData\Local\Temp\cctOMKNb.s 			page 45


 749              		.loc 1 1576 0
 750 0150 3B00     		movs	r3, r7
 751 0152 F119     		adds	r1, r6, r7
 752 0154 0022     		movs	r2, #0
 753 0156 8A56     		ldrsb	r2, [r1, r2]
 754 0158 541C     		adds	r4, r2, #1
 755 015a F5D1     		bne	.L47
 756              	.LVL104:
 757 015c B346     		mov	fp, r6
 758 015e 4446     		mov	r4, r8
 759 0160 8446     		mov	ip, r0
1582:Generated_Source\PSoC4/CapSense_Centroid_LL.c ****     }
 760              		.loc 1 1582 0
 761 0162 0200     		movs	r2, r0
 762 0164 0298     		ldr	r0, [sp, #8]
 763              	.LVL105:
 764 0166 D054     		strb	r0, [r2, r3]
1513:Generated_Source\PSoC4/CapSense_Centroid_LL.c ****     {
 765              		.loc 1 1513 0
 766 0168 0300     		movs	r3, r0
 767              	.LVL106:
 768              	.L34:
1513:Generated_Source\PSoC4/CapSense_Centroid_LL.c ****     {
 769              		.loc 1 1513 0 is_stmt 0 discriminator 1
 770 016a 5A1E     		subs	r2, r3, #1
 771 016c 0292     		str	r2, [sp, #8]
 772              	.LVL107:
 773 016e 002B     		cmp	r3, #0
 774 0170 00DD     		ble	.LCB868
 775 0172 79E7     		b	.L54	@long jump
 776              	.LCB868:
 777 0174 6646     		mov	r6, ip
 778 0176 019A     		ldr	r2, [sp, #4]
 779              	.LVL108:
 780 0178 0399     		ldr	r1, [sp, #12]
 781 017a 04E0     		b	.L49
 782              	.LVL109:
 783              	.L51:
1588:Generated_Source\PSoC4/CapSense_Centroid_LL.c ****         {
 784              		.loc 1 1588 0 is_stmt 1
 785 017c F256     		ldrsb	r2, [r6, r3]
 786 017e 501C     		adds	r0, r2, #1
 787 0180 00D0     		beq	.L50
1590:Generated_Source\PSoC4/CapSense_Centroid_LL.c ****         }
 788              		.loc 1 1590 0
 789 0182 8B54     		strb	r3, [r1, r2]
 790              	.L50:
 791 0184 1A00     		movs	r2, r3
 792              	.LVL110:
 793              	.L49:
1586:Generated_Source\PSoC4/CapSense_Centroid_LL.c ****     {
 794              		.loc 1 1586 0 discriminator 1
 795 0186 531E     		subs	r3, r2, #1
 796              	.LVL111:
 797 0188 002A     		cmp	r2, #0
 798 018a F7DC     		bgt	.L51
1593:Generated_Source\PSoC4/CapSense_Centroid_LL.c **** 
ARM GAS  C:\Users\YUANFA~1\AppData\Local\Temp\cctOMKNb.s 			page 46


 799              		.loc 1 1593 0
 800 018c 0FB0     		add	sp, sp, #60
 801              		@ sp needed
 802              	.LVL112:
 803              	.LVL113:
 804              	.LVL114:
 805              	.LVL115:
 806              	.LVL116:
 807 018e 3CBC     		pop	{r2, r3, r4, r5}
 808 0190 9046     		mov	r8, r2
 809 0192 9946     		mov	r9, r3
 810 0194 A246     		mov	r10, r4
 811 0196 AB46     		mov	fp, r5
 812 0198 F0BD     		pop	{r4, r5, r6, r7, pc}
 813              	.L56:
 814 019a C046     		.align	2
 815              	.L55:
 816 019c FFFFFF7F 		.word	2147483647
 817              		.cfi_endproc
 818              	.LFE10:
 819              		.size	CapSense_Hungarian, .-CapSense_Hungarian
 820              		.section	.text.CapSense_DpFindLocalMaxDd,"ax",%progbits
 821              		.align	2
 822              		.global	CapSense_DpFindLocalMaxDd
 823              		.code	16
 824              		.thumb_func
 825              		.type	CapSense_DpFindLocalMaxDd, %function
 826              	CapSense_DpFindLocalMaxDd:
 827              	.LFB1:
 684:Generated_Source\PSoC4/CapSense_Centroid_LL.c ****     CapSense_RAM_WD_CSX_TOUCHPAD_STRUCT *ptrWidgetRam = ptrFlashWdgt->ptr2WdgtRam;
 828              		.loc 1 684 0
 829              		.cfi_startproc
 830              		@ args = 0, pretend = 0, frame = 0
 831              		@ frame_needed = 0, uses_anonymous_args = 0
 832              	.LVL117:
 833 0000 F0B5     		push	{r4, r5, r6, r7, lr}
 834              		.cfi_def_cfa_offset 20
 835              		.cfi_offset 4, -20
 836              		.cfi_offset 5, -16
 837              		.cfi_offset 6, -12
 838              		.cfi_offset 7, -8
 839              		.cfi_offset 14, -4
 840 0002 5F46     		mov	r7, fp
 841 0004 5646     		mov	r6, r10
 842 0006 4D46     		mov	r5, r9
 843 0008 4446     		mov	r4, r8
 844 000a F0B4     		push	{r4, r5, r6, r7}
 845              		.cfi_def_cfa_offset 36
 846              		.cfi_offset 8, -36
 847              		.cfi_offset 9, -32
 848              		.cfi_offset 10, -28
 849              		.cfi_offset 11, -24
 685:Generated_Source\PSoC4/CapSense_Centroid_LL.c ****     CapSense_RAM_SNS_STRUCT *ptrSensor =  ptrFlashWdgt->ptr2SnsRam;
 850              		.loc 1 685 0
 851 000c 4268     		ldr	r2, [r0, #4]
 852              	.LVL118:
 686:Generated_Source\PSoC4/CapSense_Centroid_LL.c ****     uint16 signalThreshold = (uint16)ptrWidgetRam->fingerTh - ptrWidgetRam->hysteresis;
ARM GAS  C:\Users\YUANFA~1\AppData\Local\Temp\cctOMKNb.s 			page 47


 853              		.loc 1 686 0
 854 000e 8168     		ldr	r1, [r0, #8]
 855              	.LVL119:
 687:Generated_Source\PSoC4/CapSense_Centroid_LL.c ****     uint16 currDiff;
 856              		.loc 1 687 0
 857 0010 9388     		ldrh	r3, [r2, #4]
 858 0012 127A     		ldrb	r2, [r2, #8]
 859              	.LVL120:
 860 0014 9B1A     		subs	r3, r3, r2
 861 0016 9BB2     		uxth	r3, r3
 862 0018 9C46     		mov	ip, r3
 863              	.LVL121:
 692:Generated_Source\PSoC4/CapSense_Centroid_LL.c ****     uint8 lastTx = ptrFlashWdgt->numRows - 1u;
 864              		.loc 1 692 0
 865 001a C37E     		ldrb	r3, [r0, #27]
 866 001c 013B     		subs	r3, r3, #1
 867 001e DBB2     		uxtb	r3, r3
 868 0020 9846     		mov	r8, r3
 869              	.LVL122:
 693:Generated_Source\PSoC4/CapSense_Centroid_LL.c ****     uint32 proceed = 0u;
 870              		.loc 1 693 0
 871 0022 067F     		ldrb	r6, [r0, #28]
 872 0024 751E     		subs	r5, r6, #1
 873 0026 EDB2     		uxtb	r5, r5
 874              	.LVL123:
 697:Generated_Source\PSoC4/CapSense_Centroid_LL.c **** 
 875              		.loc 1 697 0
 876 0028 0020     		movs	r0, #0
 877              	.LVL124:
 878 002a 3C23     		movs	r3, #60
 879 002c 5B4A     		ldr	r2, .L82
 880 002e D054     		strb	r0, [r2, r3]
 881              	.LVL125:
 700:Generated_Source\PSoC4/CapSense_Centroid_LL.c ****     {
 882              		.loc 1 700 0
 883 0030 0023     		movs	r3, #0
 884 0032 9B46     		mov	fp, r3
 885 0034 A9E0     		b	.L58
 886              	.LVL126:
 887              	.L69:
 707:Generated_Source\PSoC4/CapSense_Centroid_LL.c **** 
 888              		.loc 1 707 0
 889 0036 0889     		ldrh	r0, [r1, #8]
 890              	.LVL127:
 709:Generated_Source\PSoC4/CapSense_Centroid_LL.c ****             {
 891              		.loc 1 709 0
 892 0038 8445     		cmp	ip, r0
 893 003a 01D8     		bhi	.L71
 705:Generated_Source\PSoC4/CapSense_Centroid_LL.c **** 
 894              		.loc 1 705 0
 895 003c 0023     		movs	r3, #0
 896 003e 00E0     		b	.L59
 897              	.L71:
 711:Generated_Source\PSoC4/CapSense_Centroid_LL.c ****             }
 898              		.loc 1 711 0
 899 0040 0123     		movs	r3, #1
 900              	.L59:
ARM GAS  C:\Users\YUANFA~1\AppData\Local\Temp\cctOMKNb.s 			page 48


 901              	.LVL128:
 718:Generated_Source\PSoC4/CapSense_Centroid_LL.c ****             {
 902              		.loc 1 718 0
 903 0042 002B     		cmp	r3, #0
 904 0044 2ED1     		bne	.L60
 718:Generated_Source\PSoC4/CapSense_Centroid_LL.c ****             {
 905              		.loc 1 718 0 is_stmt 0 discriminator 1
 906 0046 5C46     		mov	r4, fp
 907 0048 002C     		cmp	r4, #0
 908 004a 2BD0     		beq	.L60
 909              	.LVL129:
 723:Generated_Source\PSoC4/CapSense_Centroid_LL.c ****                 {
 910              		.loc 1 723 0 is_stmt 1
 911 004c AA42     		cmp	r2, r5
 912 004e 09D2     		bcs	.L61
 723:Generated_Source\PSoC4/CapSense_Centroid_LL.c ****                 {
 913              		.loc 1 723 0 is_stmt 0 discriminator 1
 914 0050 6C00     		lsls	r4, r5, #1
 915 0052 A146     		mov	r9, r4
 916 0054 A944     		add	r9, r9, r5
 917 0056 4C46     		mov	r4, r9
 918 0058 A400     		lsls	r4, r4, #2
 919 005a 0C1B     		subs	r4, r1, r4
 920 005c 2489     		ldrh	r4, [r4, #8]
 921 005e A042     		cmp	r0, r4
 922 0060 00D8     		bhi	.L61
 725:Generated_Source\PSoC4/CapSense_Centroid_LL.c ****                 }
 923              		.loc 1 725 0 is_stmt 1
 924 0062 0133     		adds	r3, r3, #1
 925              	.LVL130:
 926              	.L61:
 728:Generated_Source\PSoC4/CapSense_Centroid_LL.c ****                 {
 927              		.loc 1 728 0
 928 0064 002B     		cmp	r3, #0
 929 0066 0AD1     		bne	.L73
 930              	.LVL131:
 733:Generated_Source\PSoC4/CapSense_Centroid_LL.c ****                     {
 931              		.loc 1 733 0
 932 0068 7400     		lsls	r4, r6, #1
 933 006a A146     		mov	r9, r4
 934 006c B144     		add	r9, r9, r6
 935 006e 4C46     		mov	r4, r9
 936 0070 A400     		lsls	r4, r4, #2
 937 0072 0C1B     		subs	r4, r1, r4
 938 0074 2489     		ldrh	r4, [r4, #8]
 939 0076 A042     		cmp	r0, r4
 940 0078 03D9     		bls	.L74
 731:Generated_Source\PSoC4/CapSense_Centroid_LL.c **** 
 941              		.loc 1 731 0
 942 007a 3400     		movs	r4, r6
 943 007c 03E0     		b	.L62
 944              	.LVL132:
 945              	.L73:
 721:Generated_Source\PSoC4/CapSense_Centroid_LL.c **** 
 946              		.loc 1 721 0
 947 007e 2C00     		movs	r4, r5
 948 0080 01E0     		b	.L62
ARM GAS  C:\Users\YUANFA~1\AppData\Local\Temp\cctOMKNb.s 			page 49


 949              	.LVL133:
 950              	.L74:
 731:Generated_Source\PSoC4/CapSense_Centroid_LL.c **** 
 951              		.loc 1 731 0
 952 0082 3400     		movs	r4, r6
 735:Generated_Source\PSoC4/CapSense_Centroid_LL.c ****                     }
 953              		.loc 1 735 0
 954 0084 0123     		movs	r3, #1
 955              	.LVL134:
 956              	.L62:
 739:Generated_Source\PSoC4/CapSense_Centroid_LL.c ****                 {
 957              		.loc 1 739 0
 958 0086 002B     		cmp	r3, #0
 959 0088 0CD1     		bne	.L60
 742:Generated_Source\PSoC4/CapSense_Centroid_LL.c **** 
 960              		.loc 1 742 0
 961 008a 0134     		adds	r4, r4, #1
 962              	.LVL135:
 963 008c E4B2     		uxtb	r4, r4
 964              	.LVL136:
 744:Generated_Source\PSoC4/CapSense_Centroid_LL.c ****                     {
 965              		.loc 1 744 0
 966 008e 002A     		cmp	r2, #0
 967 0090 08D0     		beq	.L60
 744:Generated_Source\PSoC4/CapSense_Centroid_LL.c ****                     {
 968              		.loc 1 744 0 is_stmt 0 discriminator 1
 969 0092 6700     		lsls	r7, r4, #1
 970 0094 B946     		mov	r9, r7
 971 0096 4C44     		add	r4, r4, r9
 972              	.LVL137:
 973 0098 A400     		lsls	r4, r4, #2
 974 009a 0C1B     		subs	r4, r1, r4
 975 009c 2489     		ldrh	r4, [r4, #8]
 976 009e A042     		cmp	r0, r4
 977 00a0 00D8     		bhi	.L60
 746:Generated_Source\PSoC4/CapSense_Centroid_LL.c ****                     }
 978              		.loc 1 746 0 is_stmt 1
 979 00a2 0133     		adds	r3, r3, #1
 980              	.LVL138:
 981              	.L60:
 755:Generated_Source\PSoC4/CapSense_Centroid_LL.c ****             {
 982              		.loc 1 755 0
 983 00a4 002B     		cmp	r3, #0
 984 00a6 2FD1     		bne	.L63
 755:Generated_Source\PSoC4/CapSense_Centroid_LL.c ****             {
 985              		.loc 1 755 0 is_stmt 0 discriminator 1
 986 00a8 C345     		cmp	fp, r8
 987 00aa 2DD2     		bcs	.L63
 758:Generated_Source\PSoC4/CapSense_Centroid_LL.c **** 
 988              		.loc 1 758 0 is_stmt 1
 989 00ac 741C     		adds	r4, r6, #1
 990 00ae E4B2     		uxtb	r4, r4
 991              	.LVL139:
 760:Generated_Source\PSoC4/CapSense_Centroid_LL.c ****                 {
 992              		.loc 1 760 0
 993 00b0 AA42     		cmp	r2, r5
 994 00b2 0BD2     		bcs	.L64
ARM GAS  C:\Users\YUANFA~1\AppData\Local\Temp\cctOMKNb.s 			page 50


 760:Generated_Source\PSoC4/CapSense_Centroid_LL.c ****                 {
 995              		.loc 1 760 0 is_stmt 0 discriminator 1
 996 00b4 6700     		lsls	r7, r4, #1
 997 00b6 BA46     		mov	r10, r7
 998 00b8 A244     		add	r10, r10, r4
 999 00ba 5746     		mov	r7, r10
 1000 00bc BF00     		lsls	r7, r7, #2
 1001 00be B946     		mov	r9, r7
 1002 00c0 8944     		add	r9, r9, r1
 1003 00c2 4F46     		mov	r7, r9
 1004 00c4 3F89     		ldrh	r7, [r7, #8]
 1005 00c6 B842     		cmp	r0, r7
 1006 00c8 00D2     		bcs	.L64
 762:Generated_Source\PSoC4/CapSense_Centroid_LL.c ****                 }
 1007              		.loc 1 762 0 is_stmt 1
 1008 00ca 0133     		adds	r3, r3, #1
 1009              	.LVL140:
 1010              	.L64:
 765:Generated_Source\PSoC4/CapSense_Centroid_LL.c ****                 {
 1011              		.loc 1 765 0
 1012 00cc 002B     		cmp	r3, #0
 1013 00ce 0CD1     		bne	.L65
 1014              	.LVL141:
 770:Generated_Source\PSoC4/CapSense_Centroid_LL.c ****                     {
 1015              		.loc 1 770 0
 1016 00d0 7400     		lsls	r4, r6, #1
 1017 00d2 A146     		mov	r9, r4
 1018 00d4 B144     		add	r9, r9, r6
 1019 00d6 4C46     		mov	r4, r9
 1020 00d8 A400     		lsls	r4, r4, #2
 1021 00da 0C19     		adds	r4, r1, r4
 1022 00dc 2489     		ldrh	r4, [r4, #8]
 1023 00de A042     		cmp	r0, r4
 1024 00e0 01D3     		bcc	.L77
 768:Generated_Source\PSoC4/CapSense_Centroid_LL.c **** 
 1025              		.loc 1 768 0
 1026 00e2 3400     		movs	r4, r6
 1027 00e4 01E0     		b	.L65
 1028              	.L77:
 1029 00e6 3400     		movs	r4, r6
 772:Generated_Source\PSoC4/CapSense_Centroid_LL.c ****                     }
 1030              		.loc 1 772 0
 1031 00e8 0123     		movs	r3, #1
 1032              	.LVL142:
 1033              	.L65:
 776:Generated_Source\PSoC4/CapSense_Centroid_LL.c ****                 {
 1034              		.loc 1 776 0
 1035 00ea 002B     		cmp	r3, #0
 1036 00ec 0CD1     		bne	.L63
 779:Generated_Source\PSoC4/CapSense_Centroid_LL.c **** 
 1037              		.loc 1 779 0
 1038 00ee 013C     		subs	r4, r4, #1
 1039              	.LVL143:
 1040 00f0 E4B2     		uxtb	r4, r4
 1041              	.LVL144:
 781:Generated_Source\PSoC4/CapSense_Centroid_LL.c ****                     {
 1042              		.loc 1 781 0
ARM GAS  C:\Users\YUANFA~1\AppData\Local\Temp\cctOMKNb.s 			page 51


 1043 00f2 002A     		cmp	r2, #0
 1044 00f4 08D0     		beq	.L63
 781:Generated_Source\PSoC4/CapSense_Centroid_LL.c ****                     {
 1045              		.loc 1 781 0 is_stmt 0 discriminator 1
 1046 00f6 6700     		lsls	r7, r4, #1
 1047 00f8 B946     		mov	r9, r7
 1048 00fa 4C44     		add	r4, r4, r9
 1049              	.LVL145:
 1050 00fc A400     		lsls	r4, r4, #2
 1051 00fe 0C19     		adds	r4, r1, r4
 1052 0100 2489     		ldrh	r4, [r4, #8]
 1053 0102 A042     		cmp	r0, r4
 1054 0104 00D2     		bcs	.L63
 783:Generated_Source\PSoC4/CapSense_Centroid_LL.c ****                     }
 1055              		.loc 1 783 0 is_stmt 1
 1056 0106 0133     		adds	r3, r3, #1
 1057              	.LVL146:
 1058              	.L63:
 793:Generated_Source\PSoC4/CapSense_Centroid_LL.c ****             {
 1059              		.loc 1 793 0
 1060 0108 002B     		cmp	r3, #0
 1061 010a 05D1     		bne	.L66
 793:Generated_Source\PSoC4/CapSense_Centroid_LL.c ****             {
 1062              		.loc 1 793 0 is_stmt 0 discriminator 1
 1063 010c AA42     		cmp	r2, r5
 1064 010e 03D2     		bcs	.L66
 795:Generated_Source\PSoC4/CapSense_Centroid_LL.c ****                 {
 1065              		.loc 1 795 0 is_stmt 1
 1066 0110 8C8A     		ldrh	r4, [r1, #20]
 1067 0112 A042     		cmp	r0, r4
 1068 0114 00D2     		bcs	.L66
 797:Generated_Source\PSoC4/CapSense_Centroid_LL.c ****                 }
 1069              		.loc 1 797 0
 1070 0116 0133     		adds	r3, r3, #1
 1071              	.LVL147:
 1072              	.L66:
 802:Generated_Source\PSoC4/CapSense_Centroid_LL.c ****             {
 1073              		.loc 1 802 0
 1074 0118 002B     		cmp	r3, #0
 1075 011a 07D1     		bne	.L67
 802:Generated_Source\PSoC4/CapSense_Centroid_LL.c ****             {
 1076              		.loc 1 802 0 is_stmt 0 discriminator 1
 1077 011c 002A     		cmp	r2, #0
 1078 011e 05D0     		beq	.L67
 804:Generated_Source\PSoC4/CapSense_Centroid_LL.c ****                 {
 1079              		.loc 1 804 0 is_stmt 1
 1080 0120 0C00     		movs	r4, r1
 1081 0122 0C3C     		subs	r4, r4, #12
 1082 0124 2489     		ldrh	r4, [r4, #8]
 1083 0126 A042     		cmp	r0, r4
 1084 0128 00D8     		bhi	.L67
 806:Generated_Source\PSoC4/CapSense_Centroid_LL.c ****                 }
 1085              		.loc 1 806 0
 1086 012a 0133     		adds	r3, r3, #1
 1087              	.LVL148:
 1088              	.L67:
 811:Generated_Source\PSoC4/CapSense_Centroid_LL.c ****             {
ARM GAS  C:\Users\YUANFA~1\AppData\Local\Temp\cctOMKNb.s 			page 52


 1089              		.loc 1 811 0
 1090 012c 002B     		cmp	r3, #0
 1091 012e 20D1     		bne	.L68
 811:Generated_Source\PSoC4/CapSense_Centroid_LL.c ****             {
 1092              		.loc 1 811 0 is_stmt 0 discriminator 1
 1093 0130 3C33     		adds	r3, r3, #60
 1094              	.LVL149:
 1095 0132 1A4C     		ldr	r4, .L82
 1096 0134 E35C     		ldrb	r3, [r4, r3]
 1097              	.LVL150:
 1098 0136 042B     		cmp	r3, #4
 1099 0138 1BD8     		bhi	.L68
 813:Generated_Source\PSoC4/CapSense_Centroid_LL.c ****                 ptrNewTouches->touch[ptrNewTouches->touchNum].y = tx;
 1100              		.loc 1 813 0 is_stmt 1
 1101 013a 5F00     		lsls	r7, r3, #1
 1102 013c B946     		mov	r9, r7
 1103 013e 4B44     		add	r3, r3, r9
 1104 0140 9B00     		lsls	r3, r3, #2
 1105 0142 5F46     		mov	r7, fp
 1106 0144 1F53     		strh	r7, [r3, r4]
 814:Generated_Source\PSoC4/CapSense_Centroid_LL.c **** 
 1107              		.loc 1 814 0
 1108 0146 3C23     		movs	r3, #60
 1109 0148 9946     		mov	r9, r3
 1110 014a E35C     		ldrb	r3, [r4, r3]
 1111 014c 5F00     		lsls	r7, r3, #1
 1112 014e BA46     		mov	r10, r7
 1113 0150 5344     		add	r3, r3, r10
 1114 0152 9B00     		lsls	r3, r3, #2
 1115 0154 E318     		adds	r3, r4, r3
 1116 0156 5A80     		strh	r2, [r3, #2]
 816:Generated_Source\PSoC4/CapSense_Centroid_LL.c ****                 ptrNewTouches->touchNum++;
 1117              		.loc 1 816 0
 1118 0158 4B46     		mov	r3, r9
 1119 015a E35C     		ldrb	r3, [r4, r3]
 1120 015c 5F00     		lsls	r7, r3, #1
 1121 015e BA46     		mov	r10, r7
 1122 0160 5344     		add	r3, r3, r10
 1123 0162 9B00     		lsls	r3, r3, #2
 1124 0164 E318     		adds	r3, r4, r3
 1125 0166 9880     		strh	r0, [r3, #4]
 817:Generated_Source\PSoC4/CapSense_Centroid_LL.c ****             }
 1126              		.loc 1 817 0
 1127 0168 4B46     		mov	r3, r9
 1128 016a E35C     		ldrb	r3, [r4, r3]
 1129 016c 0133     		adds	r3, r3, #1
 1130 016e 4846     		mov	r0, r9
 1131              	.LVL151:
 1132 0170 2354     		strb	r3, [r4, r0]
 1133              	.L68:
 820:Generated_Source\PSoC4/CapSense_Centroid_LL.c ****         }
 1134              		.loc 1 820 0 discriminator 2
 1135 0172 0C31     		adds	r1, r1, #12
 1136              	.LVL152:
 703:Generated_Source\PSoC4/CapSense_Centroid_LL.c ****         {
 1137              		.loc 1 703 0 discriminator 2
 1138 0174 0132     		adds	r2, r2, #1
ARM GAS  C:\Users\YUANFA~1\AppData\Local\Temp\cctOMKNb.s 			page 53


 1139              	.LVL153:
 1140 0176 D2B2     		uxtb	r2, r2
 1141              	.LVL154:
 1142 0178 00E0     		b	.L70
 1143              	.LVL155:
 1144              	.L81:
 1145 017a 0022     		movs	r2, #0
 1146              	.L70:
 1147              	.LVL156:
 703:Generated_Source\PSoC4/CapSense_Centroid_LL.c ****         {
 1148              		.loc 1 703 0 is_stmt 0 discriminator 1
 1149 017c AA42     		cmp	r2, r5
 1150 017e 00D8     		bhi	.LCB1261
 1151 0180 59E7     		b	.L69	@long jump
 1152              	.LCB1261:
 700:Generated_Source\PSoC4/CapSense_Centroid_LL.c ****     {
 1153              		.loc 1 700 0 is_stmt 1 discriminator 2
 1154 0182 5F46     		mov	r7, fp
 1155 0184 0137     		adds	r7, r7, #1
 1156 0186 FBB2     		uxtb	r3, r7
 1157 0188 9B46     		mov	fp, r3
 1158              	.LVL157:
 1159              	.L58:
 700:Generated_Source\PSoC4/CapSense_Centroid_LL.c ****     {
 1160              		.loc 1 700 0 is_stmt 0 discriminator 1
 1161 018a C345     		cmp	fp, r8
 1162 018c F5D9     		bls	.L81
 823:Generated_Source\PSoC4/CapSense_Centroid_LL.c **** 
 1163              		.loc 1 823 0 is_stmt 1
 1164              		@ sp needed
 1165              	.LVL158:
 1166              	.LVL159:
 1167              	.LVL160:
 1168              	.LVL161:
 1169 018e 3CBC     		pop	{r2, r3, r4, r5}
 1170 0190 9046     		mov	r8, r2
 1171 0192 9946     		mov	r9, r3
 1172 0194 A246     		mov	r10, r4
 1173 0196 AB46     		mov	fp, r5
 1174 0198 F0BD     		pop	{r4, r5, r6, r7, pc}
 1175              	.L83:
 1176 019a C046     		.align	2
 1177              	.L82:
 1178 019c 00000000 		.word	.LANCHOR0
 1179              		.cfi_endproc
 1180              	.LFE1:
 1181              		.size	CapSense_DpFindLocalMaxDd, .-CapSense_DpFindLocalMaxDd
 1182              		.global	__aeabi_idiv
 1183              		.section	.text.CapSense_DpCalcTouchPadCentroid,"ax",%progbits
 1184              		.align	2
 1185              		.global	CapSense_DpCalcTouchPadCentroid
 1186              		.code	16
 1187              		.thumb_func
 1188              		.type	CapSense_DpCalcTouchPadCentroid, %function
 1189              	CapSense_DpCalcTouchPadCentroid:
 1190              	.LFB2:
 846:Generated_Source\PSoC4/CapSense_Centroid_LL.c ****     CapSense_RAM_SNS_STRUCT *ptrSensor =  ptrFlashWdgt->ptr2SnsRam;
ARM GAS  C:\Users\YUANFA~1\AppData\Local\Temp\cctOMKNb.s 			page 54


 1191              		.loc 1 846 0
 1192              		.cfi_startproc
 1193              		@ args = 0, pretend = 0, frame = 40
 1194              		@ frame_needed = 0, uses_anonymous_args = 0
 1195              	.LVL162:
 1196 0000 F0B5     		push	{r4, r5, r6, r7, lr}
 1197              		.cfi_def_cfa_offset 20
 1198              		.cfi_offset 4, -20
 1199              		.cfi_offset 5, -16
 1200              		.cfi_offset 6, -12
 1201              		.cfi_offset 7, -8
 1202              		.cfi_offset 14, -4
 1203 0002 5F46     		mov	r7, fp
 1204 0004 5646     		mov	r6, r10
 1205 0006 4D46     		mov	r5, r9
 1206 0008 4446     		mov	r4, r8
 1207 000a F0B4     		push	{r4, r5, r6, r7}
 1208              		.cfi_def_cfa_offset 36
 1209              		.cfi_offset 8, -36
 1210              		.cfi_offset 9, -32
 1211              		.cfi_offset 10, -28
 1212              		.cfi_offset 11, -24
 1213 000c 8BB0     		sub	sp, sp, #44
 1214              		.cfi_def_cfa_offset 80
 1215 000e 8046     		mov	r8, r0
 1216              	.LVL163:
 851:Generated_Source\PSoC4/CapSense_Centroid_LL.c ****     uint8 lastTx = ptrFlashWdgt->numRows - 1u;
 1217              		.loc 1 851 0
 1218 0010 C37E     		ldrb	r3, [r0, #27]
 1219 0012 013B     		subs	r3, r3, #1
 1220 0014 DBB2     		uxtb	r3, r3
 1221 0016 0393     		str	r3, [sp, #12]
 1222              	.LVL164:
 852:Generated_Source\PSoC4/CapSense_Centroid_LL.c ****     uint16 centroid[3u][3u];
 1223              		.loc 1 852 0
 1224 0018 037F     		ldrb	r3, [r0, #28]
 1225 001a 013B     		subs	r3, r3, #1
 1226 001c DBB2     		uxtb	r3, r3
 1227 001e 0293     		str	r3, [sp, #8]
 1228              	.LVL165:
 858:Generated_Source\PSoC4/CapSense_Centroid_LL.c ****     {
 1229              		.loc 1 858 0
 1230 0020 0023     		movs	r3, #0
 1231 0022 0193     		str	r3, [sp, #4]
 1232 0024 AEE0     		b	.L85
 1233              	.LVL166:
 1234              	.L98:
 861:Generated_Source\PSoC4/CapSense_Centroid_LL.c ****         ptrSensor += (ptrNewTouches->touch[number].y + (ptrNewTouches->touch[number].x * ptrFlashWd
 1235              		.loc 1 861 0
 1236 0026 4346     		mov	r3, r8
 1237 0028 9D68     		ldr	r5, [r3, #8]
 1238              	.LVL167:
 862:Generated_Source\PSoC4/CapSense_Centroid_LL.c **** 
 1239              		.loc 1 862 0
 1240 002a 019F     		ldr	r7, [sp, #4]
 1241 002c 3E00     		movs	r6, r7
 1242 002e 5C49     		ldr	r1, .L101
ARM GAS  C:\Users\YUANFA~1\AppData\Local\Temp\cctOMKNb.s 			page 55


 1243 0030 7A00     		lsls	r2, r7, #1
 1244 0032 D019     		adds	r0, r2, r7
 1245 0034 8300     		lsls	r3, r0, #2
 1246 0036 1800     		movs	r0, r3
 1247 0038 CB18     		adds	r3, r1, r3
 1248 003a 5C88     		ldrh	r4, [r3, #2]
 1249 003c 435A     		ldrh	r3, [r0, r1]
 1250 003e 4246     		mov	r2, r8
 1251 0040 127F     		ldrb	r2, [r2, #28]
 1252 0042 5343     		muls	r3, r2
 1253 0044 E318     		adds	r3, r4, r3
 1254 0046 5A00     		lsls	r2, r3, #1
 1255 0048 D318     		adds	r3, r2, r3
 1256 004a 9C00     		lsls	r4, r3, #2
 1257 004c A446     		mov	ip, r4
 1258              	.LVL168:
 866:Generated_Source\PSoC4/CapSense_Centroid_LL.c ****         {
 1259              		.loc 1 866 0
 1260 004e 0022     		movs	r2, #0
 1261 0050 48E0     		b	.L86
 1262              	.LVL169:
 1263              	.L94:
 871:Generated_Source\PSoC4/CapSense_Centroid_LL.c ****                 ((((int32)ptrNewTouches->touch[number].x - 1) + (int32)i) > (int32)lastRx))
 1264              		.loc 1 871 0
 1265 0052 7300     		lsls	r3, r6, #1
 1266 0054 9B19     		adds	r3, r3, r6
 1267 0056 9900     		lsls	r1, r3, #2
 1268 0058 514B     		ldr	r3, .L101
 1269 005a CB5A     		ldrh	r3, [r1, r3]
 1270 005c 013B     		subs	r3, r3, #1
 1271 005e 1000     		movs	r0, r2
 1272 0060 9B18     		adds	r3, r3, r2
 1273 0062 02D4     		bmi	.L87
 871:Generated_Source\PSoC4/CapSense_Centroid_LL.c ****                 ((((int32)ptrNewTouches->touch[number].x - 1) + (int32)i) > (int32)lastRx))
 1274              		.loc 1 871 0 is_stmt 0 discriminator 1
 1275 0064 0399     		ldr	r1, [sp, #12]
 1276 0066 8B42     		cmp	r3, r1
 1277 0068 37DD     		ble	.L99
 1278              	.L87:
 874:Generated_Source\PSoC4/CapSense_Centroid_LL.c ****                 centroid[CapSense_CSX_TOUCHPAD_CENTROID_CENTER][i] = 0u;
 1279              		.loc 1 874 0 is_stmt 1
 1280 006a 05AB     		add	r3, sp, #20
 1281 006c 4700     		lsls	r7, r0, #1
 1282 006e 0021     		movs	r1, #0
 1283 0070 F952     		strh	r1, [r7, r3]
 875:Generated_Source\PSoC4/CapSense_Centroid_LL.c ****                 centroid[CapSense_CSX_TOUCHPAD_CENTROID_NEXT][i] = 0u;
 1284              		.loc 1 875 0
 1285 0072 C71C     		adds	r7, r0, #3
 1286 0074 7F00     		lsls	r7, r7, #1
 1287 0076 F952     		strh	r1, [r7, r3]
 876:Generated_Source\PSoC4/CapSense_Centroid_LL.c ****             }
 1288              		.loc 1 876 0
 1289 0078 0630     		adds	r0, r0, #6
 1290 007a 4000     		lsls	r0, r0, #1
 1291 007c C152     		strh	r1, [r0, r3]
 1292 007e 2FE0     		b	.L89
 1293              	.LVL170:
ARM GAS  C:\Users\YUANFA~1\AppData\Local\Temp\cctOMKNb.s 			page 56


 1294              	.L93:
 886:Generated_Source\PSoC4/CapSense_Centroid_LL.c ****                         ((((int32)ptrNewTouches->touch[number].y - 1) + (int32)j) > (int32)lastTx))
 1295              		.loc 1 886 0
 1296 0080 7100     		lsls	r1, r6, #1
 1297 0082 8C19     		adds	r4, r1, r6
 1298 0084 A100     		lsls	r1, r4, #2
 1299 0086 464C     		ldr	r4, .L101
 1300 0088 6118     		adds	r1, r4, r1
 1301 008a 4988     		ldrh	r1, [r1, #2]
 1302 008c 0139     		subs	r1, r1, #1
 1303 008e 1F00     		movs	r7, r3
 1304 0090 C918     		adds	r1, r1, r3
 1305 0092 02D4     		bmi	.L90
 886:Generated_Source\PSoC4/CapSense_Centroid_LL.c ****                         ((((int32)ptrNewTouches->touch[number].y - 1) + (int32)j) > (int32)lastTx))
 1306              		.loc 1 886 0 is_stmt 0 discriminator 1
 1307 0094 029C     		ldr	r4, [sp, #8]
 1308 0096 A142     		cmp	r1, r4
 1309 0098 07DD     		ble	.L91
 1310              	.L90:
 889:Generated_Source\PSoC4/CapSense_Centroid_LL.c ****                     }
 1311              		.loc 1 889 0 is_stmt 1
 1312 009a 7900     		lsls	r1, r7, #1
 1313 009c C919     		adds	r1, r1, r7
 1314 009e 0918     		adds	r1, r1, r0
 1315 00a0 4900     		lsls	r1, r1, #1
 1316 00a2 0027     		movs	r7, #0
 1317 00a4 05AC     		add	r4, sp, #20
 1318 00a6 0F53     		strh	r7, [r1, r4]
 1319 00a8 14E0     		b	.L92
 1320              	.L91:
 893:Generated_Source\PSoC4/CapSense_Centroid_LL.c ****                     }
 1321              		.loc 1 893 0
 1322 00aa 511E     		subs	r1, r2, #1
 1323 00ac 4446     		mov	r4, r8
 1324 00ae 247F     		ldrb	r4, [r4, #28]
 1325 00b0 6143     		muls	r1, r4
 1326 00b2 5918     		adds	r1, r3, r1
 1327 00b4 4C00     		lsls	r4, r1, #1
 1328 00b6 6118     		adds	r1, r4, r1
 1329 00b8 8C00     		lsls	r4, r1, #2
 1330 00ba 2100     		movs	r1, r4
 1331 00bc 0C39     		subs	r1, r1, #12
 1332 00be 6144     		add	r1, r1, ip
 1333 00c0 6918     		adds	r1, r5, r1
 1334 00c2 0989     		ldrh	r1, [r1, #8]
 1335 00c4 8946     		mov	r9, r1
 1336 00c6 5900     		lsls	r1, r3, #1
 1337 00c8 C918     		adds	r1, r1, r3
 1338 00ca 0918     		adds	r1, r1, r0
 1339 00cc 4900     		lsls	r1, r1, #1
 1340 00ce 05AF     		add	r7, sp, #20
 1341 00d0 4C46     		mov	r4, r9
 1342 00d2 CC53     		strh	r4, [r1, r7]
 1343              	.L92:
 881:Generated_Source\PSoC4/CapSense_Centroid_LL.c ****                 {
 1344              		.loc 1 881 0 discriminator 2
 1345 00d4 0133     		adds	r3, r3, #1
ARM GAS  C:\Users\YUANFA~1\AppData\Local\Temp\cctOMKNb.s 			page 57


 1346              	.LVL171:
 1347 00d6 DBB2     		uxtb	r3, r3
 1348              	.LVL172:
 1349 00d8 00E0     		b	.L88
 1350              	.LVL173:
 1351              	.L99:
 1352 00da 0023     		movs	r3, #0
 1353              	.L88:
 1354              	.LVL174:
 881:Generated_Source\PSoC4/CapSense_Centroid_LL.c ****                 {
 1355              		.loc 1 881 0 is_stmt 0 discriminator 1
 1356 00dc 022B     		cmp	r3, #2
 1357 00de CFD9     		bls	.L93
 1358              	.LVL175:
 1359              	.L89:
 866:Generated_Source\PSoC4/CapSense_Centroid_LL.c ****         {
 1360              		.loc 1 866 0 is_stmt 1 discriminator 2
 1361 00e0 0132     		adds	r2, r2, #1
 1362              	.LVL176:
 1363 00e2 D2B2     		uxtb	r2, r2
 1364              	.LVL177:
 1365              	.L86:
 866:Generated_Source\PSoC4/CapSense_Centroid_LL.c ****         {
 1366              		.loc 1 866 0 is_stmt 0 discriminator 1
 1367 00e4 022A     		cmp	r2, #2
 1368 00e6 B4D9     		bls	.L94
 1369 00e8 0024     		movs	r4, #0
 1370 00ea 0025     		movs	r5, #0
 1371              	.LVL178:
 1372 00ec 0020     		movs	r0, #0
 1373 00ee 0021     		movs	r1, #0
 1374 00f0 14E0     		b	.L95
 1375              	.LVL179:
 1376              	.L96:
 908:Generated_Source\PSoC4/CapSense_Centroid_LL.c ****                 weightedSumX += (int32)centroid[i][j] * ((int32)j - 1);
 1377              		.loc 1 908 0 is_stmt 1 discriminator 3
 1378 00f2 4B00     		lsls	r3, r1, #1
 1379 00f4 5B18     		adds	r3, r3, r1
 1380 00f6 9B18     		adds	r3, r3, r2
 1381 00f8 5B00     		lsls	r3, r3, #1
 1382 00fa 05AF     		add	r7, sp, #20
 1383 00fc DF5B     		ldrh	r7, [r3, r7]
 1384 00fe E419     		adds	r4, r4, r7
 1385              	.LVL180:
 909:Generated_Source\PSoC4/CapSense_Centroid_LL.c ****                 weightedSumY += (int32)centroid[i][j] * ((int32)i - 1);
 1386              		.loc 1 909 0 discriminator 3
 1387 0100 531E     		subs	r3, r2, #1
 1388 0102 7B43     		muls	r3, r7
 1389 0104 C018     		adds	r0, r0, r3
 1390              	.LVL181:
 910:Generated_Source\PSoC4/CapSense_Centroid_LL.c ****             }
 1391              		.loc 1 910 0 discriminator 3
 1392 0106 4B1E     		subs	r3, r1, #1
 1393 0108 7B43     		muls	r3, r7
 1394 010a ED18     		adds	r5, r5, r3
 1395              	.LVL182:
 906:Generated_Source\PSoC4/CapSense_Centroid_LL.c ****             {
ARM GAS  C:\Users\YUANFA~1\AppData\Local\Temp\cctOMKNb.s 			page 58


 1396              		.loc 1 906 0 discriminator 3
 1397 010c 0132     		adds	r2, r2, #1
 1398              	.LVL183:
 1399 010e D2B2     		uxtb	r2, r2
 1400              	.LVL184:
 1401 0110 00E0     		b	.L97
 1402              	.LVL185:
 1403              	.L100:
 1404 0112 0022     		movs	r2, #0
 1405              	.L97:
 1406              	.LVL186:
 906:Generated_Source\PSoC4/CapSense_Centroid_LL.c ****             {
 1407              		.loc 1 906 0 is_stmt 0 discriminator 1
 1408 0114 022A     		cmp	r2, #2
 1409 0116 ECD9     		bls	.L96
 904:Generated_Source\PSoC4/CapSense_Centroid_LL.c ****         {
 1410              		.loc 1 904 0 is_stmt 1 discriminator 2
 1411 0118 0131     		adds	r1, r1, #1
 1412              	.LVL187:
 1413 011a C9B2     		uxtb	r1, r1
 1414              	.LVL188:
 1415              	.L95:
 904:Generated_Source\PSoC4/CapSense_Centroid_LL.c ****         {
 1416              		.loc 1 904 0 is_stmt 0 discriminator 1
 1417 011c 0229     		cmp	r1, #2
 1418 011e F8D9     		bls	.L100
 920:Generated_Source\PSoC4/CapSense_Centroid_LL.c ****                         ((int32)ptrNewTouches->touch[number].x * (int32)ptrFlashWdgt->xCentroidMult
 1419              		.loc 1 920 0 is_stmt 1 discriminator 2
 1420 0120 4346     		mov	r3, r8
 1421 0122 5B6A     		ldr	r3, [r3, #36]
 1422 0124 9B46     		mov	fp, r3
 1423 0126 5843     		muls	r0, r3
 1424              	.LVL189:
 1425 0128 2100     		movs	r1, r4
 1426              	.LVL190:
 1427 012a FFF7FEFF 		bl	__aeabi_idiv
 1428              	.LVL191:
 921:Generated_Source\PSoC4/CapSense_Centroid_LL.c ****         /* Position correction for half of a sensor */
 1429              		.loc 1 921 0 discriminator 2
 1430 012e 1C4B     		ldr	r3, .L101
 1431 0130 9946     		mov	r9, r3
 1432 0132 7300     		lsls	r3, r6, #1
 1433 0134 9A46     		mov	r10, r3
 1434 0136 9A19     		adds	r2, r3, r6
 1435 0138 9300     		lsls	r3, r2, #2
 1436 013a 4A46     		mov	r2, r9
 1437 013c 9B5A     		ldrh	r3, [r3, r2]
 1438 013e 5A46     		mov	r2, fp
 1439 0140 5343     		muls	r3, r2
 920:Generated_Source\PSoC4/CapSense_Centroid_LL.c ****                         ((int32)ptrNewTouches->touch[number].x * (int32)ptrFlashWdgt->xCentroidMult
 1440              		.loc 1 920 0 discriminator 2
 1441 0142 C018     		adds	r0, r0, r3
 1442              	.LVL192:
 928:Generated_Source\PSoC4/CapSense_Centroid_LL.c **** 
 1443              		.loc 1 928 0 discriminator 2
 1444 0144 7F30     		adds	r0, r0, #127
 1445              	.LVL193:
ARM GAS  C:\Users\YUANFA~1\AppData\Local\Temp\cctOMKNb.s 			page 59


 1446 0146 000A     		lsrs	r0, r0, #8
 1447              	.LVL194:
 1448 0148 5346     		mov	r3, r10
 1449 014a 9A19     		adds	r2, r3, r6
 1450 014c 9300     		lsls	r3, r2, #2
 1451 014e 4A46     		mov	r2, r9
 1452 0150 D052     		strh	r0, [r2, r3]
 936:Generated_Source\PSoC4/CapSense_Centroid_LL.c ****                         ((int32)ptrNewTouches->touch[number].y * (int32)ptrFlashWdgt->yCentroidMult
 1453              		.loc 1 936 0 discriminator 2
 1454 0152 4346     		mov	r3, r8
 1455 0154 9B6A     		ldr	r3, [r3, #40]
 1456 0156 9B46     		mov	fp, r3
 1457 0158 1800     		movs	r0, r3
 1458 015a 6843     		muls	r0, r5
 1459 015c 2100     		movs	r1, r4
 1460 015e FFF7FEFF 		bl	__aeabi_idiv
 1461              	.LVL195:
 937:Generated_Source\PSoC4/CapSense_Centroid_LL.c ****         /* Position correction for half of a sensor */
 1462              		.loc 1 937 0 discriminator 2
 1463 0162 5346     		mov	r3, r10
 1464 0164 9B19     		adds	r3, r3, r6
 1465 0166 9A00     		lsls	r2, r3, #2
 1466 0168 4A44     		add	r2, r2, r9
 1467 016a 5388     		ldrh	r3, [r2, #2]
 1468 016c 5946     		mov	r1, fp
 1469 016e 4B43     		muls	r3, r1
 936:Generated_Source\PSoC4/CapSense_Centroid_LL.c ****                         ((int32)ptrNewTouches->touch[number].y * (int32)ptrFlashWdgt->yCentroidMult
 1470              		.loc 1 936 0 discriminator 2
 1471 0170 C018     		adds	r0, r0, r3
 1472              	.LVL196:
 944:Generated_Source\PSoC4/CapSense_Centroid_LL.c **** 
 1473              		.loc 1 944 0 discriminator 2
 1474 0172 7F30     		adds	r0, r0, #127
 1475              	.LVL197:
 1476 0174 000A     		lsrs	r0, r0, #8
 1477              	.LVL198:
 1478 0176 5080     		strh	r0, [r2, #2]
 947:Generated_Source\PSoC4/CapSense_Centroid_LL.c ****     }
 1479              		.loc 1 947 0 discriminator 2
 1480 0178 2409     		lsrs	r4, r4, #4
 1481              	.LVL199:
 1482 017a 1472     		strb	r4, [r2, #8]
 858:Generated_Source\PSoC4/CapSense_Centroid_LL.c ****     {
 1483              		.loc 1 858 0 discriminator 2
 1484 017c 019F     		ldr	r7, [sp, #4]
 1485 017e 0137     		adds	r7, r7, #1
 1486 0180 FBB2     		uxtb	r3, r7
 1487 0182 0193     		str	r3, [sp, #4]
 1488              	.LVL200:
 1489              	.L85:
 858:Generated_Source\PSoC4/CapSense_Centroid_LL.c ****     {
 1490              		.loc 1 858 0 is_stmt 0 discriminator 1
 1491 0184 3C23     		movs	r3, #60
 1492 0186 064A     		ldr	r2, .L101
 1493 0188 D35C     		ldrb	r3, [r2, r3]
 1494 018a 019A     		ldr	r2, [sp, #4]
 1495 018c 9A42     		cmp	r2, r3
ARM GAS  C:\Users\YUANFA~1\AppData\Local\Temp\cctOMKNb.s 			page 60


 1496 018e 00D2     		bcs	.LCB1644
 1497 0190 49E7     		b	.L98	@long jump
 1498              	.LCB1644:
 949:Generated_Source\PSoC4/CapSense_Centroid_LL.c **** 
 1499              		.loc 1 949 0 is_stmt 1
 1500 0192 0BB0     		add	sp, sp, #44
 1501              		@ sp needed
 1502              	.LVL201:
 1503 0194 3CBC     		pop	{r2, r3, r4, r5}
 1504 0196 9046     		mov	r8, r2
 1505 0198 9946     		mov	r9, r3
 1506 019a A246     		mov	r10, r4
 1507 019c AB46     		mov	fp, r5
 1508 019e F0BD     		pop	{r4, r5, r6, r7, pc}
 1509              	.L102:
 1510              		.align	2
 1511              	.L101:
 1512 01a0 00000000 		.word	.LANCHOR0
 1513              		.cfi_endproc
 1514              	.LFE2:
 1515              		.size	CapSense_DpCalcTouchPadCentroid, .-CapSense_DpCalcTouchPadCentroid
 1516              		.section	.text.CapSense_DpTouchTracking,"ax",%progbits
 1517              		.align	2
 1518              		.global	CapSense_DpTouchTracking
 1519              		.code	16
 1520              		.thumb_func
 1521              		.type	CapSense_DpTouchTracking, %function
 1522              	CapSense_DpTouchTracking:
 1523              	.LFB3:
 971:Generated_Source\PSoC4/CapSense_Centroid_LL.c ****     CapSense_RAM_WD_CSX_TOUCHPAD_STRUCT *ptrWidgetRam = ptrFlashWdgt->ptr2WdgtRam;
 1524              		.loc 1 971 0
 1525              		.cfi_startproc
 1526              		@ args = 0, pretend = 0, frame = 24
 1527              		@ frame_needed = 0, uses_anonymous_args = 0
 1528              	.LVL202:
 1529 0000 F0B5     		push	{r4, r5, r6, r7, lr}
 1530              		.cfi_def_cfa_offset 20
 1531              		.cfi_offset 4, -20
 1532              		.cfi_offset 5, -16
 1533              		.cfi_offset 6, -12
 1534              		.cfi_offset 7, -8
 1535              		.cfi_offset 14, -4
 1536 0002 5F46     		mov	r7, fp
 1537 0004 5646     		mov	r6, r10
 1538 0006 4D46     		mov	r5, r9
 1539 0008 E0B4     		push	{r5, r6, r7}
 1540              		.cfi_def_cfa_offset 32
 1541              		.cfi_offset 9, -32
 1542              		.cfi_offset 10, -28
 1543              		.cfi_offset 11, -24
 1544 000a 86B0     		sub	sp, sp, #24
 1545              		.cfi_def_cfa_offset 56
 972:Generated_Source\PSoC4/CapSense_Centroid_LL.c ****     CapSense_CSX_TOUCHPAD_DATA_STRUCT *ptrOldTouches = ptrFlashWdgt->ptr2CsxTouchpad;
 1546              		.loc 1 972 0
 1547 000c 4568     		ldr	r5, [r0, #4]
 1548              	.LVL203:
 973:Generated_Source\PSoC4/CapSense_Centroid_LL.c ****     CapSense_CSX_TOUCHPAD_DISTANCE_MAP *distanceMap;
ARM GAS  C:\Users\YUANFA~1\AppData\Local\Temp\cctOMKNb.s 			page 61


 1549              		.loc 1 973 0
 1550 000e 036B     		ldr	r3, [r0, #48]
 1551 0010 9A46     		mov	r10, r3
 1552              	.LVL204:
 978:Generated_Source\PSoC4/CapSense_Centroid_LL.c ****     uint16 fingerOnThreshold = (uint16)ptrWidgetRam->fingerTh + ptrWidgetRam->hysteresis;
 1553              		.loc 1 978 0
 1554 0012 3C23     		movs	r3, #60
 1555              	.LVL205:
 1556 0014 BC4A     		ldr	r2, .L152
 1557 0016 D75C     		ldrb	r7, [r2, r3]
 1558              	.LVL206:
 979:Generated_Source\PSoC4/CapSense_Centroid_LL.c **** 
 1559              		.loc 1 979 0
 1560 0018 AC88     		ldrh	r4, [r5, #4]
 1561 001a 2B7A     		ldrb	r3, [r5, #8]
 1562 001c E418     		adds	r4, r4, r3
 1563 001e A3B2     		uxth	r3, r4
 1564 0020 0093     		str	r3, [sp]
 1565              	.LVL207:
 981:Generated_Source\PSoC4/CapSense_Centroid_LL.c ****     {
 1566              		.loc 1 981 0
 1567 0022 002F     		cmp	r7, #0
 1568 0024 05D1     		bne	.L104
 981:Generated_Source\PSoC4/CapSense_Centroid_LL.c ****     {
 1569              		.loc 1 981 0 is_stmt 0 discriminator 1
 1570 0026 3C23     		movs	r3, #60
 1571 0028 5246     		mov	r2, r10
 1572 002a D35C     		ldrb	r3, [r2, r3]
 1573 002c 002B     		cmp	r3, #0
 1574 002e 00D1     		bne	.LCB1711
 1575 0030 83E1     		b	.L103	@long jump
 1576              	.LCB1711:
 1577              	.L104:
 984:Generated_Source\PSoC4/CapSense_Centroid_LL.c ****         /* Getting active touch IDs from previous scan */
 1578              		.loc 1 984 0 is_stmt 1
 1579 0032 B54B     		ldr	r3, .L152
 1580 0034 0022     		movs	r2, #0
 1581 0036 3E21     		movs	r1, #62
 1582 0038 5A54     		strb	r2, [r3, r1]
 986:Generated_Source\PSoC4/CapSense_Centroid_LL.c ****         for (i = 0u; i < ptrOldTouches->touchNum; i++)
 1583              		.loc 1 986 0
 1584 003a 0131     		adds	r1, r1, #1
 1585 003c 5A54     		strb	r2, [r3, r1]
 1586              	.LVL208:
 987:Generated_Source\PSoC4/CapSense_Centroid_LL.c ****         {
 1587              		.loc 1 987 0
 1588 003e 0CE0     		b	.L106
 1589              	.LVL209:
 1590              	.L107:
 989:Generated_Source\PSoC4/CapSense_Centroid_LL.c ****         }
 1591              		.loc 1 989 0 discriminator 3
 1592 0040 5100     		lsls	r1, r2, #1
 1593              	.LVL210:
 1594 0042 8918     		adds	r1, r1, r2
 1595 0044 8B00     		lsls	r3, r1, #2
 1596 0046 5344     		add	r3, r3, r10
 1597 0048 597A     		ldrb	r1, [r3, #9]
ARM GAS  C:\Users\YUANFA~1\AppData\Local\Temp\cctOMKNb.s 			page 62


 1598 004a 0123     		movs	r3, #1
 1599 004c 8B40     		lsls	r3, r3, r1
 1600 004e AE48     		ldr	r0, .L152
 1601 0050 3F21     		movs	r1, #63
 1602 0052 465C     		ldrb	r6, [r0, r1]
 1603 0054 3343     		orrs	r3, r6
 1604 0056 4354     		strb	r3, [r0, r1]
 987:Generated_Source\PSoC4/CapSense_Centroid_LL.c ****         {
 1605              		.loc 1 987 0 discriminator 3
 1606 0058 0132     		adds	r2, r2, #1
 1607              	.LVL211:
 1608              	.L106:
 987:Generated_Source\PSoC4/CapSense_Centroid_LL.c ****         {
 1609              		.loc 1 987 0 is_stmt 0 discriminator 1
 1610 005a 3C23     		movs	r3, #60
 1611 005c 5146     		mov	r1, r10
 1612 005e CB5C     		ldrb	r3, [r1, r3]
 1613 0060 9A42     		cmp	r2, r3
 1614 0062 EDD3     		bcc	.L107
 1615              	.LVL212:
 997:Generated_Source\PSoC4/CapSense_Centroid_LL.c ****                         (uint32)~CapSense_CSX_TOUCHPAD_PADDING);
 1616              		.loc 1 997 0 is_stmt 1
 1617 0064 A84E     		ldr	r6, .L152
 1618 0066 4836     		adds	r6, r6, #72
 1619 0068 0323     		movs	r3, #3
 1620 006a 9E43     		bics	r6, r3
 1621              	.LVL213:
1000:Generated_Source\PSoC4/CapSense_Centroid_LL.c ****         {
 1622              		.loc 1 1000 0
 1623 006c 002F     		cmp	r7, #0
 1624 006e 09D1     		bne	.L150
 1625 0070 D0E0     		b	.L109
 1626              	.LVL214:
 1627              	.L110:
1005:Generated_Source\PSoC4/CapSense_Centroid_LL.c ****             }
 1628              		.loc 1 1005 0
 1629 0072 4A00     		lsls	r2, r1, #1
 1630 0074 5218     		adds	r2, r2, r1
 1631 0076 9300     		lsls	r3, r2, #2
 1632 0078 A34A     		ldr	r2, .L152
 1633 007a D318     		adds	r3, r2, r3
 1634 007c 2822     		movs	r2, #40
 1635 007e 5A72     		strb	r2, [r3, #9]
1002:Generated_Source\PSoC4/CapSense_Centroid_LL.c ****             {
 1636              		.loc 1 1002 0
 1637 0080 0C00     		movs	r4, r1
 1638 0082 00E0     		b	.L108
 1639              	.LVL215:
 1640              	.L150:
 1641 0084 0524     		movs	r4, #5
 1642              	.LVL216:
 1643              	.L108:
1002:Generated_Source\PSoC4/CapSense_Centroid_LL.c ****             {
 1644              		.loc 1 1002 0 is_stmt 0 discriminator 1
 1645 0086 611E     		subs	r1, r4, #1
 1646              	.LVL217:
 1647 0088 002C     		cmp	r4, #0
ARM GAS  C:\Users\YUANFA~1\AppData\Local\Temp\cctOMKNb.s 			page 63


 1648 008a F2D1     		bne	.L110
1008:Generated_Source\PSoC4/CapSense_Centroid_LL.c ****             {
 1649              		.loc 1 1008 0 is_stmt 1
 1650 008c 3C23     		movs	r3, #60
 1651 008e 5246     		mov	r2, r10
 1652 0090 D35C     		ldrb	r3, [r2, r3]
 1653 0092 002B     		cmp	r3, #0
 1654 0094 06D0     		beq	.L111
 1655              	.LVL218:
 1656 0096 08E0     		b	.L151
 1657              	.LVL219:
 1658              	.L113:
1014:Generated_Source\PSoC4/CapSense_Centroid_LL.c ****                 }
 1659              		.loc 1 1014 0 discriminator 3
 1660 0098 697A     		ldrb	r1, [r5, #9]
 1661 009a 009A     		ldr	r2, [sp]
 1662 009c 2000     		movs	r0, r4
 1663 009e FFF7FEFF 		bl	CapSense_NewTouch
 1664              	.LVL220:
1011:Generated_Source\PSoC4/CapSense_Centroid_LL.c ****                 {
 1665              		.loc 1 1011 0 discriminator 3
 1666 00a2 0134     		adds	r4, r4, #1
 1667              	.LVL221:
 1668              	.L111:
1011:Generated_Source\PSoC4/CapSense_Centroid_LL.c ****                 {
 1669              		.loc 1 1011 0 is_stmt 0 discriminator 1
 1670 00a4 BC42     		cmp	r4, r7
 1671 00a6 F7D3     		bcc	.L113
 1672 00a8 58E0     		b	.L114
 1673              	.LVL222:
 1674              	.L151:
1020:Generated_Source\PSoC4/CapSense_Centroid_LL.c ****                 {
 1675              		.loc 1 1020 0 is_stmt 1
 1676 00aa 9F42     		cmp	r7, r3
 1677 00ac 58D3     		bcc	.L115
1022:Generated_Source\PSoC4/CapSense_Centroid_LL.c ****                     {
 1678              		.loc 1 1022 0
 1679 00ae 012F     		cmp	r7, #1
 1680 00b0 07D1     		bne	.L116
1022:Generated_Source\PSoC4/CapSense_Centroid_LL.c ****                     {
 1681              		.loc 1 1022 0 is_stmt 0 discriminator 1
 1682 00b2 012B     		cmp	r3, #1
 1683 00b4 05D1     		bne	.L116
1025:Generated_Source\PSoC4/CapSense_Centroid_LL.c ****                     }
 1684              		.loc 1 1025 0 is_stmt 1
 1685 00b6 0021     		movs	r1, #0
 1686              	.LVL223:
 1687 00b8 3F33     		adds	r3, r3, #63
 1688 00ba 934A     		ldr	r2, .L152
 1689              	.LVL224:
 1690 00bc D154     		strb	r1, [r2, r3]
 1691              	.L118:
 1692 00be 2600     		movs	r6, r4
 1693              	.LVL225:
 1694 00c0 34E0     		b	.L117
 1695              	.LVL226:
 1696              	.L116:
ARM GAS  C:\Users\YUANFA~1\AppData\Local\Temp\cctOMKNb.s 			page 64


1030:Generated_Source\PSoC4/CapSense_Centroid_LL.c **** 
 1697              		.loc 1 1030 0
 1698 00c2 5146     		mov	r1, r10
 1699              	.LVL227:
 1700 00c4 3000     		movs	r0, r6
 1701 00c6 FFF7FEFF 		bl	CapSense_FillDistanceMap
 1702              	.LVL228:
1033:Generated_Source\PSoC4/CapSense_Centroid_LL.c ****                     }
 1703              		.loc 1 1033 0
 1704 00ca 3C23     		movs	r3, #60
 1705 00cc 5246     		mov	r2, r10
 1706 00ce D15C     		ldrb	r1, [r2, r3]
 1707 00d0 3300     		movs	r3, r6
 1708 00d2 8D4A     		ldr	r2, .L152
 1709 00d4 4032     		adds	r2, r2, #64
 1710 00d6 3800     		movs	r0, r7
 1711 00d8 FFF7FEFF 		bl	CapSense_Hungarian
 1712              	.LVL229:
 1713 00dc EFE7     		b	.L118
 1714              	.LVL230:
 1715              	.L121:
1038:Generated_Source\PSoC4/CapSense_Centroid_LL.c ****                             CapSense_CalcDistance((uint32)fingerPosIndex[i], i, ptrOldTouches))
 1716              		.loc 1 1038 0
 1717 00de 2B69     		ldr	r3, [r5, #16]
 1718 00e0 9B46     		mov	fp, r3
1039:Generated_Source\PSoC4/CapSense_Centroid_LL.c ****                         {
 1719              		.loc 1 1039 0
 1720 00e2 894B     		ldr	r3, .L152
 1721              	.LVL231:
 1722 00e4 9B19     		adds	r3, r3, r6
 1723              	.LVL232:
 1724 00e6 4033     		adds	r3, r3, #64
 1725 00e8 1B78     		ldrb	r3, [r3]
 1726 00ea 5BB2     		sxtb	r3, r3
 1727 00ec 5246     		mov	r2, r10
 1728              	.LVL233:
 1729 00ee 3100     		movs	r1, r6
 1730 00f0 0193     		str	r3, [sp, #4]
 1731 00f2 1800     		movs	r0, r3
 1732 00f4 FFF7FEFF 		bl	CapSense_CalcDistance
 1733              	.LVL234:
1038:Generated_Source\PSoC4/CapSense_Centroid_LL.c ****                             CapSense_CalcDistance((uint32)fingerPosIndex[i], i, ptrOldTouches))
 1734              		.loc 1 1038 0
 1735 00f8 8345     		cmp	fp, r0
 1736 00fa 05D2     		bcs	.L119
1042:Generated_Source\PSoC4/CapSense_Centroid_LL.c ****                         }
 1737              		.loc 1 1042 0
 1738 00fc 697A     		ldrb	r1, [r5, #9]
 1739 00fe 009A     		ldr	r2, [sp]
 1740 0100 0198     		ldr	r0, [sp, #4]
 1741 0102 FFF7FEFF 		bl	CapSense_NewTouch
 1742              	.LVL235:
 1743 0106 10E0     		b	.L120
 1744              	.L119:
1047:Generated_Source\PSoC4/CapSense_Centroid_LL.c ****                             CapSense_TransferTouch((uint32)fingerPosIndex[i], i, ptrOldTouches);
 1745              		.loc 1 1047 0
 1746 0108 7200     		lsls	r2, r6, #1
ARM GAS  C:\Users\YUANFA~1\AppData\Local\Temp\cctOMKNb.s 			page 65


 1747 010a 9219     		adds	r2, r2, r6
 1748 010c 9300     		lsls	r3, r2, #2
 1749 010e 5344     		add	r3, r3, r10
 1750 0110 5A7A     		ldrb	r2, [r3, #9]
 1751 0112 0123     		movs	r3, #1
 1752 0114 9340     		lsls	r3, r3, r2
 1753 0116 7C49     		ldr	r1, .L152
 1754              	.LVL236:
 1755 0118 3E22     		movs	r2, #62
 1756 011a 885C     		ldrb	r0, [r1, r2]
 1757 011c 0343     		orrs	r3, r0
 1758 011e 8B54     		strb	r3, [r1, r2]
1048:Generated_Source\PSoC4/CapSense_Centroid_LL.c ****                         }
 1759              		.loc 1 1048 0
 1760 0120 5246     		mov	r2, r10
 1761 0122 3100     		movs	r1, r6
 1762              	.LVL237:
 1763 0124 0198     		ldr	r0, [sp, #4]
 1764 0126 FFF7FEFF 		bl	CapSense_TransferTouch
 1765              	.LVL238:
 1766              	.L120:
1036:Generated_Source\PSoC4/CapSense_Centroid_LL.c ****                     {
 1767              		.loc 1 1036 0 discriminator 2
 1768 012a 0136     		adds	r6, r6, #1
 1769              	.LVL239:
 1770              	.L117:
1036:Generated_Source\PSoC4/CapSense_Centroid_LL.c ****                     {
 1771              		.loc 1 1036 0 is_stmt 0 discriminator 1
 1772 012c 3C23     		movs	r3, #60
 1773 012e 5246     		mov	r2, r10
 1774 0130 D35C     		ldrb	r3, [r2, r3]
 1775 0132 9E42     		cmp	r6, r3
 1776 0134 D3D3     		bcc	.L121
 1777              	.LVL240:
1053:Generated_Source\PSoC4/CapSense_Centroid_LL.c ****                     {
 1778              		.loc 1 1053 0 is_stmt 1
 1779 0136 9F42     		cmp	r7, r3
 1780 0138 0ED8     		bhi	.L122
 1781 013a 0FE0     		b	.L114
 1782              	.LVL241:
 1783              	.L124:
1059:Generated_Source\PSoC4/CapSense_Centroid_LL.c ****                             {
 1784              		.loc 1 1059 0
 1785 013c 6200     		lsls	r2, r4, #1
 1786 013e 1219     		adds	r2, r2, r4
 1787 0140 9300     		lsls	r3, r2, #2
 1788 0142 714A     		ldr	r2, .L152
 1789              	.LVL242:
 1790 0144 D318     		adds	r3, r2, r3
 1791 0146 5B7A     		ldrb	r3, [r3, #9]
 1792 0148 282B     		cmp	r3, #40
 1793 014a 04D1     		bne	.L123
1061:Generated_Source\PSoC4/CapSense_Centroid_LL.c ****                             }
 1794              		.loc 1 1061 0
 1795 014c 697A     		ldrb	r1, [r5, #9]
 1796 014e 009A     		ldr	r2, [sp]
 1797              	.LVL243:
ARM GAS  C:\Users\YUANFA~1\AppData\Local\Temp\cctOMKNb.s 			page 66


 1798 0150 2000     		movs	r0, r4
 1799 0152 FFF7FEFF 		bl	CapSense_NewTouch
 1800              	.LVL244:
 1801              	.L123:
1056:Generated_Source\PSoC4/CapSense_Centroid_LL.c ****                         {
 1802              		.loc 1 1056 0 discriminator 2
 1803 0156 0134     		adds	r4, r4, #1
 1804              	.LVL245:
 1805              	.L122:
1056:Generated_Source\PSoC4/CapSense_Centroid_LL.c ****                         {
 1806              		.loc 1 1056 0 is_stmt 0 discriminator 1
 1807 0158 BC42     		cmp	r4, r7
 1808 015a EFD3     		bcc	.L124
 1809              	.LVL246:
 1810              	.L114:
 1811 015c 0023     		movs	r3, #0
 1812 015e 54E0     		b	.L125
 1813              	.LVL247:
 1814              	.L115:
1071:Generated_Source\PSoC4/CapSense_Centroid_LL.c **** 
 1815              		.loc 1 1071 0 is_stmt 1
 1816 0160 5146     		mov	r1, r10
 1817              	.LVL248:
 1818 0162 3000     		movs	r0, r6
 1819 0164 FFF7FEFF 		bl	CapSense_FillDistanceMap
 1820              	.LVL249:
1074:Generated_Source\PSoC4/CapSense_Centroid_LL.c **** 
 1821              		.loc 1 1074 0
 1822 0168 3C23     		movs	r3, #60
 1823 016a 5246     		mov	r2, r10
 1824 016c D05C     		ldrb	r0, [r2, r3]
 1825 016e 3300     		movs	r3, r6
 1826 0170 654A     		ldr	r2, .L152
 1827 0172 4032     		adds	r2, r2, #64
 1828 0174 3900     		movs	r1, r7
 1829 0176 FFF7FEFF 		bl	CapSense_Hungarian
 1830              	.LVL250:
1076:Generated_Source\PSoC4/CapSense_Centroid_LL.c ****                     {
 1831              		.loc 1 1076 0
 1832 017a 25E0     		b	.L126
 1833              	.LVL251:
 1834              	.L129:
1078:Generated_Source\PSoC4/CapSense_Centroid_LL.c ****                             CapSense_CalcDistance(i, (uint32)fingerPosIndex[i], ptrOldTouches))
 1835              		.loc 1 1078 0
 1836 017c 2B69     		ldr	r3, [r5, #16]
 1837 017e 9946     		mov	r9, r3
1079:Generated_Source\PSoC4/CapSense_Centroid_LL.c ****                         {
 1838              		.loc 1 1079 0
 1839 0180 614B     		ldr	r3, .L152
 1840              	.LVL252:
 1841 0182 1B19     		adds	r3, r3, r4
 1842              	.LVL253:
 1843 0184 4033     		adds	r3, r3, #64
 1844 0186 0026     		movs	r6, #0
 1845 0188 9E57     		ldrsb	r6, [r3, r6]
 1846 018a 5246     		mov	r2, r10
 1847 018c 3100     		movs	r1, r6
ARM GAS  C:\Users\YUANFA~1\AppData\Local\Temp\cctOMKNb.s 			page 67


 1848 018e 2000     		movs	r0, r4
 1849 0190 FFF7FEFF 		bl	CapSense_CalcDistance
 1850              	.LVL254:
1078:Generated_Source\PSoC4/CapSense_Centroid_LL.c ****                             CapSense_CalcDistance(i, (uint32)fingerPosIndex[i], ptrOldTouches))
 1851              		.loc 1 1078 0
 1852 0194 8145     		cmp	r9, r0
 1853 0196 05D2     		bcs	.L127
1082:Generated_Source\PSoC4/CapSense_Centroid_LL.c ****                         }
 1854              		.loc 1 1082 0
 1855 0198 697A     		ldrb	r1, [r5, #9]
 1856 019a 009A     		ldr	r2, [sp]
 1857 019c 2000     		movs	r0, r4
 1858 019e FFF7FEFF 		bl	CapSense_NewTouch
 1859              	.LVL255:
 1860 01a2 10E0     		b	.L128
 1861              	.L127:
1087:Generated_Source\PSoC4/CapSense_Centroid_LL.c ****                             CapSense_TransferTouch(i, (uint32)fingerPosIndex[i], ptrOldTouches);
 1862              		.loc 1 1087 0
 1863 01a4 6200     		lsls	r2, r4, #1
 1864 01a6 1219     		adds	r2, r2, r4
 1865 01a8 9300     		lsls	r3, r2, #2
 1866 01aa 5344     		add	r3, r3, r10
 1867 01ac 5A7A     		ldrb	r2, [r3, #9]
 1868 01ae 0123     		movs	r3, #1
 1869 01b0 9340     		lsls	r3, r3, r2
 1870 01b2 5549     		ldr	r1, .L152
 1871              	.LVL256:
 1872 01b4 3E22     		movs	r2, #62
 1873 01b6 885C     		ldrb	r0, [r1, r2]
 1874 01b8 0343     		orrs	r3, r0
 1875 01ba 8B54     		strb	r3, [r1, r2]
1088:Generated_Source\PSoC4/CapSense_Centroid_LL.c ****                         }
 1876              		.loc 1 1088 0
 1877 01bc 5246     		mov	r2, r10
 1878 01be 3100     		movs	r1, r6
 1879              	.LVL257:
 1880 01c0 2000     		movs	r0, r4
 1881 01c2 FFF7FEFF 		bl	CapSense_TransferTouch
 1882              	.LVL258:
 1883              	.L128:
1076:Generated_Source\PSoC4/CapSense_Centroid_LL.c ****                     {
 1884              		.loc 1 1076 0 discriminator 2
 1885 01c6 0134     		adds	r4, r4, #1
 1886              	.LVL259:
 1887              	.L126:
1076:Generated_Source\PSoC4/CapSense_Centroid_LL.c ****                     {
 1888              		.loc 1 1076 0 is_stmt 0 discriminator 1
 1889 01c8 BC42     		cmp	r4, r7
 1890 01ca D7D3     		bcc	.L129
 1891 01cc C6E7     		b	.L114
 1892              	.LVL260:
 1893              	.L132:
 1894              	.LBB12:
 1895              	.LBB13:
1266:Generated_Source\PSoC4/CapSense_Centroid_LL.c ****         {
 1896              		.loc 1 1266 0 is_stmt 1
 1897 01ce 5900     		lsls	r1, r3, #1
ARM GAS  C:\Users\YUANFA~1\AppData\Local\Temp\cctOMKNb.s 			page 68


 1898              	.LVL261:
 1899 01d0 C918     		adds	r1, r1, r3
 1900 01d2 8A00     		lsls	r2, r1, #2
 1901 01d4 4C49     		ldr	r1, .L152
 1902              	.LVL262:
 1903 01d6 8A18     		adds	r2, r1, r2
 1904 01d8 927A     		ldrb	r2, [r2, #10]
 1905 01da 51B2     		sxtb	r1, r2
 1906              	.LVL263:
 1907 01dc 0029     		cmp	r1, #0
 1908 01de 13DA     		bge	.L130
1268:Generated_Source\PSoC4/CapSense_Centroid_LL.c ****             {
 1909              		.loc 1 1268 0
 1910 01e0 3F21     		movs	r1, #63
 1911 01e2 1140     		ands	r1, r2
 1912 01e4 0129     		cmp	r1, #1
 1913 01e6 08D8     		bhi	.L131
1273:Generated_Source\PSoC4/CapSense_Centroid_LL.c ****                     (uint8)~(CapSense_CSX_TOUCHPAD_TOUCH_DOWN | CapSense_CSX_TOUCHPAD_DEBOUNCE_MASK
 1914              		.loc 1 1273 0
 1915 01e8 5800     		lsls	r0, r3, #1
 1916 01ea C018     		adds	r0, r0, r3
 1917 01ec 8100     		lsls	r1, r0, #2
 1918 01ee 4648     		ldr	r0, .L152
 1919              	.LVL264:
 1920 01f0 4118     		adds	r1, r0, r1
 1921 01f2 4020     		movs	r0, #64
 1922              	.LVL265:
 1923 01f4 0240     		ands	r2, r0
 1924 01f6 8A72     		strb	r2, [r1, #10]
 1925 01f8 06E0     		b	.L130
 1926              	.L131:
1279:Generated_Source\PSoC4/CapSense_Centroid_LL.c ****             }
 1927              		.loc 1 1279 0
 1928 01fa 5900     		lsls	r1, r3, #1
 1929 01fc C918     		adds	r1, r1, r3
 1930 01fe 8A00     		lsls	r2, r1, #2
 1931 0200 4149     		ldr	r1, .L152
 1932              	.LVL266:
 1933 0202 8A18     		adds	r2, r1, r2
 1934 0204 0021     		movs	r1, #0
 1935              	.LVL267:
 1936 0206 D180     		strh	r1, [r2, #6]
 1937              	.L130:
1263:Generated_Source\PSoC4/CapSense_Centroid_LL.c ****     {
 1938              		.loc 1 1263 0
 1939 0208 0133     		adds	r3, r3, #1
 1940              	.LVL268:
 1941              	.L125:
 1942 020a 3C22     		movs	r2, #60
 1943 020c 3E49     		ldr	r1, .L152
 1944              	.LVL269:
 1945 020e 8A5C     		ldrb	r2, [r1, r2]
 1946 0210 9342     		cmp	r3, r2
 1947 0212 DCD3     		bcc	.L132
 1948              	.LVL270:
 1949              	.L109:
 1950              	.LBE13:
ARM GAS  C:\Users\YUANFA~1\AppData\Local\Temp\cctOMKNb.s 			page 69


 1951              	.LBE12:
1101:Generated_Source\PSoC4/CapSense_Centroid_LL.c ****         {
 1952              		.loc 1 1101 0
 1953 0214 3C23     		movs	r3, #60
 1954 0216 3C4A     		ldr	r2, .L152
 1955              	.LVL271:
 1956 0218 D35C     		ldrb	r3, [r2, r3]
 1957 021a 002B     		cmp	r3, #0
 1958 021c 04D1     		bne	.L133
1101:Generated_Source\PSoC4/CapSense_Centroid_LL.c ****         {
 1959              		.loc 1 1101 0 is_stmt 0 discriminator 1
 1960 021e 3C33     		adds	r3, r3, #60
 1961 0220 5246     		mov	r2, r10
 1962              	.LVL272:
 1963 0222 D35C     		ldrb	r3, [r2, r3]
 1964 0224 002B     		cmp	r3, #0
 1965 0226 6AD0     		beq	.L134
 1966              	.L133:
 1967              	.LBB14:
 1968              	.LBB15:
1612:Generated_Source\PSoC4/CapSense_Centroid_LL.c **** 
 1969              		.loc 1 1612 0 is_stmt 1
 1970 0228 3C23     		movs	r3, #60
 1971 022a 374A     		ldr	r2, .L152
 1972              	.LVL273:
 1973 022c D75C     		ldrb	r7, [r2, r3]
 1974              	.LVL274:
1619:Generated_Source\PSoC4/CapSense_Centroid_LL.c ****     {
 1975              		.loc 1 1619 0
 1976 022e 0024     		movs	r4, #0
 1977 0230 23E0     		b	.L135
 1978              	.LVL275:
 1979              	.L141:
1621:Generated_Source\PSoC4/CapSense_Centroid_LL.c ****         {
 1980              		.loc 1 1621 0
 1981 0232 6200     		lsls	r2, r4, #1
 1982 0234 1219     		adds	r2, r2, r4
 1983 0236 9300     		lsls	r3, r2, #2
 1984 0238 334A     		ldr	r2, .L152
 1985              	.LVL276:
 1986 023a D318     		adds	r3, r2, r3
 1987 023c 5B7A     		ldrb	r3, [r3, #9]
 1988 023e 042B     		cmp	r3, #4
 1989 0240 1AD9     		bls	.L136
1623:Generated_Source\PSoC4/CapSense_Centroid_LL.c ****             {
 1990              		.loc 1 1623 0
 1991 0242 7B1E     		subs	r3, r7, #1
 1992              	.LVL277:
 1993 0244 15E0     		b	.L137
 1994              	.LVL278:
 1995              	.L140:
1628:Generated_Source\PSoC4/CapSense_Centroid_LL.c ****                 {
 1996              		.loc 1 1628 0
 1997 0246 5900     		lsls	r1, r3, #1
 1998 0248 C918     		adds	r1, r1, r3
 1999 024a 8A00     		lsls	r2, r1, #2
 2000 024c 2E49     		ldr	r1, .L152
ARM GAS  C:\Users\YUANFA~1\AppData\Local\Temp\cctOMKNb.s 			page 70


 2001              	.LVL279:
 2002 024e 8A18     		adds	r2, r1, r2
 2003 0250 527A     		ldrb	r2, [r2, #9]
 2004 0252 042A     		cmp	r2, #4
 2005 0254 0BD8     		bhi	.L138
1630:Generated_Source\PSoC4/CapSense_Centroid_LL.c **** 
 2006              		.loc 1 1630 0
 2007 0256 0800     		movs	r0, r1
 2008 0258 5A00     		lsls	r2, r3, #1
 2009 025a D318     		adds	r3, r2, r3
 2010              	.LVL280:
 2011 025c 9900     		lsls	r1, r3, #2
 2012              	.LVL281:
 2013 025e 4118     		adds	r1, r0, r1
 2014 0260 6200     		lsls	r2, r4, #1
 2015 0262 1219     		adds	r2, r2, r4
 2016 0264 9300     		lsls	r3, r2, #2
 2017 0266 C018     		adds	r0, r0, r3
 2018              	.LVL282:
 2019 0268 FFF7FEFF 		bl	CapSense_CopyTouchRecord
 2020              	.LVL283:
 2021 026c 03E0     		b	.L139
 2022              	.LVL284:
 2023              	.L138:
1640:Generated_Source\PSoC4/CapSense_Centroid_LL.c ****                 }
 2024              		.loc 1 1640 0
 2025 026e 013F     		subs	r7, r7, #1
 2026              	.LVL285:
1623:Generated_Source\PSoC4/CapSense_Centroid_LL.c ****             {
 2027              		.loc 1 1623 0
 2028 0270 013B     		subs	r3, r3, #1
 2029              	.LVL286:
 2030              	.L137:
 2031 0272 9C42     		cmp	r4, r3
 2032 0274 E7D3     		bcc	.L140
 2033              	.LVL287:
 2034              	.L139:
1647:Generated_Source\PSoC4/CapSense_Centroid_LL.c ****         }
 2035              		.loc 1 1647 0
 2036 0276 013F     		subs	r7, r7, #1
 2037              	.LVL288:
 2038              	.L136:
1619:Generated_Source\PSoC4/CapSense_Centroid_LL.c ****     {
 2039              		.loc 1 1619 0
 2040 0278 0134     		adds	r4, r4, #1
 2041              	.LVL289:
 2042              	.L135:
 2043 027a BC42     		cmp	r4, r7
 2044 027c D9D3     		bcc	.L141
1652:Generated_Source\PSoC4/CapSense_Centroid_LL.c **** 
 2045              		.loc 1 1652 0
 2046 027e 3C23     		movs	r3, #60
 2047 0280 214A     		ldr	r2, .L152
 2048              	.LVL290:
 2049 0282 D754     		strb	r7, [r2, r3]
 2050              	.LVL291:
1655:Generated_Source\PSoC4/CapSense_Centroid_LL.c ****     {
ARM GAS  C:\Users\YUANFA~1\AppData\Local\Temp\cctOMKNb.s 			page 71


 2051              		.loc 1 1655 0
 2052 0284 0026     		movs	r6, #0
 2053 0286 38E0     		b	.L142
 2054              	.LVL292:
 2055              	.L147:
1657:Generated_Source\PSoC4/CapSense_Centroid_LL.c ****         {
 2056              		.loc 1 1657 0
 2057 0288 731C     		adds	r3, r6, #1
 2058 028a 0193     		str	r3, [sp, #4]
 2059              	.LVL293:
 2060 028c 1C00     		movs	r4, r3
 2061 028e 31E0     		b	.L143
 2062              	.LVL294:
 2063              	.L146:
1660:Generated_Source\PSoC4/CapSense_Centroid_LL.c ****                 ((ptrNewTouches->touch[i].age == ptrNewTouches->touch[j].age) &&
 2064              		.loc 1 1660 0
 2065 0290 1D48     		ldr	r0, .L152
 2066              	.LVL295:
 2067 0292 7100     		lsls	r1, r6, #1
 2068 0294 8919     		adds	r1, r1, r6
 2069 0296 8A00     		lsls	r2, r1, #2
 2070 0298 8218     		adds	r2, r0, r2
 2071 029a D188     		ldrh	r1, [r2, #6]
 2072 029c 6200     		lsls	r2, r4, #1
 2073 029e 1219     		adds	r2, r2, r4
 2074 02a0 9300     		lsls	r3, r2, #2
 2075 02a2 C318     		adds	r3, r0, r3
 2076 02a4 DB88     		ldrh	r3, [r3, #6]
 2077 02a6 9942     		cmp	r1, r3
 2078 02a8 0CD3     		bcc	.L144
 2079 02aa 22D1     		bne	.L145
1662:Generated_Source\PSoC4/CapSense_Centroid_LL.c ****             {
 2080              		.loc 1 1662 0
 2081 02ac 7100     		lsls	r1, r6, #1
 2082 02ae 8919     		adds	r1, r1, r6
 2083 02b0 8A00     		lsls	r2, r1, #2
 2084 02b2 8218     		adds	r2, r0, r2
 2085 02b4 517A     		ldrb	r1, [r2, #9]
 2086 02b6 6200     		lsls	r2, r4, #1
 2087 02b8 1219     		adds	r2, r2, r4
 2088 02ba 9300     		lsls	r3, r2, #2
 2089 02bc C318     		adds	r3, r0, r3
 2090 02be 5B7A     		ldrb	r3, [r3, #9]
1661:Generated_Source\PSoC4/CapSense_Centroid_LL.c ****                  (ptrNewTouches->touch[i].id > ptrNewTouches->touch[j].id)))
 2091              		.loc 1 1661 0
 2092 02c0 9942     		cmp	r1, r3
 2093 02c2 16D9     		bls	.L145
 2094              	.L144:
1665:Generated_Source\PSoC4/CapSense_Centroid_LL.c ****                 CapSense_CopyTouchRecord(&ptrNewTouches->touch[i], &ptrNewTouches->touch[j]);
 2095              		.loc 1 1665 0
 2096 02c4 104D     		ldr	r5, .L152
 2097 02c6 7300     		lsls	r3, r6, #1
 2098 02c8 9B19     		adds	r3, r3, r6
 2099 02ca 9A00     		lsls	r2, r3, #2
 2100 02cc AB18     		adds	r3, r5, r2
 2101 02ce 0093     		str	r3, [sp]
 2102 02d0 1900     		movs	r1, r3
ARM GAS  C:\Users\YUANFA~1\AppData\Local\Temp\cctOMKNb.s 			page 72


 2103 02d2 03AA     		add	r2, sp, #12
 2104 02d4 1000     		movs	r0, r2
 2105              	.LVL296:
 2106 02d6 FFF7FEFF 		bl	CapSense_CopyTouchRecord
 2107              	.LVL297:
1666:Generated_Source\PSoC4/CapSense_Centroid_LL.c ****                 CapSense_CopyTouchRecord(&ptrNewTouches->touch[j], &tempTouch);
 2108              		.loc 1 1666 0
 2109 02da 6300     		lsls	r3, r4, #1
 2110 02dc 1B19     		adds	r3, r3, r4
 2111 02de 9A00     		lsls	r2, r3, #2
 2112 02e0 AD18     		adds	r5, r5, r2
 2113              	.LVL298:
 2114 02e2 2900     		movs	r1, r5
 2115 02e4 0098     		ldr	r0, [sp]
 2116 02e6 FFF7FEFF 		bl	CapSense_CopyTouchRecord
 2117              	.LVL299:
1667:Generated_Source\PSoC4/CapSense_Centroid_LL.c ****             }
 2118              		.loc 1 1667 0
 2119 02ea 03A9     		add	r1, sp, #12
 2120 02ec 2800     		movs	r0, r5
 2121 02ee FFF7FEFF 		bl	CapSense_CopyTouchRecord
 2122              	.LVL300:
 2123              	.L145:
1657:Generated_Source\PSoC4/CapSense_Centroid_LL.c ****         {
 2124              		.loc 1 1657 0
 2125 02f2 0134     		adds	r4, r4, #1
 2126              	.LVL301:
 2127              	.L143:
 2128 02f4 A742     		cmp	r7, r4
 2129 02f6 CBD8     		bhi	.L146
1655:Generated_Source\PSoC4/CapSense_Centroid_LL.c ****     {
 2130              		.loc 1 1655 0
 2131 02f8 019E     		ldr	r6, [sp, #4]
 2132              	.LVL302:
 2133              	.L142:
 2134 02fa BE42     		cmp	r6, r7
 2135 02fc C4D3     		bcc	.L147
 2136              	.LVL303:
 2137              	.L134:
 2138              	.LBE15:
 2139              	.LBE14:
1107:Generated_Source\PSoC4/CapSense_Centroid_LL.c ****         {
 2140              		.loc 1 1107 0
 2141 02fe 3C23     		movs	r3, #60
 2142 0300 014A     		ldr	r2, .L152
 2143              	.LVL304:
 2144 0302 D35C     		ldrb	r3, [r2, r3]
 2145              	.LVL305:
 2146 0304 0DE0     		b	.L148
 2147              	.L153:
 2148 0306 C046     		.align	2
 2149              	.L152:
 2150 0308 00000000 		.word	.LANCHOR0
 2151              	.LVL306:
 2152              	.L149:
1109:Generated_Source\PSoC4/CapSense_Centroid_LL.c ****         }
 2153              		.loc 1 1109 0
ARM GAS  C:\Users\YUANFA~1\AppData\Local\Temp\cctOMKNb.s 			page 73


 2154 030c 6300     		lsls	r3, r4, #1
 2155 030e 1A19     		adds	r2, r3, r4
 2156 0310 9100     		lsls	r1, r2, #2
 2157 0312 0D4A     		ldr	r2, .L154
 2158              	.LVL307:
 2159 0314 5118     		adds	r1, r2, r1
 2160 0316 1B19     		adds	r3, r3, r4
 2161 0318 9800     		lsls	r0, r3, #2
 2162 031a 5044     		add	r0, r0, r10
 2163 031c FFF7FEFF 		bl	CapSense_CopyTouchRecord
 2164              	.LVL308:
1107:Generated_Source\PSoC4/CapSense_Centroid_LL.c ****         {
 2165              		.loc 1 1107 0
 2166 0320 2300     		movs	r3, r4
 2167              	.LVL309:
 2168              	.L148:
1107:Generated_Source\PSoC4/CapSense_Centroid_LL.c ****         {
 2169              		.loc 1 1107 0 is_stmt 0 discriminator 1
 2170 0322 5C1E     		subs	r4, r3, #1
 2171              	.LVL310:
 2172 0324 002B     		cmp	r3, #0
 2173 0326 F1D1     		bne	.L149
1112:Generated_Source\PSoC4/CapSense_Centroid_LL.c **** 
 2174              		.loc 1 1112 0 is_stmt 1
 2175 0328 074B     		ldr	r3, .L154
 2176              	.LVL311:
 2177 032a 3C22     		movs	r2, #60
 2178 032c 995C     		ldrb	r1, [r3, r2]
 2179 032e 5046     		mov	r0, r10
 2180 0330 8154     		strb	r1, [r0, r2]
1115:Generated_Source\PSoC4/CapSense_Centroid_LL.c ****     }
 2181              		.loc 1 1115 0
 2182 0332 0232     		adds	r2, r2, #2
 2183 0334 995C     		ldrb	r1, [r3, r2]
 2184 0336 0132     		adds	r2, r2, #1
 2185 0338 9954     		strb	r1, [r3, r2]
 2186              	.LVL312:
 2187              	.L103:
1117:Generated_Source\PSoC4/CapSense_Centroid_LL.c **** 
 2188              		.loc 1 1117 0
 2189 033a 06B0     		add	sp, sp, #24
 2190              		@ sp needed
 2191              	.LVL313:
 2192 033c 1CBC     		pop	{r2, r3, r4}
 2193 033e 9146     		mov	r9, r2
 2194 0340 9A46     		mov	r10, r3
 2195 0342 A346     		mov	fp, r4
 2196 0344 F0BD     		pop	{r4, r5, r6, r7, pc}
 2197              	.L155:
 2198 0346 C046     		.align	2
 2199              	.L154:
 2200 0348 00000000 		.word	.LANCHOR0
 2201              		.cfi_endproc
 2202              	.LFE3:
 2203              		.size	CapSense_DpTouchTracking, .-CapSense_DpTouchTracking
 2204              		.section	.text.CapSense_DpFilterTouchRecord,"ax",%progbits
 2205              		.align	2
ARM GAS  C:\Users\YUANFA~1\AppData\Local\Temp\cctOMKNb.s 			page 74


 2206              		.global	CapSense_DpFilterTouchRecord
 2207              		.code	16
 2208              		.thumb_func
 2209              		.type	CapSense_DpFilterTouchRecord, %function
 2210              	CapSense_DpFilterTouchRecord:
 2211              	.LFB13:
1699:Generated_Source\PSoC4/CapSense_Centroid_LL.c **** 
1700:Generated_Source\PSoC4/CapSense_Centroid_LL.c **** 
1701:Generated_Source\PSoC4/CapSense_Centroid_LL.c **** /*******************************************************************************
1702:Generated_Source\PSoC4/CapSense_Centroid_LL.c **** * Function Name: CapSense_DpFilterTouchRecord
1703:Generated_Source\PSoC4/CapSense_Centroid_LL.c **** ****************************************************************************//**
1704:Generated_Source\PSoC4/CapSense_Centroid_LL.c **** *
1705:Generated_Source\PSoC4/CapSense_Centroid_LL.c **** * \brief
1706:Generated_Source\PSoC4/CapSense_Centroid_LL.c **** *   Filter position data of every valid touch, if there is a room in RAM Widget Data Structure
1707:Generated_Source\PSoC4/CapSense_Centroid_LL.c **** *   and update corresponding fields in RAM Widget Data Structure
1708:Generated_Source\PSoC4/CapSense_Centroid_LL.c **** *
1709:Generated_Source\PSoC4/CapSense_Centroid_LL.c **** * \details
1710:Generated_Source\PSoC4/CapSense_Centroid_LL.c **** *  This API checks every touch in the new touches structure if it is valid until there is a room
1711:Generated_Source\PSoC4/CapSense_Centroid_LL.c **** *  in the RAM Widget Data Structure (where touch reports are stored). If touch is valid
1712:Generated_Source\PSoC4/CapSense_Centroid_LL.c **** *  (valid id and age > 0) then touch is filtered if filter is enabled. At the end the
1713:Generated_Source\PSoC4/CapSense_Centroid_LL.c **** *  corresponding fields are updated in the RAM Widget Data Structure.
1714:Generated_Source\PSoC4/CapSense_Centroid_LL.c **** *
1715:Generated_Source\PSoC4/CapSense_Centroid_LL.c **** * \param ptrFlashWdgt The pointer to the Flash Widget Structure.
1716:Generated_Source\PSoC4/CapSense_Centroid_LL.c **** *
1717:Generated_Source\PSoC4/CapSense_Centroid_LL.c **** * \return The number of reported touches to the RAM Data Structure.
1718:Generated_Source\PSoC4/CapSense_Centroid_LL.c **** *
1719:Generated_Source\PSoC4/CapSense_Centroid_LL.c **** *******************************************************************************/
1720:Generated_Source\PSoC4/CapSense_Centroid_LL.c **** uint32 CapSense_DpFilterTouchRecord(CapSense_FLASH_WD_STRUCT const *ptrFlashWdgt)
1721:Generated_Source\PSoC4/CapSense_Centroid_LL.c **** {
 2212              		.loc 1 1721 0
 2213              		.cfi_startproc
 2214              		@ args = 0, pretend = 0, frame = 0
 2215              		@ frame_needed = 0, uses_anonymous_args = 0
 2216              	.LVL314:
 2217 0000 F0B5     		push	{r4, r5, r6, r7, lr}
 2218              		.cfi_def_cfa_offset 20
 2219              		.cfi_offset 4, -20
 2220              		.cfi_offset 5, -16
 2221              		.cfi_offset 6, -12
 2222              		.cfi_offset 7, -8
 2223              		.cfi_offset 14, -4
 2224              	.LVL315:
1722:Generated_Source\PSoC4/CapSense_Centroid_LL.c ****     uint32 i;
1723:Generated_Source\PSoC4/CapSense_Centroid_LL.c ****     uint32 reportedTouchNum = 0u;
1724:Generated_Source\PSoC4/CapSense_Centroid_LL.c ****     CapSense_RAM_WD_CSX_TOUCHPAD_STRUCT *ptrWidgetRam = ptrFlashWdgt->ptr2WdgtRam;
 2225              		.loc 1 1724 0
 2226 0002 4468     		ldr	r4, [r0, #4]
 2227              	.LVL316:
1723:Generated_Source\PSoC4/CapSense_Centroid_LL.c ****     CapSense_RAM_WD_CSX_TOUCHPAD_STRUCT *ptrWidgetRam = ptrFlashWdgt->ptr2WdgtRam;
 2228              		.loc 1 1723 0
 2229 0004 0020     		movs	r0, #0
 2230              	.LVL317:
1725:Generated_Source\PSoC4/CapSense_Centroid_LL.c **** 
1726:Generated_Source\PSoC4/CapSense_Centroid_LL.c ****     #if (0u != CapSense_POSITION_FILTER_EN)
1727:Generated_Source\PSoC4/CapSense_Centroid_LL.c ****         uint32 oldIdMask = 0u;
1728:Generated_Source\PSoC4/CapSense_Centroid_LL.c ****         uint32 j;
1729:Generated_Source\PSoC4/CapSense_Centroid_LL.c ****         uint16 filteredX;
ARM GAS  C:\Users\YUANFA~1\AppData\Local\Temp\cctOMKNb.s 			page 75


1730:Generated_Source\PSoC4/CapSense_Centroid_LL.c ****         uint16 filteredY;
1731:Generated_Source\PSoC4/CapSense_Centroid_LL.c ****         CapSense_TOUCHPAD_POS_HISTORY_STRUCT *ptrHistory;
1732:Generated_Source\PSoC4/CapSense_Centroid_LL.c **** 
1733:Generated_Source\PSoC4/CapSense_Centroid_LL.c ****     #endif /* (0u != CapSense_POSITION_FILTER_EN) */
1734:Generated_Source\PSoC4/CapSense_Centroid_LL.c **** 
1735:Generated_Source\PSoC4/CapSense_Centroid_LL.c ****     #if (0u != CapSense_POSITION_FILTER_EN)
1736:Generated_Source\PSoC4/CapSense_Centroid_LL.c ****         ptrHistory = ptrFlashWdgt->ptr2PosHistory;
1737:Generated_Source\PSoC4/CapSense_Centroid_LL.c ****         /* Find what Ids were active in the previous report */
1738:Generated_Source\PSoC4/CapSense_Centroid_LL.c ****         for (i = 0u; i < CapSense_CSX_MAX_FINGERS; i++)
1739:Generated_Source\PSoC4/CapSense_Centroid_LL.c ****         {
1740:Generated_Source\PSoC4/CapSense_Centroid_LL.c ****             oldIdMask |= 0x01Lu << ptrWidgetRam->touch[i].id;
1741:Generated_Source\PSoC4/CapSense_Centroid_LL.c ****         }
1742:Generated_Source\PSoC4/CapSense_Centroid_LL.c ****     #endif /* (0u != CapSense_POSITION_FILTER_EN) */
1743:Generated_Source\PSoC4/CapSense_Centroid_LL.c **** 
1744:Generated_Source\PSoC4/CapSense_Centroid_LL.c ****     /* Go through all touch fields in RAM Data Structure */
1745:Generated_Source\PSoC4/CapSense_Centroid_LL.c ****     for (i = 0u; i < CapSense_CSX_MAX_FINGERS; i++)
 2231              		.loc 1 1745 0
 2232 0006 0023     		movs	r3, #0
 2233 0008 2AE0     		b	.L157
 2234              	.LVL318:
 2235              	.L160:
1746:Generated_Source\PSoC4/CapSense_Centroid_LL.c ****     {
1747:Generated_Source\PSoC4/CapSense_Centroid_LL.c ****         /* Check if touch is valid to be reported: age has to be higher than 0. Id has been checked
1748:Generated_Source\PSoC4/CapSense_Centroid_LL.c ****         if ((i < ptrNewTouches->touchNum) && (ptrNewTouches->touch[i].age > 0u))
 2236              		.loc 1 1748 0
 2237 000a 3C22     		movs	r2, #60
 2238 000c 1649     		ldr	r1, .L161
 2239 000e 8A5C     		ldrb	r2, [r1, r2]
 2240 0010 9342     		cmp	r3, r2
 2241 0012 19D2     		bcs	.L158
 2242              		.loc 1 1748 0 is_stmt 0 discriminator 1
 2243 0014 5900     		lsls	r1, r3, #1
 2244 0016 C918     		adds	r1, r1, r3
 2245 0018 8A00     		lsls	r2, r1, #2
 2246 001a 1349     		ldr	r1, .L161
 2247 001c 8A18     		adds	r2, r1, r2
 2248 001e D288     		ldrh	r2, [r2, #6]
 2249 0020 002A     		cmp	r2, #0
 2250 0022 11D0     		beq	.L158
1749:Generated_Source\PSoC4/CapSense_Centroid_LL.c ****         {
1750:Generated_Source\PSoC4/CapSense_Centroid_LL.c ****             #if (0u == CapSense_POSITION_FILTER_EN)
1751:Generated_Source\PSoC4/CapSense_Centroid_LL.c ****                 /* Report touch to the RAM Data Structure if position filter is disabled in general
1752:Generated_Source\PSoC4/CapSense_Centroid_LL.c ****                 ptrWidgetRam->touch[i].x = ptrNewTouches->touch[i].x;
 2251              		.loc 1 1752 0 is_stmt 1
 2252 0024 0E00     		movs	r6, r1
 2253 0026 5D00     		lsls	r5, r3, #1
 2254 0028 E918     		adds	r1, r5, r3
 2255 002a 8A00     		lsls	r2, r1, #2
 2256 002c 975B     		ldrh	r7, [r2, r6]
 2257 002e 4A00     		lsls	r2, r1, #1
 2258 0030 A218     		adds	r2, r4, r2
 2259 0032 9782     		strh	r7, [r2, #20]
1753:Generated_Source\PSoC4/CapSense_Centroid_LL.c ****                 ptrWidgetRam->touch[i].y = ptrNewTouches->touch[i].y;
 2260              		.loc 1 1753 0
 2261 0034 8900     		lsls	r1, r1, #2
 2262 0036 7118     		adds	r1, r6, r1
 2263 0038 4D88     		ldrh	r5, [r1, #2]
ARM GAS  C:\Users\YUANFA~1\AppData\Local\Temp\cctOMKNb.s 			page 76


 2264 003a D582     		strh	r5, [r2, #22]
1754:Generated_Source\PSoC4/CapSense_Centroid_LL.c ****                 ptrWidgetRam->touch[i].z = ptrNewTouches->touch[i].z;
 2265              		.loc 1 1754 0
 2266 003c 0D7A     		ldrb	r5, [r1, #8]
 2267 003e 1576     		strb	r5, [r2, #24]
1755:Generated_Source\PSoC4/CapSense_Centroid_LL.c ****                 ptrWidgetRam->touch[i].id = ptrNewTouches->touch[i].id;
 2268              		.loc 1 1755 0
 2269 0040 497A     		ldrb	r1, [r1, #9]
 2270 0042 5176     		strb	r1, [r2, #25]
1756:Generated_Source\PSoC4/CapSense_Centroid_LL.c ****             #else
1757:Generated_Source\PSoC4/CapSense_Centroid_LL.c **** 
1758:Generated_Source\PSoC4/CapSense_Centroid_LL.c ****                 filteredX = ptrNewTouches->touch[i].x;
1759:Generated_Source\PSoC4/CapSense_Centroid_LL.c ****                 filteredY = ptrNewTouches->touch[i].y;
1760:Generated_Source\PSoC4/CapSense_Centroid_LL.c **** 
1761:Generated_Source\PSoC4/CapSense_Centroid_LL.c ****                 /* Initialize position and filter history if the touch has the id that was absent i
1762:Generated_Source\PSoC4/CapSense_Centroid_LL.c ****                 if (0u == (oldIdMask & (1Lu << ptrNewTouches->touch[i].id)))
1763:Generated_Source\PSoC4/CapSense_Centroid_LL.c ****                 {
1764:Generated_Source\PSoC4/CapSense_Centroid_LL.c ****                     ptrWidgetRam->touch[i].x = ptrNewTouches->touch[i].x;
1765:Generated_Source\PSoC4/CapSense_Centroid_LL.c ****                     ptrWidgetRam->touch[i].y = ptrNewTouches->touch[i].y;
1766:Generated_Source\PSoC4/CapSense_Centroid_LL.c ****                     ptrWidgetRam->touch[i].z = ptrNewTouches->touch[i].z;
1767:Generated_Source\PSoC4/CapSense_Centroid_LL.c ****                     ptrWidgetRam->touch[i].id = ptrNewTouches->touch[i].id;
1768:Generated_Source\PSoC4/CapSense_Centroid_LL.c ****                     if (NULL != ptrHistory)
1769:Generated_Source\PSoC4/CapSense_Centroid_LL.c ****                     {
1770:Generated_Source\PSoC4/CapSense_Centroid_LL.c ****                         CapSense_InitPosFiltersDd(&ptrHistory[i], filteredX, filteredY);
1771:Generated_Source\PSoC4/CapSense_Centroid_LL.c ****                     }
1772:Generated_Source\PSoC4/CapSense_Centroid_LL.c ****                 }
1773:Generated_Source\PSoC4/CapSense_Centroid_LL.c ****                 /* Find corresponding position history of the new touch (by id) in the RAW Widget D
1774:Generated_Source\PSoC4/CapSense_Centroid_LL.c ****                 else
1775:Generated_Source\PSoC4/CapSense_Centroid_LL.c ****                 {
1776:Generated_Source\PSoC4/CapSense_Centroid_LL.c ****                     /*
1777:Generated_Source\PSoC4/CapSense_Centroid_LL.c ****                     * Index <i> addresses new touch array and final reported in data structure arra
1778:Generated_Source\PSoC4/CapSense_Centroid_LL.c ****                     * Index <j> addresses filter history and previously reported in data structure 
1779:Generated_Source\PSoC4/CapSense_Centroid_LL.c ****                     *
1780:Generated_Source\PSoC4/CapSense_Centroid_LL.c ****                     * If new touch appears, then it is always added at the and of arrays, therefore
1781:Generated_Source\PSoC4/CapSense_Centroid_LL.c ****                     * is safe to overwrite history with new touch.
1782:Generated_Source\PSoC4/CapSense_Centroid_LL.c ****                     * Another case is moving touch from its previous reported index to new index.
1783:Generated_Source\PSoC4/CapSense_Centroid_LL.c ****                     * This new index is always lower, so filter history of touch (i-1) was already 
1784:Generated_Source\PSoC4/CapSense_Centroid_LL.c ****                     * and processed for touch (i-1). Therefore, again, it is safely to copy filter 
1785:Generated_Source\PSoC4/CapSense_Centroid_LL.c ****                     * from j to i.
1786:Generated_Source\PSoC4/CapSense_Centroid_LL.c ****                     */
1787:Generated_Source\PSoC4/CapSense_Centroid_LL.c ****                     for(j = 0u; j < CapSense_CSX_MAX_FINGERS; j++)
1788:Generated_Source\PSoC4/CapSense_Centroid_LL.c ****                     {
1789:Generated_Source\PSoC4/CapSense_Centroid_LL.c ****                         if(ptrNewTouches->touch[i].id == ptrWidgetRam->touch[j].id)
1790:Generated_Source\PSoC4/CapSense_Centroid_LL.c ****                         {
1791:Generated_Source\PSoC4/CapSense_Centroid_LL.c ****                             CapSense_RunPosFiltersDd(ptrFlashWdgt, i, j, &filteredX, &filteredY);
1792:Generated_Source\PSoC4/CapSense_Centroid_LL.c **** 
1793:Generated_Source\PSoC4/CapSense_Centroid_LL.c ****                             ptrWidgetRam->touch[i].x = filteredX;
1794:Generated_Source\PSoC4/CapSense_Centroid_LL.c ****                             ptrWidgetRam->touch[i].y = filteredY;
1795:Generated_Source\PSoC4/CapSense_Centroid_LL.c ****                             ptrWidgetRam->touch[i].z = ptrNewTouches->touch[i].z;
1796:Generated_Source\PSoC4/CapSense_Centroid_LL.c ****                             ptrWidgetRam->touch[i].id = ptrNewTouches->touch[i].id;
1797:Generated_Source\PSoC4/CapSense_Centroid_LL.c ****                         }
1798:Generated_Source\PSoC4/CapSense_Centroid_LL.c ****                     }
1799:Generated_Source\PSoC4/CapSense_Centroid_LL.c ****                 }
1800:Generated_Source\PSoC4/CapSense_Centroid_LL.c ****             #endif
1801:Generated_Source\PSoC4/CapSense_Centroid_LL.c ****             reportedTouchNum++;
 2271              		.loc 1 1801 0
 2272 0044 0130     		adds	r0, r0, #1
ARM GAS  C:\Users\YUANFA~1\AppData\Local\Temp\cctOMKNb.s 			page 77


 2273              	.LVL319:
 2274 0046 0AE0     		b	.L159
 2275              	.L158:
1802:Generated_Source\PSoC4/CapSense_Centroid_LL.c ****         }
1803:Generated_Source\PSoC4/CapSense_Centroid_LL.c ****         else
1804:Generated_Source\PSoC4/CapSense_Centroid_LL.c ****         {
1805:Generated_Source\PSoC4/CapSense_Centroid_LL.c ****             ptrWidgetRam->touch[i].x = CapSense_CSX_TOUCHPAD_POSITION_NONE;
 2276              		.loc 1 1805 0
 2277 0048 5900     		lsls	r1, r3, #1
 2278 004a C918     		adds	r1, r1, r3
 2279 004c 4A00     		lsls	r2, r1, #1
 2280 004e A218     		adds	r2, r4, r2
 2281 0050 0121     		movs	r1, #1
 2282 0052 4942     		rsbs	r1, r1, #0
 2283 0054 9182     		strh	r1, [r2, #20]
1806:Generated_Source\PSoC4/CapSense_Centroid_LL.c ****             ptrWidgetRam->touch[i].y = CapSense_CSX_TOUCHPAD_POSITION_NONE;
 2284              		.loc 1 1806 0
 2285 0056 D182     		strh	r1, [r2, #22]
1807:Generated_Source\PSoC4/CapSense_Centroid_LL.c ****             ptrWidgetRam->touch[i].z = LO8(CapSense_CSX_TOUCHPAD_POSITION_NONE);
 2286              		.loc 1 1807 0
 2287 0058 1176     		strb	r1, [r2, #24]
1808:Generated_Source\PSoC4/CapSense_Centroid_LL.c ****             ptrWidgetRam->touch[i].id = CapSense_CSX_TOUCHPAD_UNDEFINED;
 2288              		.loc 1 1808 0
 2289 005a 2931     		adds	r1, r1, #41
 2290 005c 5176     		strb	r1, [r2, #25]
 2291              	.L159:
1745:Generated_Source\PSoC4/CapSense_Centroid_LL.c ****     {
 2292              		.loc 1 1745 0 discriminator 2
 2293 005e 0133     		adds	r3, r3, #1
 2294              	.LVL320:
 2295              	.L157:
1745:Generated_Source\PSoC4/CapSense_Centroid_LL.c ****     {
 2296              		.loc 1 1745 0 is_stmt 0 discriminator 1
 2297 0060 002B     		cmp	r3, #0
 2298 0062 D2D0     		beq	.L160
1809:Generated_Source\PSoC4/CapSense_Centroid_LL.c **** 
1810:Generated_Source\PSoC4/CapSense_Centroid_LL.c ****             #if (0u != CapSense_POSITION_FILTER_EN)
1811:Generated_Source\PSoC4/CapSense_Centroid_LL.c ****                 if (NULL != ptrHistory)
1812:Generated_Source\PSoC4/CapSense_Centroid_LL.c ****                 {
1813:Generated_Source\PSoC4/CapSense_Centroid_LL.c ****                     /* Initialize history for non-valid touches */
1814:Generated_Source\PSoC4/CapSense_Centroid_LL.c ****                     CapSense_InitPosFiltersDd(&ptrHistory[i], CapSense_CSX_TOUCHPAD_POSITION_NONE, 
1815:Generated_Source\PSoC4/CapSense_Centroid_LL.c ****                 }
1816:Generated_Source\PSoC4/CapSense_Centroid_LL.c ****             #endif /* (0u != CapSense_POSITION_FILTER_EN) */
1817:Generated_Source\PSoC4/CapSense_Centroid_LL.c ****         }
1818:Generated_Source\PSoC4/CapSense_Centroid_LL.c ****     }
1819:Generated_Source\PSoC4/CapSense_Centroid_LL.c ****     return reportedTouchNum;
1820:Generated_Source\PSoC4/CapSense_Centroid_LL.c **** }
 2299              		.loc 1 1820 0 is_stmt 1
 2300              		@ sp needed
 2301              	.LVL321:
 2302 0064 F0BD     		pop	{r4, r5, r6, r7, pc}
 2303              	.L162:
 2304 0066 C046     		.align	2
 2305              	.L161:
 2306 0068 00000000 		.word	.LANCHOR0
 2307              		.cfi_endproc
 2308              	.LFE13:
ARM GAS  C:\Users\YUANFA~1\AppData\Local\Temp\cctOMKNb.s 			page 78


 2309              		.size	CapSense_DpFilterTouchRecord, .-CapSense_DpFilterTouchRecord
 2310              		.bss
 2311              		.align	2
 2312              		.set	.LANCHOR0,. + 0
 2313              		.type	newTouches, %object
 2314              		.size	newTouches, 62
 2315              	newTouches:
 2316 0000 00000000 		.space	62
 2316      00000000 
 2316      00000000 
 2316      00000000 
 2316      00000000 
 2317              		.type	newActiveIDs, %object
 2318              		.size	newActiveIDs, 1
 2319              	newActiveIDs:
 2320 003e 00       		.space	1
 2321              		.type	oldActiveIDs, %object
 2322              		.size	oldActiveIDs, 1
 2323              	oldActiveIDs:
 2324 003f 00       		.space	1
 2325              		.type	touchPadBuffer.5283, %object
 2326              		.size	touchPadBuffer.5283, 143
 2327              	touchPadBuffer.5283:
 2328 0040 00000000 		.space	143
 2328      00000000 
 2328      00000000 
 2328      00000000 
 2328      00000000 
 2329              		.text
 2330              	.Letext0:
 2331              		.file 2 "Generated_Source\\PSoC4\\cytypes.h"
 2332              		.file 3 "Generated_Source\\PSoC4\\CapSense_Configuration.h"
 2333              		.file 4 "Generated_Source\\PSoC4\\CapSense_Structure.h"
 2334              		.section	.debug_info,"",%progbits
 2335              	.Ldebug_info0:
 2336 0000 E40D0000 		.4byte	0xde4
 2337 0004 0400     		.2byte	0x4
 2338 0006 00000000 		.4byte	.Ldebug_abbrev0
 2339 000a 04       		.byte	0x4
 2340 000b 01       		.uleb128 0x1
 2341 000c 00010000 		.4byte	.LASF120
 2342 0010 0C       		.byte	0xc
 2343 0011 37050000 		.4byte	.LASF121
 2344 0015 FD020000 		.4byte	.LASF122
 2345 0019 00000000 		.4byte	.Ldebug_ranges0+0
 2346 001d 00000000 		.4byte	0
 2347 0021 00000000 		.4byte	.Ldebug_line0
 2348 0025 02       		.uleb128 0x2
 2349 0026 01       		.byte	0x1
 2350 0027 06       		.byte	0x6
 2351 0028 F3060000 		.4byte	.LASF0
 2352 002c 02       		.uleb128 0x2
 2353 002d 01       		.byte	0x1
 2354 002e 08       		.byte	0x8
 2355 002f 4A060000 		.4byte	.LASF1
 2356 0033 02       		.uleb128 0x2
 2357 0034 02       		.byte	0x2
ARM GAS  C:\Users\YUANFA~1\AppData\Local\Temp\cctOMKNb.s 			page 79


 2358 0035 05       		.byte	0x5
 2359 0036 C1040000 		.4byte	.LASF2
 2360 003a 02       		.uleb128 0x2
 2361 003b 02       		.byte	0x2
 2362 003c 07       		.byte	0x7
 2363 003d 23070000 		.4byte	.LASF3
 2364 0041 02       		.uleb128 0x2
 2365 0042 04       		.byte	0x4
 2366 0043 05       		.byte	0x5
 2367 0044 E4040000 		.4byte	.LASF4
 2368 0048 02       		.uleb128 0x2
 2369 0049 04       		.byte	0x4
 2370 004a 07       		.byte	0x7
 2371 004b CA050000 		.4byte	.LASF5
 2372 004f 02       		.uleb128 0x2
 2373 0050 08       		.byte	0x8
 2374 0051 05       		.byte	0x5
 2375 0052 8C030000 		.4byte	.LASF6
 2376 0056 02       		.uleb128 0x2
 2377 0057 08       		.byte	0x8
 2378 0058 07       		.byte	0x7
 2379 0059 9F010000 		.4byte	.LASF7
 2380 005d 03       		.uleb128 0x3
 2381 005e 04       		.byte	0x4
 2382 005f 05       		.byte	0x5
 2383 0060 696E7400 		.ascii	"int\000"
 2384 0064 02       		.uleb128 0x2
 2385 0065 04       		.byte	0x4
 2386 0066 07       		.byte	0x7
 2387 0067 41000000 		.4byte	.LASF8
 2388 006b 04       		.uleb128 0x4
 2389 006c 58070000 		.4byte	.LASF9
 2390 0070 02       		.byte	0x2
 2391 0071 FB01     		.2byte	0x1fb
 2392 0073 2C000000 		.4byte	0x2c
 2393 0077 04       		.uleb128 0x4
 2394 0078 48030000 		.4byte	.LASF10
 2395 007c 02       		.byte	0x2
 2396 007d FC01     		.2byte	0x1fc
 2397 007f 3A000000 		.4byte	0x3a
 2398 0083 04       		.uleb128 0x4
 2399 0084 2B040000 		.4byte	.LASF11
 2400 0088 02       		.byte	0x2
 2401 0089 FD01     		.2byte	0x1fd
 2402 008b 48000000 		.4byte	0x48
 2403 008f 04       		.uleb128 0x4
 2404 0090 4F030000 		.4byte	.LASF12
 2405 0094 02       		.byte	0x2
 2406 0095 FE01     		.2byte	0x1fe
 2407 0097 25000000 		.4byte	0x25
 2408 009b 04       		.uleb128 0x4
 2409 009c 92010000 		.4byte	.LASF13
 2410 00a0 02       		.byte	0x2
 2411 00a1 0002     		.2byte	0x200
 2412 00a3 41000000 		.4byte	0x41
 2413 00a7 02       		.uleb128 0x2
 2414 00a8 04       		.byte	0x4
ARM GAS  C:\Users\YUANFA~1\AppData\Local\Temp\cctOMKNb.s 			page 80


 2415 00a9 04       		.byte	0x4
 2416 00aa FA000000 		.4byte	.LASF14
 2417 00ae 02       		.uleb128 0x2
 2418 00af 08       		.byte	0x8
 2419 00b0 04       		.byte	0x4
 2420 00b1 5E070000 		.4byte	.LASF15
 2421 00b5 02       		.uleb128 0x2
 2422 00b6 01       		.byte	0x1
 2423 00b7 08       		.byte	0x8
 2424 00b8 E4020000 		.4byte	.LASF16
 2425 00bc 02       		.uleb128 0x2
 2426 00bd 08       		.byte	0x8
 2427 00be 04       		.byte	0x4
 2428 00bf 6E040000 		.4byte	.LASF17
 2429 00c3 02       		.uleb128 0x2
 2430 00c4 04       		.byte	0x4
 2431 00c5 07       		.byte	0x7
 2432 00c6 C1050000 		.4byte	.LASF18
 2433 00ca 05       		.uleb128 0x5
 2434 00cb 04       		.byte	0x4
 2435 00cc 04       		.uleb128 0x4
 2436 00cd 95060000 		.4byte	.LASF19
 2437 00d1 03       		.byte	0x3
 2438 00d2 8D01     		.2byte	0x18d
 2439 00d4 77000000 		.4byte	0x77
 2440 00d8 04       		.uleb128 0x4
 2441 00d9 68030000 		.4byte	.LASF20
 2442 00dd 03       		.byte	0x3
 2443 00de 9101     		.2byte	0x191
 2444 00e0 6B000000 		.4byte	0x6b
 2445 00e4 06       		.uleb128 0x6
 2446 00e5 06       		.byte	0x6
 2447 00e6 04       		.byte	0x4
 2448 00e7 F1       		.byte	0xf1
 2449 00e8 18010000 		.4byte	0x118
 2450 00ec 07       		.uleb128 0x7
 2451 00ed 7800     		.ascii	"x\000"
 2452 00ef 04       		.byte	0x4
 2453 00f0 F6       		.byte	0xf6
 2454 00f1 77000000 		.4byte	0x77
 2455 00f5 00       		.byte	0
 2456 00f6 07       		.uleb128 0x7
 2457 00f7 7900     		.ascii	"y\000"
 2458 00f9 04       		.byte	0x4
 2459 00fa FB       		.byte	0xfb
 2460 00fb 77000000 		.4byte	0x77
 2461 00ff 02       		.byte	0x2
 2462 0100 08       		.uleb128 0x8
 2463 0101 7A00     		.ascii	"z\000"
 2464 0103 04       		.byte	0x4
 2465 0104 0001     		.2byte	0x100
 2466 0106 6B000000 		.4byte	0x6b
 2467 010a 04       		.byte	0x4
 2468 010b 08       		.uleb128 0x8
 2469 010c 696400   		.ascii	"id\000"
 2470 010f 04       		.byte	0x4
 2471 0110 0501     		.2byte	0x105
ARM GAS  C:\Users\YUANFA~1\AppData\Local\Temp\cctOMKNb.s 			page 81


 2472 0112 6B000000 		.4byte	0x6b
 2473 0116 05       		.byte	0x5
 2474 0117 00       		.byte	0
 2475 0118 04       		.uleb128 0x4
 2476 0119 EE010000 		.4byte	.LASF21
 2477 011d 04       		.byte	0x4
 2478 011e 0601     		.2byte	0x106
 2479 0120 E4000000 		.4byte	0xe4
 2480 0124 09       		.uleb128 0x9
 2481 0125 1C       		.byte	0x1c
 2482 0126 04       		.byte	0x4
 2483 0127 0B01     		.2byte	0x10b
 2484 0129 D7010000 		.4byte	0x1d7
 2485 012d 08       		.uleb128 0x8
 2486 012e 63726300 		.ascii	"crc\000"
 2487 0132 04       		.byte	0x4
 2488 0133 1001     		.2byte	0x110
 2489 0135 77000000 		.4byte	0x77
 2490 0139 00       		.byte	0
 2491 013a 0A       		.uleb128 0xa
 2492 013b 54030000 		.4byte	.LASF22
 2493 013f 04       		.byte	0x4
 2494 0140 1501     		.2byte	0x115
 2495 0142 77000000 		.4byte	0x77
 2496 0146 02       		.byte	0x2
 2497 0147 0A       		.uleb128 0xa
 2498 0148 00060000 		.4byte	.LASF23
 2499 014c 04       		.byte	0x4
 2500 014d 1A01     		.2byte	0x11a
 2501 014f CC000000 		.4byte	0xcc
 2502 0153 04       		.byte	0x4
 2503 0154 0A       		.uleb128 0xa
 2504 0155 DC020000 		.4byte	.LASF24
 2505 0159 04       		.byte	0x4
 2506 015a 1F01     		.2byte	0x11f
 2507 015c 6B000000 		.4byte	0x6b
 2508 0160 06       		.byte	0x6
 2509 0161 0A       		.uleb128 0xa
 2510 0162 FA030000 		.4byte	.LASF25
 2511 0166 04       		.byte	0x4
 2512 0167 2401     		.2byte	0x124
 2513 0169 6B000000 		.4byte	0x6b
 2514 016d 07       		.byte	0x7
 2515 016e 0A       		.uleb128 0xa
 2516 016f 74020000 		.4byte	.LASF26
 2517 0173 04       		.byte	0x4
 2518 0174 2A01     		.2byte	0x12a
 2519 0176 6B000000 		.4byte	0x6b
 2520 017a 08       		.byte	0x8
 2521 017b 0A       		.uleb128 0xa
 2522 017c A2030000 		.4byte	.LASF27
 2523 0180 04       		.byte	0x4
 2524 0181 3001     		.2byte	0x130
 2525 0183 6B000000 		.4byte	0x6b
 2526 0187 09       		.byte	0x9
 2527 0188 0A       		.uleb128 0xa
 2528 0189 A4020000 		.4byte	.LASF28
ARM GAS  C:\Users\YUANFA~1\AppData\Local\Temp\cctOMKNb.s 			page 82


 2529 018d 04       		.byte	0x4
 2530 018e 3701     		.2byte	0x137
 2531 0190 D8000000 		.4byte	0xd8
 2532 0194 0A       		.byte	0xa
 2533 0195 0A       		.uleb128 0xa
 2534 0196 E3000000 		.4byte	.LASF29
 2535 019a 04       		.byte	0x4
 2536 019b 3C01     		.2byte	0x13c
 2537 019d 6B000000 		.4byte	0x6b
 2538 01a1 0B       		.byte	0xb
 2539 01a2 0A       		.uleb128 0xa
 2540 01a3 D1060000 		.4byte	.LASF30
 2541 01a7 04       		.byte	0x4
 2542 01a8 4401     		.2byte	0x144
 2543 01aa 77000000 		.4byte	0x77
 2544 01ae 0C       		.byte	0xc
 2545 01af 0A       		.uleb128 0xa
 2546 01b0 94040000 		.4byte	.LASF31
 2547 01b4 04       		.byte	0x4
 2548 01b5 4901     		.2byte	0x149
 2549 01b7 6B000000 		.4byte	0x6b
 2550 01bb 0E       		.byte	0xe
 2551 01bc 0A       		.uleb128 0xa
 2552 01bd B8050000 		.4byte	.LASF32
 2553 01c1 04       		.byte	0x4
 2554 01c2 5201     		.2byte	0x152
 2555 01c4 83000000 		.4byte	0x83
 2556 01c8 10       		.byte	0x10
 2557 01c9 0A       		.uleb128 0xa
 2558 01ca 03040000 		.4byte	.LASF33
 2559 01ce 04       		.byte	0x4
 2560 01cf 5701     		.2byte	0x157
 2561 01d1 D7010000 		.4byte	0x1d7
 2562 01d5 14       		.byte	0x14
 2563 01d6 00       		.byte	0
 2564 01d7 0B       		.uleb128 0xb
 2565 01d8 18010000 		.4byte	0x118
 2566 01dc E7010000 		.4byte	0x1e7
 2567 01e0 0C       		.uleb128 0xc
 2568 01e1 C3000000 		.4byte	0xc3
 2569 01e5 00       		.byte	0
 2570 01e6 00       		.byte	0
 2571 01e7 04       		.uleb128 0x4
 2572 01e8 77050000 		.4byte	.LASF34
 2573 01ec 04       		.byte	0x4
 2574 01ed 5801     		.2byte	0x158
 2575 01ef 24010000 		.4byte	0x124
 2576 01f3 09       		.uleb128 0x9
 2577 01f4 0C       		.byte	0xc
 2578 01f5 04       		.byte	0x4
 2579 01f6 6A01     		.2byte	0x16a
 2580 01f8 58020000 		.4byte	0x258
 2581 01fc 08       		.uleb128 0x8
 2582 01fd 72617700 		.ascii	"raw\000"
 2583 0201 04       		.byte	0x4
 2584 0202 6F01     		.2byte	0x16f
 2585 0204 58020000 		.4byte	0x258
ARM GAS  C:\Users\YUANFA~1\AppData\Local\Temp\cctOMKNb.s 			page 83


 2586 0208 00       		.byte	0
 2587 0209 0A       		.uleb128 0xa
 2588 020a 05070000 		.4byte	.LASF35
 2589 020e 04       		.byte	0x4
 2590 020f 7401     		.2byte	0x174
 2591 0211 58020000 		.4byte	0x258
 2592 0215 02       		.byte	0x2
 2593 0216 0A       		.uleb128 0xa
 2594 0217 C9060000 		.4byte	.LASF36
 2595 021b 04       		.byte	0x4
 2596 021c 7901     		.2byte	0x179
 2597 021e 58020000 		.4byte	0x258
 2598 0222 04       		.byte	0x4
 2599 0223 0A       		.uleb128 0xa
 2600 0224 09060000 		.4byte	.LASF37
 2601 0228 04       		.byte	0x4
 2602 0229 7F01     		.2byte	0x17f
 2603 022b 68020000 		.4byte	0x268
 2604 022f 06       		.byte	0x6
 2605 0230 0A       		.uleb128 0xa
 2606 0231 06050000 		.4byte	.LASF38
 2607 0235 04       		.byte	0x4
 2608 0236 8401     		.2byte	0x184
 2609 0238 CC000000 		.4byte	0xcc
 2610 023c 08       		.byte	0x8
 2611 023d 0A       		.uleb128 0xa
 2612 023e 65070000 		.4byte	.LASF39
 2613 0242 04       		.byte	0x4
 2614 0243 8901     		.2byte	0x189
 2615 0245 78020000 		.4byte	0x278
 2616 0249 0A       		.byte	0xa
 2617 024a 0A       		.uleb128 0xa
 2618 024b 83030000 		.4byte	.LASF40
 2619 024f 04       		.byte	0x4
 2620 0250 8E01     		.2byte	0x18e
 2621 0252 68020000 		.4byte	0x268
 2622 0256 0B       		.byte	0xb
 2623 0257 00       		.byte	0
 2624 0258 0B       		.uleb128 0xb
 2625 0259 77000000 		.4byte	0x77
 2626 025d 68020000 		.4byte	0x268
 2627 0261 0C       		.uleb128 0xc
 2628 0262 C3000000 		.4byte	0xc3
 2629 0266 00       		.byte	0
 2630 0267 00       		.byte	0
 2631 0268 0B       		.uleb128 0xb
 2632 0269 6B000000 		.4byte	0x6b
 2633 026d 78020000 		.4byte	0x278
 2634 0271 0C       		.uleb128 0xc
 2635 0272 C3000000 		.4byte	0xc3
 2636 0276 00       		.byte	0
 2637 0277 00       		.byte	0
 2638 0278 0B       		.uleb128 0xb
 2639 0279 D8000000 		.4byte	0xd8
 2640 027d 88020000 		.4byte	0x288
 2641 0281 0C       		.uleb128 0xc
 2642 0282 C3000000 		.4byte	0xc3
ARM GAS  C:\Users\YUANFA~1\AppData\Local\Temp\cctOMKNb.s 			page 84


 2643 0286 00       		.byte	0
 2644 0287 00       		.byte	0
 2645 0288 04       		.uleb128 0x4
 2646 0289 11020000 		.4byte	.LASF41
 2647 028d 04       		.byte	0x4
 2648 028e 8F01     		.2byte	0x18f
 2649 0290 F3010000 		.4byte	0x1f3
 2650 0294 09       		.uleb128 0x9
 2651 0295 0C       		.byte	0xc
 2652 0296 04       		.byte	0x4
 2653 0297 5303     		.2byte	0x353
 2654 0299 F2020000 		.4byte	0x2f2
 2655 029d 08       		.uleb128 0x8
 2656 029e 7800     		.ascii	"x\000"
 2657 02a0 04       		.byte	0x4
 2658 02a1 5903     		.2byte	0x359
 2659 02a3 77000000 		.4byte	0x77
 2660 02a7 00       		.byte	0
 2661 02a8 08       		.uleb128 0x8
 2662 02a9 7900     		.ascii	"y\000"
 2663 02ab 04       		.byte	0x4
 2664 02ac 5F03     		.2byte	0x35f
 2665 02ae 77000000 		.4byte	0x77
 2666 02b2 02       		.byte	0x2
 2667 02b3 0A       		.uleb128 0xa
 2668 02b4 5F030000 		.4byte	.LASF42
 2669 02b8 04       		.byte	0x4
 2670 02b9 6403     		.2byte	0x364
 2671 02bb 77000000 		.4byte	0x77
 2672 02bf 04       		.byte	0x4
 2673 02c0 08       		.uleb128 0x8
 2674 02c1 61676500 		.ascii	"age\000"
 2675 02c5 04       		.byte	0x4
 2676 02c6 6A03     		.2byte	0x36a
 2677 02c8 77000000 		.4byte	0x77
 2678 02cc 06       		.byte	0x6
 2679 02cd 08       		.uleb128 0x8
 2680 02ce 7A00     		.ascii	"z\000"
 2681 02d0 04       		.byte	0x4
 2682 02d1 6F03     		.2byte	0x36f
 2683 02d3 6B000000 		.4byte	0x6b
 2684 02d7 08       		.byte	0x8
 2685 02d8 08       		.uleb128 0x8
 2686 02d9 696400   		.ascii	"id\000"
 2687 02dc 04       		.byte	0x4
 2688 02dd 7503     		.2byte	0x375
 2689 02df 6B000000 		.4byte	0x6b
 2690 02e3 09       		.byte	0x9
 2691 02e4 0A       		.uleb128 0xa
 2692 02e5 AD030000 		.4byte	.LASF43
 2693 02e9 04       		.byte	0x4
 2694 02ea 7D03     		.2byte	0x37d
 2695 02ec 6B000000 		.4byte	0x6b
 2696 02f0 0A       		.byte	0xa
 2697 02f1 00       		.byte	0
 2698 02f2 04       		.uleb128 0x4
 2699 02f3 D8030000 		.4byte	.LASF44
ARM GAS  C:\Users\YUANFA~1\AppData\Local\Temp\cctOMKNb.s 			page 85


 2700 02f7 04       		.byte	0x4
 2701 02f8 7E03     		.2byte	0x37e
 2702 02fa 94020000 		.4byte	0x294
 2703 02fe 09       		.uleb128 0x9
 2704 02ff 3E       		.byte	0x3e
 2705 0300 04       		.byte	0x4
 2706 0301 8303     		.2byte	0x383
 2707 0303 22030000 		.4byte	0x322
 2708 0307 0A       		.uleb128 0xa
 2709 0308 03040000 		.4byte	.LASF33
 2710 030c 04       		.byte	0x4
 2711 030d 8903     		.2byte	0x389
 2712 030f 22030000 		.4byte	0x322
 2713 0313 00       		.byte	0
 2714 0314 0A       		.uleb128 0xa
 2715 0315 B6030000 		.4byte	.LASF45
 2716 0319 04       		.byte	0x4
 2717 031a 8E03     		.2byte	0x38e
 2718 031c 6B000000 		.4byte	0x6b
 2719 0320 3C       		.byte	0x3c
 2720 0321 00       		.byte	0
 2721 0322 0B       		.uleb128 0xb
 2722 0323 F2020000 		.4byte	0x2f2
 2723 0327 32030000 		.4byte	0x332
 2724 032b 0C       		.uleb128 0xc
 2725 032c C3000000 		.4byte	0xc3
 2726 0330 04       		.byte	0x4
 2727 0331 00       		.byte	0
 2728 0332 04       		.uleb128 0x4
 2729 0333 09040000 		.4byte	.LASF46
 2730 0337 04       		.byte	0x4
 2731 0338 8F03     		.2byte	0x38f
 2732 033a FE020000 		.4byte	0x2fe
 2733 033e 09       		.uleb128 0x9
 2734 033f 38       		.byte	0x38
 2735 0340 04       		.byte	0x4
 2736 0341 9503     		.2byte	0x395
 2737 0343 25040000 		.4byte	0x425
 2738 0347 0A       		.uleb128 0xa
 2739 0348 36070000 		.4byte	.LASF47
 2740 034c 04       		.byte	0x4
 2741 034d 9E03     		.2byte	0x39e
 2742 034f 25040000 		.4byte	0x425
 2743 0353 00       		.byte	0
 2744 0354 0A       		.uleb128 0xa
 2745 0355 89060000 		.4byte	.LASF48
 2746 0359 04       		.byte	0x4
 2747 035a A503     		.2byte	0x3a5
 2748 035c CA000000 		.4byte	0xca
 2749 0360 04       		.byte	0x4
 2750 0361 0A       		.uleb128 0xa
 2751 0362 7A040000 		.4byte	.LASF49
 2752 0366 04       		.byte	0x4
 2753 0367 AB03     		.2byte	0x3ab
 2754 0369 2C040000 		.4byte	0x42c
 2755 036d 08       		.byte	0x8
 2756 036e 0A       		.uleb128 0xa
ARM GAS  C:\Users\YUANFA~1\AppData\Local\Temp\cctOMKNb.s 			page 86


 2757 036f 32040000 		.4byte	.LASF50
 2758 0373 04       		.byte	0x4
 2759 0374 B103     		.2byte	0x3b1
 2760 0376 CA000000 		.4byte	0xca
 2761 037a 0C       		.byte	0xc
 2762 037b 0A       		.uleb128 0xa
 2763 037c DC050000 		.4byte	.LASF51
 2764 0380 04       		.byte	0x4
 2765 0381 B803     		.2byte	0x3b8
 2766 0383 32040000 		.4byte	0x432
 2767 0387 10       		.byte	0x10
 2768 0388 0A       		.uleb128 0xa
 2769 0389 74060000 		.4byte	.LASF52
 2770 038d 04       		.byte	0x4
 2771 038e BD03     		.2byte	0x3bd
 2772 0390 83000000 		.4byte	0x83
 2773 0394 14       		.byte	0x14
 2774 0395 0A       		.uleb128 0xa
 2775 0396 AF020000 		.4byte	.LASF53
 2776 039a 04       		.byte	0x4
 2777 039b C403     		.2byte	0x3c4
 2778 039d 77000000 		.4byte	0x77
 2779 03a1 18       		.byte	0x18
 2780 03a2 0A       		.uleb128 0xa
 2781 03a3 BF010000 		.4byte	.LASF54
 2782 03a7 04       		.byte	0x4
 2783 03a8 CB03     		.2byte	0x3cb
 2784 03aa 6B000000 		.4byte	0x6b
 2785 03ae 1A       		.byte	0x1a
 2786 03af 0A       		.uleb128 0xa
 2787 03b0 9A030000 		.4byte	.LASF55
 2788 03b4 04       		.byte	0x4
 2789 03b5 D503     		.2byte	0x3d5
 2790 03b7 6B000000 		.4byte	0x6b
 2791 03bb 1B       		.byte	0x1b
 2792 03bc 0A       		.uleb128 0xa
 2793 03bd B6060000 		.4byte	.LASF56
 2794 03c1 04       		.byte	0x4
 2795 03c2 DD03     		.2byte	0x3dd
 2796 03c4 6B000000 		.4byte	0x6b
 2797 03c8 1C       		.byte	0x1c
 2798 03c9 0A       		.uleb128 0xa
 2799 03ca B5040000 		.4byte	.LASF57
 2800 03ce 04       		.byte	0x4
 2801 03cf E203     		.2byte	0x3e2
 2802 03d1 77000000 		.4byte	0x77
 2803 03d5 1E       		.byte	0x1e
 2804 03d6 0A       		.uleb128 0xa
 2805 03d7 BF030000 		.4byte	.LASF58
 2806 03db 04       		.byte	0x4
 2807 03dc E703     		.2byte	0x3e7
 2808 03de 77000000 		.4byte	0x77
 2809 03e2 20       		.byte	0x20
 2810 03e3 0A       		.uleb128 0xa
 2811 03e4 EC050000 		.4byte	.LASF59
 2812 03e8 04       		.byte	0x4
 2813 03e9 F003     		.2byte	0x3f0
ARM GAS  C:\Users\YUANFA~1\AppData\Local\Temp\cctOMKNb.s 			page 87


 2814 03eb 83000000 		.4byte	0x83
 2815 03ef 24       		.byte	0x24
 2816 03f0 0A       		.uleb128 0xa
 2817 03f1 A1040000 		.4byte	.LASF60
 2818 03f5 04       		.byte	0x4
 2819 03f6 F903     		.2byte	0x3f9
 2820 03f8 83000000 		.4byte	0x83
 2821 03fc 28       		.byte	0x28
 2822 03fd 0A       		.uleb128 0xa
 2823 03fe CB030000 		.4byte	.LASF61
 2824 0402 04       		.byte	0x4
 2825 0403 FE03     		.2byte	0x3fe
 2826 0405 38040000 		.4byte	0x438
 2827 0409 2C       		.byte	0x2c
 2828 040a 0A       		.uleb128 0xa
 2829 040b 73070000 		.4byte	.LASF62
 2830 040f 04       		.byte	0x4
 2831 0410 0304     		.2byte	0x403
 2832 0412 3E040000 		.4byte	0x43e
 2833 0416 30       		.byte	0x30
 2834 0417 0A       		.uleb128 0xa
 2835 0418 D4000000 		.4byte	.LASF63
 2836 041c 04       		.byte	0x4
 2837 041d 0804     		.2byte	0x408
 2838 041f 6B000000 		.4byte	0x6b
 2839 0423 34       		.byte	0x34
 2840 0424 00       		.byte	0
 2841 0425 0D       		.uleb128 0xd
 2842 0426 04       		.byte	0x4
 2843 0427 2B040000 		.4byte	0x42b
 2844 042b 0E       		.uleb128 0xe
 2845 042c 0D       		.uleb128 0xd
 2846 042d 04       		.byte	0x4
 2847 042e 88020000 		.4byte	0x288
 2848 0432 0D       		.uleb128 0xd
 2849 0433 04       		.byte	0x4
 2850 0434 6B000000 		.4byte	0x6b
 2851 0438 0D       		.uleb128 0xd
 2852 0439 04       		.byte	0x4
 2853 043a 83000000 		.4byte	0x83
 2854 043e 0D       		.uleb128 0xd
 2855 043f 04       		.byte	0x4
 2856 0440 32030000 		.4byte	0x332
 2857 0444 04       		.uleb128 0x4
 2858 0445 8B020000 		.4byte	.LASF64
 2859 0449 04       		.byte	0x4
 2860 044a 0904     		.2byte	0x409
 2861 044c 3E030000 		.4byte	0x33e
 2862 0450 0F       		.uleb128 0xf
 2863 0451 27060000 		.4byte	.LASF65
 2864 0455 01       		.byte	0x1
 2865 0456 5E       		.byte	0x5e
 2866 0457 5B040000 		.4byte	0x45b
 2867 045b 0B       		.uleb128 0xb
 2868 045c 9B000000 		.4byte	0x9b
 2869 0460 6B040000 		.4byte	0x46b
 2870 0464 0C       		.uleb128 0xc
ARM GAS  C:\Users\YUANFA~1\AppData\Local\Temp\cctOMKNb.s 			page 88


 2871 0465 C3000000 		.4byte	0xc3
 2872 0469 04       		.byte	0x4
 2873 046a 00       		.byte	0
 2874 046b 10       		.uleb128 0x10
 2875 046c B6000000 		.4byte	.LASF123
 2876 0470 01       		.byte	0x1
 2877 0471 C404     		.2byte	0x4c4
 2878 0473 6B000000 		.4byte	0x6b
 2879 0477 03       		.byte	0x3
 2880 0478 A1040000 		.4byte	0x4a1
 2881 047c 11       		.uleb128 0x11
 2882 047d 30050000 		.4byte	.LASF124
 2883 0481 01       		.byte	0x1
 2884 0482 C404     		.2byte	0x4c4
 2885 0484 77000000 		.4byte	0x77
 2886 0488 12       		.uleb128 0x12
 2887 0489 69647800 		.ascii	"idx\000"
 2888 048d 01       		.byte	0x1
 2889 048e C604     		.2byte	0x4c6
 2890 0490 83000000 		.4byte	0x83
 2891 0494 13       		.uleb128 0x13
 2892 0495 81060000 		.4byte	.LASF66
 2893 0499 01       		.byte	0x1
 2894 049a C704     		.2byte	0x4c7
 2895 049c 83000000 		.4byte	0x83
 2896 04a0 00       		.byte	0
 2897 04a1 14       		.uleb128 0x14
 2898 04a2 29020000 		.4byte	.LASF109
 2899 04a6 01       		.byte	0x1
 2900 04a7 EB04     		.2byte	0x4eb
 2901 04a9 03       		.byte	0x3
 2902 04aa B9040000 		.4byte	0x4b9
 2903 04ae 12       		.uleb128 0x12
 2904 04af 6900     		.ascii	"i\000"
 2905 04b1 01       		.byte	0x1
 2906 04b2 ED04     		.2byte	0x4ed
 2907 04b4 83000000 		.4byte	0x83
 2908 04b8 00       		.byte	0
 2909 04b9 15       		.uleb128 0x15
 2910 04ba BB020000 		.4byte	.LASF70
 2911 04be 01       		.byte	0x1
 2912 04bf 7104     		.2byte	0x471
 2913 04c1 00000000 		.4byte	.LFB4
 2914 04c5 4C000000 		.4byte	.LFE4-.LFB4
 2915 04c9 01       		.uleb128 0x1
 2916 04ca 9C       		.byte	0x9c
 2917 04cb 00050000 		.4byte	0x500
 2918 04cf 16       		.uleb128 0x16
 2919 04d0 F1000000 		.4byte	.LASF67
 2920 04d4 01       		.byte	0x1
 2921 04d5 7204     		.2byte	0x472
 2922 04d7 83000000 		.4byte	0x83
 2923 04db 00000000 		.4byte	.LLST0
 2924 04df 16       		.uleb128 0x16
 2925 04e0 4F070000 		.4byte	.LASF68
 2926 04e4 01       		.byte	0x1
 2927 04e5 7204     		.2byte	0x472
ARM GAS  C:\Users\YUANFA~1\AppData\Local\Temp\cctOMKNb.s 			page 89


 2928 04e7 83000000 		.4byte	0x83
 2929 04eb 3A000000 		.4byte	.LLST1
 2930 04ef 16       		.uleb128 0x16
 2931 04f0 00000000 		.4byte	.LASF69
 2932 04f4 01       		.byte	0x1
 2933 04f5 7204     		.2byte	0x472
 2934 04f7 3E040000 		.4byte	0x43e
 2935 04fb 5B000000 		.4byte	.LLST2
 2936 04ff 00       		.byte	0
 2937 0500 15       		.uleb128 0x15
 2938 0501 65050000 		.4byte	.LASF71
 2939 0505 01       		.byte	0x1
 2940 0506 9704     		.2byte	0x497
 2941 0508 00000000 		.4byte	.LFB5
 2942 050c 70000000 		.4byte	.LFE5-.LFB5
 2943 0510 01       		.uleb128 0x1
 2944 0511 9C       		.byte	0x9c
 2945 0512 8D050000 		.4byte	0x58d
 2946 0516 16       		.uleb128 0x16
 2947 0517 F1000000 		.4byte	.LASF67
 2948 051b 01       		.byte	0x1
 2949 051c 9704     		.2byte	0x497
 2950 051e 83000000 		.4byte	0x83
 2951 0522 7C000000 		.4byte	.LLST3
 2952 0526 16       		.uleb128 0x16
 2953 0527 A2030000 		.4byte	.LASF27
 2954 052b 01       		.byte	0x1
 2955 052c 9704     		.2byte	0x497
 2956 052e 6B000000 		.4byte	0x6b
 2957 0532 B6000000 		.4byte	.LLST4
 2958 0536 16       		.uleb128 0x16
 2959 0537 0E000000 		.4byte	.LASF72
 2960 053b 01       		.byte	0x1
 2961 053c 9704     		.2byte	0x497
 2962 053e 77000000 		.4byte	0x77
 2963 0542 D7000000 		.4byte	.LLST5
 2964 0546 17       		.uleb128 0x17
 2965 0547 69647800 		.ascii	"idx\000"
 2966 054b 01       		.byte	0x1
 2967 054c 9904     		.2byte	0x499
 2968 054e 83000000 		.4byte	0x83
 2969 0552 11010000 		.4byte	.LLST6
 2970 0556 18       		.uleb128 0x18
 2971 0557 6B040000 		.4byte	0x46b
 2972 055b 2C000000 		.4byte	.LBB6
 2973 055f 12000000 		.4byte	.LBE6-.LBB6
 2974 0563 01       		.byte	0x1
 2975 0564 A304     		.2byte	0x4a3
 2976 0566 19       		.uleb128 0x19
 2977 0567 7C040000 		.4byte	0x47c
 2978 056b 44010000 		.4byte	.LLST7
 2979 056f 1A       		.uleb128 0x1a
 2980 0570 2C000000 		.4byte	.LBB7
 2981 0574 12000000 		.4byte	.LBE7-.LBB7
 2982 0578 1B       		.uleb128 0x1b
 2983 0579 88040000 		.4byte	0x488
 2984 057d 57010000 		.4byte	.LLST8
ARM GAS  C:\Users\YUANFA~1\AppData\Local\Temp\cctOMKNb.s 			page 90


 2985 0581 1B       		.uleb128 0x1b
 2986 0582 94040000 		.4byte	0x494
 2987 0586 76010000 		.4byte	.LLST9
 2988 058a 00       		.byte	0
 2989 058b 00       		.byte	0
 2990 058c 00       		.byte	0
 2991 058d 1C       		.uleb128 0x1c
 2992 058e 11060000 		.4byte	.LASF125
 2993 0592 01       		.byte	0x1
 2994 0593 6805     		.2byte	0x568
 2995 0595 83000000 		.4byte	0x83
 2996 0599 00000000 		.4byte	.LFB8
 2997 059d 38000000 		.4byte	.LFE8-.LFB8
 2998 05a1 01       		.uleb128 0x1
 2999 05a2 9C       		.byte	0x9c
 3000 05a3 06060000 		.4byte	0x606
 3001 05a7 16       		.uleb128 0x16
 3002 05a8 F1000000 		.4byte	.LASF67
 3003 05ac 01       		.byte	0x1
 3004 05ad 6805     		.2byte	0x568
 3005 05af 83000000 		.4byte	0x83
 3006 05b3 8B010000 		.4byte	.LLST10
 3007 05b7 16       		.uleb128 0x16
 3008 05b8 4F070000 		.4byte	.LASF68
 3009 05bc 01       		.byte	0x1
 3010 05bd 6805     		.2byte	0x568
 3011 05bf 83000000 		.4byte	0x83
 3012 05c3 AC010000 		.4byte	.LLST11
 3013 05c7 16       		.uleb128 0x16
 3014 05c8 00000000 		.4byte	.LASF69
 3015 05cc 01       		.byte	0x1
 3016 05cd 6905     		.2byte	0x569
 3017 05cf 3E040000 		.4byte	0x43e
 3018 05d3 CD010000 		.4byte	.LLST12
 3019 05d7 1D       		.uleb128 0x1d
 3020 05d8 98010000 		.4byte	.LASF73
 3021 05dc 01       		.byte	0x1
 3022 05dd 6B05     		.2byte	0x56b
 3023 05df 9B000000 		.4byte	0x9b
 3024 05e3 01       		.uleb128 0x1
 3025 05e4 50       		.byte	0x50
 3026 05e5 1E       		.uleb128 0x1e
 3027 05e6 A4000000 		.4byte	.LASF74
 3028 05ea 01       		.byte	0x1
 3029 05eb 6C05     		.2byte	0x56c
 3030 05ed 9B000000 		.4byte	0x9b
 3031 05f1 EE010000 		.4byte	.LLST13
 3032 05f5 1E       		.uleb128 0x1e
 3033 05f6 E9020000 		.4byte	.LASF75
 3034 05fa 01       		.byte	0x1
 3035 05fb 6D05     		.2byte	0x56d
 3036 05fd 9B000000 		.4byte	0x9b
 3037 0601 82020000 		.4byte	.LLST14
 3038 0605 00       		.byte	0
 3039 0606 15       		.uleb128 0x15
 3040 0607 D5010000 		.4byte	.LASF76
 3041 060b 01       		.byte	0x1
ARM GAS  C:\Users\YUANFA~1\AppData\Local\Temp\cctOMKNb.s 			page 91


 3042 060c 8805     		.2byte	0x588
 3043 060e 00000000 		.4byte	.LFB9
 3044 0612 80000000 		.4byte	.LFE9-.LFB9
 3045 0616 01       		.uleb128 0x1
 3046 0617 9C       		.byte	0x9c
 3047 0618 97060000 		.4byte	0x697
 3048 061c 16       		.uleb128 0x16
 3049 061d 43070000 		.4byte	.LASF77
 3050 0621 01       		.byte	0x1
 3051 0622 8805     		.2byte	0x588
 3052 0624 97060000 		.4byte	0x697
 3053 0628 1A030000 		.4byte	.LLST15
 3054 062c 16       		.uleb128 0x16
 3055 062d 00000000 		.4byte	.LASF69
 3056 0631 01       		.byte	0x1
 3057 0632 8905     		.2byte	0x589
 3058 0634 3E040000 		.4byte	0x43e
 3059 0638 46030000 		.4byte	.LLST16
 3060 063c 17       		.uleb128 0x17
 3061 063d 6900     		.ascii	"i\000"
 3062 063f 01       		.byte	0x1
 3063 0640 8B05     		.2byte	0x58b
 3064 0642 83000000 		.4byte	0x83
 3065 0646 65030000 		.4byte	.LLST17
 3066 064a 17       		.uleb128 0x17
 3067 064b 6A00     		.ascii	"j\000"
 3068 064d 01       		.byte	0x1
 3069 064e 8C05     		.2byte	0x58c
 3070 0650 83000000 		.4byte	0x83
 3071 0654 AF030000 		.4byte	.LLST18
 3072 0658 1F       		.uleb128 0x1f
 3073 0659 32000000 		.4byte	.LVL37
 3074 065d 8D050000 		.4byte	0x58d
 3075 0661 79060000 		.4byte	0x679
 3076 0665 20       		.uleb128 0x20
 3077 0666 01       		.uleb128 0x1
 3078 0667 50       		.byte	0x50
 3079 0668 02       		.uleb128 0x2
 3080 0669 75       		.byte	0x75
 3081 066a 00       		.sleb128 0
 3082 066b 20       		.uleb128 0x20
 3083 066c 01       		.uleb128 0x1
 3084 066d 51       		.byte	0x51
 3085 066e 02       		.uleb128 0x2
 3086 066f 77       		.byte	0x77
 3087 0670 00       		.sleb128 0
 3088 0671 20       		.uleb128 0x20
 3089 0672 01       		.uleb128 0x1
 3090 0673 52       		.byte	0x52
 3091 0674 03       		.uleb128 0x3
 3092 0675 91       		.byte	0x91
 3093 0676 64       		.sleb128 -28
 3094 0677 06       		.byte	0x6
 3095 0678 00       		.byte	0
 3096 0679 21       		.uleb128 0x21
 3097 067a 62000000 		.4byte	.LVL44
 3098 067e 8D050000 		.4byte	0x58d
ARM GAS  C:\Users\YUANFA~1\AppData\Local\Temp\cctOMKNb.s 			page 92


 3099 0682 20       		.uleb128 0x20
 3100 0683 01       		.uleb128 0x1
 3101 0684 50       		.byte	0x50
 3102 0685 02       		.uleb128 0x2
 3103 0686 77       		.byte	0x77
 3104 0687 00       		.sleb128 0
 3105 0688 20       		.uleb128 0x20
 3106 0689 01       		.uleb128 0x1
 3107 068a 51       		.byte	0x51
 3108 068b 02       		.uleb128 0x2
 3109 068c 75       		.byte	0x75
 3110 068d 00       		.sleb128 0
 3111 068e 20       		.uleb128 0x20
 3112 068f 01       		.uleb128 0x1
 3113 0690 52       		.byte	0x52
 3114 0691 03       		.uleb128 0x3
 3115 0692 91       		.byte	0x91
 3116 0693 64       		.sleb128 -28
 3117 0694 06       		.byte	0x6
 3118 0695 00       		.byte	0
 3119 0696 00       		.byte	0
 3120 0697 0D       		.uleb128 0xd
 3121 0698 04       		.byte	0x4
 3122 0699 50040000 		.4byte	0x450
 3123 069d 15       		.uleb128 0x15
 3124 069e CB040000 		.4byte	.LASF78
 3125 06a2 01       		.byte	0x1
 3126 06a3 9806     		.2byte	0x698
 3127 06a5 00000000 		.4byte	.LFB12
 3128 06a9 1E000000 		.4byte	.LFE12-.LFB12
 3129 06ad 01       		.uleb128 0x1
 3130 06ae 9C       		.byte	0x9c
 3131 06af D0060000 		.4byte	0x6d0
 3132 06b3 22       		.uleb128 0x22
 3133 06b4 E7060000 		.4byte	.LASF79
 3134 06b8 01       		.byte	0x1
 3135 06b9 9806     		.2byte	0x698
 3136 06bb D0060000 		.4byte	0x6d0
 3137 06bf 01       		.uleb128 0x1
 3138 06c0 50       		.byte	0x50
 3139 06c1 22       		.uleb128 0x22
 3140 06c2 22050000 		.4byte	.LASF80
 3141 06c6 01       		.byte	0x1
 3142 06c7 9906     		.2byte	0x699
 3143 06c9 D0060000 		.4byte	0x6d0
 3144 06cd 01       		.uleb128 0x1
 3145 06ce 51       		.byte	0x51
 3146 06cf 00       		.byte	0
 3147 06d0 0D       		.uleb128 0xd
 3148 06d1 04       		.byte	0x4
 3149 06d2 F2020000 		.4byte	0x2f2
 3150 06d6 15       		.uleb128 0x15
 3151 06d7 5B040000 		.4byte	.LASF81
 3152 06db 01       		.byte	0x1
 3153 06dc C605     		.2byte	0x5c6
 3154 06de 00000000 		.4byte	.LFB10
 3155 06e2 A0010000 		.4byte	.LFE10-.LFB10
ARM GAS  C:\Users\YUANFA~1\AppData\Local\Temp\cctOMKNb.s 			page 93


 3156 06e6 01       		.uleb128 0x1
 3157 06e7 9C       		.byte	0x9c
 3158 06e8 23080000 		.4byte	0x823
 3159 06ec 16       		.uleb128 0x16
 3160 06ed B6010000 		.4byte	.LASF82
 3161 06f1 01       		.byte	0x1
 3162 06f2 C605     		.2byte	0x5c6
 3163 06f4 6B000000 		.4byte	0x6b
 3164 06f8 0F040000 		.4byte	.LLST19
 3165 06fc 16       		.uleb128 0x16
 3166 06fd 9B000000 		.4byte	.LASF83
 3167 0701 01       		.byte	0x1
 3168 0702 C605     		.2byte	0x5c6
 3169 0704 6B000000 		.4byte	0x6b
 3170 0708 30040000 		.4byte	.LLST20
 3171 070c 16       		.uleb128 0x16
 3172 070d 58060000 		.4byte	.LASF84
 3173 0711 01       		.byte	0x1
 3174 0712 C605     		.2byte	0x5c6
 3175 0714 23080000 		.4byte	0x823
 3176 0718 51040000 		.4byte	.LLST21
 3177 071c 16       		.uleb128 0x16
 3178 071d 43070000 		.4byte	.LASF77
 3179 0721 01       		.byte	0x1
 3180 0722 C705     		.2byte	0x5c7
 3181 0724 97060000 		.4byte	0x697
 3182 0728 71040000 		.4byte	.LLST22
 3183 072c 23       		.uleb128 0x23
 3184 072d 636F6C00 		.ascii	"col\000"
 3185 0731 01       		.byte	0x1
 3186 0732 C905     		.2byte	0x5c9
 3187 0734 5B040000 		.4byte	0x45b
 3188 0738 02       		.uleb128 0x2
 3189 0739 91       		.byte	0x91
 3190 073a 44       		.sleb128 -60
 3191 073b 23       		.uleb128 0x23
 3192 073c 726F7700 		.ascii	"row\000"
 3193 0740 01       		.byte	0x1
 3194 0741 CA05     		.2byte	0x5ca
 3195 0743 5B040000 		.4byte	0x45b
 3196 0747 03       		.uleb128 0x3
 3197 0748 91       		.byte	0x91
 3198 0749 B07F     		.sleb128 -80
 3199 074b 1E       		.uleb128 0x1e
 3200 074c 43030000 		.4byte	.LASF85
 3201 0750 01       		.byte	0x1
 3202 0751 CB05     		.2byte	0x5cb
 3203 0753 29080000 		.4byte	0x829
 3204 0757 9D040000 		.4byte	.LLST23
 3205 075b 1E       		.uleb128 0x1e
 3206 075c FF060000 		.4byte	.LASF86
 3207 0760 01       		.byte	0x1
 3208 0761 CC05     		.2byte	0x5cc
 3209 0763 9B000000 		.4byte	0x9b
 3210 0767 CB040000 		.4byte	.LLST24
 3211 076b 1E       		.uleb128 0x1e
 3212 076c 8E040000 		.4byte	.LASF87
ARM GAS  C:\Users\YUANFA~1\AppData\Local\Temp\cctOMKNb.s 			page 94


 3213 0770 01       		.byte	0x1
 3214 0771 CE05     		.2byte	0x5ce
 3215 0773 23080000 		.4byte	0x823
 3216 0777 F5040000 		.4byte	.LLST25
 3217 077b 1E       		.uleb128 0x1e
 3218 077c 4E000000 		.4byte	.LASF88
 3219 0780 01       		.byte	0x1
 3220 0781 CF05     		.2byte	0x5cf
 3221 0783 23080000 		.4byte	0x823
 3222 0787 62050000 		.4byte	.LLST26
 3223 078b 1E       		.uleb128 0x1e
 3224 078c 4F040000 		.4byte	.LASF89
 3225 0790 01       		.byte	0x1
 3226 0791 D005     		.2byte	0x5d0
 3227 0793 23080000 		.4byte	0x823
 3228 0797 A6050000 		.4byte	.LLST27
 3229 079b 1E       		.uleb128 0x1e
 3230 079c CB000000 		.4byte	.LASF90
 3231 07a0 01       		.byte	0x1
 3232 07a1 D205     		.2byte	0x5d2
 3233 07a3 9B000000 		.4byte	0x9b
 3234 07a7 11060000 		.4byte	.LLST28
 3235 07ab 1E       		.uleb128 0x1e
 3236 07ac F6040000 		.4byte	.LASF91
 3237 07b0 01       		.byte	0x1
 3238 07b1 D305     		.2byte	0x5d3
 3239 07b3 9B000000 		.4byte	0x9b
 3240 07b7 3B060000 		.4byte	.LLST29
 3241 07bb 1E       		.uleb128 0x1e
 3242 07bc FE040000 		.4byte	.LASF92
 3243 07c0 01       		.byte	0x1
 3244 07c1 D405     		.2byte	0x5d4
 3245 07c3 9B000000 		.4byte	0x9b
 3246 07c7 71060000 		.4byte	.LLST30
 3247 07cb 17       		.uleb128 0x17
 3248 07cc 6900     		.ascii	"i\000"
 3249 07ce 01       		.byte	0x1
 3250 07cf D505     		.2byte	0x5d5
 3251 07d1 9B000000 		.4byte	0x9b
 3252 07d5 A6060000 		.4byte	.LLST31
 3253 07d9 17       		.uleb128 0x17
 3254 07da 693100   		.ascii	"i1\000"
 3255 07dd 01       		.byte	0x1
 3256 07de D605     		.2byte	0x5d6
 3257 07e0 9B000000 		.4byte	0x9b
 3258 07e4 0D070000 		.4byte	.LLST32
 3259 07e8 17       		.uleb128 0x17
 3260 07e9 6A00     		.ascii	"j\000"
 3261 07eb 01       		.byte	0x1
 3262 07ec D705     		.2byte	0x5d7
 3263 07ee 9B000000 		.4byte	0x9b
 3264 07f2 7B070000 		.4byte	.LLST33
 3265 07f6 17       		.uleb128 0x17
 3266 07f7 6A3100   		.ascii	"j1\000"
 3267 07fa 01       		.byte	0x1
 3268 07fb D805     		.2byte	0x5d8
 3269 07fd 9B000000 		.4byte	0x9b
ARM GAS  C:\Users\YUANFA~1\AppData\Local\Temp\cctOMKNb.s 			page 95


 3270 0801 36080000 		.4byte	.LLST34
 3271 0805 21       		.uleb128 0x21
 3272 0806 32000000 		.4byte	.LVL62
 3273 080a DE0D0000 		.4byte	0xdde
 3274 080e 20       		.uleb128 0x20
 3275 080f 01       		.uleb128 0x1
 3276 0810 50       		.byte	0x50
 3277 0811 02       		.uleb128 0x2
 3278 0812 91       		.byte	0x91
 3279 0813 44       		.sleb128 -60
 3280 0814 20       		.uleb128 0x20
 3281 0815 01       		.uleb128 0x1
 3282 0816 51       		.byte	0x51
 3283 0817 01       		.uleb128 0x1
 3284 0818 30       		.byte	0x30
 3285 0819 20       		.uleb128 0x20
 3286 081a 01       		.uleb128 0x1
 3287 081b 52       		.byte	0x52
 3288 081c 04       		.uleb128 0x4
 3289 081d 77       		.byte	0x77
 3290 081e 00       		.sleb128 0
 3291 081f 32       		.byte	0x32
 3292 0820 24       		.byte	0x24
 3293 0821 00       		.byte	0
 3294 0822 00       		.byte	0
 3295 0823 0D       		.uleb128 0xd
 3296 0824 04       		.byte	0x4
 3297 0825 8F000000 		.4byte	0x8f
 3298 0829 0D       		.uleb128 0xd
 3299 082a 04       		.byte	0x4
 3300 082b 9B000000 		.4byte	0x9b
 3301 082f 24       		.uleb128 0x24
 3302 0830 27000000 		.4byte	.LASF102
 3303 0834 01       		.byte	0x1
 3304 0835 AA02     		.2byte	0x2aa
 3305 0837 00000000 		.4byte	.LFB1
 3306 083b A0010000 		.4byte	.LFE1-.LFB1
 3307 083f 01       		.uleb128 0x1
 3308 0840 9C       		.byte	0x9c
 3309 0841 F0080000 		.4byte	0x8f0
 3310 0845 16       		.uleb128 0x16
 3311 0846 67060000 		.4byte	.LASF93
 3312 084a 01       		.byte	0x1
 3313 084b AB02     		.2byte	0x2ab
 3314 084d F0080000 		.4byte	0x8f0
 3315 0851 B3080000 		.4byte	.LLST35
 3316 0855 1E       		.uleb128 0x1e
 3317 0856 C8010000 		.4byte	.LASF94
 3318 085a 01       		.byte	0x1
 3319 085b AD02     		.2byte	0x2ad
 3320 085d FB080000 		.4byte	0x8fb
 3321 0861 D4080000 		.4byte	.LLST36
 3322 0865 1D       		.uleb128 0x1d
 3323 0866 F3020000 		.4byte	.LASF95
 3324 086a 01       		.byte	0x1
 3325 086b AE02     		.2byte	0x2ae
 3326 086d 2C040000 		.4byte	0x42c
ARM GAS  C:\Users\YUANFA~1\AppData\Local\Temp\cctOMKNb.s 			page 96


 3327 0871 01       		.uleb128 0x1
 3328 0872 51       		.byte	0x51
 3329 0873 1D       		.uleb128 0x1d
 3330 0874 64020000 		.4byte	.LASF96
 3331 0878 01       		.byte	0x1
 3332 0879 AF02     		.2byte	0x2af
 3333 087b 77000000 		.4byte	0x77
 3334 087f 01       		.uleb128 0x1
 3335 0880 5C       		.byte	0x5c
 3336 0881 1E       		.uleb128 0x1e
 3337 0882 85040000 		.4byte	.LASF97
 3338 0886 01       		.byte	0x1
 3339 0887 B002     		.2byte	0x2b0
 3340 0889 77000000 		.4byte	0x77
 3341 088d 02090000 		.4byte	.LLST37
 3342 0891 17       		.uleb128 0x17
 3343 0892 727800   		.ascii	"rx\000"
 3344 0895 01       		.byte	0x1
 3345 0896 B102     		.2byte	0x2b1
 3346 0898 6B000000 		.4byte	0x6b
 3347 089c 15090000 		.4byte	.LLST38
 3348 08a0 17       		.uleb128 0x17
 3349 08a1 747800   		.ascii	"tx\000"
 3350 08a4 01       		.byte	0x1
 3351 08a5 B202     		.2byte	0x2b2
 3352 08a7 6B000000 		.4byte	0x6b
 3353 08ab 34090000 		.4byte	.LLST39
 3354 08af 1E       		.uleb128 0x1e
 3355 08b0 19050000 		.4byte	.LASF98
 3356 08b4 01       		.byte	0x1
 3357 08b5 B302     		.2byte	0x2b3
 3358 08b7 6B000000 		.4byte	0x6b
 3359 08bb 5D090000 		.4byte	.LLST40
 3360 08bf 1E       		.uleb128 0x1e
 3361 08c0 83070000 		.4byte	.LASF99
 3362 08c4 01       		.byte	0x1
 3363 08c5 B402     		.2byte	0x2b4
 3364 08c7 6B000000 		.4byte	0x6b
 3365 08cb D3090000 		.4byte	.LLST41
 3366 08cf 1E       		.uleb128 0x1e
 3367 08d0 20000000 		.4byte	.LASF100
 3368 08d4 01       		.byte	0x1
 3369 08d5 B502     		.2byte	0x2b5
 3370 08d7 6B000000 		.4byte	0x6b
 3371 08db E6090000 		.4byte	.LLST42
 3372 08df 1E       		.uleb128 0x1e
 3373 08e0 AE000000 		.4byte	.LASF101
 3374 08e4 01       		.byte	0x1
 3375 08e5 B602     		.2byte	0x2b6
 3376 08e7 83000000 		.4byte	0x83
 3377 08eb 060A0000 		.4byte	.LLST43
 3378 08ef 00       		.byte	0
 3379 08f0 0D       		.uleb128 0xd
 3380 08f1 04       		.byte	0x4
 3381 08f2 F6080000 		.4byte	0x8f6
 3382 08f6 25       		.uleb128 0x25
 3383 08f7 44040000 		.4byte	0x444
ARM GAS  C:\Users\YUANFA~1\AppData\Local\Temp\cctOMKNb.s 			page 97


 3384 08fb 0D       		.uleb128 0xd
 3385 08fc 04       		.byte	0x4
 3386 08fd E7010000 		.4byte	0x1e7
 3387 0901 26       		.uleb128 0x26
 3388 0902 44020000 		.4byte	.LASF103
 3389 0906 01       		.byte	0x1
 3390 0907 4C03     		.2byte	0x34c
 3391 0909 00000000 		.4byte	.LFB2
 3392 090d A4010000 		.4byte	.LFE2-.LFB2
 3393 0911 01       		.uleb128 0x1
 3394 0912 9C       		.byte	0x9c
 3395 0913 C3090000 		.4byte	0x9c3
 3396 0917 16       		.uleb128 0x16
 3397 0918 67060000 		.4byte	.LASF93
 3398 091c 01       		.byte	0x1
 3399 091d 4D03     		.2byte	0x34d
 3400 091f F0080000 		.4byte	0x8f0
 3401 0923 320A0000 		.4byte	.LLST44
 3402 0927 1E       		.uleb128 0x1e
 3403 0928 F3020000 		.4byte	.LASF95
 3404 092c 01       		.byte	0x1
 3405 092d 4F03     		.2byte	0x34f
 3406 092f 2C040000 		.4byte	0x42c
 3407 0933 5E0A0000 		.4byte	.LLST45
 3408 0937 1E       		.uleb128 0x1e
 3409 0938 29050000 		.4byte	.LASF104
 3410 093c 01       		.byte	0x1
 3411 093d 5003     		.2byte	0x350
 3412 093f 6B000000 		.4byte	0x6b
 3413 0943 AE0A0000 		.4byte	.LLST46
 3414 0947 17       		.uleb128 0x17
 3415 0948 6900     		.ascii	"i\000"
 3416 094a 01       		.byte	0x1
 3417 094b 5103     		.2byte	0x351
 3418 094d 6B000000 		.4byte	0x6b
 3419 0951 CF0A0000 		.4byte	.LLST47
 3420 0955 17       		.uleb128 0x17
 3421 0956 6A00     		.ascii	"j\000"
 3422 0958 01       		.byte	0x1
 3423 0959 5203     		.2byte	0x352
 3424 095b 6B000000 		.4byte	0x6b
 3425 095f 0F0B0000 		.4byte	.LLST48
 3426 0963 1D       		.uleb128 0x1d
 3427 0964 83070000 		.4byte	.LASF99
 3428 0968 01       		.byte	0x1
 3429 0969 5303     		.2byte	0x353
 3430 096b 6B000000 		.4byte	0x6b
 3431 096f 03       		.uleb128 0x3
 3432 0970 91       		.byte	0x91
 3433 0971 BC7F     		.sleb128 -68
 3434 0973 1D       		.uleb128 0x1d
 3435 0974 20000000 		.4byte	.LASF100
 3436 0978 01       		.byte	0x1
 3437 0979 5403     		.2byte	0x354
 3438 097b 6B000000 		.4byte	0x6b
 3439 097f 03       		.uleb128 0x3
 3440 0980 91       		.byte	0x91
ARM GAS  C:\Users\YUANFA~1\AppData\Local\Temp\cctOMKNb.s 			page 98


 3441 0981 B87F     		.sleb128 -72
 3442 0983 1D       		.uleb128 0x1d
 3443 0984 ED040000 		.4byte	.LASF105
 3444 0988 01       		.byte	0x1
 3445 0989 5503     		.2byte	0x355
 3446 098b C3090000 		.4byte	0x9c3
 3447 098f 02       		.uleb128 0x2
 3448 0990 91       		.byte	0x91
 3449 0991 44       		.sleb128 -60
 3450 0992 1E       		.uleb128 0x1e
 3451 0993 56000000 		.4byte	.LASF106
 3452 0997 01       		.byte	0x1
 3453 0998 5603     		.2byte	0x356
 3454 099a 9B000000 		.4byte	0x9b
 3455 099e 590B0000 		.4byte	.LLST49
 3456 09a2 1E       		.uleb128 0x1e
 3457 09a3 63000000 		.4byte	.LASF107
 3458 09a7 01       		.byte	0x1
 3459 09a8 5703     		.2byte	0x357
 3460 09aa 9B000000 		.4byte	0x9b
 3461 09ae 850B0000 		.4byte	.LLST50
 3462 09b2 1E       		.uleb128 0x1e
 3463 09b3 AD060000 		.4byte	.LASF108
 3464 09b7 01       		.byte	0x1
 3465 09b8 5803     		.2byte	0x358
 3466 09ba 83000000 		.4byte	0x83
 3467 09be B10B0000 		.4byte	.LLST51
 3468 09c2 00       		.byte	0
 3469 09c3 0B       		.uleb128 0xb
 3470 09c4 77000000 		.4byte	0x77
 3471 09c8 D9090000 		.4byte	0x9d9
 3472 09cc 0C       		.uleb128 0xc
 3473 09cd C3000000 		.4byte	0xc3
 3474 09d1 02       		.byte	0x2
 3475 09d2 0C       		.uleb128 0xc
 3476 09d3 C3000000 		.4byte	0xc3
 3477 09d7 02       		.byte	0x2
 3478 09d8 00       		.byte	0
 3479 09d9 14       		.uleb128 0x14
 3480 09da 88000000 		.4byte	.LASF110
 3481 09de 01       		.byte	0x1
 3482 09df 4706     		.2byte	0x647
 3483 09e1 03       		.byte	0x3
 3484 09e2 130A0000 		.4byte	0xa13
 3485 09e6 12       		.uleb128 0x12
 3486 09e7 6900     		.ascii	"i\000"
 3487 09e9 01       		.byte	0x1
 3488 09ea 4906     		.2byte	0x649
 3489 09ec 83000000 		.4byte	0x83
 3490 09f0 12       		.uleb128 0x12
 3491 09f1 6A00     		.ascii	"j\000"
 3492 09f3 01       		.byte	0x1
 3493 09f4 4A06     		.2byte	0x64a
 3494 09f6 83000000 		.4byte	0x83
 3495 09fa 13       		.uleb128 0x13
 3496 09fb D2020000 		.4byte	.LASF111
 3497 09ff 01       		.byte	0x1
ARM GAS  C:\Users\YUANFA~1\AppData\Local\Temp\cctOMKNb.s 			page 99


 3498 0a00 4B06     		.2byte	0x64b
 3499 0a02 F2020000 		.4byte	0x2f2
 3500 0a06 13       		.uleb128 0x13
 3501 0a07 7F020000 		.4byte	.LASF112
 3502 0a0b 01       		.byte	0x1
 3503 0a0c 4C06     		.2byte	0x64c
 3504 0a0e 83000000 		.4byte	0x83
 3505 0a12 00       		.byte	0
 3506 0a13 24       		.uleb128 0x24
 3507 0a14 0A070000 		.4byte	.LASF113
 3508 0a18 01       		.byte	0x1
 3509 0a19 C903     		.2byte	0x3c9
 3510 0a1b 00000000 		.4byte	.LFB3
 3511 0a1f 4C030000 		.4byte	.LFE3-.LFB3
 3512 0a23 01       		.uleb128 0x1
 3513 0a24 9C       		.byte	0x9c
 3514 0a25 2B0D0000 		.4byte	0xd2b
 3515 0a29 16       		.uleb128 0x16
 3516 0a2a 67060000 		.4byte	.LASF93
 3517 0a2e 01       		.byte	0x1
 3518 0a2f CA03     		.2byte	0x3ca
 3519 0a31 F0080000 		.4byte	0x8f0
 3520 0a35 C40B0000 		.4byte	.LLST52
 3521 0a39 1E       		.uleb128 0x1e
 3522 0a3a C8010000 		.4byte	.LASF94
 3523 0a3e 01       		.byte	0x1
 3524 0a3f CC03     		.2byte	0x3cc
 3525 0a41 FB080000 		.4byte	0x8fb
 3526 0a45 E50B0000 		.4byte	.LLST53
 3527 0a49 1E       		.uleb128 0x1e
 3528 0a4a 00000000 		.4byte	.LASF69
 3529 0a4e 01       		.byte	0x1
 3530 0a4f CD03     		.2byte	0x3cd
 3531 0a51 3E040000 		.4byte	0x43e
 3532 0a55 F80B0000 		.4byte	.LLST54
 3533 0a59 1E       		.uleb128 0x1e
 3534 0a5a 43070000 		.4byte	.LASF77
 3535 0a5e 01       		.byte	0x1
 3536 0a5f CE03     		.2byte	0x3ce
 3537 0a61 97060000 		.4byte	0x697
 3538 0a65 DC0C0000 		.4byte	.LLST55
 3539 0a69 1E       		.uleb128 0x1e
 3540 0a6a 58060000 		.4byte	.LASF84
 3541 0a6e 01       		.byte	0x1
 3542 0a6f CF03     		.2byte	0x3cf
 3543 0a71 23080000 		.4byte	0x823
 3544 0a75 1D100000 		.4byte	.LLST56
 3545 0a79 1D       		.uleb128 0x1d
 3546 0a7a D8060000 		.4byte	.LASF114
 3547 0a7e 01       		.byte	0x1
 3548 0a7f D003     		.2byte	0x3d0
 3549 0a81 2B0D0000 		.4byte	0xd2b
 3550 0a85 05       		.uleb128 0x5
 3551 0a86 03       		.byte	0x3
 3552 0a87 40000000 		.4byte	touchPadBuffer.5283
 3553 0a8b 17       		.uleb128 0x17
 3554 0a8c 6900     		.ascii	"i\000"
ARM GAS  C:\Users\YUANFA~1\AppData\Local\Temp\cctOMKNb.s 			page 100


 3555 0a8e 01       		.byte	0x1
 3556 0a8f D103     		.2byte	0x3d1
 3557 0a91 83000000 		.4byte	0x83
 3558 0a95 35100000 		.4byte	.LLST57
 3559 0a99 1E       		.uleb128 0x1e
 3560 0a9a 7F020000 		.4byte	.LASF112
 3561 0a9e 01       		.byte	0x1
 3562 0a9f D203     		.2byte	0x3d2
 3563 0aa1 6B000000 		.4byte	0x6b
 3564 0aa5 2C110000 		.4byte	.LLST58
 3565 0aa9 1E       		.uleb128 0x1e
 3566 0aaa 0E000000 		.4byte	.LASF72
 3567 0aae 01       		.byte	0x1
 3568 0aaf D303     		.2byte	0x3d3
 3569 0ab1 77000000 		.4byte	0x77
 3570 0ab5 3F110000 		.4byte	.LLST59
 3571 0ab9 27       		.uleb128 0x27
 3572 0aba A1040000 		.4byte	0x4a1
 3573 0abe CE010000 		.4byte	.LBB12
 3574 0ac2 46000000 		.4byte	.LBE12-.LBB12
 3575 0ac6 01       		.byte	0x1
 3576 0ac7 4604     		.2byte	0x446
 3577 0ac9 E10A0000 		.4byte	0xae1
 3578 0acd 1A       		.uleb128 0x1a
 3579 0ace CE010000 		.4byte	.LBB13
 3580 0ad2 46000000 		.4byte	.LBE13-.LBB13
 3581 0ad6 1B       		.uleb128 0x1b
 3582 0ad7 AE040000 		.4byte	0x4ae
 3583 0adb 53110000 		.4byte	.LLST60
 3584 0adf 00       		.byte	0
 3585 0ae0 00       		.byte	0
 3586 0ae1 27       		.uleb128 0x27
 3587 0ae2 D9090000 		.4byte	0x9d9
 3588 0ae6 28020000 		.4byte	.LBB14
 3589 0aea D6000000 		.4byte	.LBE14-.LBB14
 3590 0aee 01       		.byte	0x1
 3591 0aef 4F04     		.2byte	0x44f
 3592 0af1 900B0000 		.4byte	0xb90
 3593 0af5 1A       		.uleb128 0x1a
 3594 0af6 28020000 		.4byte	.LBB15
 3595 0afa D6000000 		.4byte	.LBE15-.LBB15
 3596 0afe 1B       		.uleb128 0x1b
 3597 0aff E6090000 		.4byte	0x9e6
 3598 0b03 66110000 		.4byte	.LLST61
 3599 0b07 1B       		.uleb128 0x1b
 3600 0b08 F0090000 		.4byte	0x9f0
 3601 0b0c 9C110000 		.4byte	.LLST62
 3602 0b10 28       		.uleb128 0x28
 3603 0b11 FA090000 		.4byte	0x9fa
 3604 0b15 02       		.uleb128 0x2
 3605 0b16 91       		.byte	0x91
 3606 0b17 54       		.sleb128 -44
 3607 0b18 1B       		.uleb128 0x1b
 3608 0b19 060A0000 		.4byte	0xa06
 3609 0b1d D0110000 		.4byte	.LLST63
 3610 0b21 1F       		.uleb128 0x1f
 3611 0b22 6C020000 		.4byte	.LVL283
ARM GAS  C:\Users\YUANFA~1\AppData\Local\Temp\cctOMKNb.s 			page 101


 3612 0b26 9D060000 		.4byte	0x69d
 3613 0b2a 420B0000 		.4byte	0xb42
 3614 0b2e 20       		.uleb128 0x20
 3615 0b2f 01       		.uleb128 0x1
 3616 0b30 50       		.byte	0x50
 3617 0b31 0F       		.uleb128 0xf
 3618 0b32 74       		.byte	0x74
 3619 0b33 00       		.sleb128 0
 3620 0b34 31       		.byte	0x31
 3621 0b35 24       		.byte	0x24
 3622 0b36 74       		.byte	0x74
 3623 0b37 00       		.sleb128 0
 3624 0b38 22       		.byte	0x22
 3625 0b39 32       		.byte	0x32
 3626 0b3a 24       		.byte	0x24
 3627 0b3b 03       		.byte	0x3
 3628 0b3c 00000000 		.4byte	.LANCHOR0
 3629 0b40 22       		.byte	0x22
 3630 0b41 00       		.byte	0
 3631 0b42 1F       		.uleb128 0x1f
 3632 0b43 DA020000 		.4byte	.LVL297
 3633 0b47 9D060000 		.4byte	0x69d
 3634 0b4b 5D0B0000 		.4byte	0xb5d
 3635 0b4f 20       		.uleb128 0x20
 3636 0b50 01       		.uleb128 0x1
 3637 0b51 50       		.byte	0x50
 3638 0b52 02       		.uleb128 0x2
 3639 0b53 91       		.byte	0x91
 3640 0b54 54       		.sleb128 -44
 3641 0b55 20       		.uleb128 0x20
 3642 0b56 01       		.uleb128 0x1
 3643 0b57 51       		.byte	0x51
 3644 0b58 03       		.uleb128 0x3
 3645 0b59 7D       		.byte	0x7d
 3646 0b5a 00       		.sleb128 0
 3647 0b5b 06       		.byte	0x6
 3648 0b5c 00       		.byte	0
 3649 0b5d 1F       		.uleb128 0x1f
 3650 0b5e EA020000 		.4byte	.LVL299
 3651 0b62 9D060000 		.4byte	0x69d
 3652 0b66 780B0000 		.4byte	0xb78
 3653 0b6a 20       		.uleb128 0x20
 3654 0b6b 01       		.uleb128 0x1
 3655 0b6c 50       		.byte	0x50
 3656 0b6d 03       		.uleb128 0x3
 3657 0b6e 7D       		.byte	0x7d
 3658 0b6f 00       		.sleb128 0
 3659 0b70 06       		.byte	0x6
 3660 0b71 20       		.uleb128 0x20
 3661 0b72 01       		.uleb128 0x1
 3662 0b73 51       		.byte	0x51
 3663 0b74 02       		.uleb128 0x2
 3664 0b75 75       		.byte	0x75
 3665 0b76 00       		.sleb128 0
 3666 0b77 00       		.byte	0
 3667 0b78 21       		.uleb128 0x21
 3668 0b79 F2020000 		.4byte	.LVL300
ARM GAS  C:\Users\YUANFA~1\AppData\Local\Temp\cctOMKNb.s 			page 102


 3669 0b7d 9D060000 		.4byte	0x69d
 3670 0b81 20       		.uleb128 0x20
 3671 0b82 01       		.uleb128 0x1
 3672 0b83 50       		.byte	0x50
 3673 0b84 02       		.uleb128 0x2
 3674 0b85 75       		.byte	0x75
 3675 0b86 00       		.sleb128 0
 3676 0b87 20       		.uleb128 0x20
 3677 0b88 01       		.uleb128 0x1
 3678 0b89 51       		.byte	0x51
 3679 0b8a 02       		.uleb128 0x2
 3680 0b8b 91       		.byte	0x91
 3681 0b8c 54       		.sleb128 -44
 3682 0b8d 00       		.byte	0
 3683 0b8e 00       		.byte	0
 3684 0b8f 00       		.byte	0
 3685 0b90 1F       		.uleb128 0x1f
 3686 0b91 A2000000 		.4byte	.LVL220
 3687 0b95 00050000 		.4byte	0x500
 3688 0b99 AC0B0000 		.4byte	0xbac
 3689 0b9d 20       		.uleb128 0x20
 3690 0b9e 01       		.uleb128 0x1
 3691 0b9f 50       		.byte	0x50
 3692 0ba0 02       		.uleb128 0x2
 3693 0ba1 74       		.byte	0x74
 3694 0ba2 00       		.sleb128 0
 3695 0ba3 20       		.uleb128 0x20
 3696 0ba4 01       		.uleb128 0x1
 3697 0ba5 52       		.byte	0x52
 3698 0ba6 04       		.uleb128 0x4
 3699 0ba7 7D       		.byte	0x7d
 3700 0ba8 00       		.sleb128 0
 3701 0ba9 94       		.byte	0x94
 3702 0baa 02       		.byte	0x2
 3703 0bab 00       		.byte	0
 3704 0bac 1F       		.uleb128 0x1f
 3705 0bad CA000000 		.4byte	.LVL228
 3706 0bb1 06060000 		.4byte	0x606
 3707 0bb5 C60B0000 		.4byte	0xbc6
 3708 0bb9 20       		.uleb128 0x20
 3709 0bba 01       		.uleb128 0x1
 3710 0bbb 50       		.byte	0x50
 3711 0bbc 02       		.uleb128 0x2
 3712 0bbd 76       		.byte	0x76
 3713 0bbe 00       		.sleb128 0
 3714 0bbf 20       		.uleb128 0x20
 3715 0bc0 01       		.uleb128 0x1
 3716 0bc1 51       		.byte	0x51
 3717 0bc2 02       		.uleb128 0x2
 3718 0bc3 7A       		.byte	0x7a
 3719 0bc4 00       		.sleb128 0
 3720 0bc5 00       		.byte	0
 3721 0bc6 1F       		.uleb128 0x1f
 3722 0bc7 DC000000 		.4byte	.LVL229
 3723 0bcb D6060000 		.4byte	0x6d6
 3724 0bcf E90B0000 		.4byte	0xbe9
 3725 0bd3 20       		.uleb128 0x20
ARM GAS  C:\Users\YUANFA~1\AppData\Local\Temp\cctOMKNb.s 			page 103


 3726 0bd4 01       		.uleb128 0x1
 3727 0bd5 50       		.byte	0x50
 3728 0bd6 02       		.uleb128 0x2
 3729 0bd7 77       		.byte	0x77
 3730 0bd8 00       		.sleb128 0
 3731 0bd9 20       		.uleb128 0x20
 3732 0bda 01       		.uleb128 0x1
 3733 0bdb 52       		.byte	0x52
 3734 0bdc 05       		.uleb128 0x5
 3735 0bdd 03       		.byte	0x3
 3736 0bde 40000000 		.4byte	.LANCHOR0+64
 3737 0be2 20       		.uleb128 0x20
 3738 0be3 01       		.uleb128 0x1
 3739 0be4 53       		.byte	0x53
 3740 0be5 02       		.uleb128 0x2
 3741 0be6 76       		.byte	0x76
 3742 0be7 00       		.sleb128 0
 3743 0be8 00       		.byte	0
 3744 0be9 1F       		.uleb128 0x1f
 3745 0bea F8000000 		.4byte	.LVL234
 3746 0bee 8D050000 		.4byte	0x58d
 3747 0bf2 0A0C0000 		.4byte	0xc0a
 3748 0bf6 20       		.uleb128 0x20
 3749 0bf7 01       		.uleb128 0x1
 3750 0bf8 50       		.byte	0x50
 3751 0bf9 03       		.uleb128 0x3
 3752 0bfa 91       		.byte	0x91
 3753 0bfb 4C       		.sleb128 -52
 3754 0bfc 06       		.byte	0x6
 3755 0bfd 20       		.uleb128 0x20
 3756 0bfe 01       		.uleb128 0x1
 3757 0bff 51       		.byte	0x51
 3758 0c00 02       		.uleb128 0x2
 3759 0c01 76       		.byte	0x76
 3760 0c02 00       		.sleb128 0
 3761 0c03 20       		.uleb128 0x20
 3762 0c04 01       		.uleb128 0x1
 3763 0c05 52       		.byte	0x52
 3764 0c06 02       		.uleb128 0x2
 3765 0c07 7A       		.byte	0x7a
 3766 0c08 00       		.sleb128 0
 3767 0c09 00       		.byte	0
 3768 0c0a 1F       		.uleb128 0x1f
 3769 0c0b 06010000 		.4byte	.LVL235
 3770 0c0f 00050000 		.4byte	0x500
 3771 0c13 270C0000 		.4byte	0xc27
 3772 0c17 20       		.uleb128 0x20
 3773 0c18 01       		.uleb128 0x1
 3774 0c19 50       		.byte	0x50
 3775 0c1a 03       		.uleb128 0x3
 3776 0c1b 91       		.byte	0x91
 3777 0c1c 4C       		.sleb128 -52
 3778 0c1d 06       		.byte	0x6
 3779 0c1e 20       		.uleb128 0x20
 3780 0c1f 01       		.uleb128 0x1
 3781 0c20 52       		.byte	0x52
 3782 0c21 04       		.uleb128 0x4
ARM GAS  C:\Users\YUANFA~1\AppData\Local\Temp\cctOMKNb.s 			page 104


 3783 0c22 7D       		.byte	0x7d
 3784 0c23 00       		.sleb128 0
 3785 0c24 94       		.byte	0x94
 3786 0c25 02       		.byte	0x2
 3787 0c26 00       		.byte	0
 3788 0c27 1F       		.uleb128 0x1f
 3789 0c28 2A010000 		.4byte	.LVL238
 3790 0c2c B9040000 		.4byte	0x4b9
 3791 0c30 480C0000 		.4byte	0xc48
 3792 0c34 20       		.uleb128 0x20
 3793 0c35 01       		.uleb128 0x1
 3794 0c36 50       		.byte	0x50
 3795 0c37 03       		.uleb128 0x3
 3796 0c38 91       		.byte	0x91
 3797 0c39 4C       		.sleb128 -52
 3798 0c3a 06       		.byte	0x6
 3799 0c3b 20       		.uleb128 0x20
 3800 0c3c 01       		.uleb128 0x1
 3801 0c3d 51       		.byte	0x51
 3802 0c3e 02       		.uleb128 0x2
 3803 0c3f 76       		.byte	0x76
 3804 0c40 00       		.sleb128 0
 3805 0c41 20       		.uleb128 0x20
 3806 0c42 01       		.uleb128 0x1
 3807 0c43 52       		.byte	0x52
 3808 0c44 02       		.uleb128 0x2
 3809 0c45 7A       		.byte	0x7a
 3810 0c46 00       		.sleb128 0
 3811 0c47 00       		.byte	0
 3812 0c48 1F       		.uleb128 0x1f
 3813 0c49 56010000 		.4byte	.LVL244
 3814 0c4d 00050000 		.4byte	0x500
 3815 0c51 640C0000 		.4byte	0xc64
 3816 0c55 20       		.uleb128 0x20
 3817 0c56 01       		.uleb128 0x1
 3818 0c57 50       		.byte	0x50
 3819 0c58 02       		.uleb128 0x2
 3820 0c59 74       		.byte	0x74
 3821 0c5a 00       		.sleb128 0
 3822 0c5b 20       		.uleb128 0x20
 3823 0c5c 01       		.uleb128 0x1
 3824 0c5d 52       		.byte	0x52
 3825 0c5e 04       		.uleb128 0x4
 3826 0c5f 7D       		.byte	0x7d
 3827 0c60 00       		.sleb128 0
 3828 0c61 94       		.byte	0x94
 3829 0c62 02       		.byte	0x2
 3830 0c63 00       		.byte	0
 3831 0c64 1F       		.uleb128 0x1f
 3832 0c65 68010000 		.4byte	.LVL249
 3833 0c69 06060000 		.4byte	0x606
 3834 0c6d 7E0C0000 		.4byte	0xc7e
 3835 0c71 20       		.uleb128 0x20
 3836 0c72 01       		.uleb128 0x1
 3837 0c73 50       		.byte	0x50
 3838 0c74 02       		.uleb128 0x2
 3839 0c75 76       		.byte	0x76
ARM GAS  C:\Users\YUANFA~1\AppData\Local\Temp\cctOMKNb.s 			page 105


 3840 0c76 00       		.sleb128 0
 3841 0c77 20       		.uleb128 0x20
 3842 0c78 01       		.uleb128 0x1
 3843 0c79 51       		.byte	0x51
 3844 0c7a 02       		.uleb128 0x2
 3845 0c7b 7A       		.byte	0x7a
 3846 0c7c 00       		.sleb128 0
 3847 0c7d 00       		.byte	0
 3848 0c7e 1F       		.uleb128 0x1f
 3849 0c7f 7A010000 		.4byte	.LVL250
 3850 0c83 D6060000 		.4byte	0x6d6
 3851 0c87 A10C0000 		.4byte	0xca1
 3852 0c8b 20       		.uleb128 0x20
 3853 0c8c 01       		.uleb128 0x1
 3854 0c8d 51       		.byte	0x51
 3855 0c8e 02       		.uleb128 0x2
 3856 0c8f 77       		.byte	0x77
 3857 0c90 00       		.sleb128 0
 3858 0c91 20       		.uleb128 0x20
 3859 0c92 01       		.uleb128 0x1
 3860 0c93 52       		.byte	0x52
 3861 0c94 05       		.uleb128 0x5
 3862 0c95 03       		.byte	0x3
 3863 0c96 40000000 		.4byte	.LANCHOR0+64
 3864 0c9a 20       		.uleb128 0x20
 3865 0c9b 01       		.uleb128 0x1
 3866 0c9c 53       		.byte	0x53
 3867 0c9d 02       		.uleb128 0x2
 3868 0c9e 76       		.byte	0x76
 3869 0c9f 00       		.sleb128 0
 3870 0ca0 00       		.byte	0
 3871 0ca1 1F       		.uleb128 0x1f
 3872 0ca2 94010000 		.4byte	.LVL254
 3873 0ca6 8D050000 		.4byte	0x58d
 3874 0caa C10C0000 		.4byte	0xcc1
 3875 0cae 20       		.uleb128 0x20
 3876 0caf 01       		.uleb128 0x1
 3877 0cb0 50       		.byte	0x50
 3878 0cb1 02       		.uleb128 0x2
 3879 0cb2 74       		.byte	0x74
 3880 0cb3 00       		.sleb128 0
 3881 0cb4 20       		.uleb128 0x20
 3882 0cb5 01       		.uleb128 0x1
 3883 0cb6 51       		.byte	0x51
 3884 0cb7 02       		.uleb128 0x2
 3885 0cb8 76       		.byte	0x76
 3886 0cb9 00       		.sleb128 0
 3887 0cba 20       		.uleb128 0x20
 3888 0cbb 01       		.uleb128 0x1
 3889 0cbc 52       		.byte	0x52
 3890 0cbd 02       		.uleb128 0x2
 3891 0cbe 7A       		.byte	0x7a
 3892 0cbf 00       		.sleb128 0
 3893 0cc0 00       		.byte	0
 3894 0cc1 1F       		.uleb128 0x1f
 3895 0cc2 A2010000 		.4byte	.LVL255
 3896 0cc6 00050000 		.4byte	0x500
ARM GAS  C:\Users\YUANFA~1\AppData\Local\Temp\cctOMKNb.s 			page 106


 3897 0cca DD0C0000 		.4byte	0xcdd
 3898 0cce 20       		.uleb128 0x20
 3899 0ccf 01       		.uleb128 0x1
 3900 0cd0 50       		.byte	0x50
 3901 0cd1 02       		.uleb128 0x2
 3902 0cd2 74       		.byte	0x74
 3903 0cd3 00       		.sleb128 0
 3904 0cd4 20       		.uleb128 0x20
 3905 0cd5 01       		.uleb128 0x1
 3906 0cd6 52       		.byte	0x52
 3907 0cd7 04       		.uleb128 0x4
 3908 0cd8 7D       		.byte	0x7d
 3909 0cd9 00       		.sleb128 0
 3910 0cda 94       		.byte	0x94
 3911 0cdb 02       		.byte	0x2
 3912 0cdc 00       		.byte	0
 3913 0cdd 1F       		.uleb128 0x1f
 3914 0cde C6010000 		.4byte	.LVL258
 3915 0ce2 B9040000 		.4byte	0x4b9
 3916 0ce6 FD0C0000 		.4byte	0xcfd
 3917 0cea 20       		.uleb128 0x20
 3918 0ceb 01       		.uleb128 0x1
 3919 0cec 50       		.byte	0x50
 3920 0ced 02       		.uleb128 0x2
 3921 0cee 74       		.byte	0x74
 3922 0cef 00       		.sleb128 0
 3923 0cf0 20       		.uleb128 0x20
 3924 0cf1 01       		.uleb128 0x1
 3925 0cf2 51       		.byte	0x51
 3926 0cf3 02       		.uleb128 0x2
 3927 0cf4 76       		.byte	0x76
 3928 0cf5 00       		.sleb128 0
 3929 0cf6 20       		.uleb128 0x20
 3930 0cf7 01       		.uleb128 0x1
 3931 0cf8 52       		.byte	0x52
 3932 0cf9 02       		.uleb128 0x2
 3933 0cfa 7A       		.byte	0x7a
 3934 0cfb 00       		.sleb128 0
 3935 0cfc 00       		.byte	0
 3936 0cfd 21       		.uleb128 0x21
 3937 0cfe 20030000 		.4byte	.LVL308
 3938 0d02 9D060000 		.4byte	0x69d
 3939 0d06 20       		.uleb128 0x20
 3940 0d07 01       		.uleb128 0x1
 3941 0d08 50       		.byte	0x50
 3942 0d09 0C       		.uleb128 0xc
 3943 0d0a 74       		.byte	0x74
 3944 0d0b 00       		.sleb128 0
 3945 0d0c 31       		.byte	0x31
 3946 0d0d 24       		.byte	0x24
 3947 0d0e 74       		.byte	0x74
 3948 0d0f 00       		.sleb128 0
 3949 0d10 22       		.byte	0x22
 3950 0d11 32       		.byte	0x32
 3951 0d12 24       		.byte	0x24
 3952 0d13 7A       		.byte	0x7a
 3953 0d14 00       		.sleb128 0
ARM GAS  C:\Users\YUANFA~1\AppData\Local\Temp\cctOMKNb.s 			page 107


 3954 0d15 22       		.byte	0x22
 3955 0d16 20       		.uleb128 0x20
 3956 0d17 01       		.uleb128 0x1
 3957 0d18 51       		.byte	0x51
 3958 0d19 0F       		.uleb128 0xf
 3959 0d1a 74       		.byte	0x74
 3960 0d1b 00       		.sleb128 0
 3961 0d1c 31       		.byte	0x31
 3962 0d1d 24       		.byte	0x24
 3963 0d1e 74       		.byte	0x74
 3964 0d1f 00       		.sleb128 0
 3965 0d20 22       		.byte	0x22
 3966 0d21 32       		.byte	0x32
 3967 0d22 24       		.byte	0x24
 3968 0d23 03       		.byte	0x3
 3969 0d24 00000000 		.4byte	.LANCHOR0
 3970 0d28 22       		.byte	0x22
 3971 0d29 00       		.byte	0
 3972 0d2a 00       		.byte	0
 3973 0d2b 0B       		.uleb128 0xb
 3974 0d2c 8F000000 		.4byte	0x8f
 3975 0d30 3B0D0000 		.4byte	0xd3b
 3976 0d34 0C       		.uleb128 0xc
 3977 0d35 C3000000 		.4byte	0xc3
 3978 0d39 8E       		.byte	0x8e
 3979 0d3a 00       		.byte	0
 3980 0d3b 29       		.uleb128 0x29
 3981 0d3c 9B050000 		.4byte	.LASF126
 3982 0d40 01       		.byte	0x1
 3983 0d41 B806     		.2byte	0x6b8
 3984 0d43 83000000 		.4byte	0x83
 3985 0d47 00000000 		.4byte	.LFB13
 3986 0d4b 6C000000 		.4byte	.LFE13-.LFB13
 3987 0d4f 01       		.uleb128 0x1
 3988 0d50 9C       		.byte	0x9c
 3989 0d51 940D0000 		.4byte	0xd94
 3990 0d55 16       		.uleb128 0x16
 3991 0d56 67060000 		.4byte	.LASF93
 3992 0d5a 01       		.byte	0x1
 3993 0d5b B806     		.2byte	0x6b8
 3994 0d5d F0080000 		.4byte	0x8f0
 3995 0d61 E3110000 		.4byte	.LLST64
 3996 0d65 17       		.uleb128 0x17
 3997 0d66 6900     		.ascii	"i\000"
 3998 0d68 01       		.byte	0x1
 3999 0d69 BA06     		.2byte	0x6ba
 4000 0d6b 83000000 		.4byte	0x83
 4001 0d6f 04120000 		.4byte	.LLST65
 4002 0d73 1E       		.uleb128 0x1e
 4003 0d74 77000000 		.4byte	.LASF115
 4004 0d78 01       		.byte	0x1
 4005 0d79 BB06     		.2byte	0x6bb
 4006 0d7b 83000000 		.4byte	0x83
 4007 0d7f 23120000 		.4byte	.LLST66
 4008 0d83 1E       		.uleb128 0x1e
 4009 0d84 C8010000 		.4byte	.LASF94
 4010 0d88 01       		.byte	0x1
ARM GAS  C:\Users\YUANFA~1\AppData\Local\Temp\cctOMKNb.s 			page 108


 4011 0d89 BC06     		.2byte	0x6bc
 4012 0d8b FB080000 		.4byte	0x8fb
 4013 0d8f 42120000 		.4byte	.LLST67
 4014 0d93 00       		.byte	0
 4015 0d94 2A       		.uleb128 0x2a
 4016 0d95 BE060000 		.4byte	.LASF116
 4017 0d99 01       		.byte	0x1
 4018 0d9a 59       		.byte	0x59
 4019 0d9b 32030000 		.4byte	0x332
 4020 0d9f 05       		.uleb128 0x5
 4021 0da0 03       		.byte	0x3
 4022 0da1 00000000 		.4byte	newTouches
 4023 0da5 2A       		.uleb128 0x2a
 4024 0da6 0B050000 		.4byte	.LASF117
 4025 0daa 01       		.byte	0x1
 4026 0dab 5A       		.byte	0x5a
 4027 0dac B70D0000 		.4byte	0xdb7
 4028 0db0 06       		.uleb128 0x6
 4029 0db1 03       		.byte	0x3
 4030 0db2 00000000 		.4byte	newTouches
 4031 0db6 9F       		.byte	0x9f
 4032 0db7 25       		.uleb128 0x25
 4033 0db8 3E040000 		.4byte	0x43e
 4034 0dbc 2A       		.uleb128 0x2a
 4035 0dbd 8A070000 		.4byte	.LASF118
 4036 0dc1 01       		.byte	0x1
 4037 0dc2 5B       		.byte	0x5b
 4038 0dc3 6B000000 		.4byte	0x6b
 4039 0dc7 05       		.uleb128 0x5
 4040 0dc8 03       		.byte	0x3
 4041 0dc9 3E000000 		.4byte	newActiveIDs
 4042 0dcd 2A       		.uleb128 0x2a
 4043 0dce 42040000 		.4byte	.LASF119
 4044 0dd2 01       		.byte	0x1
 4045 0dd3 5C       		.byte	0x5c
 4046 0dd4 6B000000 		.4byte	0x6b
 4047 0dd8 05       		.uleb128 0x5
 4048 0dd9 03       		.byte	0x3
 4049 0dda 3F000000 		.4byte	oldActiveIDs
 4050 0dde 2B       		.uleb128 0x2b
 4051 0ddf 70000000 		.4byte	.LASF127
 4052 0de3 70000000 		.4byte	.LASF127
 4053 0de7 00       		.byte	0
 4054              		.section	.debug_abbrev,"",%progbits
 4055              	.Ldebug_abbrev0:
 4056 0000 01       		.uleb128 0x1
 4057 0001 11       		.uleb128 0x11
 4058 0002 01       		.byte	0x1
 4059 0003 25       		.uleb128 0x25
 4060 0004 0E       		.uleb128 0xe
 4061 0005 13       		.uleb128 0x13
 4062 0006 0B       		.uleb128 0xb
 4063 0007 03       		.uleb128 0x3
 4064 0008 0E       		.uleb128 0xe
 4065 0009 1B       		.uleb128 0x1b
 4066 000a 0E       		.uleb128 0xe
 4067 000b 55       		.uleb128 0x55
ARM GAS  C:\Users\YUANFA~1\AppData\Local\Temp\cctOMKNb.s 			page 109


 4068 000c 17       		.uleb128 0x17
 4069 000d 11       		.uleb128 0x11
 4070 000e 01       		.uleb128 0x1
 4071 000f 10       		.uleb128 0x10
 4072 0010 17       		.uleb128 0x17
 4073 0011 00       		.byte	0
 4074 0012 00       		.byte	0
 4075 0013 02       		.uleb128 0x2
 4076 0014 24       		.uleb128 0x24
 4077 0015 00       		.byte	0
 4078 0016 0B       		.uleb128 0xb
 4079 0017 0B       		.uleb128 0xb
 4080 0018 3E       		.uleb128 0x3e
 4081 0019 0B       		.uleb128 0xb
 4082 001a 03       		.uleb128 0x3
 4083 001b 0E       		.uleb128 0xe
 4084 001c 00       		.byte	0
 4085 001d 00       		.byte	0
 4086 001e 03       		.uleb128 0x3
 4087 001f 24       		.uleb128 0x24
 4088 0020 00       		.byte	0
 4089 0021 0B       		.uleb128 0xb
 4090 0022 0B       		.uleb128 0xb
 4091 0023 3E       		.uleb128 0x3e
 4092 0024 0B       		.uleb128 0xb
 4093 0025 03       		.uleb128 0x3
 4094 0026 08       		.uleb128 0x8
 4095 0027 00       		.byte	0
 4096 0028 00       		.byte	0
 4097 0029 04       		.uleb128 0x4
 4098 002a 16       		.uleb128 0x16
 4099 002b 00       		.byte	0
 4100 002c 03       		.uleb128 0x3
 4101 002d 0E       		.uleb128 0xe
 4102 002e 3A       		.uleb128 0x3a
 4103 002f 0B       		.uleb128 0xb
 4104 0030 3B       		.uleb128 0x3b
 4105 0031 05       		.uleb128 0x5
 4106 0032 49       		.uleb128 0x49
 4107 0033 13       		.uleb128 0x13
 4108 0034 00       		.byte	0
 4109 0035 00       		.byte	0
 4110 0036 05       		.uleb128 0x5
 4111 0037 0F       		.uleb128 0xf
 4112 0038 00       		.byte	0
 4113 0039 0B       		.uleb128 0xb
 4114 003a 0B       		.uleb128 0xb
 4115 003b 00       		.byte	0
 4116 003c 00       		.byte	0
 4117 003d 06       		.uleb128 0x6
 4118 003e 13       		.uleb128 0x13
 4119 003f 01       		.byte	0x1
 4120 0040 0B       		.uleb128 0xb
 4121 0041 0B       		.uleb128 0xb
 4122 0042 3A       		.uleb128 0x3a
 4123 0043 0B       		.uleb128 0xb
 4124 0044 3B       		.uleb128 0x3b
ARM GAS  C:\Users\YUANFA~1\AppData\Local\Temp\cctOMKNb.s 			page 110


 4125 0045 0B       		.uleb128 0xb
 4126 0046 01       		.uleb128 0x1
 4127 0047 13       		.uleb128 0x13
 4128 0048 00       		.byte	0
 4129 0049 00       		.byte	0
 4130 004a 07       		.uleb128 0x7
 4131 004b 0D       		.uleb128 0xd
 4132 004c 00       		.byte	0
 4133 004d 03       		.uleb128 0x3
 4134 004e 08       		.uleb128 0x8
 4135 004f 3A       		.uleb128 0x3a
 4136 0050 0B       		.uleb128 0xb
 4137 0051 3B       		.uleb128 0x3b
 4138 0052 0B       		.uleb128 0xb
 4139 0053 49       		.uleb128 0x49
 4140 0054 13       		.uleb128 0x13
 4141 0055 38       		.uleb128 0x38
 4142 0056 0B       		.uleb128 0xb
 4143 0057 00       		.byte	0
 4144 0058 00       		.byte	0
 4145 0059 08       		.uleb128 0x8
 4146 005a 0D       		.uleb128 0xd
 4147 005b 00       		.byte	0
 4148 005c 03       		.uleb128 0x3
 4149 005d 08       		.uleb128 0x8
 4150 005e 3A       		.uleb128 0x3a
 4151 005f 0B       		.uleb128 0xb
 4152 0060 3B       		.uleb128 0x3b
 4153 0061 05       		.uleb128 0x5
 4154 0062 49       		.uleb128 0x49
 4155 0063 13       		.uleb128 0x13
 4156 0064 38       		.uleb128 0x38
 4157 0065 0B       		.uleb128 0xb
 4158 0066 00       		.byte	0
 4159 0067 00       		.byte	0
 4160 0068 09       		.uleb128 0x9
 4161 0069 13       		.uleb128 0x13
 4162 006a 01       		.byte	0x1
 4163 006b 0B       		.uleb128 0xb
 4164 006c 0B       		.uleb128 0xb
 4165 006d 3A       		.uleb128 0x3a
 4166 006e 0B       		.uleb128 0xb
 4167 006f 3B       		.uleb128 0x3b
 4168 0070 05       		.uleb128 0x5
 4169 0071 01       		.uleb128 0x1
 4170 0072 13       		.uleb128 0x13
 4171 0073 00       		.byte	0
 4172 0074 00       		.byte	0
 4173 0075 0A       		.uleb128 0xa
 4174 0076 0D       		.uleb128 0xd
 4175 0077 00       		.byte	0
 4176 0078 03       		.uleb128 0x3
 4177 0079 0E       		.uleb128 0xe
 4178 007a 3A       		.uleb128 0x3a
 4179 007b 0B       		.uleb128 0xb
 4180 007c 3B       		.uleb128 0x3b
 4181 007d 05       		.uleb128 0x5
ARM GAS  C:\Users\YUANFA~1\AppData\Local\Temp\cctOMKNb.s 			page 111


 4182 007e 49       		.uleb128 0x49
 4183 007f 13       		.uleb128 0x13
 4184 0080 38       		.uleb128 0x38
 4185 0081 0B       		.uleb128 0xb
 4186 0082 00       		.byte	0
 4187 0083 00       		.byte	0
 4188 0084 0B       		.uleb128 0xb
 4189 0085 01       		.uleb128 0x1
 4190 0086 01       		.byte	0x1
 4191 0087 49       		.uleb128 0x49
 4192 0088 13       		.uleb128 0x13
 4193 0089 01       		.uleb128 0x1
 4194 008a 13       		.uleb128 0x13
 4195 008b 00       		.byte	0
 4196 008c 00       		.byte	0
 4197 008d 0C       		.uleb128 0xc
 4198 008e 21       		.uleb128 0x21
 4199 008f 00       		.byte	0
 4200 0090 49       		.uleb128 0x49
 4201 0091 13       		.uleb128 0x13
 4202 0092 2F       		.uleb128 0x2f
 4203 0093 0B       		.uleb128 0xb
 4204 0094 00       		.byte	0
 4205 0095 00       		.byte	0
 4206 0096 0D       		.uleb128 0xd
 4207 0097 0F       		.uleb128 0xf
 4208 0098 00       		.byte	0
 4209 0099 0B       		.uleb128 0xb
 4210 009a 0B       		.uleb128 0xb
 4211 009b 49       		.uleb128 0x49
 4212 009c 13       		.uleb128 0x13
 4213 009d 00       		.byte	0
 4214 009e 00       		.byte	0
 4215 009f 0E       		.uleb128 0xe
 4216 00a0 26       		.uleb128 0x26
 4217 00a1 00       		.byte	0
 4218 00a2 00       		.byte	0
 4219 00a3 00       		.byte	0
 4220 00a4 0F       		.uleb128 0xf
 4221 00a5 16       		.uleb128 0x16
 4222 00a6 00       		.byte	0
 4223 00a7 03       		.uleb128 0x3
 4224 00a8 0E       		.uleb128 0xe
 4225 00a9 3A       		.uleb128 0x3a
 4226 00aa 0B       		.uleb128 0xb
 4227 00ab 3B       		.uleb128 0x3b
 4228 00ac 0B       		.uleb128 0xb
 4229 00ad 49       		.uleb128 0x49
 4230 00ae 13       		.uleb128 0x13
 4231 00af 00       		.byte	0
 4232 00b0 00       		.byte	0
 4233 00b1 10       		.uleb128 0x10
 4234 00b2 2E       		.uleb128 0x2e
 4235 00b3 01       		.byte	0x1
 4236 00b4 03       		.uleb128 0x3
 4237 00b5 0E       		.uleb128 0xe
 4238 00b6 3A       		.uleb128 0x3a
ARM GAS  C:\Users\YUANFA~1\AppData\Local\Temp\cctOMKNb.s 			page 112


 4239 00b7 0B       		.uleb128 0xb
 4240 00b8 3B       		.uleb128 0x3b
 4241 00b9 05       		.uleb128 0x5
 4242 00ba 27       		.uleb128 0x27
 4243 00bb 19       		.uleb128 0x19
 4244 00bc 49       		.uleb128 0x49
 4245 00bd 13       		.uleb128 0x13
 4246 00be 20       		.uleb128 0x20
 4247 00bf 0B       		.uleb128 0xb
 4248 00c0 01       		.uleb128 0x1
 4249 00c1 13       		.uleb128 0x13
 4250 00c2 00       		.byte	0
 4251 00c3 00       		.byte	0
 4252 00c4 11       		.uleb128 0x11
 4253 00c5 05       		.uleb128 0x5
 4254 00c6 00       		.byte	0
 4255 00c7 03       		.uleb128 0x3
 4256 00c8 0E       		.uleb128 0xe
 4257 00c9 3A       		.uleb128 0x3a
 4258 00ca 0B       		.uleb128 0xb
 4259 00cb 3B       		.uleb128 0x3b
 4260 00cc 05       		.uleb128 0x5
 4261 00cd 49       		.uleb128 0x49
 4262 00ce 13       		.uleb128 0x13
 4263 00cf 00       		.byte	0
 4264 00d0 00       		.byte	0
 4265 00d1 12       		.uleb128 0x12
 4266 00d2 34       		.uleb128 0x34
 4267 00d3 00       		.byte	0
 4268 00d4 03       		.uleb128 0x3
 4269 00d5 08       		.uleb128 0x8
 4270 00d6 3A       		.uleb128 0x3a
 4271 00d7 0B       		.uleb128 0xb
 4272 00d8 3B       		.uleb128 0x3b
 4273 00d9 05       		.uleb128 0x5
 4274 00da 49       		.uleb128 0x49
 4275 00db 13       		.uleb128 0x13
 4276 00dc 00       		.byte	0
 4277 00dd 00       		.byte	0
 4278 00de 13       		.uleb128 0x13
 4279 00df 34       		.uleb128 0x34
 4280 00e0 00       		.byte	0
 4281 00e1 03       		.uleb128 0x3
 4282 00e2 0E       		.uleb128 0xe
 4283 00e3 3A       		.uleb128 0x3a
 4284 00e4 0B       		.uleb128 0xb
 4285 00e5 3B       		.uleb128 0x3b
 4286 00e6 05       		.uleb128 0x5
 4287 00e7 49       		.uleb128 0x49
 4288 00e8 13       		.uleb128 0x13
 4289 00e9 00       		.byte	0
 4290 00ea 00       		.byte	0
 4291 00eb 14       		.uleb128 0x14
 4292 00ec 2E       		.uleb128 0x2e
 4293 00ed 01       		.byte	0x1
 4294 00ee 03       		.uleb128 0x3
 4295 00ef 0E       		.uleb128 0xe
ARM GAS  C:\Users\YUANFA~1\AppData\Local\Temp\cctOMKNb.s 			page 113


 4296 00f0 3A       		.uleb128 0x3a
 4297 00f1 0B       		.uleb128 0xb
 4298 00f2 3B       		.uleb128 0x3b
 4299 00f3 05       		.uleb128 0x5
 4300 00f4 27       		.uleb128 0x27
 4301 00f5 19       		.uleb128 0x19
 4302 00f6 20       		.uleb128 0x20
 4303 00f7 0B       		.uleb128 0xb
 4304 00f8 01       		.uleb128 0x1
 4305 00f9 13       		.uleb128 0x13
 4306 00fa 00       		.byte	0
 4307 00fb 00       		.byte	0
 4308 00fc 15       		.uleb128 0x15
 4309 00fd 2E       		.uleb128 0x2e
 4310 00fe 01       		.byte	0x1
 4311 00ff 03       		.uleb128 0x3
 4312 0100 0E       		.uleb128 0xe
 4313 0101 3A       		.uleb128 0x3a
 4314 0102 0B       		.uleb128 0xb
 4315 0103 3B       		.uleb128 0x3b
 4316 0104 05       		.uleb128 0x5
 4317 0105 27       		.uleb128 0x27
 4318 0106 19       		.uleb128 0x19
 4319 0107 11       		.uleb128 0x11
 4320 0108 01       		.uleb128 0x1
 4321 0109 12       		.uleb128 0x12
 4322 010a 06       		.uleb128 0x6
 4323 010b 40       		.uleb128 0x40
 4324 010c 18       		.uleb128 0x18
 4325 010d 9742     		.uleb128 0x2117
 4326 010f 19       		.uleb128 0x19
 4327 0110 01       		.uleb128 0x1
 4328 0111 13       		.uleb128 0x13
 4329 0112 00       		.byte	0
 4330 0113 00       		.byte	0
 4331 0114 16       		.uleb128 0x16
 4332 0115 05       		.uleb128 0x5
 4333 0116 00       		.byte	0
 4334 0117 03       		.uleb128 0x3
 4335 0118 0E       		.uleb128 0xe
 4336 0119 3A       		.uleb128 0x3a
 4337 011a 0B       		.uleb128 0xb
 4338 011b 3B       		.uleb128 0x3b
 4339 011c 05       		.uleb128 0x5
 4340 011d 49       		.uleb128 0x49
 4341 011e 13       		.uleb128 0x13
 4342 011f 02       		.uleb128 0x2
 4343 0120 17       		.uleb128 0x17
 4344 0121 00       		.byte	0
 4345 0122 00       		.byte	0
 4346 0123 17       		.uleb128 0x17
 4347 0124 34       		.uleb128 0x34
 4348 0125 00       		.byte	0
 4349 0126 03       		.uleb128 0x3
 4350 0127 08       		.uleb128 0x8
 4351 0128 3A       		.uleb128 0x3a
 4352 0129 0B       		.uleb128 0xb
ARM GAS  C:\Users\YUANFA~1\AppData\Local\Temp\cctOMKNb.s 			page 114


 4353 012a 3B       		.uleb128 0x3b
 4354 012b 05       		.uleb128 0x5
 4355 012c 49       		.uleb128 0x49
 4356 012d 13       		.uleb128 0x13
 4357 012e 02       		.uleb128 0x2
 4358 012f 17       		.uleb128 0x17
 4359 0130 00       		.byte	0
 4360 0131 00       		.byte	0
 4361 0132 18       		.uleb128 0x18
 4362 0133 1D       		.uleb128 0x1d
 4363 0134 01       		.byte	0x1
 4364 0135 31       		.uleb128 0x31
 4365 0136 13       		.uleb128 0x13
 4366 0137 11       		.uleb128 0x11
 4367 0138 01       		.uleb128 0x1
 4368 0139 12       		.uleb128 0x12
 4369 013a 06       		.uleb128 0x6
 4370 013b 58       		.uleb128 0x58
 4371 013c 0B       		.uleb128 0xb
 4372 013d 59       		.uleb128 0x59
 4373 013e 05       		.uleb128 0x5
 4374 013f 00       		.byte	0
 4375 0140 00       		.byte	0
 4376 0141 19       		.uleb128 0x19
 4377 0142 05       		.uleb128 0x5
 4378 0143 00       		.byte	0
 4379 0144 31       		.uleb128 0x31
 4380 0145 13       		.uleb128 0x13
 4381 0146 02       		.uleb128 0x2
 4382 0147 17       		.uleb128 0x17
 4383 0148 00       		.byte	0
 4384 0149 00       		.byte	0
 4385 014a 1A       		.uleb128 0x1a
 4386 014b 0B       		.uleb128 0xb
 4387 014c 01       		.byte	0x1
 4388 014d 11       		.uleb128 0x11
 4389 014e 01       		.uleb128 0x1
 4390 014f 12       		.uleb128 0x12
 4391 0150 06       		.uleb128 0x6
 4392 0151 00       		.byte	0
 4393 0152 00       		.byte	0
 4394 0153 1B       		.uleb128 0x1b
 4395 0154 34       		.uleb128 0x34
 4396 0155 00       		.byte	0
 4397 0156 31       		.uleb128 0x31
 4398 0157 13       		.uleb128 0x13
 4399 0158 02       		.uleb128 0x2
 4400 0159 17       		.uleb128 0x17
 4401 015a 00       		.byte	0
 4402 015b 00       		.byte	0
 4403 015c 1C       		.uleb128 0x1c
 4404 015d 2E       		.uleb128 0x2e
 4405 015e 01       		.byte	0x1
 4406 015f 03       		.uleb128 0x3
 4407 0160 0E       		.uleb128 0xe
 4408 0161 3A       		.uleb128 0x3a
 4409 0162 0B       		.uleb128 0xb
ARM GAS  C:\Users\YUANFA~1\AppData\Local\Temp\cctOMKNb.s 			page 115


 4410 0163 3B       		.uleb128 0x3b
 4411 0164 05       		.uleb128 0x5
 4412 0165 27       		.uleb128 0x27
 4413 0166 19       		.uleb128 0x19
 4414 0167 49       		.uleb128 0x49
 4415 0168 13       		.uleb128 0x13
 4416 0169 11       		.uleb128 0x11
 4417 016a 01       		.uleb128 0x1
 4418 016b 12       		.uleb128 0x12
 4419 016c 06       		.uleb128 0x6
 4420 016d 40       		.uleb128 0x40
 4421 016e 18       		.uleb128 0x18
 4422 016f 9742     		.uleb128 0x2117
 4423 0171 19       		.uleb128 0x19
 4424 0172 01       		.uleb128 0x1
 4425 0173 13       		.uleb128 0x13
 4426 0174 00       		.byte	0
 4427 0175 00       		.byte	0
 4428 0176 1D       		.uleb128 0x1d
 4429 0177 34       		.uleb128 0x34
 4430 0178 00       		.byte	0
 4431 0179 03       		.uleb128 0x3
 4432 017a 0E       		.uleb128 0xe
 4433 017b 3A       		.uleb128 0x3a
 4434 017c 0B       		.uleb128 0xb
 4435 017d 3B       		.uleb128 0x3b
 4436 017e 05       		.uleb128 0x5
 4437 017f 49       		.uleb128 0x49
 4438 0180 13       		.uleb128 0x13
 4439 0181 02       		.uleb128 0x2
 4440 0182 18       		.uleb128 0x18
 4441 0183 00       		.byte	0
 4442 0184 00       		.byte	0
 4443 0185 1E       		.uleb128 0x1e
 4444 0186 34       		.uleb128 0x34
 4445 0187 00       		.byte	0
 4446 0188 03       		.uleb128 0x3
 4447 0189 0E       		.uleb128 0xe
 4448 018a 3A       		.uleb128 0x3a
 4449 018b 0B       		.uleb128 0xb
 4450 018c 3B       		.uleb128 0x3b
 4451 018d 05       		.uleb128 0x5
 4452 018e 49       		.uleb128 0x49
 4453 018f 13       		.uleb128 0x13
 4454 0190 02       		.uleb128 0x2
 4455 0191 17       		.uleb128 0x17
 4456 0192 00       		.byte	0
 4457 0193 00       		.byte	0
 4458 0194 1F       		.uleb128 0x1f
 4459 0195 898201   		.uleb128 0x4109
 4460 0198 01       		.byte	0x1
 4461 0199 11       		.uleb128 0x11
 4462 019a 01       		.uleb128 0x1
 4463 019b 31       		.uleb128 0x31
 4464 019c 13       		.uleb128 0x13
 4465 019d 01       		.uleb128 0x1
 4466 019e 13       		.uleb128 0x13
ARM GAS  C:\Users\YUANFA~1\AppData\Local\Temp\cctOMKNb.s 			page 116


 4467 019f 00       		.byte	0
 4468 01a0 00       		.byte	0
 4469 01a1 20       		.uleb128 0x20
 4470 01a2 8A8201   		.uleb128 0x410a
 4471 01a5 00       		.byte	0
 4472 01a6 02       		.uleb128 0x2
 4473 01a7 18       		.uleb128 0x18
 4474 01a8 9142     		.uleb128 0x2111
 4475 01aa 18       		.uleb128 0x18
 4476 01ab 00       		.byte	0
 4477 01ac 00       		.byte	0
 4478 01ad 21       		.uleb128 0x21
 4479 01ae 898201   		.uleb128 0x4109
 4480 01b1 01       		.byte	0x1
 4481 01b2 11       		.uleb128 0x11
 4482 01b3 01       		.uleb128 0x1
 4483 01b4 31       		.uleb128 0x31
 4484 01b5 13       		.uleb128 0x13
 4485 01b6 00       		.byte	0
 4486 01b7 00       		.byte	0
 4487 01b8 22       		.uleb128 0x22
 4488 01b9 05       		.uleb128 0x5
 4489 01ba 00       		.byte	0
 4490 01bb 03       		.uleb128 0x3
 4491 01bc 0E       		.uleb128 0xe
 4492 01bd 3A       		.uleb128 0x3a
 4493 01be 0B       		.uleb128 0xb
 4494 01bf 3B       		.uleb128 0x3b
 4495 01c0 05       		.uleb128 0x5
 4496 01c1 49       		.uleb128 0x49
 4497 01c2 13       		.uleb128 0x13
 4498 01c3 02       		.uleb128 0x2
 4499 01c4 18       		.uleb128 0x18
 4500 01c5 00       		.byte	0
 4501 01c6 00       		.byte	0
 4502 01c7 23       		.uleb128 0x23
 4503 01c8 34       		.uleb128 0x34
 4504 01c9 00       		.byte	0
 4505 01ca 03       		.uleb128 0x3
 4506 01cb 08       		.uleb128 0x8
 4507 01cc 3A       		.uleb128 0x3a
 4508 01cd 0B       		.uleb128 0xb
 4509 01ce 3B       		.uleb128 0x3b
 4510 01cf 05       		.uleb128 0x5
 4511 01d0 49       		.uleb128 0x49
 4512 01d1 13       		.uleb128 0x13
 4513 01d2 02       		.uleb128 0x2
 4514 01d3 18       		.uleb128 0x18
 4515 01d4 00       		.byte	0
 4516 01d5 00       		.byte	0
 4517 01d6 24       		.uleb128 0x24
 4518 01d7 2E       		.uleb128 0x2e
 4519 01d8 01       		.byte	0x1
 4520 01d9 3F       		.uleb128 0x3f
 4521 01da 19       		.uleb128 0x19
 4522 01db 03       		.uleb128 0x3
 4523 01dc 0E       		.uleb128 0xe
ARM GAS  C:\Users\YUANFA~1\AppData\Local\Temp\cctOMKNb.s 			page 117


 4524 01dd 3A       		.uleb128 0x3a
 4525 01de 0B       		.uleb128 0xb
 4526 01df 3B       		.uleb128 0x3b
 4527 01e0 05       		.uleb128 0x5
 4528 01e1 27       		.uleb128 0x27
 4529 01e2 19       		.uleb128 0x19
 4530 01e3 11       		.uleb128 0x11
 4531 01e4 01       		.uleb128 0x1
 4532 01e5 12       		.uleb128 0x12
 4533 01e6 06       		.uleb128 0x6
 4534 01e7 40       		.uleb128 0x40
 4535 01e8 18       		.uleb128 0x18
 4536 01e9 9742     		.uleb128 0x2117
 4537 01eb 19       		.uleb128 0x19
 4538 01ec 01       		.uleb128 0x1
 4539 01ed 13       		.uleb128 0x13
 4540 01ee 00       		.byte	0
 4541 01ef 00       		.byte	0
 4542 01f0 25       		.uleb128 0x25
 4543 01f1 26       		.uleb128 0x26
 4544 01f2 00       		.byte	0
 4545 01f3 49       		.uleb128 0x49
 4546 01f4 13       		.uleb128 0x13
 4547 01f5 00       		.byte	0
 4548 01f6 00       		.byte	0
 4549 01f7 26       		.uleb128 0x26
 4550 01f8 2E       		.uleb128 0x2e
 4551 01f9 01       		.byte	0x1
 4552 01fa 3F       		.uleb128 0x3f
 4553 01fb 19       		.uleb128 0x19
 4554 01fc 03       		.uleb128 0x3
 4555 01fd 0E       		.uleb128 0xe
 4556 01fe 3A       		.uleb128 0x3a
 4557 01ff 0B       		.uleb128 0xb
 4558 0200 3B       		.uleb128 0x3b
 4559 0201 05       		.uleb128 0x5
 4560 0202 27       		.uleb128 0x27
 4561 0203 19       		.uleb128 0x19
 4562 0204 11       		.uleb128 0x11
 4563 0205 01       		.uleb128 0x1
 4564 0206 12       		.uleb128 0x12
 4565 0207 06       		.uleb128 0x6
 4566 0208 40       		.uleb128 0x40
 4567 0209 18       		.uleb128 0x18
 4568 020a 9642     		.uleb128 0x2116
 4569 020c 19       		.uleb128 0x19
 4570 020d 01       		.uleb128 0x1
 4571 020e 13       		.uleb128 0x13
 4572 020f 00       		.byte	0
 4573 0210 00       		.byte	0
 4574 0211 27       		.uleb128 0x27
 4575 0212 1D       		.uleb128 0x1d
 4576 0213 01       		.byte	0x1
 4577 0214 31       		.uleb128 0x31
 4578 0215 13       		.uleb128 0x13
 4579 0216 11       		.uleb128 0x11
 4580 0217 01       		.uleb128 0x1
ARM GAS  C:\Users\YUANFA~1\AppData\Local\Temp\cctOMKNb.s 			page 118


 4581 0218 12       		.uleb128 0x12
 4582 0219 06       		.uleb128 0x6
 4583 021a 58       		.uleb128 0x58
 4584 021b 0B       		.uleb128 0xb
 4585 021c 59       		.uleb128 0x59
 4586 021d 05       		.uleb128 0x5
 4587 021e 01       		.uleb128 0x1
 4588 021f 13       		.uleb128 0x13
 4589 0220 00       		.byte	0
 4590 0221 00       		.byte	0
 4591 0222 28       		.uleb128 0x28
 4592 0223 34       		.uleb128 0x34
 4593 0224 00       		.byte	0
 4594 0225 31       		.uleb128 0x31
 4595 0226 13       		.uleb128 0x13
 4596 0227 02       		.uleb128 0x2
 4597 0228 18       		.uleb128 0x18
 4598 0229 00       		.byte	0
 4599 022a 00       		.byte	0
 4600 022b 29       		.uleb128 0x29
 4601 022c 2E       		.uleb128 0x2e
 4602 022d 01       		.byte	0x1
 4603 022e 3F       		.uleb128 0x3f
 4604 022f 19       		.uleb128 0x19
 4605 0230 03       		.uleb128 0x3
 4606 0231 0E       		.uleb128 0xe
 4607 0232 3A       		.uleb128 0x3a
 4608 0233 0B       		.uleb128 0xb
 4609 0234 3B       		.uleb128 0x3b
 4610 0235 05       		.uleb128 0x5
 4611 0236 27       		.uleb128 0x27
 4612 0237 19       		.uleb128 0x19
 4613 0238 49       		.uleb128 0x49
 4614 0239 13       		.uleb128 0x13
 4615 023a 11       		.uleb128 0x11
 4616 023b 01       		.uleb128 0x1
 4617 023c 12       		.uleb128 0x12
 4618 023d 06       		.uleb128 0x6
 4619 023e 40       		.uleb128 0x40
 4620 023f 18       		.uleb128 0x18
 4621 0240 9742     		.uleb128 0x2117
 4622 0242 19       		.uleb128 0x19
 4623 0243 01       		.uleb128 0x1
 4624 0244 13       		.uleb128 0x13
 4625 0245 00       		.byte	0
 4626 0246 00       		.byte	0
 4627 0247 2A       		.uleb128 0x2a
 4628 0248 34       		.uleb128 0x34
 4629 0249 00       		.byte	0
 4630 024a 03       		.uleb128 0x3
 4631 024b 0E       		.uleb128 0xe
 4632 024c 3A       		.uleb128 0x3a
 4633 024d 0B       		.uleb128 0xb
 4634 024e 3B       		.uleb128 0x3b
 4635 024f 0B       		.uleb128 0xb
 4636 0250 49       		.uleb128 0x49
 4637 0251 13       		.uleb128 0x13
ARM GAS  C:\Users\YUANFA~1\AppData\Local\Temp\cctOMKNb.s 			page 119


 4638 0252 02       		.uleb128 0x2
 4639 0253 18       		.uleb128 0x18
 4640 0254 00       		.byte	0
 4641 0255 00       		.byte	0
 4642 0256 2B       		.uleb128 0x2b
 4643 0257 2E       		.uleb128 0x2e
 4644 0258 00       		.byte	0
 4645 0259 3F       		.uleb128 0x3f
 4646 025a 19       		.uleb128 0x19
 4647 025b 3C       		.uleb128 0x3c
 4648 025c 19       		.uleb128 0x19
 4649 025d 6E       		.uleb128 0x6e
 4650 025e 0E       		.uleb128 0xe
 4651 025f 03       		.uleb128 0x3
 4652 0260 0E       		.uleb128 0xe
 4653 0261 00       		.byte	0
 4654 0262 00       		.byte	0
 4655 0263 00       		.byte	0
 4656              		.section	.debug_loc,"",%progbits
 4657              	.Ldebug_loc0:
 4658              	.LLST0:
 4659 0000 00000000 		.4byte	.LVL0
 4660 0004 2E000000 		.4byte	.LVL3
 4661 0008 0100     		.2byte	0x1
 4662 000a 50       		.byte	0x50
 4663 000b 2E000000 		.4byte	.LVL3
 4664 000f 38000000 		.4byte	.LVL4
 4665 0013 0400     		.2byte	0x4
 4666 0015 F3       		.byte	0xf3
 4667 0016 01       		.uleb128 0x1
 4668 0017 50       		.byte	0x50
 4669 0018 9F       		.byte	0x9f
 4670 0019 38000000 		.4byte	.LVL4
 4671 001d 3C000000 		.4byte	.LVL5
 4672 0021 0100     		.2byte	0x1
 4673 0023 50       		.byte	0x50
 4674 0024 3C000000 		.4byte	.LVL5
 4675 0028 4C000000 		.4byte	.LFE4
 4676 002c 0400     		.2byte	0x4
 4677 002e F3       		.byte	0xf3
 4678 002f 01       		.uleb128 0x1
 4679 0030 50       		.byte	0x50
 4680 0031 9F       		.byte	0x9f
 4681 0032 00000000 		.4byte	0
 4682 0036 00000000 		.4byte	0
 4683              	.LLST1:
 4684 003a 00000000 		.4byte	.LVL0
 4685 003e 20000000 		.4byte	.LVL1
 4686 0042 0100     		.2byte	0x1
 4687 0044 51       		.byte	0x51
 4688 0045 20000000 		.4byte	.LVL1
 4689 0049 4C000000 		.4byte	.LFE4
 4690 004d 0400     		.2byte	0x4
 4691 004f F3       		.byte	0xf3
 4692 0050 01       		.uleb128 0x1
 4693 0051 51       		.byte	0x51
 4694 0052 9F       		.byte	0x9f
ARM GAS  C:\Users\YUANFA~1\AppData\Local\Temp\cctOMKNb.s 			page 120


 4695 0053 00000000 		.4byte	0
 4696 0057 00000000 		.4byte	0
 4697              	.LLST2:
 4698 005b 00000000 		.4byte	.LVL0
 4699 005f 2A000000 		.4byte	.LVL2
 4700 0063 0100     		.2byte	0x1
 4701 0065 52       		.byte	0x52
 4702 0066 2A000000 		.4byte	.LVL2
 4703 006a 4C000000 		.4byte	.LFE4
 4704 006e 0400     		.2byte	0x4
 4705 0070 F3       		.byte	0xf3
 4706 0071 01       		.uleb128 0x1
 4707 0072 52       		.byte	0x52
 4708 0073 9F       		.byte	0x9f
 4709 0074 00000000 		.4byte	0
 4710 0078 00000000 		.4byte	0
 4711              	.LLST3:
 4712 007c 00000000 		.4byte	.LVL6
 4713 0080 16000000 		.4byte	.LVL7
 4714 0084 0100     		.2byte	0x1
 4715 0086 50       		.byte	0x50
 4716 0087 16000000 		.4byte	.LVL7
 4717 008b 20000000 		.4byte	.LVL9
 4718 008f 0400     		.2byte	0x4
 4719 0091 F3       		.byte	0xf3
 4720 0092 01       		.uleb128 0x1
 4721 0093 50       		.byte	0x50
 4722 0094 9F       		.byte	0x9f
 4723 0095 20000000 		.4byte	.LVL9
 4724 0099 68000000 		.4byte	.LVL20
 4725 009d 0100     		.2byte	0x1
 4726 009f 50       		.byte	0x50
 4727 00a0 68000000 		.4byte	.LVL20
 4728 00a4 70000000 		.4byte	.LFE5
 4729 00a8 0400     		.2byte	0x4
 4730 00aa F3       		.byte	0xf3
 4731 00ab 01       		.uleb128 0x1
 4732 00ac 50       		.byte	0x50
 4733 00ad 9F       		.byte	0x9f
 4734 00ae 00000000 		.4byte	0
 4735 00b2 00000000 		.4byte	0
 4736              	.LLST4:
 4737 00b6 00000000 		.4byte	.LVL6
 4738 00ba 66000000 		.4byte	.LVL19
 4739 00be 0100     		.2byte	0x1
 4740 00c0 51       		.byte	0x51
 4741 00c1 66000000 		.4byte	.LVL19
 4742 00c5 70000000 		.4byte	.LFE5
 4743 00c9 0400     		.2byte	0x4
 4744 00cb F3       		.byte	0xf3
 4745 00cc 01       		.uleb128 0x1
 4746 00cd 51       		.byte	0x51
 4747 00ce 9F       		.byte	0x9f
 4748 00cf 00000000 		.4byte	0
 4749 00d3 00000000 		.4byte	0
 4750              	.LLST5:
 4751 00d7 00000000 		.4byte	.LVL6
ARM GAS  C:\Users\YUANFA~1\AppData\Local\Temp\cctOMKNb.s 			page 121


 4752 00db 1C000000 		.4byte	.LVL8
 4753 00df 0100     		.2byte	0x1
 4754 00e1 52       		.byte	0x52
 4755 00e2 1C000000 		.4byte	.LVL8
 4756 00e6 20000000 		.4byte	.LVL9
 4757 00ea 0400     		.2byte	0x4
 4758 00ec F3       		.byte	0xf3
 4759 00ed 01       		.uleb128 0x1
 4760 00ee 52       		.byte	0x52
 4761 00ef 9F       		.byte	0x9f
 4762 00f0 20000000 		.4byte	.LVL9
 4763 00f4 24000000 		.4byte	.LVL10
 4764 00f8 0100     		.2byte	0x1
 4765 00fa 52       		.byte	0x52
 4766 00fb 24000000 		.4byte	.LVL10
 4767 00ff 70000000 		.4byte	.LFE5
 4768 0103 0400     		.2byte	0x4
 4769 0105 F3       		.byte	0xf3
 4770 0106 01       		.uleb128 0x1
 4771 0107 52       		.byte	0x52
 4772 0108 9F       		.byte	0x9f
 4773 0109 00000000 		.4byte	0
 4774 010d 00000000 		.4byte	0
 4775              	.LLST6:
 4776 0111 3E000000 		.4byte	.LVL15
 4777 0115 42000000 		.4byte	.LVL16
 4778 0119 0600     		.2byte	0x6
 4779 011b 73       		.byte	0x73
 4780 011c 00       		.sleb128 0
 4781 011d 08       		.byte	0x8
 4782 011e FF       		.byte	0xff
 4783 011f 1A       		.byte	0x1a
 4784 0120 9F       		.byte	0x9f
 4785 0121 42000000 		.4byte	.LVL16
 4786 0125 4A000000 		.4byte	.LVL17
 4787 0129 0100     		.2byte	0x1
 4788 012b 52       		.byte	0x52
 4789 012c 4A000000 		.4byte	.LVL17
 4790 0130 60000000 		.4byte	.LVL18
 4791 0134 0600     		.2byte	0x6
 4792 0136 73       		.byte	0x73
 4793 0137 00       		.sleb128 0
 4794 0138 08       		.byte	0x8
 4795 0139 FF       		.byte	0xff
 4796 013a 1A       		.byte	0x1a
 4797 013b 9F       		.byte	0x9f
 4798 013c 00000000 		.4byte	0
 4799 0140 00000000 		.4byte	0
 4800              	.LLST7:
 4801 0144 2C000000 		.4byte	.LVL11
 4802 0148 3E000000 		.4byte	.LVL15
 4803 014c 0100     		.2byte	0x1
 4804 014e 52       		.byte	0x52
 4805 014f 00000000 		.4byte	0
 4806 0153 00000000 		.4byte	0
 4807              	.LLST8:
 4808 0157 2C000000 		.4byte	.LVL11
ARM GAS  C:\Users\YUANFA~1\AppData\Local\Temp\cctOMKNb.s 			page 122


 4809 015b 30000000 		.4byte	.LVL12
 4810 015f 0200     		.2byte	0x2
 4811 0161 30       		.byte	0x30
 4812 0162 9F       		.byte	0x9f
 4813 0163 30000000 		.4byte	.LVL12
 4814 0167 3E000000 		.4byte	.LVL15
 4815 016b 0100     		.2byte	0x1
 4816 016d 53       		.byte	0x53
 4817 016e 00000000 		.4byte	0
 4818 0172 00000000 		.4byte	0
 4819              	.LLST9:
 4820 0176 2C000000 		.4byte	.LVL11
 4821 017a 3E000000 		.4byte	.LVL15
 4822 017e 0300     		.2byte	0x3
 4823 0180 08       		.byte	0x8
 4824 0181 82       		.byte	0x82
 4825 0182 9F       		.byte	0x9f
 4826 0183 00000000 		.4byte	0
 4827 0187 00000000 		.4byte	0
 4828              	.LLST10:
 4829 018b 00000000 		.4byte	.LVL21
 4830 018f 24000000 		.4byte	.LVL25
 4831 0193 0100     		.2byte	0x1
 4832 0195 50       		.byte	0x50
 4833 0196 24000000 		.4byte	.LVL25
 4834 019a 38000000 		.4byte	.LFE8
 4835 019e 0400     		.2byte	0x4
 4836 01a0 F3       		.byte	0xf3
 4837 01a1 01       		.uleb128 0x1
 4838 01a2 50       		.byte	0x50
 4839 01a3 9F       		.byte	0x9f
 4840 01a4 00000000 		.4byte	0
 4841 01a8 00000000 		.4byte	0
 4842              	.LLST11:
 4843 01ac 00000000 		.4byte	.LVL21
 4844 01b0 1C000000 		.4byte	.LVL23
 4845 01b4 0100     		.2byte	0x1
 4846 01b6 51       		.byte	0x51
 4847 01b7 1C000000 		.4byte	.LVL23
 4848 01bb 38000000 		.4byte	.LFE8
 4849 01bf 0400     		.2byte	0x4
 4850 01c1 F3       		.byte	0xf3
 4851 01c2 01       		.uleb128 0x1
 4852 01c3 51       		.byte	0x51
 4853 01c4 9F       		.byte	0x9f
 4854 01c5 00000000 		.4byte	0
 4855 01c9 00000000 		.4byte	0
 4856              	.LLST12:
 4857 01cd 00000000 		.4byte	.LVL21
 4858 01d1 22000000 		.4byte	.LVL24
 4859 01d5 0100     		.2byte	0x1
 4860 01d7 52       		.byte	0x52
 4861 01d8 22000000 		.4byte	.LVL24
 4862 01dc 38000000 		.4byte	.LFE8
 4863 01e0 0400     		.2byte	0x4
 4864 01e2 F3       		.byte	0xf3
 4865 01e3 01       		.uleb128 0x1
ARM GAS  C:\Users\YUANFA~1\AppData\Local\Temp\cctOMKNb.s 			page 123


 4866 01e4 52       		.byte	0x52
 4867 01e5 9F       		.byte	0x9f
 4868 01e6 00000000 		.4byte	0
 4869 01ea 00000000 		.4byte	0
 4870              	.LLST13:
 4871 01ee 1A000000 		.4byte	.LVL22
 4872 01f2 2E000000 		.4byte	.LVL27
 4873 01f6 0100     		.2byte	0x1
 4874 01f8 54       		.byte	0x54
 4875 01f9 2E000000 		.4byte	.LVL27
 4876 01fd 32000000 		.4byte	.LVL29
 4877 0201 1100     		.2byte	0x11
 4878 0203 7C       		.byte	0x7c
 4879 0204 00       		.sleb128 0
 4880 0205 70       		.byte	0x70
 4881 0206 00       		.sleb128 0
 4882 0207 32       		.byte	0x32
 4883 0208 24       		.byte	0x24
 4884 0209 76       		.byte	0x76
 4885 020a 00       		.sleb128 0
 4886 020b 22       		.byte	0x22
 4887 020c 94       		.byte	0x94
 4888 020d 02       		.byte	0x2
 4889 020e 0A       		.byte	0xa
 4890 020f FFFF     		.2byte	0xffff
 4891 0211 1A       		.byte	0x1a
 4892 0212 1C       		.byte	0x1c
 4893 0213 9F       		.byte	0x9f
 4894 0214 32000000 		.4byte	.LVL29
 4895 0218 32000000 		.4byte	.LVL30
 4896 021c 1500     		.2byte	0x15
 4897 021e 7C       		.byte	0x7c
 4898 021f 00       		.sleb128 0
 4899 0220 77       		.byte	0x77
 4900 0221 00       		.sleb128 0
 4901 0222 F3       		.byte	0xf3
 4902 0223 01       		.uleb128 0x1
 4903 0224 50       		.byte	0x50
 4904 0225 22       		.byte	0x22
 4905 0226 32       		.byte	0x32
 4906 0227 24       		.byte	0x24
 4907 0228 76       		.byte	0x76
 4908 0229 00       		.sleb128 0
 4909 022a 22       		.byte	0x22
 4910 022b 94       		.byte	0x94
 4911 022c 02       		.byte	0x2
 4912 022d 0A       		.byte	0xa
 4913 022e FFFF     		.2byte	0xffff
 4914 0230 1A       		.byte	0x1a
 4915 0231 1C       		.byte	0x1c
 4916 0232 9F       		.byte	0x9f
 4917 0233 32000000 		.4byte	.LVL30
 4918 0237 32000000 		.4byte	.LVL31
 4919 023b 1800     		.2byte	0x18
 4920 023d 7C       		.byte	0x7c
 4921 023e 00       		.sleb128 0
 4922 023f 77       		.byte	0x77
ARM GAS  C:\Users\YUANFA~1\AppData\Local\Temp\cctOMKNb.s 			page 124


 4923 0240 00       		.sleb128 0
 4924 0241 F3       		.byte	0xf3
 4925 0242 01       		.uleb128 0x1
 4926 0243 50       		.byte	0x50
 4927 0244 22       		.byte	0x22
 4928 0245 32       		.byte	0x32
 4929 0246 24       		.byte	0x24
 4930 0247 03       		.byte	0x3
 4931 0248 00000000 		.4byte	.LANCHOR0
 4932 024c 22       		.byte	0x22
 4933 024d 94       		.byte	0x94
 4934 024e 02       		.byte	0x2
 4935 024f 0A       		.byte	0xa
 4936 0250 FFFF     		.2byte	0xffff
 4937 0252 1A       		.byte	0x1a
 4938 0253 1C       		.byte	0x1c
 4939 0254 9F       		.byte	0x9f
 4940 0255 32000000 		.4byte	.LVL31
 4941 0259 38000000 		.4byte	.LFE8
 4942 025d 1B00     		.2byte	0x1b
 4943 025f 7C       		.byte	0x7c
 4944 0260 00       		.sleb128 0
 4945 0261 F3       		.byte	0xf3
 4946 0262 01       		.uleb128 0x1
 4947 0263 50       		.byte	0x50
 4948 0264 31       		.byte	0x31
 4949 0265 24       		.byte	0x24
 4950 0266 F3       		.byte	0xf3
 4951 0267 01       		.uleb128 0x1
 4952 0268 50       		.byte	0x50
 4953 0269 22       		.byte	0x22
 4954 026a 32       		.byte	0x32
 4955 026b 24       		.byte	0x24
 4956 026c 03       		.byte	0x3
 4957 026d 00000000 		.4byte	.LANCHOR0
 4958 0271 22       		.byte	0x22
 4959 0272 94       		.byte	0x94
 4960 0273 02       		.byte	0x2
 4961 0274 0A       		.byte	0xa
 4962 0275 FFFF     		.2byte	0xffff
 4963 0277 1A       		.byte	0x1a
 4964 0278 1C       		.byte	0x1c
 4965 0279 9F       		.byte	0x9f
 4966 027a 00000000 		.4byte	0
 4967 027e 00000000 		.4byte	0
 4968              	.LLST14:
 4969 0282 2C000000 		.4byte	.LVL26
 4970 0286 30000000 		.4byte	.LVL28
 4971 028a 0100     		.2byte	0x1
 4972 028c 53       		.byte	0x53
 4973 028d 30000000 		.4byte	.LVL28
 4974 0291 32000000 		.4byte	.LVL29
 4975 0295 1300     		.2byte	0x13
 4976 0297 72       		.byte	0x72
 4977 0298 00       		.sleb128 0
 4978 0299 70       		.byte	0x70
 4979 029a 00       		.sleb128 0
ARM GAS  C:\Users\YUANFA~1\AppData\Local\Temp\cctOMKNb.s 			page 125


 4980 029b 32       		.byte	0x32
 4981 029c 24       		.byte	0x24
 4982 029d 76       		.byte	0x76
 4983 029e 00       		.sleb128 0
 4984 029f 22       		.byte	0x22
 4985 02a0 23       		.byte	0x23
 4986 02a1 02       		.uleb128 0x2
 4987 02a2 94       		.byte	0x94
 4988 02a3 02       		.byte	0x2
 4989 02a4 0A       		.byte	0xa
 4990 02a5 FFFF     		.2byte	0xffff
 4991 02a7 1A       		.byte	0x1a
 4992 02a8 1C       		.byte	0x1c
 4993 02a9 9F       		.byte	0x9f
 4994 02aa 32000000 		.4byte	.LVL29
 4995 02ae 32000000 		.4byte	.LVL30
 4996 02b2 1700     		.2byte	0x17
 4997 02b4 72       		.byte	0x72
 4998 02b5 00       		.sleb128 0
 4999 02b6 77       		.byte	0x77
 5000 02b7 00       		.sleb128 0
 5001 02b8 F3       		.byte	0xf3
 5002 02b9 01       		.uleb128 0x1
 5003 02ba 50       		.byte	0x50
 5004 02bb 22       		.byte	0x22
 5005 02bc 32       		.byte	0x32
 5006 02bd 24       		.byte	0x24
 5007 02be 76       		.byte	0x76
 5008 02bf 00       		.sleb128 0
 5009 02c0 22       		.byte	0x22
 5010 02c1 23       		.byte	0x23
 5011 02c2 02       		.uleb128 0x2
 5012 02c3 94       		.byte	0x94
 5013 02c4 02       		.byte	0x2
 5014 02c5 0A       		.byte	0xa
 5015 02c6 FFFF     		.2byte	0xffff
 5016 02c8 1A       		.byte	0x1a
 5017 02c9 1C       		.byte	0x1c
 5018 02ca 9F       		.byte	0x9f
 5019 02cb 32000000 		.4byte	.LVL30
 5020 02cf 32000000 		.4byte	.LVL31
 5021 02d3 1800     		.2byte	0x18
 5022 02d5 72       		.byte	0x72
 5023 02d6 00       		.sleb128 0
 5024 02d7 77       		.byte	0x77
 5025 02d8 00       		.sleb128 0
 5026 02d9 F3       		.byte	0xf3
 5027 02da 01       		.uleb128 0x1
 5028 02db 50       		.byte	0x50
 5029 02dc 22       		.byte	0x22
 5030 02dd 32       		.byte	0x32
 5031 02de 24       		.byte	0x24
 5032 02df 03       		.byte	0x3
 5033 02e0 02000000 		.4byte	.LANCHOR0+2
 5034 02e4 22       		.byte	0x22
 5035 02e5 94       		.byte	0x94
 5036 02e6 02       		.byte	0x2
ARM GAS  C:\Users\YUANFA~1\AppData\Local\Temp\cctOMKNb.s 			page 126


 5037 02e7 0A       		.byte	0xa
 5038 02e8 FFFF     		.2byte	0xffff
 5039 02ea 1A       		.byte	0x1a
 5040 02eb 1C       		.byte	0x1c
 5041 02ec 9F       		.byte	0x9f
 5042 02ed 32000000 		.4byte	.LVL31
 5043 02f1 38000000 		.4byte	.LFE8
 5044 02f5 1B00     		.2byte	0x1b
 5045 02f7 72       		.byte	0x72
 5046 02f8 00       		.sleb128 0
 5047 02f9 F3       		.byte	0xf3
 5048 02fa 01       		.uleb128 0x1
 5049 02fb 50       		.byte	0x50
 5050 02fc 31       		.byte	0x31
 5051 02fd 24       		.byte	0x24
 5052 02fe F3       		.byte	0xf3
 5053 02ff 01       		.uleb128 0x1
 5054 0300 50       		.byte	0x50
 5055 0301 22       		.byte	0x22
 5056 0302 32       		.byte	0x32
 5057 0303 24       		.byte	0x24
 5058 0304 03       		.byte	0x3
 5059 0305 02000000 		.4byte	.LANCHOR0+2
 5060 0309 22       		.byte	0x22
 5061 030a 94       		.byte	0x94
 5062 030b 02       		.byte	0x2
 5063 030c 0A       		.byte	0xa
 5064 030d FFFF     		.2byte	0xffff
 5065 030f 1A       		.byte	0x1a
 5066 0310 1C       		.byte	0x1c
 5067 0311 9F       		.byte	0x9f
 5068 0312 00000000 		.4byte	0
 5069 0316 00000000 		.4byte	0
 5070              	.LLST15:
 5071 031a 00000000 		.4byte	.LVL32
 5072 031e 18000000 		.4byte	.LVL34
 5073 0322 0100     		.2byte	0x1
 5074 0324 50       		.byte	0x50
 5075 0325 18000000 		.4byte	.LVL34
 5076 0329 78000000 		.4byte	.LVL50
 5077 032d 0100     		.2byte	0x1
 5078 032f 56       		.byte	0x56
 5079 0330 78000000 		.4byte	.LVL50
 5080 0334 80000000 		.4byte	.LFE9
 5081 0338 0400     		.2byte	0x4
 5082 033a F3       		.byte	0xf3
 5083 033b 01       		.uleb128 0x1
 5084 033c 50       		.byte	0x50
 5085 033d 9F       		.byte	0x9f
 5086 033e 00000000 		.4byte	0
 5087 0342 00000000 		.4byte	0
 5088              	.LLST16:
 5089 0346 00000000 		.4byte	.LVL32
 5090 034a 18000000 		.4byte	.LVL34
 5091 034e 0100     		.2byte	0x1
 5092 0350 51       		.byte	0x51
 5093 0351 18000000 		.4byte	.LVL34
ARM GAS  C:\Users\YUANFA~1\AppData\Local\Temp\cctOMKNb.s 			page 127


 5094 0355 80000000 		.4byte	.LFE9
 5095 0359 0200     		.2byte	0x2
 5096 035b 91       		.byte	0x91
 5097 035c 64       		.sleb128 -28
 5098 035d 00000000 		.4byte	0
 5099 0361 00000000 		.4byte	0
 5100              	.LLST17:
 5101 0365 16000000 		.4byte	.LVL33
 5102 0369 18000000 		.4byte	.LVL34
 5103 036d 0100     		.2byte	0x1
 5104 036f 52       		.byte	0x52
 5105 0370 18000000 		.4byte	.LVL34
 5106 0374 40000000 		.4byte	.LVL40
 5107 0378 0100     		.2byte	0x1
 5108 037a 55       		.byte	0x55
 5109 037b 40000000 		.4byte	.LVL40
 5110 037f 42000000 		.4byte	.LVL41
 5111 0383 0100     		.2byte	0x1
 5112 0385 53       		.byte	0x53
 5113 0386 42000000 		.4byte	.LVL41
 5114 038a 70000000 		.4byte	.LVL47
 5115 038e 0100     		.2byte	0x1
 5116 0390 55       		.byte	0x55
 5117 0391 70000000 		.4byte	.LVL47
 5118 0395 72000000 		.4byte	.LVL48
 5119 0399 0100     		.2byte	0x1
 5120 039b 53       		.byte	0x53
 5121 039c 72000000 		.4byte	.LVL48
 5122 03a0 78000000 		.4byte	.LVL49
 5123 03a4 0100     		.2byte	0x1
 5124 03a6 55       		.byte	0x55
 5125 03a7 00000000 		.4byte	0
 5126 03ab 00000000 		.4byte	0
 5127              	.LLST18:
 5128 03af 1E000000 		.4byte	.LVL35
 5129 03b3 20000000 		.4byte	.LVL36
 5130 03b7 0100     		.2byte	0x1
 5131 03b9 53       		.byte	0x53
 5132 03ba 20000000 		.4byte	.LVL36
 5133 03be 38000000 		.4byte	.LVL38
 5134 03c2 0100     		.2byte	0x1
 5135 03c4 57       		.byte	0x57
 5136 03c5 38000000 		.4byte	.LVL38
 5137 03c9 3A000000 		.4byte	.LVL39
 5138 03cd 0100     		.2byte	0x1
 5139 03cf 53       		.byte	0x53
 5140 03d0 3A000000 		.4byte	.LVL39
 5141 03d4 40000000 		.4byte	.LVL40
 5142 03d8 0100     		.2byte	0x1
 5143 03da 57       		.byte	0x57
 5144 03db 4E000000 		.4byte	.LVL42
 5145 03df 50000000 		.4byte	.LVL43
 5146 03e3 0100     		.2byte	0x1
 5147 03e5 53       		.byte	0x53
 5148 03e6 50000000 		.4byte	.LVL43
 5149 03ea 68000000 		.4byte	.LVL45
 5150 03ee 0100     		.2byte	0x1
ARM GAS  C:\Users\YUANFA~1\AppData\Local\Temp\cctOMKNb.s 			page 128


 5151 03f0 57       		.byte	0x57
 5152 03f1 68000000 		.4byte	.LVL45
 5153 03f5 6A000000 		.4byte	.LVL46
 5154 03f9 0100     		.2byte	0x1
 5155 03fb 53       		.byte	0x53
 5156 03fc 6A000000 		.4byte	.LVL46
 5157 0400 70000000 		.4byte	.LVL47
 5158 0404 0100     		.2byte	0x1
 5159 0406 57       		.byte	0x57
 5160 0407 00000000 		.4byte	0
 5161 040b 00000000 		.4byte	0
 5162              	.LLST19:
 5163 040f 00000000 		.4byte	.LVL52
 5164 0413 2E000000 		.4byte	.LVL61
 5165 0417 0100     		.2byte	0x1
 5166 0419 50       		.byte	0x50
 5167 041a 2E000000 		.4byte	.LVL61
 5168 041e A0010000 		.4byte	.LFE10
 5169 0422 0400     		.2byte	0x4
 5170 0424 F3       		.byte	0xf3
 5171 0425 01       		.uleb128 0x1
 5172 0426 50       		.byte	0x50
 5173 0427 9F       		.byte	0x9f
 5174 0428 00000000 		.4byte	0
 5175 042c 00000000 		.4byte	0
 5176              	.LLST20:
 5177 0430 00000000 		.4byte	.LVL52
 5178 0434 2C000000 		.4byte	.LVL60
 5179 0438 0100     		.2byte	0x1
 5180 043a 51       		.byte	0x51
 5181 043b 2C000000 		.4byte	.LVL60
 5182 043f A0010000 		.4byte	.LFE10
 5183 0443 0400     		.2byte	0x4
 5184 0445 F3       		.byte	0xf3
 5185 0446 01       		.uleb128 0x1
 5186 0447 51       		.byte	0x51
 5187 0448 9F       		.byte	0x9f
 5188 0449 00000000 		.4byte	0
 5189 044d 00000000 		.4byte	0
 5190              	.LLST21:
 5191 0451 00000000 		.4byte	.LVL52
 5192 0455 2A000000 		.4byte	.LVL59
 5193 0459 0100     		.2byte	0x1
 5194 045b 52       		.byte	0x52
 5195 045c 2A000000 		.4byte	.LVL59
 5196 0460 A0010000 		.4byte	.LFE10
 5197 0464 0300     		.2byte	0x3
 5198 0466 91       		.byte	0x91
 5199 0467 AC7F     		.sleb128 -84
 5200 0469 00000000 		.4byte	0
 5201 046d 00000000 		.4byte	0
 5202              	.LLST22:
 5203 0471 00000000 		.4byte	.LVL52
 5204 0475 1C000000 		.4byte	.LVL55
 5205 0479 0100     		.2byte	0x1
 5206 047b 53       		.byte	0x53
 5207 047c 1C000000 		.4byte	.LVL55
ARM GAS  C:\Users\YUANFA~1\AppData\Local\Temp\cctOMKNb.s 			page 129


 5208 0480 8E010000 		.4byte	.LVL115
 5209 0484 0100     		.2byte	0x1
 5210 0486 5A       		.byte	0x5a
 5211 0487 8E010000 		.4byte	.LVL115
 5212 048b A0010000 		.4byte	.LFE10
 5213 048f 0400     		.2byte	0x4
 5214 0491 7C       		.byte	0x7c
 5215 0492 FE7E     		.sleb128 -130
 5216 0494 9F       		.byte	0x9f
 5217 0495 00000000 		.4byte	0
 5218 0499 00000000 		.4byte	0
 5219              	.LLST23:
 5220 049d 1A000000 		.4byte	.LVL54
 5221 04a1 8E010000 		.4byte	.LVL113
 5222 04a5 0100     		.2byte	0x1
 5223 04a7 55       		.byte	0x55
 5224 04a8 8E010000 		.4byte	.LVL113
 5225 04ac 8E010000 		.4byte	.LVL115
 5226 04b0 0400     		.2byte	0x4
 5227 04b2 7A       		.byte	0x7a
 5228 04b3 E400     		.sleb128 100
 5229 04b5 9F       		.byte	0x9f
 5230 04b6 8E010000 		.4byte	.LVL115
 5231 04ba A0010000 		.4byte	.LFE10
 5232 04be 0300     		.2byte	0x3
 5233 04c0 7C       		.byte	0x7c
 5234 04c1 62       		.sleb128 -30
 5235 04c2 9F       		.byte	0x9f
 5236 04c3 00000000 		.4byte	0
 5237 04c7 00000000 		.4byte	0
 5238              	.LLST24:
 5239 04cb AE000000 		.4byte	.LVL77
 5240 04cf BA000000 		.4byte	.LVL78
 5241 04d3 0100     		.2byte	0x1
 5242 04d5 52       		.byte	0x52
 5243 04d6 BA000000 		.4byte	.LVL78
 5244 04da BE000000 		.4byte	.LVL79
 5245 04de 0200     		.2byte	0x2
 5246 04e0 71       		.byte	0x71
 5247 04e1 00       		.sleb128 0
 5248 04e2 E2000000 		.4byte	.LVL87
 5249 04e6 2E010000 		.4byte	.LVL95
 5250 04ea 0100     		.2byte	0x1
 5251 04ec 50       		.byte	0x50
 5252 04ed 00000000 		.4byte	0
 5253 04f1 00000000 		.4byte	0
 5254              	.LLST25:
 5255 04f5 20000000 		.4byte	.LVL56
 5256 04f9 31000000 		.4byte	.LVL62-1
 5257 04fd 0100     		.2byte	0x1
 5258 04ff 53       		.byte	0x53
 5259 0500 31000000 		.4byte	.LVL62-1
 5260 0504 54000000 		.4byte	.LVL68
 5261 0508 0100     		.2byte	0x1
 5262 050a 5B       		.byte	0x5b
 5263 050b 54000000 		.4byte	.LVL68
 5264 050f 68000000 		.4byte	.LVL69
ARM GAS  C:\Users\YUANFA~1\AppData\Local\Temp\cctOMKNb.s 			page 130


 5265 0513 0100     		.2byte	0x1
 5266 0515 50       		.byte	0x50
 5267 0516 68000000 		.4byte	.LVL69
 5268 051a 6C000000 		.4byte	.LVL71
 5269 051e 0100     		.2byte	0x1
 5270 0520 5B       		.byte	0x5b
 5271 0521 6C000000 		.4byte	.LVL71
 5272 0525 7E000000 		.4byte	.LVL74
 5273 0529 0100     		.2byte	0x1
 5274 052b 50       		.byte	0x50
 5275 052c 7E000000 		.4byte	.LVL74
 5276 0530 48010000 		.4byte	.LVL100
 5277 0534 0100     		.2byte	0x1
 5278 0536 5B       		.byte	0x5b
 5279 0537 48010000 		.4byte	.LVL100
 5280 053b 6A010000 		.4byte	.LVL106
 5281 053f 0100     		.2byte	0x1
 5282 0541 56       		.byte	0x56
 5283 0542 6A010000 		.4byte	.LVL106
 5284 0546 8E010000 		.4byte	.LVL116
 5285 054a 0100     		.2byte	0x1
 5286 054c 5B       		.byte	0x5b
 5287 054d 8E010000 		.4byte	.LVL116
 5288 0551 A0010000 		.4byte	.LFE10
 5289 0555 0300     		.2byte	0x3
 5290 0557 7C       		.byte	0x7c
 5291 0558 76       		.sleb128 -10
 5292 0559 9F       		.byte	0x9f
 5293 055a 00000000 		.4byte	0
 5294 055e 00000000 		.4byte	0
 5295              	.LLST26:
 5296 0562 24000000 		.4byte	.LVL57
 5297 0566 48010000 		.4byte	.LVL100
 5298 056a 0100     		.2byte	0x1
 5299 056c 54       		.byte	0x54
 5300 056d 48010000 		.4byte	.LVL100
 5301 0571 6A010000 		.4byte	.LVL106
 5302 0575 0100     		.2byte	0x1
 5303 0577 58       		.byte	0x58
 5304 0578 6A010000 		.4byte	.LVL106
 5305 057c 8E010000 		.4byte	.LVL112
 5306 0580 0100     		.2byte	0x1
 5307 0582 54       		.byte	0x54
 5308 0583 8E010000 		.4byte	.LVL112
 5309 0587 8E010000 		.4byte	.LVL115
 5310 058b 0400     		.2byte	0x4
 5311 058d 7A       		.byte	0x7a
 5312 058e FD00     		.sleb128 125
 5313 0590 9F       		.byte	0x9f
 5314 0591 8E010000 		.4byte	.LVL115
 5315 0595 A0010000 		.4byte	.LFE10
 5316 0599 0300     		.2byte	0x3
 5317 059b 7C       		.byte	0x7c
 5318 059c 7B       		.sleb128 -5
 5319 059d 9F       		.byte	0x9f
 5320 059e 00000000 		.4byte	0
 5321 05a2 00000000 		.4byte	0
ARM GAS  C:\Users\YUANFA~1\AppData\Local\Temp\cctOMKNb.s 			page 131


 5322              	.LLST27:
 5323 05a6 28000000 		.4byte	.LVL58
 5324 05aa 54000000 		.4byte	.LVL68
 5325 05ae 0100     		.2byte	0x1
 5326 05b0 56       		.byte	0x56
 5327 05b1 54000000 		.4byte	.LVL68
 5328 05b5 E8000000 		.4byte	.LVL88
 5329 05b9 0100     		.2byte	0x1
 5330 05bb 5C       		.byte	0x5c
 5331 05bc E8000000 		.4byte	.LVL88
 5332 05c0 2A010000 		.4byte	.LVL93
 5333 05c4 0100     		.2byte	0x1
 5334 05c6 51       		.byte	0x51
 5335 05c7 2A010000 		.4byte	.LVL93
 5336 05cb 48010000 		.4byte	.LVL100
 5337 05cf 0100     		.2byte	0x1
 5338 05d1 5C       		.byte	0x5c
 5339 05d2 48010000 		.4byte	.LVL100
 5340 05d6 66010000 		.4byte	.LVL105
 5341 05da 0100     		.2byte	0x1
 5342 05dc 50       		.byte	0x50
 5343 05dd 66010000 		.4byte	.LVL105
 5344 05e1 6A010000 		.4byte	.LVL106
 5345 05e5 0100     		.2byte	0x1
 5346 05e7 52       		.byte	0x52
 5347 05e8 6A010000 		.4byte	.LVL106
 5348 05ec 7C010000 		.4byte	.LVL109
 5349 05f0 0100     		.2byte	0x1
 5350 05f2 5C       		.byte	0x5c
 5351 05f3 7C010000 		.4byte	.LVL109
 5352 05f7 8E010000 		.4byte	.LVL114
 5353 05fb 0100     		.2byte	0x1
 5354 05fd 56       		.byte	0x56
 5355 05fe 8E010000 		.4byte	.LVL114
 5356 0602 A0010000 		.4byte	.LFE10
 5357 0606 0100     		.2byte	0x1
 5358 0608 5C       		.byte	0x5c
 5359 0609 00000000 		.4byte	0
 5360 060d 00000000 		.4byte	0
 5361              	.LLST28:
 5362 0611 16000000 		.4byte	.LVL53
 5363 0615 54000000 		.4byte	.LVL68
 5364 0619 0200     		.2byte	0x2
 5365 061b 30       		.byte	0x30
 5366 061c 9F       		.byte	0x9f
 5367 061d 86000000 		.4byte	.LVL75
 5368 0621 90000000 		.4byte	.LVL76
 5369 0625 0100     		.2byte	0x1
 5370 0627 53       		.byte	0x53
 5371 0628 90000000 		.4byte	.LVL76
 5372 062c DE000000 		.4byte	.LVL85
 5373 0630 0100     		.2byte	0x1
 5374 0632 58       		.byte	0x58
 5375 0633 00000000 		.4byte	0
 5376 0637 00000000 		.4byte	0
 5377              	.LLST29:
 5378 063b 16000000 		.4byte	.LVL53
ARM GAS  C:\Users\YUANFA~1\AppData\Local\Temp\cctOMKNb.s 			page 132


 5379 063f 54000000 		.4byte	.LVL68
 5380 0643 0200     		.2byte	0x2
 5381 0645 30       		.byte	0x30
 5382 0646 9F       		.byte	0x9f
 5383 0647 7E000000 		.4byte	.LVL74
 5384 064b 90000000 		.4byte	.LVL76
 5385 064f 0100     		.2byte	0x1
 5386 0651 56       		.byte	0x56
 5387 0652 90000000 		.4byte	.LVL76
 5388 0656 EA000000 		.4byte	.LVL89
 5389 065a 0200     		.2byte	0x2
 5390 065c 7D       		.byte	0x7d
 5391 065d 00       		.sleb128 0
 5392 065e 3A010000 		.4byte	.LVL97
 5393 0662 42010000 		.4byte	.LVL99
 5394 0666 0100     		.2byte	0x1
 5395 0668 56       		.byte	0x56
 5396 0669 00000000 		.4byte	0
 5397 066d 00000000 		.4byte	0
 5398              	.LLST30:
 5399 0671 16000000 		.4byte	.LVL53
 5400 0675 54000000 		.4byte	.LVL68
 5401 0679 0200     		.2byte	0x2
 5402 067b 30       		.byte	0x30
 5403 067c 9F       		.byte	0x9f
 5404 067d 7E000000 		.4byte	.LVL74
 5405 0681 2C010000 		.4byte	.LVL94
 5406 0685 0100     		.2byte	0x1
 5407 0687 59       		.byte	0x59
 5408 0688 36010000 		.4byte	.LVL96
 5409 068c 3C010000 		.4byte	.LVL98
 5410 0690 0100     		.2byte	0x1
 5411 0692 57       		.byte	0x57
 5412 0693 3C010000 		.4byte	.LVL98
 5413 0697 6A010000 		.4byte	.LVL106
 5414 069b 0100     		.2byte	0x1
 5415 069d 59       		.byte	0x59
 5416 069e 00000000 		.4byte	0
 5417 06a2 00000000 		.4byte	0
 5418              	.LLST31:
 5419 06a6 16000000 		.4byte	.LVL53
 5420 06aa 4E000000 		.4byte	.LVL67
 5421 06ae 0200     		.2byte	0x2
 5422 06b0 30       		.byte	0x30
 5423 06b1 9F       		.byte	0x9f
 5424 06b2 4E000000 		.4byte	.LVL67
 5425 06b6 54000000 		.4byte	.LVL68
 5426 06ba 0100     		.2byte	0x1
 5427 06bc 53       		.byte	0x53
 5428 06bd 54000000 		.4byte	.LVL68
 5429 06c1 68000000 		.4byte	.LVL69
 5430 06c5 0300     		.2byte	0x3
 5431 06c7 91       		.byte	0x91
 5432 06c8 A87F     		.sleb128 -88
 5433 06ca 68000000 		.4byte	.LVL69
 5434 06ce 6A000000 		.4byte	.LVL70
 5435 06d2 0100     		.2byte	0x1
ARM GAS  C:\Users\YUANFA~1\AppData\Local\Temp\cctOMKNb.s 			page 133


 5436 06d4 52       		.byte	0x52
 5437 06d5 6A000000 		.4byte	.LVL70
 5438 06d9 6A010000 		.4byte	.LVL106
 5439 06dd 0300     		.2byte	0x3
 5440 06df 91       		.byte	0x91
 5441 06e0 A87F     		.sleb128 -88
 5442 06e2 6A010000 		.4byte	.LVL106
 5443 06e6 6E010000 		.4byte	.LVL107
 5444 06ea 0100     		.2byte	0x1
 5445 06ec 53       		.byte	0x53
 5446 06ed 6E010000 		.4byte	.LVL107
 5447 06f1 78010000 		.4byte	.LVL108
 5448 06f5 0100     		.2byte	0x1
 5449 06f7 52       		.byte	0x52
 5450 06f8 78010000 		.4byte	.LVL108
 5451 06fc A0010000 		.4byte	.LFE10
 5452 0700 0300     		.2byte	0x3
 5453 0702 91       		.byte	0x91
 5454 0703 A87F     		.sleb128 -88
 5455 0705 00000000 		.4byte	0
 5456 0709 00000000 		.4byte	0
 5457              	.LLST32:
 5458 070d 16000000 		.4byte	.LVL53
 5459 0711 36000000 		.4byte	.LVL63
 5460 0715 0200     		.2byte	0x2
 5461 0717 30       		.byte	0x30
 5462 0718 9F       		.byte	0x9f
 5463 0719 36000000 		.4byte	.LVL63
 5464 071d 38000000 		.4byte	.LVL64
 5465 0721 0100     		.2byte	0x1
 5466 0723 53       		.byte	0x53
 5467 0724 38000000 		.4byte	.LVL64
 5468 0728 46000000 		.4byte	.LVL65
 5469 072c 0100     		.2byte	0x1
 5470 072e 52       		.byte	0x52
 5471 072f 46000000 		.4byte	.LVL65
 5472 0733 48000000 		.4byte	.LVL66
 5473 0737 0100     		.2byte	0x1
 5474 0739 53       		.byte	0x53
 5475 073a 48000000 		.4byte	.LVL66
 5476 073e 54000000 		.4byte	.LVL68
 5477 0742 0100     		.2byte	0x1
 5478 0744 52       		.byte	0x52
 5479 0745 54000000 		.4byte	.LVL68
 5480 0749 68000000 		.4byte	.LVL69
 5481 074d 0100     		.2byte	0x1
 5482 074f 53       		.byte	0x53
 5483 0750 6C000000 		.4byte	.LVL71
 5484 0754 6E000000 		.4byte	.LVL72
 5485 0758 0100     		.2byte	0x1
 5486 075a 52       		.byte	0x52
 5487 075b 6E000000 		.4byte	.LVL72
 5488 075f 78000000 		.4byte	.LVL73
 5489 0763 0100     		.2byte	0x1
 5490 0765 53       		.byte	0x53
 5491 0766 78000000 		.4byte	.LVL73
 5492 076a 7E000000 		.4byte	.LVL74
ARM GAS  C:\Users\YUANFA~1\AppData\Local\Temp\cctOMKNb.s 			page 134


 5493 076e 0300     		.2byte	0x3
 5494 0770 72       		.byte	0x72
 5495 0771 7F       		.sleb128 -1
 5496 0772 9F       		.byte	0x9f
 5497 0773 00000000 		.4byte	0
 5498 0777 00000000 		.4byte	0
 5499              	.LLST33:
 5500 077b 16000000 		.4byte	.LVL53
 5501 077f 54000000 		.4byte	.LVL68
 5502 0783 0200     		.2byte	0x2
 5503 0785 30       		.byte	0x30
 5504 0786 9F       		.byte	0x9f
 5505 0787 54000000 		.4byte	.LVL68
 5506 078b 7E000000 		.4byte	.LVL74
 5507 078f 0100     		.2byte	0x1
 5508 0791 57       		.byte	0x57
 5509 0792 7E000000 		.4byte	.LVL74
 5510 0796 90000000 		.4byte	.LVL76
 5511 079a 0300     		.2byte	0x3
 5512 079c 09       		.byte	0x9
 5513 079d FF       		.byte	0xff
 5514 079e 9F       		.byte	0x9f
 5515 079f 90000000 		.4byte	.LVL76
 5516 07a3 D0000000 		.4byte	.LVL80
 5517 07a7 0100     		.2byte	0x1
 5518 07a9 57       		.byte	0x57
 5519 07aa D2000000 		.4byte	.LVL81
 5520 07ae D4000000 		.4byte	.LVL82
 5521 07b2 0100     		.2byte	0x1
 5522 07b4 57       		.byte	0x57
 5523 07b5 D6000000 		.4byte	.LVL83
 5524 07b9 EA000000 		.4byte	.LVL89
 5525 07bd 0100     		.2byte	0x1
 5526 07bf 57       		.byte	0x57
 5527 07c0 EA000000 		.4byte	.LVL89
 5528 07c4 3C010000 		.4byte	.LVL98
 5529 07c8 0100     		.2byte	0x1
 5530 07ca 58       		.byte	0x58
 5531 07cb 3C010000 		.4byte	.LVL98
 5532 07cf 48010000 		.4byte	.LVL100
 5533 07d3 0100     		.2byte	0x1
 5534 07d5 57       		.byte	0x57
 5535 07d6 48010000 		.4byte	.LVL100
 5536 07da 4A010000 		.4byte	.LVL101
 5537 07de 0100     		.2byte	0x1
 5538 07e0 53       		.byte	0x53
 5539 07e1 4A010000 		.4byte	.LVL101
 5540 07e5 4E010000 		.4byte	.LVL102
 5541 07e9 0100     		.2byte	0x1
 5542 07eb 57       		.byte	0x57
 5543 07ec 50010000 		.4byte	.LVL103
 5544 07f0 5C010000 		.4byte	.LVL104
 5545 07f4 0100     		.2byte	0x1
 5546 07f6 57       		.byte	0x57
 5547 07f7 5C010000 		.4byte	.LVL104
 5548 07fb 6A010000 		.4byte	.LVL106
 5549 07ff 0100     		.2byte	0x1
ARM GAS  C:\Users\YUANFA~1\AppData\Local\Temp\cctOMKNb.s 			page 135


 5550 0801 53       		.byte	0x53
 5551 0802 6A010000 		.4byte	.LVL106
 5552 0806 7C010000 		.4byte	.LVL109
 5553 080a 0100     		.2byte	0x1
 5554 080c 57       		.byte	0x57
 5555 080d 7C010000 		.4byte	.LVL109
 5556 0811 86010000 		.4byte	.LVL110
 5557 0815 0100     		.2byte	0x1
 5558 0817 53       		.byte	0x53
 5559 0818 86010000 		.4byte	.LVL110
 5560 081c 88010000 		.4byte	.LVL111
 5561 0820 0100     		.2byte	0x1
 5562 0822 52       		.byte	0x52
 5563 0823 88010000 		.4byte	.LVL111
 5564 0827 A0010000 		.4byte	.LFE10
 5565 082b 0100     		.2byte	0x1
 5566 082d 53       		.byte	0x53
 5567 082e 00000000 		.4byte	0
 5568 0832 00000000 		.4byte	0
 5569              	.LLST34:
 5570 0836 16000000 		.4byte	.LVL53
 5571 083a 54000000 		.4byte	.LVL68
 5572 083e 0200     		.2byte	0x2
 5573 0840 30       		.byte	0x30
 5574 0841 9F       		.byte	0x9f
 5575 0842 86000000 		.4byte	.LVL75
 5576 0846 90000000 		.4byte	.LVL76
 5577 084a 0300     		.2byte	0x3
 5578 084c 91       		.byte	0x91
 5579 084d A47F     		.sleb128 -92
 5580 084f 90000000 		.4byte	.LVL76
 5581 0853 D6000000 		.4byte	.LVL83
 5582 0857 0100     		.2byte	0x1
 5583 0859 53       		.byte	0x53
 5584 085a D6000000 		.4byte	.LVL83
 5585 085e D8000000 		.4byte	.LVL84
 5586 0862 0100     		.2byte	0x1
 5587 0864 52       		.byte	0x52
 5588 0865 D8000000 		.4byte	.LVL84
 5589 0869 E0000000 		.4byte	.LVL86
 5590 086d 0100     		.2byte	0x1
 5591 086f 53       		.byte	0x53
 5592 0870 E0000000 		.4byte	.LVL86
 5593 0874 E2000000 		.4byte	.LVL87
 5594 0878 0300     		.2byte	0x3
 5595 087a 72       		.byte	0x72
 5596 087b 7F       		.sleb128 -1
 5597 087c 9F       		.byte	0x9f
 5598 087d E2000000 		.4byte	.LVL87
 5599 0881 EA000000 		.4byte	.LVL89
 5600 0885 0300     		.2byte	0x3
 5601 0887 91       		.byte	0x91
 5602 0888 A47F     		.sleb128 -92
 5603 088a EA000000 		.4byte	.LVL89
 5604 088e 18010000 		.4byte	.LVL90
 5605 0892 0100     		.2byte	0x1
 5606 0894 52       		.byte	0x52
ARM GAS  C:\Users\YUANFA~1\AppData\Local\Temp\cctOMKNb.s 			page 136


 5607 0895 18010000 		.4byte	.LVL90
 5608 0899 1A010000 		.4byte	.LVL91
 5609 089d 0100     		.2byte	0x1
 5610 089f 53       		.byte	0x53
 5611 08a0 1A010000 		.4byte	.LVL91
 5612 08a4 26010000 		.4byte	.LVL92
 5613 08a8 0100     		.2byte	0x1
 5614 08aa 52       		.byte	0x52
 5615 08ab 00000000 		.4byte	0
 5616 08af 00000000 		.4byte	0
 5617              	.LLST35:
 5618 08b3 00000000 		.4byte	.LVL117
 5619 08b7 2A000000 		.4byte	.LVL124
 5620 08bb 0100     		.2byte	0x1
 5621 08bd 50       		.byte	0x50
 5622 08be 2A000000 		.4byte	.LVL124
 5623 08c2 A0010000 		.4byte	.LFE1
 5624 08c6 0400     		.2byte	0x4
 5625 08c8 F3       		.byte	0xf3
 5626 08c9 01       		.uleb128 0x1
 5627 08ca 50       		.byte	0x50
 5628 08cb 9F       		.byte	0x9f
 5629 08cc 00000000 		.4byte	0
 5630 08d0 00000000 		.4byte	0
 5631              	.LLST36:
 5632 08d4 0E000000 		.4byte	.LVL118
 5633 08d8 14000000 		.4byte	.LVL120
 5634 08dc 0100     		.2byte	0x1
 5635 08de 52       		.byte	0x52
 5636 08df 14000000 		.4byte	.LVL120
 5637 08e3 2A000000 		.4byte	.LVL124
 5638 08e7 0200     		.2byte	0x2
 5639 08e9 70       		.byte	0x70
 5640 08ea 04       		.sleb128 4
 5641 08eb 2A000000 		.4byte	.LVL124
 5642 08ef 30000000 		.4byte	.LVL125
 5643 08f3 0500     		.2byte	0x5
 5644 08f5 F3       		.byte	0xf3
 5645 08f6 01       		.uleb128 0x1
 5646 08f7 50       		.byte	0x50
 5647 08f8 23       		.byte	0x23
 5648 08f9 04       		.uleb128 0x4
 5649 08fa 00000000 		.4byte	0
 5650 08fe 00000000 		.4byte	0
 5651              	.LLST37:
 5652 0902 38000000 		.4byte	.LVL127
 5653 0906 70010000 		.4byte	.LVL151
 5654 090a 0100     		.2byte	0x1
 5655 090c 50       		.byte	0x50
 5656 090d 00000000 		.4byte	0
 5657 0911 00000000 		.4byte	0
 5658              	.LLST38:
 5659 0915 30000000 		.4byte	.LVL125
 5660 0919 36000000 		.4byte	.LVL126
 5661 091d 0200     		.2byte	0x2
 5662 091f 30       		.byte	0x30
 5663 0920 9F       		.byte	0x9f
ARM GAS  C:\Users\YUANFA~1\AppData\Local\Temp\cctOMKNb.s 			page 137


 5664 0921 36000000 		.4byte	.LVL126
 5665 0925 8E010000 		.4byte	.LVL161
 5666 0929 0100     		.2byte	0x1
 5667 092b 5B       		.byte	0x5b
 5668 092c 00000000 		.4byte	0
 5669 0930 00000000 		.4byte	0
 5670              	.LLST39:
 5671 0934 36000000 		.4byte	.LVL126
 5672 0938 76010000 		.4byte	.LVL153
 5673 093c 0100     		.2byte	0x1
 5674 093e 52       		.byte	0x52
 5675 093f 78010000 		.4byte	.LVL154
 5676 0943 7A010000 		.4byte	.LVL155
 5677 0947 0100     		.2byte	0x1
 5678 0949 52       		.byte	0x52
 5679 094a 7C010000 		.4byte	.LVL156
 5680 094e 8A010000 		.4byte	.LVL157
 5681 0952 0100     		.2byte	0x1
 5682 0954 52       		.byte	0x52
 5683 0955 00000000 		.4byte	0
 5684 0959 00000000 		.4byte	0
 5685              	.LLST40:
 5686 095d 4C000000 		.4byte	.LVL129
 5687 0961 68000000 		.4byte	.LVL131
 5688 0965 0100     		.2byte	0x1
 5689 0967 55       		.byte	0x55
 5690 0968 68000000 		.4byte	.LVL131
 5691 096c 7E000000 		.4byte	.LVL132
 5692 0970 0100     		.2byte	0x1
 5693 0972 56       		.byte	0x56
 5694 0973 7E000000 		.4byte	.LVL132
 5695 0977 82000000 		.4byte	.LVL133
 5696 097b 0100     		.2byte	0x1
 5697 097d 55       		.byte	0x55
 5698 097e 82000000 		.4byte	.LVL133
 5699 0982 86000000 		.4byte	.LVL134
 5700 0986 0100     		.2byte	0x1
 5701 0988 56       		.byte	0x56
 5702 0989 86000000 		.4byte	.LVL134
 5703 098d 8C000000 		.4byte	.LVL135
 5704 0991 0100     		.2byte	0x1
 5705 0993 54       		.byte	0x54
 5706 0994 8E000000 		.4byte	.LVL136
 5707 0998 98000000 		.4byte	.LVL137
 5708 099c 0100     		.2byte	0x1
 5709 099e 54       		.byte	0x54
 5710 099f B0000000 		.4byte	.LVL139
 5711 09a3 D0000000 		.4byte	.LVL141
 5712 09a7 0100     		.2byte	0x1
 5713 09a9 54       		.byte	0x54
 5714 09aa D0000000 		.4byte	.LVL141
 5715 09ae EA000000 		.4byte	.LVL142
 5716 09b2 0100     		.2byte	0x1
 5717 09b4 56       		.byte	0x56
 5718 09b5 EA000000 		.4byte	.LVL142
 5719 09b9 F0000000 		.4byte	.LVL143
 5720 09bd 0100     		.2byte	0x1
ARM GAS  C:\Users\YUANFA~1\AppData\Local\Temp\cctOMKNb.s 			page 138


 5721 09bf 54       		.byte	0x54
 5722 09c0 F2000000 		.4byte	.LVL144
 5723 09c4 FC000000 		.4byte	.LVL145
 5724 09c8 0100     		.2byte	0x1
 5725 09ca 54       		.byte	0x54
 5726 09cb 00000000 		.4byte	0
 5727 09cf 00000000 		.4byte	0
 5728              	.LLST41:
 5729 09d3 22000000 		.4byte	.LVL122
 5730 09d7 8E010000 		.4byte	.LVL160
 5731 09db 0100     		.2byte	0x1
 5732 09dd 58       		.byte	0x58
 5733 09de 00000000 		.4byte	0
 5734 09e2 00000000 		.4byte	0
 5735              	.LLST42:
 5736 09e6 28000000 		.4byte	.LVL123
 5737 09ea 8E010000 		.4byte	.LVL158
 5738 09ee 0100     		.2byte	0x1
 5739 09f0 55       		.byte	0x55
 5740 09f1 8E010000 		.4byte	.LVL158
 5741 09f5 8E010000 		.4byte	.LVL159
 5742 09f9 0300     		.2byte	0x3
 5743 09fb 76       		.byte	0x76
 5744 09fc 7F       		.sleb128 -1
 5745 09fd 9F       		.byte	0x9f
 5746 09fe 00000000 		.4byte	0
 5747 0a02 00000000 		.4byte	0
 5748              	.LLST43:
 5749 0a06 28000000 		.4byte	.LVL123
 5750 0a0a 42000000 		.4byte	.LVL128
 5751 0a0e 0200     		.2byte	0x2
 5752 0a10 30       		.byte	0x30
 5753 0a11 9F       		.byte	0x9f
 5754 0a12 42000000 		.4byte	.LVL128
 5755 0a16 32010000 		.4byte	.LVL149
 5756 0a1a 0100     		.2byte	0x1
 5757 0a1c 53       		.byte	0x53
 5758 0a1d 32010000 		.4byte	.LVL149
 5759 0a21 36010000 		.4byte	.LVL150
 5760 0a25 0300     		.2byte	0x3
 5761 0a27 73       		.byte	0x73
 5762 0a28 44       		.sleb128 -60
 5763 0a29 9F       		.byte	0x9f
 5764 0a2a 00000000 		.4byte	0
 5765 0a2e 00000000 		.4byte	0
 5766              	.LLST44:
 5767 0a32 00000000 		.4byte	.LVL162
 5768 0a36 26000000 		.4byte	.LVL166
 5769 0a3a 0100     		.2byte	0x1
 5770 0a3c 50       		.byte	0x50
 5771 0a3d 26000000 		.4byte	.LVL166
 5772 0a41 94010000 		.4byte	.LVL201
 5773 0a45 0100     		.2byte	0x1
 5774 0a47 58       		.byte	0x58
 5775 0a48 94010000 		.4byte	.LVL201
 5776 0a4c A4010000 		.4byte	.LFE2
 5777 0a50 0400     		.2byte	0x4
ARM GAS  C:\Users\YUANFA~1\AppData\Local\Temp\cctOMKNb.s 			page 139


 5778 0a52 F3       		.byte	0xf3
 5779 0a53 01       		.uleb128 0x1
 5780 0a54 50       		.byte	0x50
 5781 0a55 9F       		.byte	0x9f
 5782 0a56 00000000 		.4byte	0
 5783 0a5a 00000000 		.4byte	0
 5784              	.LLST45:
 5785 0a5e 10000000 		.4byte	.LVL163
 5786 0a62 26000000 		.4byte	.LVL166
 5787 0a66 0200     		.2byte	0x2
 5788 0a68 70       		.byte	0x70
 5789 0a69 08       		.sleb128 8
 5790 0a6a 2A000000 		.4byte	.LVL167
 5791 0a6e 4E000000 		.4byte	.LVL168
 5792 0a72 0100     		.2byte	0x1
 5793 0a74 55       		.byte	0x55
 5794 0a75 4E000000 		.4byte	.LVL168
 5795 0a79 52000000 		.4byte	.LVL169
 5796 0a7d 0600     		.2byte	0x6
 5797 0a7f 75       		.byte	0x75
 5798 0a80 00       		.sleb128 0
 5799 0a81 74       		.byte	0x74
 5800 0a82 00       		.sleb128 0
 5801 0a83 22       		.byte	0x22
 5802 0a84 9F       		.byte	0x9f
 5803 0a85 52000000 		.4byte	.LVL169
 5804 0a89 EC000000 		.4byte	.LVL178
 5805 0a8d 0600     		.2byte	0x6
 5806 0a8f 75       		.byte	0x75
 5807 0a90 00       		.sleb128 0
 5808 0a91 7C       		.byte	0x7c
 5809 0a92 00       		.sleb128 0
 5810 0a93 22       		.byte	0x22
 5811 0a94 9F       		.byte	0x9f
 5812 0a95 EC000000 		.4byte	.LVL178
 5813 0a99 2D010000 		.4byte	.LVL191-1
 5814 0a9d 0700     		.2byte	0x7
 5815 0a9f 78       		.byte	0x78
 5816 0aa0 08       		.sleb128 8
 5817 0aa1 06       		.byte	0x6
 5818 0aa2 7C       		.byte	0x7c
 5819 0aa3 00       		.sleb128 0
 5820 0aa4 22       		.byte	0x22
 5821 0aa5 9F       		.byte	0x9f
 5822 0aa6 00000000 		.4byte	0
 5823 0aaa 00000000 		.4byte	0
 5824              	.LLST46:
 5825 0aae 20000000 		.4byte	.LVL165
 5826 0ab2 26000000 		.4byte	.LVL166
 5827 0ab6 0200     		.2byte	0x2
 5828 0ab8 30       		.byte	0x30
 5829 0ab9 9F       		.byte	0x9f
 5830 0aba 26000000 		.4byte	.LVL166
 5831 0abe A4010000 		.4byte	.LFE2
 5832 0ac2 0300     		.2byte	0x3
 5833 0ac4 91       		.byte	0x91
 5834 0ac5 B47F     		.sleb128 -76
ARM GAS  C:\Users\YUANFA~1\AppData\Local\Temp\cctOMKNb.s 			page 140


 5835 0ac7 00000000 		.4byte	0
 5836 0acb 00000000 		.4byte	0
 5837              	.LLST47:
 5838 0acf 4E000000 		.4byte	.LVL168
 5839 0ad3 52000000 		.4byte	.LVL169
 5840 0ad7 0200     		.2byte	0x2
 5841 0ad9 30       		.byte	0x30
 5842 0ada 9F       		.byte	0x9f
 5843 0adb 52000000 		.4byte	.LVL169
 5844 0adf E2000000 		.4byte	.LVL176
 5845 0ae3 0100     		.2byte	0x1
 5846 0ae5 52       		.byte	0x52
 5847 0ae6 E4000000 		.4byte	.LVL177
 5848 0aea F2000000 		.4byte	.LVL179
 5849 0aee 0100     		.2byte	0x1
 5850 0af0 52       		.byte	0x52
 5851 0af1 F2000000 		.4byte	.LVL179
 5852 0af5 1A010000 		.4byte	.LVL187
 5853 0af9 0100     		.2byte	0x1
 5854 0afb 51       		.byte	0x51
 5855 0afc 1C010000 		.4byte	.LVL188
 5856 0b00 2A010000 		.4byte	.LVL190
 5857 0b04 0100     		.2byte	0x1
 5858 0b06 51       		.byte	0x51
 5859 0b07 00000000 		.4byte	0
 5860 0b0b 00000000 		.4byte	0
 5861              	.LLST48:
 5862 0b0f 80000000 		.4byte	.LVL170
 5863 0b13 D6000000 		.4byte	.LVL171
 5864 0b17 0100     		.2byte	0x1
 5865 0b19 53       		.byte	0x53
 5866 0b1a D8000000 		.4byte	.LVL172
 5867 0b1e DA000000 		.4byte	.LVL173
 5868 0b22 0100     		.2byte	0x1
 5869 0b24 53       		.byte	0x53
 5870 0b25 DC000000 		.4byte	.LVL174
 5871 0b29 E0000000 		.4byte	.LVL175
 5872 0b2d 0100     		.2byte	0x1
 5873 0b2f 53       		.byte	0x53
 5874 0b30 F2000000 		.4byte	.LVL179
 5875 0b34 0E010000 		.4byte	.LVL183
 5876 0b38 0100     		.2byte	0x1
 5877 0b3a 52       		.byte	0x52
 5878 0b3b 10010000 		.4byte	.LVL184
 5879 0b3f 12010000 		.4byte	.LVL185
 5880 0b43 0100     		.2byte	0x1
 5881 0b45 52       		.byte	0x52
 5882 0b46 14010000 		.4byte	.LVL186
 5883 0b4a 1C010000 		.4byte	.LVL188
 5884 0b4e 0100     		.2byte	0x1
 5885 0b50 52       		.byte	0x52
 5886 0b51 00000000 		.4byte	0
 5887 0b55 00000000 		.4byte	0
 5888              	.LLST49:
 5889 0b59 F2000000 		.4byte	.LVL179
 5890 0b5d 28010000 		.4byte	.LVL189
 5891 0b61 0100     		.2byte	0x1
ARM GAS  C:\Users\YUANFA~1\AppData\Local\Temp\cctOMKNb.s 			page 141


 5892 0b63 50       		.byte	0x50
 5893 0b64 44010000 		.4byte	.LVL192
 5894 0b68 46010000 		.4byte	.LVL193
 5895 0b6c 0100     		.2byte	0x1
 5896 0b6e 50       		.byte	0x50
 5897 0b6f 46010000 		.4byte	.LVL193
 5898 0b73 48010000 		.4byte	.LVL194
 5899 0b77 0400     		.2byte	0x4
 5900 0b79 70       		.byte	0x70
 5901 0b7a 817F     		.sleb128 -127
 5902 0b7c 9F       		.byte	0x9f
 5903 0b7d 00000000 		.4byte	0
 5904 0b81 00000000 		.4byte	0
 5905              	.LLST50:
 5906 0b85 F2000000 		.4byte	.LVL179
 5907 0b89 72010000 		.4byte	.LVL196
 5908 0b8d 0100     		.2byte	0x1
 5909 0b8f 55       		.byte	0x55
 5910 0b90 72010000 		.4byte	.LVL196
 5911 0b94 74010000 		.4byte	.LVL197
 5912 0b98 0100     		.2byte	0x1
 5913 0b9a 50       		.byte	0x50
 5914 0b9b 74010000 		.4byte	.LVL197
 5915 0b9f 76010000 		.4byte	.LVL198
 5916 0ba3 0400     		.2byte	0x4
 5917 0ba5 70       		.byte	0x70
 5918 0ba6 817F     		.sleb128 -127
 5919 0ba8 9F       		.byte	0x9f
 5920 0ba9 00000000 		.4byte	0
 5921 0bad 00000000 		.4byte	0
 5922              	.LLST51:
 5923 0bb1 F2000000 		.4byte	.LVL179
 5924 0bb5 7A010000 		.4byte	.LVL199
 5925 0bb9 0100     		.2byte	0x1
 5926 0bbb 54       		.byte	0x54
 5927 0bbc 00000000 		.4byte	0
 5928 0bc0 00000000 		.4byte	0
 5929              	.LLST52:
 5930 0bc4 00000000 		.4byte	.LVL202
 5931 0bc8 40000000 		.4byte	.LVL209
 5932 0bcc 0100     		.2byte	0x1
 5933 0bce 50       		.byte	0x50
 5934 0bcf 40000000 		.4byte	.LVL209
 5935 0bd3 4C030000 		.4byte	.LFE3
 5936 0bd7 0400     		.2byte	0x4
 5937 0bd9 F3       		.byte	0xf3
 5938 0bda 01       		.uleb128 0x1
 5939 0bdb 50       		.byte	0x50
 5940 0bdc 9F       		.byte	0x9f
 5941 0bdd 00000000 		.4byte	0
 5942 0be1 00000000 		.4byte	0
 5943              	.LLST53:
 5944 0be5 0E000000 		.4byte	.LVL203
 5945 0be9 88020000 		.4byte	.LVL292
 5946 0bed 0100     		.2byte	0x1
 5947 0bef 55       		.byte	0x55
 5948 0bf0 00000000 		.4byte	0
ARM GAS  C:\Users\YUANFA~1\AppData\Local\Temp\cctOMKNb.s 			page 142


 5949 0bf4 00000000 		.4byte	0
 5950              	.LLST54:
 5951 0bf8 12000000 		.4byte	.LVL204
 5952 0bfc 14000000 		.4byte	.LVL205
 5953 0c00 0100     		.2byte	0x1
 5954 0c02 53       		.byte	0x53
 5955 0c03 14000000 		.4byte	.LVL205
 5956 0c07 40000000 		.4byte	.LVL209
 5957 0c0b 0100     		.2byte	0x1
 5958 0c0d 5A       		.byte	0x5a
 5959 0c0e 40000000 		.4byte	.LVL209
 5960 0c12 42000000 		.4byte	.LVL210
 5961 0c16 0100     		.2byte	0x1
 5962 0c18 51       		.byte	0x51
 5963 0c19 42000000 		.4byte	.LVL210
 5964 0c1d 64000000 		.4byte	.LVL212
 5965 0c21 0100     		.2byte	0x1
 5966 0c23 5A       		.byte	0x5a
 5967 0c24 64000000 		.4byte	.LVL212
 5968 0c28 72000000 		.4byte	.LVL214
 5969 0c2c 0100     		.2byte	0x1
 5970 0c2e 51       		.byte	0x51
 5971 0c2f 72000000 		.4byte	.LVL214
 5972 0c33 84000000 		.4byte	.LVL215
 5973 0c37 0100     		.2byte	0x1
 5974 0c39 5A       		.byte	0x5a
 5975 0c3a 84000000 		.4byte	.LVL215
 5976 0c3e 86000000 		.4byte	.LVL216
 5977 0c42 0100     		.2byte	0x1
 5978 0c44 51       		.byte	0x51
 5979 0c45 86000000 		.4byte	.LVL216
 5980 0c49 96000000 		.4byte	.LVL218
 5981 0c4d 0100     		.2byte	0x1
 5982 0c4f 5A       		.byte	0x5a
 5983 0c50 96000000 		.4byte	.LVL218
 5984 0c54 98000000 		.4byte	.LVL219
 5985 0c58 0100     		.2byte	0x1
 5986 0c5a 52       		.byte	0x52
 5987 0c5b 98000000 		.4byte	.LVL219
 5988 0c5f AA000000 		.4byte	.LVL222
 5989 0c63 0100     		.2byte	0x1
 5990 0c65 5A       		.byte	0x5a
 5991 0c66 AA000000 		.4byte	.LVL222
 5992 0c6a BC000000 		.4byte	.LVL224
 5993 0c6e 0100     		.2byte	0x1
 5994 0c70 52       		.byte	0x52
 5995 0c71 BC000000 		.4byte	.LVL224
 5996 0c75 C2000000 		.4byte	.LVL226
 5997 0c79 0100     		.2byte	0x1
 5998 0c7b 5A       		.byte	0x5a
 5999 0c7c C2000000 		.4byte	.LVL226
 6000 0c80 C9000000 		.4byte	.LVL228-1
 6001 0c84 0100     		.2byte	0x1
 6002 0c86 52       		.byte	0x52
 6003 0c87 C9000000 		.4byte	.LVL228-1
 6004 0c8b DE000000 		.4byte	.LVL230
 6005 0c8f 0100     		.2byte	0x1
ARM GAS  C:\Users\YUANFA~1\AppData\Local\Temp\cctOMKNb.s 			page 143


 6006 0c91 5A       		.byte	0x5a
 6007 0c92 DE000000 		.4byte	.LVL230
 6008 0c96 EE000000 		.4byte	.LVL233
 6009 0c9a 0100     		.2byte	0x1
 6010 0c9c 52       		.byte	0x52
 6011 0c9d EE000000 		.4byte	.LVL233
 6012 0ca1 36010000 		.4byte	.LVL240
 6013 0ca5 0100     		.2byte	0x1
 6014 0ca7 5A       		.byte	0x5a
 6015 0ca8 36010000 		.4byte	.LVL240
 6016 0cac 3C010000 		.4byte	.LVL241
 6017 0cb0 0100     		.2byte	0x1
 6018 0cb2 52       		.byte	0x52
 6019 0cb3 3C010000 		.4byte	.LVL241
 6020 0cb7 60010000 		.4byte	.LVL247
 6021 0cbb 0100     		.2byte	0x1
 6022 0cbd 5A       		.byte	0x5a
 6023 0cbe 60010000 		.4byte	.LVL247
 6024 0cc2 67010000 		.4byte	.LVL249-1
 6025 0cc6 0100     		.2byte	0x1
 6026 0cc8 52       		.byte	0x52
 6027 0cc9 67010000 		.4byte	.LVL249-1
 6028 0ccd 3C030000 		.4byte	.LVL313
 6029 0cd1 0100     		.2byte	0x1
 6030 0cd3 5A       		.byte	0x5a
 6031 0cd4 00000000 		.4byte	0
 6032 0cd8 00000000 		.4byte	0
 6033              	.LLST55:
 6034 0cdc 6C000000 		.4byte	.LVL213
 6035 0ce0 C0000000 		.4byte	.LVL225
 6036 0ce4 0100     		.2byte	0x1
 6037 0ce6 56       		.byte	0x56
 6038 0ce7 C0000000 		.4byte	.LVL225
 6039 0ceb C2000000 		.4byte	.LVL226
 6040 0cef 0900     		.2byte	0x9
 6041 0cf1 03       		.byte	0x3
 6042 0cf2 48000000 		.4byte	.LANCHOR0+72
 6043 0cf6 09       		.byte	0x9
 6044 0cf7 FC       		.byte	0xfc
 6045 0cf8 1A       		.byte	0x1a
 6046 0cf9 9F       		.byte	0x9f
 6047 0cfa C2000000 		.4byte	.LVL226
 6048 0cfe DE000000 		.4byte	.LVL230
 6049 0d02 0100     		.2byte	0x1
 6050 0d04 56       		.byte	0x56
 6051 0d05 DE000000 		.4byte	.LVL230
 6052 0d09 E4000000 		.4byte	.LVL231
 6053 0d0d 0900     		.2byte	0x9
 6054 0d0f 03       		.byte	0x3
 6055 0d10 48000000 		.4byte	.LANCHOR0+72
 6056 0d14 09       		.byte	0x9
 6057 0d15 FC       		.byte	0xfc
 6058 0d16 1A       		.byte	0x1a
 6059 0d17 9F       		.byte	0x9f
 6060 0d18 E4000000 		.4byte	.LVL231
 6061 0d1c E6000000 		.4byte	.LVL232
 6062 0d20 0700     		.2byte	0x7
ARM GAS  C:\Users\YUANFA~1\AppData\Local\Temp\cctOMKNb.s 			page 144


 6063 0d22 73       		.byte	0x73
 6064 0d23 C800     		.sleb128 72
 6065 0d25 09       		.byte	0x9
 6066 0d26 FC       		.byte	0xfc
 6067 0d27 1A       		.byte	0x1a
 6068 0d28 9F       		.byte	0x9f
 6069 0d29 E6000000 		.4byte	.LVL232
 6070 0d2d 18010000 		.4byte	.LVL236
 6071 0d31 0900     		.2byte	0x9
 6072 0d33 03       		.byte	0x3
 6073 0d34 48000000 		.4byte	.LANCHOR0+72
 6074 0d38 09       		.byte	0x9
 6075 0d39 FC       		.byte	0xfc
 6076 0d3a 1A       		.byte	0x1a
 6077 0d3b 9F       		.byte	0x9f
 6078 0d3c 18010000 		.4byte	.LVL236
 6079 0d40 24010000 		.4byte	.LVL237
 6080 0d44 0700     		.2byte	0x7
 6081 0d46 71       		.byte	0x71
 6082 0d47 C800     		.sleb128 72
 6083 0d49 09       		.byte	0x9
 6084 0d4a FC       		.byte	0xfc
 6085 0d4b 1A       		.byte	0x1a
 6086 0d4c 9F       		.byte	0x9f
 6087 0d4d 24010000 		.4byte	.LVL237
 6088 0d51 44010000 		.4byte	.LVL242
 6089 0d55 0900     		.2byte	0x9
 6090 0d57 03       		.byte	0x3
 6091 0d58 48000000 		.4byte	.LANCHOR0+72
 6092 0d5c 09       		.byte	0x9
 6093 0d5d FC       		.byte	0xfc
 6094 0d5e 1A       		.byte	0x1a
 6095 0d5f 9F       		.byte	0x9f
 6096 0d60 44010000 		.4byte	.LVL242
 6097 0d64 50010000 		.4byte	.LVL243
 6098 0d68 0700     		.2byte	0x7
 6099 0d6a 72       		.byte	0x72
 6100 0d6b C800     		.sleb128 72
 6101 0d6d 09       		.byte	0x9
 6102 0d6e FC       		.byte	0xfc
 6103 0d6f 1A       		.byte	0x1a
 6104 0d70 9F       		.byte	0x9f
 6105 0d71 50010000 		.4byte	.LVL243
 6106 0d75 60010000 		.4byte	.LVL247
 6107 0d79 0900     		.2byte	0x9
 6108 0d7b 03       		.byte	0x3
 6109 0d7c 48000000 		.4byte	.LANCHOR0+72
 6110 0d80 09       		.byte	0x9
 6111 0d81 FC       		.byte	0xfc
 6112 0d82 1A       		.byte	0x1a
 6113 0d83 9F       		.byte	0x9f
 6114 0d84 60010000 		.4byte	.LVL247
 6115 0d88 7C010000 		.4byte	.LVL251
 6116 0d8c 0100     		.2byte	0x1
 6117 0d8e 56       		.byte	0x56
 6118 0d8f 7C010000 		.4byte	.LVL251
 6119 0d93 82010000 		.4byte	.LVL252
ARM GAS  C:\Users\YUANFA~1\AppData\Local\Temp\cctOMKNb.s 			page 145


 6120 0d97 0900     		.2byte	0x9
 6121 0d99 03       		.byte	0x3
 6122 0d9a 48000000 		.4byte	.LANCHOR0+72
 6123 0d9e 09       		.byte	0x9
 6124 0d9f FC       		.byte	0xfc
 6125 0da0 1A       		.byte	0x1a
 6126 0da1 9F       		.byte	0x9f
 6127 0da2 82010000 		.4byte	.LVL252
 6128 0da6 84010000 		.4byte	.LVL253
 6129 0daa 0700     		.2byte	0x7
 6130 0dac 73       		.byte	0x73
 6131 0dad C800     		.sleb128 72
 6132 0daf 09       		.byte	0x9
 6133 0db0 FC       		.byte	0xfc
 6134 0db1 1A       		.byte	0x1a
 6135 0db2 9F       		.byte	0x9f
 6136 0db3 84010000 		.4byte	.LVL253
 6137 0db7 B4010000 		.4byte	.LVL256
 6138 0dbb 0900     		.2byte	0x9
 6139 0dbd 03       		.byte	0x3
 6140 0dbe 48000000 		.4byte	.LANCHOR0+72
 6141 0dc2 09       		.byte	0x9
 6142 0dc3 FC       		.byte	0xfc
 6143 0dc4 1A       		.byte	0x1a
 6144 0dc5 9F       		.byte	0x9f
 6145 0dc6 B4010000 		.4byte	.LVL256
 6146 0dca C0010000 		.4byte	.LVL257
 6147 0dce 0700     		.2byte	0x7
 6148 0dd0 71       		.byte	0x71
 6149 0dd1 C800     		.sleb128 72
 6150 0dd3 09       		.byte	0x9
 6151 0dd4 FC       		.byte	0xfc
 6152 0dd5 1A       		.byte	0x1a
 6153 0dd6 9F       		.byte	0x9f
 6154 0dd7 C0010000 		.4byte	.LVL257
 6155 0ddb CE010000 		.4byte	.LVL260
 6156 0ddf 0900     		.2byte	0x9
 6157 0de1 03       		.byte	0x3
 6158 0de2 48000000 		.4byte	.LANCHOR0+72
 6159 0de6 09       		.byte	0x9
 6160 0de7 FC       		.byte	0xfc
 6161 0de8 1A       		.byte	0x1a
 6162 0de9 9F       		.byte	0x9f
 6163 0dea CE010000 		.4byte	.LVL260
 6164 0dee D0010000 		.4byte	.LVL261
 6165 0df2 0700     		.2byte	0x7
 6166 0df4 71       		.byte	0x71
 6167 0df5 C800     		.sleb128 72
 6168 0df7 09       		.byte	0x9
 6169 0df8 FC       		.byte	0xfc
 6170 0df9 1A       		.byte	0x1a
 6171 0dfa 9F       		.byte	0x9f
 6172 0dfb D0010000 		.4byte	.LVL261
 6173 0dff D6010000 		.4byte	.LVL262
 6174 0e03 0900     		.2byte	0x9
 6175 0e05 03       		.byte	0x3
 6176 0e06 48000000 		.4byte	.LANCHOR0+72
ARM GAS  C:\Users\YUANFA~1\AppData\Local\Temp\cctOMKNb.s 			page 146


 6177 0e0a 09       		.byte	0x9
 6178 0e0b FC       		.byte	0xfc
 6179 0e0c 1A       		.byte	0x1a
 6180 0e0d 9F       		.byte	0x9f
 6181 0e0e D6010000 		.4byte	.LVL262
 6182 0e12 DC010000 		.4byte	.LVL263
 6183 0e16 0700     		.2byte	0x7
 6184 0e18 71       		.byte	0x71
 6185 0e19 C800     		.sleb128 72
 6186 0e1b 09       		.byte	0x9
 6187 0e1c FC       		.byte	0xfc
 6188 0e1d 1A       		.byte	0x1a
 6189 0e1e 9F       		.byte	0x9f
 6190 0e1f DC010000 		.4byte	.LVL263
 6191 0e23 F0010000 		.4byte	.LVL264
 6192 0e27 0900     		.2byte	0x9
 6193 0e29 03       		.byte	0x3
 6194 0e2a 48000000 		.4byte	.LANCHOR0+72
 6195 0e2e 09       		.byte	0x9
 6196 0e2f FC       		.byte	0xfc
 6197 0e30 1A       		.byte	0x1a
 6198 0e31 9F       		.byte	0x9f
 6199 0e32 F0010000 		.4byte	.LVL264
 6200 0e36 F4010000 		.4byte	.LVL265
 6201 0e3a 0700     		.2byte	0x7
 6202 0e3c 70       		.byte	0x70
 6203 0e3d C800     		.sleb128 72
 6204 0e3f 09       		.byte	0x9
 6205 0e40 FC       		.byte	0xfc
 6206 0e41 1A       		.byte	0x1a
 6207 0e42 9F       		.byte	0x9f
 6208 0e43 F4010000 		.4byte	.LVL265
 6209 0e47 02020000 		.4byte	.LVL266
 6210 0e4b 0900     		.2byte	0x9
 6211 0e4d 03       		.byte	0x3
 6212 0e4e 48000000 		.4byte	.LANCHOR0+72
 6213 0e52 09       		.byte	0x9
 6214 0e53 FC       		.byte	0xfc
 6215 0e54 1A       		.byte	0x1a
 6216 0e55 9F       		.byte	0x9f
 6217 0e56 02020000 		.4byte	.LVL266
 6218 0e5a 06020000 		.4byte	.LVL267
 6219 0e5e 0700     		.2byte	0x7
 6220 0e60 71       		.byte	0x71
 6221 0e61 C800     		.sleb128 72
 6222 0e63 09       		.byte	0x9
 6223 0e64 FC       		.byte	0xfc
 6224 0e65 1A       		.byte	0x1a
 6225 0e66 9F       		.byte	0x9f
 6226 0e67 06020000 		.4byte	.LVL267
 6227 0e6b 0E020000 		.4byte	.LVL269
 6228 0e6f 0900     		.2byte	0x9
 6229 0e71 03       		.byte	0x3
 6230 0e72 48000000 		.4byte	.LANCHOR0+72
 6231 0e76 09       		.byte	0x9
 6232 0e77 FC       		.byte	0xfc
 6233 0e78 1A       		.byte	0x1a
ARM GAS  C:\Users\YUANFA~1\AppData\Local\Temp\cctOMKNb.s 			page 147


 6234 0e79 9F       		.byte	0x9f
 6235 0e7a 0E020000 		.4byte	.LVL269
 6236 0e7e 14020000 		.4byte	.LVL270
 6237 0e82 0700     		.2byte	0x7
 6238 0e84 71       		.byte	0x71
 6239 0e85 C800     		.sleb128 72
 6240 0e87 09       		.byte	0x9
 6241 0e88 FC       		.byte	0xfc
 6242 0e89 1A       		.byte	0x1a
 6243 0e8a 9F       		.byte	0x9f
 6244 0e8b 14020000 		.4byte	.LVL270
 6245 0e8f 18020000 		.4byte	.LVL271
 6246 0e93 0900     		.2byte	0x9
 6247 0e95 03       		.byte	0x3
 6248 0e96 48000000 		.4byte	.LANCHOR0+72
 6249 0e9a 09       		.byte	0x9
 6250 0e9b FC       		.byte	0xfc
 6251 0e9c 1A       		.byte	0x1a
 6252 0e9d 9F       		.byte	0x9f
 6253 0e9e 18020000 		.4byte	.LVL271
 6254 0ea2 22020000 		.4byte	.LVL272
 6255 0ea6 0700     		.2byte	0x7
 6256 0ea8 72       		.byte	0x72
 6257 0ea9 C800     		.sleb128 72
 6258 0eab 09       		.byte	0x9
 6259 0eac FC       		.byte	0xfc
 6260 0ead 1A       		.byte	0x1a
 6261 0eae 9F       		.byte	0x9f
 6262 0eaf 22020000 		.4byte	.LVL272
 6263 0eb3 2C020000 		.4byte	.LVL273
 6264 0eb7 0900     		.2byte	0x9
 6265 0eb9 03       		.byte	0x3
 6266 0eba 48000000 		.4byte	.LANCHOR0+72
 6267 0ebe 09       		.byte	0x9
 6268 0ebf FC       		.byte	0xfc
 6269 0ec0 1A       		.byte	0x1a
 6270 0ec1 9F       		.byte	0x9f
 6271 0ec2 2C020000 		.4byte	.LVL273
 6272 0ec6 32020000 		.4byte	.LVL275
 6273 0eca 0700     		.2byte	0x7
 6274 0ecc 72       		.byte	0x72
 6275 0ecd C800     		.sleb128 72
 6276 0ecf 09       		.byte	0x9
 6277 0ed0 FC       		.byte	0xfc
 6278 0ed1 1A       		.byte	0x1a
 6279 0ed2 9F       		.byte	0x9f
 6280 0ed3 32020000 		.4byte	.LVL275
 6281 0ed7 3A020000 		.4byte	.LVL276
 6282 0edb 0900     		.2byte	0x9
 6283 0edd 03       		.byte	0x3
 6284 0ede 48000000 		.4byte	.LANCHOR0+72
 6285 0ee2 09       		.byte	0x9
 6286 0ee3 FC       		.byte	0xfc
 6287 0ee4 1A       		.byte	0x1a
 6288 0ee5 9F       		.byte	0x9f
 6289 0ee6 3A020000 		.4byte	.LVL276
 6290 0eea 46020000 		.4byte	.LVL278
ARM GAS  C:\Users\YUANFA~1\AppData\Local\Temp\cctOMKNb.s 			page 148


 6291 0eee 0700     		.2byte	0x7
 6292 0ef0 72       		.byte	0x72
 6293 0ef1 C800     		.sleb128 72
 6294 0ef3 09       		.byte	0x9
 6295 0ef4 FC       		.byte	0xfc
 6296 0ef5 1A       		.byte	0x1a
 6297 0ef6 9F       		.byte	0x9f
 6298 0ef7 46020000 		.4byte	.LVL278
 6299 0efb 4E020000 		.4byte	.LVL279
 6300 0eff 0900     		.2byte	0x9
 6301 0f01 03       		.byte	0x3
 6302 0f02 48000000 		.4byte	.LANCHOR0+72
 6303 0f06 09       		.byte	0x9
 6304 0f07 FC       		.byte	0xfc
 6305 0f08 1A       		.byte	0x1a
 6306 0f09 9F       		.byte	0x9f
 6307 0f0a 4E020000 		.4byte	.LVL279
 6308 0f0e 5E020000 		.4byte	.LVL281
 6309 0f12 0700     		.2byte	0x7
 6310 0f14 71       		.byte	0x71
 6311 0f15 C800     		.sleb128 72
 6312 0f17 09       		.byte	0x9
 6313 0f18 FC       		.byte	0xfc
 6314 0f19 1A       		.byte	0x1a
 6315 0f1a 9F       		.byte	0x9f
 6316 0f1b 5E020000 		.4byte	.LVL281
 6317 0f1f 68020000 		.4byte	.LVL282
 6318 0f23 0700     		.2byte	0x7
 6319 0f25 70       		.byte	0x70
 6320 0f26 C800     		.sleb128 72
 6321 0f28 09       		.byte	0x9
 6322 0f29 FC       		.byte	0xfc
 6323 0f2a 1A       		.byte	0x1a
 6324 0f2b 9F       		.byte	0x9f
 6325 0f2c 68020000 		.4byte	.LVL282
 6326 0f30 6E020000 		.4byte	.LVL284
 6327 0f34 0900     		.2byte	0x9
 6328 0f36 03       		.byte	0x3
 6329 0f37 48000000 		.4byte	.LANCHOR0+72
 6330 0f3b 09       		.byte	0x9
 6331 0f3c FC       		.byte	0xfc
 6332 0f3d 1A       		.byte	0x1a
 6333 0f3e 9F       		.byte	0x9f
 6334 0f3f 6E020000 		.4byte	.LVL284
 6335 0f43 72020000 		.4byte	.LVL286
 6336 0f47 0700     		.2byte	0x7
 6337 0f49 71       		.byte	0x71
 6338 0f4a C800     		.sleb128 72
 6339 0f4c 09       		.byte	0x9
 6340 0f4d FC       		.byte	0xfc
 6341 0f4e 1A       		.byte	0x1a
 6342 0f4f 9F       		.byte	0x9f
 6343 0f50 72020000 		.4byte	.LVL286
 6344 0f54 82020000 		.4byte	.LVL290
 6345 0f58 0900     		.2byte	0x9
 6346 0f5a 03       		.byte	0x3
 6347 0f5b 48000000 		.4byte	.LANCHOR0+72
ARM GAS  C:\Users\YUANFA~1\AppData\Local\Temp\cctOMKNb.s 			page 149


 6348 0f5f 09       		.byte	0x9
 6349 0f60 FC       		.byte	0xfc
 6350 0f61 1A       		.byte	0x1a
 6351 0f62 9F       		.byte	0x9f
 6352 0f63 82020000 		.4byte	.LVL290
 6353 0f67 88020000 		.4byte	.LVL292
 6354 0f6b 0700     		.2byte	0x7
 6355 0f6d 72       		.byte	0x72
 6356 0f6e C800     		.sleb128 72
 6357 0f70 09       		.byte	0x9
 6358 0f71 FC       		.byte	0xfc
 6359 0f72 1A       		.byte	0x1a
 6360 0f73 9F       		.byte	0x9f
 6361 0f74 88020000 		.4byte	.LVL292
 6362 0f78 92020000 		.4byte	.LVL295
 6363 0f7c 0900     		.2byte	0x9
 6364 0f7e 03       		.byte	0x3
 6365 0f7f 48000000 		.4byte	.LANCHOR0+72
 6366 0f83 09       		.byte	0x9
 6367 0f84 FC       		.byte	0xfc
 6368 0f85 1A       		.byte	0x1a
 6369 0f86 9F       		.byte	0x9f
 6370 0f87 92020000 		.4byte	.LVL295
 6371 0f8b D6020000 		.4byte	.LVL296
 6372 0f8f 0700     		.2byte	0x7
 6373 0f91 70       		.byte	0x70
 6374 0f92 C800     		.sleb128 72
 6375 0f94 09       		.byte	0x9
 6376 0f95 FC       		.byte	0xfc
 6377 0f96 1A       		.byte	0x1a
 6378 0f97 9F       		.byte	0x9f
 6379 0f98 D6020000 		.4byte	.LVL296
 6380 0f9c E2020000 		.4byte	.LVL298
 6381 0fa0 0700     		.2byte	0x7
 6382 0fa2 75       		.byte	0x75
 6383 0fa3 C800     		.sleb128 72
 6384 0fa5 09       		.byte	0x9
 6385 0fa6 FC       		.byte	0xfc
 6386 0fa7 1A       		.byte	0x1a
 6387 0fa8 9F       		.byte	0x9f
 6388 0fa9 E2020000 		.4byte	.LVL298
 6389 0fad 02030000 		.4byte	.LVL304
 6390 0fb1 0900     		.2byte	0x9
 6391 0fb3 03       		.byte	0x3
 6392 0fb4 48000000 		.4byte	.LANCHOR0+72
 6393 0fb8 09       		.byte	0x9
 6394 0fb9 FC       		.byte	0xfc
 6395 0fba 1A       		.byte	0x1a
 6396 0fbb 9F       		.byte	0x9f
 6397 0fbc 02030000 		.4byte	.LVL304
 6398 0fc0 0C030000 		.4byte	.LVL306
 6399 0fc4 0700     		.2byte	0x7
 6400 0fc6 72       		.byte	0x72
 6401 0fc7 C800     		.sleb128 72
 6402 0fc9 09       		.byte	0x9
 6403 0fca FC       		.byte	0xfc
 6404 0fcb 1A       		.byte	0x1a
ARM GAS  C:\Users\YUANFA~1\AppData\Local\Temp\cctOMKNb.s 			page 150


 6405 0fcc 9F       		.byte	0x9f
 6406 0fcd 0C030000 		.4byte	.LVL306
 6407 0fd1 14030000 		.4byte	.LVL307
 6408 0fd5 0900     		.2byte	0x9
 6409 0fd7 03       		.byte	0x3
 6410 0fd8 48000000 		.4byte	.LANCHOR0+72
 6411 0fdc 09       		.byte	0x9
 6412 0fdd FC       		.byte	0xfc
 6413 0fde 1A       		.byte	0x1a
 6414 0fdf 9F       		.byte	0x9f
 6415 0fe0 14030000 		.4byte	.LVL307
 6416 0fe4 1F030000 		.4byte	.LVL308-1
 6417 0fe8 0700     		.2byte	0x7
 6418 0fea 72       		.byte	0x72
 6419 0feb C800     		.sleb128 72
 6420 0fed 09       		.byte	0x9
 6421 0fee FC       		.byte	0xfc
 6422 0fef 1A       		.byte	0x1a
 6423 0ff0 9F       		.byte	0x9f
 6424 0ff1 1F030000 		.4byte	.LVL308-1
 6425 0ff5 2A030000 		.4byte	.LVL311
 6426 0ff9 0900     		.2byte	0x9
 6427 0ffb 03       		.byte	0x3
 6428 0ffc 48000000 		.4byte	.LANCHOR0+72
 6429 1000 09       		.byte	0x9
 6430 1001 FC       		.byte	0xfc
 6431 1002 1A       		.byte	0x1a
 6432 1003 9F       		.byte	0x9f
 6433 1004 2A030000 		.4byte	.LVL311
 6434 1008 3A030000 		.4byte	.LVL312
 6435 100c 0700     		.2byte	0x7
 6436 100e 73       		.byte	0x73
 6437 100f C800     		.sleb128 72
 6438 1011 09       		.byte	0x9
 6439 1012 FC       		.byte	0xfc
 6440 1013 1A       		.byte	0x1a
 6441 1014 9F       		.byte	0x9f
 6442 1015 00000000 		.4byte	0
 6443 1019 00000000 		.4byte	0
 6444              	.LLST56:
 6445 101d 64000000 		.4byte	.LVL212
 6446 1021 3A030000 		.4byte	.LVL312
 6447 1025 0600     		.2byte	0x6
 6448 1027 03       		.byte	0x3
 6449 1028 40000000 		.4byte	touchPadBuffer.5283
 6450 102c 9F       		.byte	0x9f
 6451 102d 00000000 		.4byte	0
 6452 1031 00000000 		.4byte	0
 6453              	.LLST57:
 6454 1035 3E000000 		.4byte	.LVL208
 6455 1039 40000000 		.4byte	.LVL209
 6456 103d 0200     		.2byte	0x2
 6457 103f 30       		.byte	0x30
 6458 1040 9F       		.byte	0x9f
 6459 1041 40000000 		.4byte	.LVL209
 6460 1045 72000000 		.4byte	.LVL214
 6461 1049 0100     		.2byte	0x1
ARM GAS  C:\Users\YUANFA~1\AppData\Local\Temp\cctOMKNb.s 			page 151


 6462 104b 52       		.byte	0x52
 6463 104c 72000000 		.4byte	.LVL214
 6464 1050 84000000 		.4byte	.LVL215
 6465 1054 0100     		.2byte	0x1
 6466 1056 51       		.byte	0x51
 6467 1057 84000000 		.4byte	.LVL215
 6468 105b 86000000 		.4byte	.LVL216
 6469 105f 0100     		.2byte	0x1
 6470 1061 52       		.byte	0x52
 6471 1062 86000000 		.4byte	.LVL216
 6472 1066 88000000 		.4byte	.LVL217
 6473 106a 0100     		.2byte	0x1
 6474 106c 54       		.byte	0x54
 6475 106d 88000000 		.4byte	.LVL217
 6476 1071 98000000 		.4byte	.LVL219
 6477 1075 0100     		.2byte	0x1
 6478 1077 51       		.byte	0x51
 6479 1078 98000000 		.4byte	.LVL219
 6480 107c AA000000 		.4byte	.LVL222
 6481 1080 0100     		.2byte	0x1
 6482 1082 54       		.byte	0x54
 6483 1083 AA000000 		.4byte	.LVL222
 6484 1087 B8000000 		.4byte	.LVL223
 6485 108b 0100     		.2byte	0x1
 6486 108d 51       		.byte	0x51
 6487 108e B8000000 		.4byte	.LVL223
 6488 1092 C2000000 		.4byte	.LVL226
 6489 1096 0300     		.2byte	0x3
 6490 1098 74       		.byte	0x74
 6491 1099 7F       		.sleb128 -1
 6492 109a 9F       		.byte	0x9f
 6493 109b C2000000 		.4byte	.LVL226
 6494 109f C4000000 		.4byte	.LVL227
 6495 10a3 0100     		.2byte	0x1
 6496 10a5 51       		.byte	0x51
 6497 10a6 C4000000 		.4byte	.LVL227
 6498 10aa DE000000 		.4byte	.LVL230
 6499 10ae 0300     		.2byte	0x3
 6500 10b0 74       		.byte	0x74
 6501 10b1 7F       		.sleb128 -1
 6502 10b2 9F       		.byte	0x9f
 6503 10b3 DE000000 		.4byte	.LVL230
 6504 10b7 3C010000 		.4byte	.LVL241
 6505 10bb 0100     		.2byte	0x1
 6506 10bd 56       		.byte	0x56
 6507 10be 3C010000 		.4byte	.LVL241
 6508 10c2 5C010000 		.4byte	.LVL246
 6509 10c6 0100     		.2byte	0x1
 6510 10c8 54       		.byte	0x54
 6511 10c9 60010000 		.4byte	.LVL247
 6512 10cd 62010000 		.4byte	.LVL248
 6513 10d1 0100     		.2byte	0x1
 6514 10d3 51       		.byte	0x51
 6515 10d4 62010000 		.4byte	.LVL248
 6516 10d8 7A010000 		.4byte	.LVL250
 6517 10dc 0300     		.2byte	0x3
 6518 10de 74       		.byte	0x74
ARM GAS  C:\Users\YUANFA~1\AppData\Local\Temp\cctOMKNb.s 			page 152


 6519 10df 7F       		.sleb128 -1
 6520 10e0 9F       		.byte	0x9f
 6521 10e1 7A010000 		.4byte	.LVL250
 6522 10e5 7C010000 		.4byte	.LVL251
 6523 10e9 0200     		.2byte	0x2
 6524 10eb 30       		.byte	0x30
 6525 10ec 9F       		.byte	0x9f
 6526 10ed 7C010000 		.4byte	.LVL251
 6527 10f1 CE010000 		.4byte	.LVL260
 6528 10f5 0100     		.2byte	0x1
 6529 10f7 54       		.byte	0x54
 6530 10f8 04030000 		.4byte	.LVL305
 6531 10fc 0C030000 		.4byte	.LVL306
 6532 1100 0100     		.2byte	0x1
 6533 1102 53       		.byte	0x53
 6534 1103 0C030000 		.4byte	.LVL306
 6535 1107 22030000 		.4byte	.LVL309
 6536 110b 0100     		.2byte	0x1
 6537 110d 54       		.byte	0x54
 6538 110e 22030000 		.4byte	.LVL309
 6539 1112 24030000 		.4byte	.LVL310
 6540 1116 0100     		.2byte	0x1
 6541 1118 53       		.byte	0x53
 6542 1119 24030000 		.4byte	.LVL310
 6543 111d 3A030000 		.4byte	.LVL312
 6544 1121 0100     		.2byte	0x1
 6545 1123 54       		.byte	0x54
 6546 1124 00000000 		.4byte	0
 6547 1128 00000000 		.4byte	0
 6548              	.LLST58:
 6549 112c 18000000 		.4byte	.LVL206
 6550 1130 2E020000 		.4byte	.LVL274
 6551 1134 0100     		.2byte	0x1
 6552 1136 57       		.byte	0x57
 6553 1137 00000000 		.4byte	0
 6554 113b 00000000 		.4byte	0
 6555              	.LLST59:
 6556 113f 22000000 		.4byte	.LVL207
 6557 1143 88020000 		.4byte	.LVL292
 6558 1147 0200     		.2byte	0x2
 6559 1149 7D       		.byte	0x7d
 6560 114a 00       		.sleb128 0
 6561 114b 00000000 		.4byte	0
 6562 114f 00000000 		.4byte	0
 6563              	.LLST60:
 6564 1153 CE010000 		.4byte	.LVL260
 6565 1157 14020000 		.4byte	.LVL270
 6566 115b 0100     		.2byte	0x1
 6567 115d 53       		.byte	0x53
 6568 115e 00000000 		.4byte	0
 6569 1162 00000000 		.4byte	0
 6570              	.LLST61:
 6571 1166 2E020000 		.4byte	.LVL274
 6572 116a 32020000 		.4byte	.LVL275
 6573 116e 0200     		.2byte	0x2
 6574 1170 30       		.byte	0x30
 6575 1171 9F       		.byte	0x9f
ARM GAS  C:\Users\YUANFA~1\AppData\Local\Temp\cctOMKNb.s 			page 153


 6576 1172 32020000 		.4byte	.LVL275
 6577 1176 84020000 		.4byte	.LVL291
 6578 117a 0100     		.2byte	0x1
 6579 117c 54       		.byte	0x54
 6580 117d 84020000 		.4byte	.LVL291
 6581 1181 88020000 		.4byte	.LVL292
 6582 1185 0200     		.2byte	0x2
 6583 1187 30       		.byte	0x30
 6584 1188 9F       		.byte	0x9f
 6585 1189 88020000 		.4byte	.LVL292
 6586 118d FE020000 		.4byte	.LVL303
 6587 1191 0100     		.2byte	0x1
 6588 1193 56       		.byte	0x56
 6589 1194 00000000 		.4byte	0
 6590 1198 00000000 		.4byte	0
 6591              	.LLST62:
 6592 119c 44020000 		.4byte	.LVL277
 6593 11a0 5C020000 		.4byte	.LVL280
 6594 11a4 0100     		.2byte	0x1
 6595 11a6 53       		.byte	0x53
 6596 11a7 6E020000 		.4byte	.LVL284
 6597 11ab 76020000 		.4byte	.LVL287
 6598 11af 0100     		.2byte	0x1
 6599 11b1 53       		.byte	0x53
 6600 11b2 8C020000 		.4byte	.LVL293
 6601 11b6 90020000 		.4byte	.LVL294
 6602 11ba 0100     		.2byte	0x1
 6603 11bc 53       		.byte	0x53
 6604 11bd 90020000 		.4byte	.LVL294
 6605 11c1 FA020000 		.4byte	.LVL302
 6606 11c5 0100     		.2byte	0x1
 6607 11c7 54       		.byte	0x54
 6608 11c8 00000000 		.4byte	0
 6609 11cc 00000000 		.4byte	0
 6610              	.LLST63:
 6611 11d0 2E020000 		.4byte	.LVL274
 6612 11d4 FE020000 		.4byte	.LVL303
 6613 11d8 0100     		.2byte	0x1
 6614 11da 57       		.byte	0x57
 6615 11db 00000000 		.4byte	0
 6616 11df 00000000 		.4byte	0
 6617              	.LLST64:
 6618 11e3 00000000 		.4byte	.LVL314
 6619 11e7 06000000 		.4byte	.LVL317
 6620 11eb 0100     		.2byte	0x1
 6621 11ed 50       		.byte	0x50
 6622 11ee 06000000 		.4byte	.LVL317
 6623 11f2 6C000000 		.4byte	.LFE13
 6624 11f6 0400     		.2byte	0x4
 6625 11f8 F3       		.byte	0xf3
 6626 11f9 01       		.uleb128 0x1
 6627 11fa 50       		.byte	0x50
 6628 11fb 9F       		.byte	0x9f
 6629 11fc 00000000 		.4byte	0
 6630 1200 00000000 		.4byte	0
 6631              	.LLST65:
 6632 1204 04000000 		.4byte	.LVL316
ARM GAS  C:\Users\YUANFA~1\AppData\Local\Temp\cctOMKNb.s 			page 154


 6633 1208 0A000000 		.4byte	.LVL318
 6634 120c 0200     		.2byte	0x2
 6635 120e 30       		.byte	0x30
 6636 120f 9F       		.byte	0x9f
 6637 1210 0A000000 		.4byte	.LVL318
 6638 1214 6C000000 		.4byte	.LFE13
 6639 1218 0100     		.2byte	0x1
 6640 121a 53       		.byte	0x53
 6641 121b 00000000 		.4byte	0
 6642 121f 00000000 		.4byte	0
 6643              	.LLST66:
 6644 1223 02000000 		.4byte	.LVL315
 6645 1227 0A000000 		.4byte	.LVL318
 6646 122b 0200     		.2byte	0x2
 6647 122d 30       		.byte	0x30
 6648 122e 9F       		.byte	0x9f
 6649 122f 0A000000 		.4byte	.LVL318
 6650 1233 6C000000 		.4byte	.LFE13
 6651 1237 0100     		.2byte	0x1
 6652 1239 50       		.byte	0x50
 6653 123a 00000000 		.4byte	0
 6654 123e 00000000 		.4byte	0
 6655              	.LLST67:
 6656 1242 04000000 		.4byte	.LVL316
 6657 1246 64000000 		.4byte	.LVL321
 6658 124a 0100     		.2byte	0x1
 6659 124c 54       		.byte	0x54
 6660 124d 00000000 		.4byte	0
 6661 1251 00000000 		.4byte	0
 6662              		.section	.debug_aranges,"",%progbits
 6663 0000 64000000 		.4byte	0x64
 6664 0004 0200     		.2byte	0x2
 6665 0006 00000000 		.4byte	.Ldebug_info0
 6666 000a 04       		.byte	0x4
 6667 000b 00       		.byte	0
 6668 000c 0000     		.2byte	0
 6669 000e 0000     		.2byte	0
 6670 0010 00000000 		.4byte	.LFB4
 6671 0014 4C000000 		.4byte	.LFE4-.LFB4
 6672 0018 00000000 		.4byte	.LFB5
 6673 001c 70000000 		.4byte	.LFE5-.LFB5
 6674 0020 00000000 		.4byte	.LFB8
 6675 0024 38000000 		.4byte	.LFE8-.LFB8
 6676 0028 00000000 		.4byte	.LFB9
 6677 002c 80000000 		.4byte	.LFE9-.LFB9
 6678 0030 00000000 		.4byte	.LFB12
 6679 0034 1E000000 		.4byte	.LFE12-.LFB12
 6680 0038 00000000 		.4byte	.LFB10
 6681 003c A0010000 		.4byte	.LFE10-.LFB10
 6682 0040 00000000 		.4byte	.LFB1
 6683 0044 A0010000 		.4byte	.LFE1-.LFB1
 6684 0048 00000000 		.4byte	.LFB2
 6685 004c A4010000 		.4byte	.LFE2-.LFB2
 6686 0050 00000000 		.4byte	.LFB3
 6687 0054 4C030000 		.4byte	.LFE3-.LFB3
 6688 0058 00000000 		.4byte	.LFB13
 6689 005c 6C000000 		.4byte	.LFE13-.LFB13
ARM GAS  C:\Users\YUANFA~1\AppData\Local\Temp\cctOMKNb.s 			page 155


 6690 0060 00000000 		.4byte	0
 6691 0064 00000000 		.4byte	0
 6692              		.section	.debug_ranges,"",%progbits
 6693              	.Ldebug_ranges0:
 6694 0000 00000000 		.4byte	.LFB4
 6695 0004 4C000000 		.4byte	.LFE4
 6696 0008 00000000 		.4byte	.LFB5
 6697 000c 70000000 		.4byte	.LFE5
 6698 0010 00000000 		.4byte	.LFB8
 6699 0014 38000000 		.4byte	.LFE8
 6700 0018 00000000 		.4byte	.LFB9
 6701 001c 80000000 		.4byte	.LFE9
 6702 0020 00000000 		.4byte	.LFB12
 6703 0024 1E000000 		.4byte	.LFE12
 6704 0028 00000000 		.4byte	.LFB10
 6705 002c A0010000 		.4byte	.LFE10
 6706 0030 00000000 		.4byte	.LFB1
 6707 0034 A0010000 		.4byte	.LFE1
 6708 0038 00000000 		.4byte	.LFB2
 6709 003c A4010000 		.4byte	.LFE2
 6710 0040 00000000 		.4byte	.LFB3
 6711 0044 4C030000 		.4byte	.LFE3
 6712 0048 00000000 		.4byte	.LFB13
 6713 004c 6C000000 		.4byte	.LFE13
 6714 0050 00000000 		.4byte	0
 6715 0054 00000000 		.4byte	0
 6716              		.section	.debug_line,"",%progbits
 6717              	.Ldebug_line0:
 6718 0000 2A040000 		.section	.debug_str,"MS",%progbits,1
 6718      02008500 
 6718      00000201 
 6718      FB0E0D00 
 6718      01010101 
 6719              	.LASF69:
 6720 0000 7074724F 		.ascii	"ptrOldTouches\000"
 6720      6C64546F 
 6720      75636865 
 6720      7300
 6721              	.LASF72:
 6722 000e 66696E67 		.ascii	"fingerOnThreshold\000"
 6722      65724F6E 
 6722      54687265 
 6722      73686F6C 
 6722      6400
 6723              	.LASF100:
 6724 0020 6C617374 		.ascii	"lastTx\000"
 6724      547800
 6725              	.LASF102:
 6726 0027 43617053 		.ascii	"CapSense_DpFindLocalMaxDd\000"
 6726      656E7365 
 6726      5F447046 
 6726      696E644C 
 6726      6F63616C 
 6727              	.LASF8:
 6728 0041 756E7369 		.ascii	"unsigned int\000"
 6728      676E6564 
 6728      20696E74 
ARM GAS  C:\Users\YUANFA~1\AppData\Local\Temp\cctOMKNb.s 			page 156


 6728      00
 6729              	.LASF88:
 6730 004e 76697369 		.ascii	"visited\000"
 6730      74656400 
 6731              	.LASF106:
 6732 0056 77656967 		.ascii	"weightedSumX\000"
 6732      68746564 
 6732      53756D58 
 6732      00
 6733              	.LASF107:
 6734 0063 77656967 		.ascii	"weightedSumY\000"
 6734      68746564 
 6734      53756D59 
 6734      00
 6735              	.LASF127:
 6736 0070 6D656D73 		.ascii	"memset\000"
 6736      657400
 6737              	.LASF115:
 6738 0077 7265706F 		.ascii	"reportedTouchNum\000"
 6738      72746564 
 6738      546F7563 
 6738      684E756D 
 6738      00
 6739              	.LASF110:
 6740 0088 43617053 		.ascii	"CapSense_SortByAge\000"
 6740      656E7365 
 6740      5F536F72 
 6740      74427941 
 6740      676500
 6741              	.LASF83:
 6742 009b 636F6C43 		.ascii	"colCount\000"
 6742      6F756E74 
 6742      00
 6743              	.LASF74:
 6744 00a4 78446973 		.ascii	"xDistance\000"
 6744      74616E63 
 6744      6500
 6745              	.LASF101:
 6746 00ae 70726F63 		.ascii	"proceed\000"
 6746      65656400 
 6747              	.LASF123:
 6748 00b6 43617053 		.ascii	"CapSense_GetLowestId\000"
 6748      656E7365 
 6748      5F476574 
 6748      4C6F7765 
 6748      73744964 
 6749              	.LASF90:
 6750 00cb 636F6C56 		.ascii	"colValue\000"
 6750      616C7565 
 6750      00
 6751              	.LASF63:
 6752 00d4 69697246 		.ascii	"iirFilterCoeff\000"
 6752      696C7465 
 6752      72436F65 
 6752      666600
 6753              	.LASF29:
 6754 00e3 69646163 		.ascii	"idacGainIndex\000"
ARM GAS  C:\Users\YUANFA~1\AppData\Local\Temp\cctOMKNb.s 			page 157


 6754      4761696E 
 6754      496E6465 
 6754      7800
 6755              	.LASF67:
 6756 00f1 6E657749 		.ascii	"newIndex\000"
 6756      6E646578 
 6756      00
 6757              	.LASF14:
 6758 00fa 666C6F61 		.ascii	"float\000"
 6758      7400
 6759              	.LASF120:
 6760 0100 474E5520 		.ascii	"GNU C11 5.4.1 20160609 (release) [ARM/embedded-5-br"
 6760      43313120 
 6760      352E342E 
 6760      31203230 
 6760      31363036 
 6761 0133 616E6368 		.ascii	"anch revision 237715] -mcpu=cortex-m0plus -mthumb -"
 6761      20726576 
 6761      6973696F 
 6761      6E203233 
 6761      37373135 
 6762 0166 67202D4F 		.ascii	"g -Og -ffunction-sections -ffat-lto-objects\000"
 6762      67202D66 
 6762      66756E63 
 6762      74696F6E 
 6762      2D736563 
 6763              	.LASF13:
 6764 0192 696E7433 		.ascii	"int32\000"
 6764      3200
 6765              	.LASF73:
 6766 0198 72657375 		.ascii	"result\000"
 6766      6C7400
 6767              	.LASF7:
 6768 019f 6C6F6E67 		.ascii	"long long unsigned int\000"
 6768      206C6F6E 
 6768      6720756E 
 6768      7369676E 
 6768      65642069 
 6769              	.LASF82:
 6770 01b6 726F7743 		.ascii	"rowCount\000"
 6770      6F756E74 
 6770      00
 6771              	.LASF54:
 6772 01bf 77646774 		.ascii	"wdgtType\000"
 6772      54797065 
 6772      00
 6773              	.LASF94:
 6774 01c8 70747257 		.ascii	"ptrWidgetRam\000"
 6774      69646765 
 6774      7452616D 
 6774      00
 6775              	.LASF76:
 6776 01d5 43617053 		.ascii	"CapSense_FillDistanceMap\000"
 6776      656E7365 
 6776      5F46696C 
 6776      6C446973 
 6776      74616E63 
ARM GAS  C:\Users\YUANFA~1\AppData\Local\Temp\cctOMKNb.s 			page 158


 6777              	.LASF21:
 6778 01ee 43617053 		.ascii	"CapSense_CSX_TOUCHPAD_TOUCH_STRUCT\000"
 6778      656E7365 
 6778      5F435358 
 6778      5F544F55 
 6778      43485041 
 6779              	.LASF41:
 6780 0211 43617053 		.ascii	"CapSense_RAM_SNS_STRUCT\000"
 6780      656E7365 
 6780      5F52414D 
 6780      5F534E53 
 6780      5F535452 
 6781              	.LASF109:
 6782 0229 43617053 		.ascii	"CapSense_TouchDownDebounce\000"
 6782      656E7365 
 6782      5F546F75 
 6782      6368446F 
 6782      776E4465 
 6783              	.LASF103:
 6784 0244 43617053 		.ascii	"CapSense_DpCalcTouchPadCentroid\000"
 6784      656E7365 
 6784      5F447043 
 6784      616C6354 
 6784      6F756368 
 6785              	.LASF96:
 6786 0264 7369676E 		.ascii	"signalThreshold\000"
 6786      616C5468 
 6786      72657368 
 6786      6F6C6400 
 6787              	.LASF26:
 6788 0274 68797374 		.ascii	"hysteresis\000"
 6788      65726573 
 6788      697300
 6789              	.LASF112:
 6790 027f 6E657754 		.ascii	"newTouchNum\000"
 6790      6F756368 
 6790      4E756D00 
 6791              	.LASF64:
 6792 028b 43617053 		.ascii	"CapSense_FLASH_WD_STRUCT\000"
 6792      656E7365 
 6792      5F464C41 
 6792      53485F57 
 6792      445F5354 
 6793              	.LASF28:
 6794 02a4 6C6F7742 		.ascii	"lowBslnRst\000"
 6794      736C6E52 
 6794      737400
 6795              	.LASF53:
 6796 02af 746F7461 		.ascii	"totalNumSns\000"
 6796      6C4E756D 
 6796      536E7300 
 6797              	.LASF70:
 6798 02bb 43617053 		.ascii	"CapSense_TransferTouch\000"
 6798      656E7365 
 6798      5F547261 
 6798      6E736665 
 6798      72546F75 
ARM GAS  C:\Users\YUANFA~1\AppData\Local\Temp\cctOMKNb.s 			page 159


 6799              	.LASF111:
 6800 02d2 74656D70 		.ascii	"tempTouch\000"
 6800      546F7563 
 6800      6800
 6801              	.LASF24:
 6802 02dc 6E6F6973 		.ascii	"noiseTh\000"
 6802      65546800 
 6803              	.LASF16:
 6804 02e4 63686172 		.ascii	"char\000"
 6804      00
 6805              	.LASF75:
 6806 02e9 79446973 		.ascii	"yDistance\000"
 6806      74616E63 
 6806      6500
 6807              	.LASF95:
 6808 02f3 70747253 		.ascii	"ptrSensor\000"
 6808      656E736F 
 6808      7200
 6809              	.LASF122:
 6810 02fd 5C5C4D61 		.ascii	"\\\\Mac\\Home\\Documents\\PSoC Creator\\touch-panel"
 6810      635C486F 
 6810      6D655C44 
 6810      6F63756D 
 6810      656E7473 
 6811 032a 5C434330 		.ascii	"\\CC03\\CC03_CSX\\wk1.cydsn\000"
 6811      335C4343 
 6811      30335F43 
 6811      53585C77 
 6811      6B312E63 
 6812              	.LASF85:
 6813 0343 6D696E73 		.ascii	"mins\000"
 6813      00
 6814              	.LASF10:
 6815 0348 75696E74 		.ascii	"uint16\000"
 6815      313600
 6816              	.LASF12:
 6817 034f 696E7438 		.ascii	"int8\000"
 6817      00
 6818              	.LASF22:
 6819 0354 7265736F 		.ascii	"resolution\000"
 6819      6C757469 
 6819      6F6E00
 6820              	.LASF42:
 6821 035f 72617743 		.ascii	"rawCount\000"
 6821      6F756E74 
 6821      00
 6822              	.LASF20:
 6823 0368 43617053 		.ascii	"CapSense_LOW_BSLN_RST_TYPE\000"
 6823      656E7365 
 6823      5F4C4F57 
 6823      5F42534C 
 6823      4E5F5253 
 6824              	.LASF40:
 6825 0383 69646163 		.ascii	"idacComp\000"
 6825      436F6D70 
 6825      00
 6826              	.LASF6:
ARM GAS  C:\Users\YUANFA~1\AppData\Local\Temp\cctOMKNb.s 			page 160


 6827 038c 6C6F6E67 		.ascii	"long long int\000"
 6827      206C6F6E 
 6827      6720696E 
 6827      7400
 6828              	.LASF55:
 6829 039a 6E756D43 		.ascii	"numCols\000"
 6829      6F6C7300 
 6830              	.LASF27:
 6831 03a2 6F6E4465 		.ascii	"onDebounce\000"
 6831      626F756E 
 6831      636500
 6832              	.LASF43:
 6833 03ad 6465626F 		.ascii	"debounce\000"
 6833      756E6365 
 6833      00
 6834              	.LASF45:
 6835 03b6 746F7563 		.ascii	"touchNum\000"
 6835      684E756D 
 6835      00
 6836              	.LASF58:
 6837 03bf 79526573 		.ascii	"yResolution\000"
 6837      6F6C7574 
 6837      696F6E00 
 6838              	.LASF61:
 6839 03cb 70747232 		.ascii	"ptr2SnsCpArr\000"
 6839      536E7343 
 6839      70417272 
 6839      00
 6840              	.LASF44:
 6841 03d8 43617053 		.ascii	"CapSense_CSX_TOUCHPAD_PEAK_STRUCT\000"
 6841      656E7365 
 6841      5F435358 
 6841      5F544F55 
 6841      43485041 
 6842              	.LASF25:
 6843 03fa 6E4E6F69 		.ascii	"nNoiseTh\000"
 6843      73655468 
 6843      00
 6844              	.LASF33:
 6845 0403 746F7563 		.ascii	"touch\000"
 6845      6800
 6846              	.LASF46:
 6847 0409 43617053 		.ascii	"CapSense_CSX_TOUCHPAD_DATA_STRUCT\000"
 6847      656E7365 
 6847      5F435358 
 6847      5F544F55 
 6847      43485041 
 6848              	.LASF11:
 6849 042b 75696E74 		.ascii	"uint32\000"
 6849      333200
 6850              	.LASF50:
 6851 0432 70747232 		.ascii	"ptr2FltrHistory\000"
 6851      466C7472 
 6851      48697374 
 6851      6F727900 
 6852              	.LASF119:
 6853 0442 6F6C6441 		.ascii	"oldActiveIDs\000"
ARM GAS  C:\Users\YUANFA~1\AppData\Local\Temp\cctOMKNb.s 			page 161


 6853      63746976 
 6853      65494473 
 6853      00
 6854              	.LASF89:
 6855 044f 6D61726B 		.ascii	"markIndices\000"
 6855      496E6469 
 6855      63657300 
 6856              	.LASF81:
 6857 045b 43617053 		.ascii	"CapSense_Hungarian\000"
 6857      656E7365 
 6857      5F48756E 
 6857      67617269 
 6857      616E00
 6858              	.LASF17:
 6859 046e 6C6F6E67 		.ascii	"long double\000"
 6859      20646F75 
 6859      626C6500 
 6860              	.LASF49:
 6861 047a 70747232 		.ascii	"ptr2SnsRam\000"
 6861      536E7352 
 6861      616D00
 6862              	.LASF97:
 6863 0485 63757272 		.ascii	"currDiff\000"
 6863      44696666 
 6863      00
 6864              	.LASF87:
 6865 048e 6C696E6B 		.ascii	"links\000"
 6865      7300
 6866              	.LASF31:
 6867 0494 736E7343 		.ascii	"snsClkSource\000"
 6867      6C6B536F 
 6867      75726365 
 6867      00
 6868              	.LASF60:
 6869 04a1 7943656E 		.ascii	"yCentroidMultiplier\000"
 6869      74726F69 
 6869      644D756C 
 6869      7469706C 
 6869      69657200 
 6870              	.LASF57:
 6871 04b5 78526573 		.ascii	"xResolution\000"
 6871      6F6C7574 
 6871      696F6E00 
 6872              	.LASF2:
 6873 04c1 73686F72 		.ascii	"short int\000"
 6873      7420696E 
 6873      7400
 6874              	.LASF78:
 6875 04cb 43617053 		.ascii	"CapSense_CopyTouchRecord\000"
 6875      656E7365 
 6875      5F436F70 
 6875      79546F75 
 6875      63685265 
 6876              	.LASF4:
 6877 04e4 6C6F6E67 		.ascii	"long int\000"
 6877      20696E74 
 6877      00
ARM GAS  C:\Users\YUANFA~1\AppData\Local\Temp\cctOMKNb.s 			page 162


 6878              	.LASF105:
 6879 04ed 63656E74 		.ascii	"centroid\000"
 6879      726F6964 
 6879      00
 6880              	.LASF91:
 6881 04f6 6D61726B 		.ascii	"markedI\000"
 6881      65644900 
 6882              	.LASF92:
 6883 04fe 6D61726B 		.ascii	"markedJ\000"
 6883      65644A00 
 6884              	.LASF38:
 6885 0506 64696666 		.ascii	"diff\000"
 6885      00
 6886              	.LASF117:
 6887 050b 7074724E 		.ascii	"ptrNewTouches\000"
 6887      6577546F 
 6887      75636865 
 6887      7300
 6888              	.LASF98:
 6889 0519 736E7353 		.ascii	"snsShift\000"
 6889      68696674 
 6889      00
 6890              	.LASF80:
 6891 0522 736F7572 		.ascii	"source\000"
 6891      636500
 6892              	.LASF104:
 6893 0529 6E756D62 		.ascii	"number\000"
 6893      657200
 6894              	.LASF124:
 6895 0530 69644D61 		.ascii	"idMask\000"
 6895      736B00
 6896              	.LASF121:
 6897 0537 47656E65 		.ascii	"Generated_Source\\PSoC4\\CapSense_Centroid_LL.c\000"
 6897      72617465 
 6897      645F536F 
 6897      75726365 
 6897      5C50536F 
 6898              	.LASF71:
 6899 0565 43617053 		.ascii	"CapSense_NewTouch\000"
 6899      656E7365 
 6899      5F4E6577 
 6899      546F7563 
 6899      6800
 6900              	.LASF34:
 6901 0577 43617053 		.ascii	"CapSense_RAM_WD_CSX_TOUCHPAD_STRUCT\000"
 6901      656E7365 
 6901      5F52414D 
 6901      5F57445F 
 6901      4353585F 
 6902              	.LASF126:
 6903 059b 43617053 		.ascii	"CapSense_DpFilterTouchRecord\000"
 6903      656E7365 
 6903      5F447046 
 6903      696C7465 
 6903      72546F75 
 6904              	.LASF32:
 6905 05b8 76656C6F 		.ascii	"velocity\000"
ARM GAS  C:\Users\YUANFA~1\AppData\Local\Temp\cctOMKNb.s 			page 163


 6905      63697479 
 6905      00
 6906              	.LASF18:
 6907 05c1 73697A65 		.ascii	"sizetype\000"
 6907      74797065 
 6907      00
 6908              	.LASF5:
 6909 05ca 6C6F6E67 		.ascii	"long unsigned int\000"
 6909      20756E73 
 6909      69676E65 
 6909      6420696E 
 6909      7400
 6910              	.LASF51:
 6911 05dc 70747232 		.ascii	"ptr2DebounceArr\000"
 6911      4465626F 
 6911      756E6365 
 6911      41727200 
 6912              	.LASF59:
 6913 05ec 7843656E 		.ascii	"xCentroidMultiplier\000"
 6913      74726F69 
 6913      644D756C 
 6913      7469706C 
 6913      69657200 
 6914              	.LASF23:
 6915 0600 66696E67 		.ascii	"fingerTh\000"
 6915      65725468 
 6915      00
 6916              	.LASF37:
 6917 0609 62736C6E 		.ascii	"bslnExt\000"
 6917      45787400 
 6918              	.LASF125:
 6919 0611 43617053 		.ascii	"CapSense_CalcDistance\000"
 6919      656E7365 
 6919      5F43616C 
 6919      63446973 
 6919      74616E63 
 6920              	.LASF65:
 6921 0627 43617053 		.ascii	"CapSense_CSX_TOUCHPAD_DISTANCE_MAP\000"
 6921      656E7365 
 6921      5F435358 
 6921      5F544F55 
 6921      43485041 
 6922              	.LASF1:
 6923 064a 756E7369 		.ascii	"unsigned char\000"
 6923      676E6564 
 6923      20636861 
 6923      7200
 6924              	.LASF84:
 6925 0658 66696E67 		.ascii	"fingerPosIndex\000"
 6925      6572506F 
 6925      73496E64 
 6925      657800
 6926              	.LASF93:
 6927 0667 70747246 		.ascii	"ptrFlashWdgt\000"
 6927      6C617368 
 6927      57646774 
 6927      00
ARM GAS  C:\Users\YUANFA~1\AppData\Local\Temp\cctOMKNb.s 			page 164


 6928              	.LASF52:
 6929 0674 73746174 		.ascii	"staticConfig\000"
 6929      6963436F 
 6929      6E666967 
 6929      00
 6930              	.LASF66:
 6931 0681 746F7563 		.ascii	"touchId\000"
 6931      68496400 
 6932              	.LASF48:
 6933 0689 70747232 		.ascii	"ptr2WdgtRam\000"
 6933      57646774 
 6933      52616D00 
 6934              	.LASF19:
 6935 0695 43617053 		.ascii	"CapSense_THRESHOLD_TYPE\000"
 6935      656E7365 
 6935      5F544852 
 6935      4553484F 
 6935      4C445F54 
 6936              	.LASF108:
 6937 06ad 746F7461 		.ascii	"totalSum\000"
 6937      6C53756D 
 6937      00
 6938              	.LASF56:
 6939 06b6 6E756D52 		.ascii	"numRows\000"
 6939      6F777300 
 6940              	.LASF116:
 6941 06be 6E657754 		.ascii	"newTouches\000"
 6941      6F756368 
 6941      657300
 6942              	.LASF36:
 6943 06c9 62736C6E 		.ascii	"bslnInv\000"
 6943      496E7600 
 6944              	.LASF30:
 6945 06d1 736E7343 		.ascii	"snsClk\000"
 6945      6C6B00
 6946              	.LASF114:
 6947 06d8 746F7563 		.ascii	"touchPadBuffer\000"
 6947      68506164 
 6947      42756666 
 6947      657200
 6948              	.LASF79:
 6949 06e7 64657374 		.ascii	"destination\000"
 6949      696E6174 
 6949      696F6E00 
 6950              	.LASF0:
 6951 06f3 7369676E 		.ascii	"signed char\000"
 6951      65642063 
 6951      68617200 
 6952              	.LASF86:
 6953 06ff 64656C74 		.ascii	"delta\000"
 6953      6100
 6954              	.LASF35:
 6955 0705 62736C6E 		.ascii	"bsln\000"
 6955      00
 6956              	.LASF113:
 6957 070a 43617053 		.ascii	"CapSense_DpTouchTracking\000"
 6957      656E7365 
ARM GAS  C:\Users\YUANFA~1\AppData\Local\Temp\cctOMKNb.s 			page 165


 6957      5F447054 
 6957      6F756368 
 6957      54726163 
 6958              	.LASF3:
 6959 0723 73686F72 		.ascii	"short unsigned int\000"
 6959      7420756E 
 6959      7369676E 
 6959      65642069 
 6959      6E7400
 6960              	.LASF47:
 6961 0736 70747232 		.ascii	"ptr2SnsFlash\000"
 6961      536E7346 
 6961      6C617368 
 6961      00
 6962              	.LASF77:
 6963 0743 64697374 		.ascii	"distanceMap\000"
 6963      616E6365 
 6963      4D617000 
 6964              	.LASF68:
 6965 074f 6F6C6449 		.ascii	"oldIndex\000"
 6965      6E646578 
 6965      00
 6966              	.LASF9:
 6967 0758 75696E74 		.ascii	"uint8\000"
 6967      3800
 6968              	.LASF15:
 6969 075e 646F7562 		.ascii	"double\000"
 6969      6C6500
 6970              	.LASF39:
 6971 0765 6E656742 		.ascii	"negBslnRstCnt\000"
 6971      736C6E52 
 6971      7374436E 
 6971      7400
 6972              	.LASF62:
 6973 0773 70747232 		.ascii	"ptr2CsxTouchpad\000"
 6973      43737854 
 6973      6F756368 
 6973      70616400 
 6974              	.LASF99:
 6975 0783 6C617374 		.ascii	"lastRx\000"
 6975      527800
 6976              	.LASF118:
 6977 078a 6E657741 		.ascii	"newActiveIDs\000"
 6977      63746976 
 6977      65494473 
 6977      00
 6978              		.ident	"GCC: (GNU Tools for ARM Embedded Processors) 5.4.1 20160609 (release) [ARM/embedded-5-bran
