ARM GAS  C:\Users\YUANFA~1\AppData\Local\Temp\ccnzsvc2.s 			page 1


   1              		.syntax unified
   2              		.cpu cortex-m0plus
   3              		.fpu softvfp
   4              		.eabi_attribute 20, 1
   5              		.eabi_attribute 21, 1
   6              		.eabi_attribute 23, 3
   7              		.eabi_attribute 24, 1
   8              		.eabi_attribute 25, 1
   9              		.eabi_attribute 26, 1
  10              		.eabi_attribute 30, 1
  11              		.eabi_attribute 34, 0
  12              		.eabi_attribute 18, 4
  13              		.thumb
  14              		.syntax unified
  15              		.file	"CapSense_SelfTest.c"
  16              		.text
  17              	.Ltext0:
  18              		.cfi_sections	.debug_frame
  19              		.section	.text.CapSense_DsCalculateCrc16,"ax",%progbits
  20              		.align	2
  21              		.code	16
  22              		.thumb_func
  23              		.type	CapSense_DsCalculateCrc16, %function
  24              	CapSense_DsCalculateCrc16:
  25              	.LFB9:
  26              		.file 1 "Generated_Source\\PSoC4\\CapSense_SelfTest.c"
   1:Generated_Source\PSoC4/CapSense_SelfTest.c **** /***************************************************************************//**
   2:Generated_Source\PSoC4/CapSense_SelfTest.c **** * \file CapSense_SelfTest.c
   3:Generated_Source\PSoC4/CapSense_SelfTest.c **** * \version 7.0
   4:Generated_Source\PSoC4/CapSense_SelfTest.c **** *
   5:Generated_Source\PSoC4/CapSense_SelfTest.c **** * \brief
   6:Generated_Source\PSoC4/CapSense_SelfTest.c **** *   This file provides the source code for the Built-In Self-Test library.
   7:Generated_Source\PSoC4/CapSense_SelfTest.c **** *
   8:Generated_Source\PSoC4/CapSense_SelfTest.c **** * \see CapSense v7.0 Datasheet
   9:Generated_Source\PSoC4/CapSense_SelfTest.c **** *
  10:Generated_Source\PSoC4/CapSense_SelfTest.c **** *//*****************************************************************************
  11:Generated_Source\PSoC4/CapSense_SelfTest.c **** * Copyright (2016-2019), Cypress Semiconductor Corporation.
  12:Generated_Source\PSoC4/CapSense_SelfTest.c **** ********************************************************************************
  13:Generated_Source\PSoC4/CapSense_SelfTest.c **** * This software is owned by Cypress Semiconductor Corporation (Cypress) and is
  14:Generated_Source\PSoC4/CapSense_SelfTest.c **** * protected by and subject to worldwide patent protection (United States and
  15:Generated_Source\PSoC4/CapSense_SelfTest.c **** * foreign), United States copyright laws and international treaty provisions.
  16:Generated_Source\PSoC4/CapSense_SelfTest.c **** * Cypress hereby grants to licensee a personal, non-exclusive, non-transferable
  17:Generated_Source\PSoC4/CapSense_SelfTest.c **** * license to copy, use, modify, create derivative works of, and compile the
  18:Generated_Source\PSoC4/CapSense_SelfTest.c **** * Cypress Source Code and derivative works for the sole purpose of creating
  19:Generated_Source\PSoC4/CapSense_SelfTest.c **** * custom software in support of licensee product to be used only in conjunction
  20:Generated_Source\PSoC4/CapSense_SelfTest.c **** * with a Cypress integrated circuit as specified in the applicable agreement.
  21:Generated_Source\PSoC4/CapSense_SelfTest.c **** * Any reproduction, modification, translation, compilation, or representation of
  22:Generated_Source\PSoC4/CapSense_SelfTest.c **** * this software except as specified above is prohibited without the express
  23:Generated_Source\PSoC4/CapSense_SelfTest.c **** * written permission of Cypress.
  24:Generated_Source\PSoC4/CapSense_SelfTest.c **** *
  25:Generated_Source\PSoC4/CapSense_SelfTest.c **** * Disclaimer: CYPRESS MAKES NO WARRANTY OF ANY KIND, EXPRESS OR IMPLIED, WITH
  26:Generated_Source\PSoC4/CapSense_SelfTest.c **** * REGARD TO THIS MATERIAL, INCLUDING, BUT NOT LIMITED TO, THE IMPLIED
  27:Generated_Source\PSoC4/CapSense_SelfTest.c **** * WARRANTIES OF MERCHANTABILITY AND FITNESS FOR A PARTICULAR PURPOSE.
  28:Generated_Source\PSoC4/CapSense_SelfTest.c **** * Cypress reserves the right to make changes without further notice to the
  29:Generated_Source\PSoC4/CapSense_SelfTest.c **** * materials described herein. Cypress does not assume any liability arising out
  30:Generated_Source\PSoC4/CapSense_SelfTest.c **** * of the application or use of any product or circuit described herein. Cypress
  31:Generated_Source\PSoC4/CapSense_SelfTest.c **** * does not authorize its products for use as critical components in life-support
ARM GAS  C:\Users\YUANFA~1\AppData\Local\Temp\ccnzsvc2.s 			page 2


  32:Generated_Source\PSoC4/CapSense_SelfTest.c **** * systems where a malfunction or failure may reasonably be expected to result in
  33:Generated_Source\PSoC4/CapSense_SelfTest.c **** * significant injury to the user. The inclusion of Cypress' product in a life-
  34:Generated_Source\PSoC4/CapSense_SelfTest.c **** * support systems application implies that the manufacturer assumes all risk of
  35:Generated_Source\PSoC4/CapSense_SelfTest.c **** * such use and in doing so indemnifies Cypress against all charges. Use may be
  36:Generated_Source\PSoC4/CapSense_SelfTest.c **** * limited by and subject to the applicable Cypress software license agreement.
  37:Generated_Source\PSoC4/CapSense_SelfTest.c **** *******************************************************************************/
  38:Generated_Source\PSoC4/CapSense_SelfTest.c **** 
  39:Generated_Source\PSoC4/CapSense_SelfTest.c **** #include "cytypes.h"
  40:Generated_Source\PSoC4/CapSense_SelfTest.c **** #include "CyLib.h"
  41:Generated_Source\PSoC4/CapSense_SelfTest.c **** #include "CapSense_Configuration.h"
  42:Generated_Source\PSoC4/CapSense_SelfTest.c **** #include "CapSense_Structure.h"
  43:Generated_Source\PSoC4/CapSense_SelfTest.c **** #include "CapSense_Sensing.h"
  44:Generated_Source\PSoC4/CapSense_SelfTest.c **** #include "CapSense_SelfTest.h"
  45:Generated_Source\PSoC4/CapSense_SelfTest.c **** 
  46:Generated_Source\PSoC4/CapSense_SelfTest.c **** /**************************************************************************************************
  47:Generated_Source\PSoC4/CapSense_SelfTest.c **** * Local definition
  48:Generated_Source\PSoC4/CapSense_SelfTest.c **** ***************************************************************************************************
  49:Generated_Source\PSoC4/CapSense_SelfTest.c **** #define CapSense_TST_CRC_GROUP_EN                       (CapSense_SELF_TEST_EN && \
  50:Generated_Source\PSoC4/CapSense_SelfTest.c ****                                                                 (CapSense_TST_GLOBAL_CRC_EN || \
  51:Generated_Source\PSoC4/CapSense_SelfTest.c ****                                                                  CapSense_TST_WDGT_CRC_EN))
  52:Generated_Source\PSoC4/CapSense_SelfTest.c **** 
  53:Generated_Source\PSoC4/CapSense_SelfTest.c **** #define CapSense_TST_BASELINE_GROUP_EN                  (CapSense_SELF_TEST_EN && \
  54:Generated_Source\PSoC4/CapSense_SelfTest.c ****                                                                 (CapSense_TST_BSLN_DUPLICATION_EN |
  55:Generated_Source\PSoC4/CapSense_SelfTest.c ****                                                                  CapSense_TST_BSLN_RAW_OUT_RANGE_EN
  56:Generated_Source\PSoC4/CapSense_SelfTest.c **** 
  57:Generated_Source\PSoC4/CapSense_SelfTest.c **** #define CapSense_TST_SHORT_GROUP_EN                     (CapSense_SELF_TEST_EN && \
  58:Generated_Source\PSoC4/CapSense_SelfTest.c ****                                                                 (CapSense_TST_SNS_SHORT_EN))
  59:Generated_Source\PSoC4/CapSense_SelfTest.c **** 
  60:Generated_Source\PSoC4/CapSense_SelfTest.c **** #define CapSense_TST_MEASUREMENT_GROUP_EN               (CapSense_SELF_TEST_EN && \
  61:Generated_Source\PSoC4/CapSense_SelfTest.c ****                                                                 (CapSense_TST_SNS_CAP_EN || \
  62:Generated_Source\PSoC4/CapSense_SelfTest.c ****                                                                  CapSense_TST_SH_CAP_EN ||\
  63:Generated_Source\PSoC4/CapSense_SelfTest.c ****                                                                  CapSense_TST_VDDA_EN ||\
  64:Generated_Source\PSoC4/CapSense_SelfTest.c ****                                                                  CapSense_TST_EXTERNAL_CAP_EN))
  65:Generated_Source\PSoC4/CapSense_SelfTest.c **** 
  66:Generated_Source\PSoC4/CapSense_SelfTest.c **** #define CapSense_TST_HW_GROUP_EN                        (CapSense_TST_SHORT_GROUP_EN ||\
  67:Generated_Source\PSoC4/CapSense_SelfTest.c ****                                                                  CapSense_TST_MEASUREMENT_GROUP_EN)
  68:Generated_Source\PSoC4/CapSense_SelfTest.c **** 
  69:Generated_Source\PSoC4/CapSense_SelfTest.c **** 
  70:Generated_Source\PSoC4/CapSense_SelfTest.c **** 
  71:Generated_Source\PSoC4/CapSense_SelfTest.c **** #define CapSense_TST_SW_WATCHDOG_CYCLES_NUM             (0x0000FFFFLu)
  72:Generated_Source\PSoC4/CapSense_SelfTest.c **** #define CapSense_MAX_16_BITS                            (65535Lu)
  73:Generated_Source\PSoC4/CapSense_SelfTest.c **** 
  74:Generated_Source\PSoC4/CapSense_SelfTest.c **** /**************************************************************************************************
  75:Generated_Source\PSoC4/CapSense_SelfTest.c **** * Definition of IO register modes
  76:Generated_Source\PSoC4/CapSense_SelfTest.c **** ***************************************************************************************************
  77:Generated_Source\PSoC4/CapSense_SelfTest.c **** 
  78:Generated_Source\PSoC4/CapSense_SelfTest.c **** /* Port Select HSIOM Register */
  79:Generated_Source\PSoC4/CapSense_SelfTest.c **** #define CapSense_TST_HSIOM_GPIO                         (0Lu)
  80:Generated_Source\PSoC4/CapSense_SelfTest.c **** #define CapSense_TST_HSIOM_CSD_SENSE                    (4Lu)
  81:Generated_Source\PSoC4/CapSense_SelfTest.c **** #define CapSense_TST_HSIOM_CSD_SHIELD                   (5Lu)
  82:Generated_Source\PSoC4/CapSense_SelfTest.c **** #define CapSense_TST_HSIOM_AMUXA                        (6Lu)
  83:Generated_Source\PSoC4/CapSense_SelfTest.c **** #define CapSense_TST_HSIOM_AMUXB                        (7Lu)
  84:Generated_Source\PSoC4/CapSense_SelfTest.c **** 
  85:Generated_Source\PSoC4/CapSense_SelfTest.c **** /* Port Configuration Register */
  86:Generated_Source\PSoC4/CapSense_SelfTest.c **** #define CapSense_TST_PC_HIGHZA                          (0Lu)
  87:Generated_Source\PSoC4/CapSense_SelfTest.c **** #define CapSense_TST_PC_PULLUP                          (2Lu)
  88:Generated_Source\PSoC4/CapSense_SelfTest.c **** #define CapSense_TST_PC_PULLDOWN                        (3Lu)
ARM GAS  C:\Users\YUANFA~1\AppData\Local\Temp\ccnzsvc2.s 			page 3


  89:Generated_Source\PSoC4/CapSense_SelfTest.c **** #define CapSense_TST_PC_STRONG                          (6Lu)
  90:Generated_Source\PSoC4/CapSense_SelfTest.c **** 
  91:Generated_Source\PSoC4/CapSense_SelfTest.c **** /* Port Data Register */
  92:Generated_Source\PSoC4/CapSense_SelfTest.c **** #define CapSense_TST_DR_PIN2GND                         (0Lu)
  93:Generated_Source\PSoC4/CapSense_SelfTest.c **** #define CapSense_TST_DR_PIN2VDD                         (1Lu)
  94:Generated_Source\PSoC4/CapSense_SelfTest.c **** 
  95:Generated_Source\PSoC4/CapSense_SelfTest.c **** 
  96:Generated_Source\PSoC4/CapSense_SelfTest.c **** /***************************************************************************//**
  97:Generated_Source\PSoC4/CapSense_SelfTest.c **** * \brief Defines Self-test HW Configuration
  98:Generated_Source\PSoC4/CapSense_SelfTest.c **** *
  99:Generated_Source\PSoC4/CapSense_SelfTest.c **** * \detail
 100:Generated_Source\PSoC4/CapSense_SelfTest.c **** * Defines the HW configuration depended on the test type. It includes the
 101:Generated_Source\PSoC4/CapSense_SelfTest.c **** * HW CSD block configuration, clock configuration, IDAC configuration and
 102:Generated_Source\PSoC4/CapSense_SelfTest.c **** * all electrode configuration.
 103:Generated_Source\PSoC4/CapSense_SelfTest.c **** *
 104:Generated_Source\PSoC4/CapSense_SelfTest.c **** *******************************************************************************/
 105:Generated_Source\PSoC4/CapSense_SelfTest.c **** typedef enum
 106:Generated_Source\PSoC4/CapSense_SelfTest.c **** {
 107:Generated_Source\PSoC4/CapSense_SelfTest.c ****     CapSense_BIST_HW_UNDEFINED_E        = 0x00u,
 108:Generated_Source\PSoC4/CapSense_SelfTest.c ****     CapSense_BIST_HW_SNS_SHORT_E        = 0x01u,
 109:Generated_Source\PSoC4/CapSense_SelfTest.c ****     CapSense_BIST_HW_SNS_CAP_E          = 0x03u,
 110:Generated_Source\PSoC4/CapSense_SelfTest.c ****     CapSense_BIST_HW_SH_CAP_E           = 0x05u,
 111:Generated_Source\PSoC4/CapSense_SelfTest.c ****     CapSense_BIST_HW_EXT_CAP_E          = 0x06u,
 112:Generated_Source\PSoC4/CapSense_SelfTest.c ****     CapSense_BIST_HW_VDDA_E             = 0x07u
 113:Generated_Source\PSoC4/CapSense_SelfTest.c **** } CapSense_BIST_HW_CONFIG_ENUM;
 114:Generated_Source\PSoC4/CapSense_SelfTest.c **** 
 115:Generated_Source\PSoC4/CapSense_SelfTest.c **** 
 116:Generated_Source\PSoC4/CapSense_SelfTest.c **** /***************************************************************************//**
 117:Generated_Source\PSoC4/CapSense_SelfTest.c **** * \brief Defines Self-test IO Configuration
 118:Generated_Source\PSoC4/CapSense_SelfTest.c **** *
 119:Generated_Source\PSoC4/CapSense_SelfTest.c **** * \detail
 120:Generated_Source\PSoC4/CapSense_SelfTest.c **** * Defines the IO configuration depends on the test type.
 121:Generated_Source\PSoC4/CapSense_SelfTest.c **** *
 122:Generated_Source\PSoC4/CapSense_SelfTest.c **** *******************************************************************************/
 123:Generated_Source\PSoC4/CapSense_SelfTest.c **** typedef enum
 124:Generated_Source\PSoC4/CapSense_SelfTest.c **** {
 125:Generated_Source\PSoC4/CapSense_SelfTest.c ****     /*
 126:Generated_Source\PSoC4/CapSense_SelfTest.c ****     * The undefined state.
 127:Generated_Source\PSoC4/CapSense_SelfTest.c ****     */
 128:Generated_Source\PSoC4/CapSense_SelfTest.c ****     CapSense_BIST_IO_UNDEFINED_E        = 0x00u,
 129:Generated_Source\PSoC4/CapSense_SelfTest.c ****     /*
 130:Generated_Source\PSoC4/CapSense_SelfTest.c ****     * The drive mode of inactive sensors is set to Strong.
 131:Generated_Source\PSoC4/CapSense_SelfTest.c ****     */
 132:Generated_Source\PSoC4/CapSense_SelfTest.c ****     CapSense_BIST_IO_STRONG_E           = 0x01u,
 133:Generated_Source\PSoC4/CapSense_SelfTest.c ****     /*
 134:Generated_Source\PSoC4/CapSense_SelfTest.c ****     * The drive mode of inactive sensors is set to High-Z.
 135:Generated_Source\PSoC4/CapSense_SelfTest.c ****     */
 136:Generated_Source\PSoC4/CapSense_SelfTest.c ****     CapSense_BIST_IO_HIGHZA_E           = 0x02u,
 137:Generated_Source\PSoC4/CapSense_SelfTest.c **** 
 138:Generated_Source\PSoC4/CapSense_SelfTest.c ****     /*
 139:Generated_Source\PSoC4/CapSense_SelfTest.c ****     * The drive mode of inactive sensors is set to High-Z.
 140:Generated_Source\PSoC4/CapSense_SelfTest.c ****     * The HSIOM of inactive sensors is set to CSD sense
 141:Generated_Source\PSoC4/CapSense_SelfTest.c ****     * connection.
 142:Generated_Source\PSoC4/CapSense_SelfTest.c ****     */
 143:Generated_Source\PSoC4/CapSense_SelfTest.c ****     CapSense_BIST_IO_SENSE_E           = 0x03u,
 144:Generated_Source\PSoC4/CapSense_SelfTest.c **** 
 145:Generated_Source\PSoC4/CapSense_SelfTest.c ****     /*
ARM GAS  C:\Users\YUANFA~1\AppData\Local\Temp\ccnzsvc2.s 			page 4


 146:Generated_Source\PSoC4/CapSense_SelfTest.c ****     * The drive mode of inactive sensors is set to High-Z.
 147:Generated_Source\PSoC4/CapSense_SelfTest.c ****     * The HSIOM of inactive sensors is set to CSD shield
 148:Generated_Source\PSoC4/CapSense_SelfTest.c ****     * connection.
 149:Generated_Source\PSoC4/CapSense_SelfTest.c ****     */
 150:Generated_Source\PSoC4/CapSense_SelfTest.c ****     CapSense_BIST_IO_SHIELD_E           = 0x04u,
 151:Generated_Source\PSoC4/CapSense_SelfTest.c ****     /*
 152:Generated_Source\PSoC4/CapSense_SelfTest.c ****     * The default state (all pins disconnected from analog busses)
 153:Generated_Source\PSoC4/CapSense_SelfTest.c ****     */
 154:Generated_Source\PSoC4/CapSense_SelfTest.c ****     CapSense_BIST_IO_DEFAULT_E          = 0x05u,
 155:Generated_Source\PSoC4/CapSense_SelfTest.c **** } CapSense_BIST_IO_CONFIG_ENUM;
 156:Generated_Source\PSoC4/CapSense_SelfTest.c **** 
 157:Generated_Source\PSoC4/CapSense_SelfTest.c **** 
 158:Generated_Source\PSoC4/CapSense_SelfTest.c **** /**************************************************************************************************
 159:Generated_Source\PSoC4/CapSense_SelfTest.c **** * Local variables
 160:Generated_Source\PSoC4/CapSense_SelfTest.c **** ***************************************************************************************************
 161:Generated_Source\PSoC4/CapSense_SelfTest.c **** #if (CapSense_ENABLE == CapSense_TST_HW_GROUP_EN)
 162:Generated_Source\PSoC4/CapSense_SelfTest.c ****     static CapSense_BIST_HW_CONFIG_ENUM CapSense_bistHwConfig = CapSense_BIST_HW_UNDEFINED_E;
 163:Generated_Source\PSoC4/CapSense_SelfTest.c ****     static CapSense_BIST_IO_CONFIG_ENUM CapSense_bistCurrentISC = CapSense_BIST_IO_UNDEFINED_E;
 164:Generated_Source\PSoC4/CapSense_SelfTest.c **** #endif /* (CapSense_ENABLE == CapSense_TST_HW_GROUP_EN) */
 165:Generated_Source\PSoC4/CapSense_SelfTest.c **** 
 166:Generated_Source\PSoC4/CapSense_SelfTest.c **** #if (CapSense_ENABLE == CapSense_TST_MEASUREMENT_GROUP_EN)
 167:Generated_Source\PSoC4/CapSense_SelfTest.c ****     static volatile uint16 CapSense_bistRawcount;
 168:Generated_Source\PSoC4/CapSense_SelfTest.c ****     static volatile uint32 CapSense_bistConfigCsd = CapSense_BIST_CSD_CONFIG;
 169:Generated_Source\PSoC4/CapSense_SelfTest.c ****     CapSense_TST_CP_CAP_IDAC_TABLE_STRUCT const CapSense_BistIdacTable[] = CapSense_TST_CP_CAP_IDAC
 170:Generated_Source\PSoC4/CapSense_SelfTest.c **** 
 171:Generated_Source\PSoC4/CapSense_SelfTest.c ****     #if (CapSense_ENABLE != CapSense_CSDV2)
 172:Generated_Source\PSoC4/CapSense_SelfTest.c ****         static volatile uint32 CapSense_bistCounterResolution = CapSense_BIST_SCAN_DURATION;
 173:Generated_Source\PSoC4/CapSense_SelfTest.c ****     #endif /* (CapSense_ENABLE == CapSense_CSDV2) */
 174:Generated_Source\PSoC4/CapSense_SelfTest.c **** #endif /* (CapSense_ENABLE == CapSense_TST_MEASUREMENT_GROUP_EN) */
 175:Generated_Source\PSoC4/CapSense_SelfTest.c **** 
 176:Generated_Source\PSoC4/CapSense_SelfTest.c **** 
 177:Generated_Source\PSoC4/CapSense_SelfTest.c **** /**************************************************************************************************
 178:Generated_Source\PSoC4/CapSense_SelfTest.c **** * Static function prototypes
 179:Generated_Source\PSoC4/CapSense_SelfTest.c **** ***************************************************************************************************
 180:Generated_Source\PSoC4/CapSense_SelfTest.c **** 
 181:Generated_Source\PSoC4/CapSense_SelfTest.c **** /**
 182:Generated_Source\PSoC4/CapSense_SelfTest.c **** 
 183:Generated_Source\PSoC4/CapSense_SelfTest.c **** * \cond SECTION_C_INTERNAL
 184:Generated_Source\PSoC4/CapSense_SelfTest.c **** * \addtogroup group_c_internal
 185:Generated_Source\PSoC4/CapSense_SelfTest.c **** * \{
 186:Generated_Source\PSoC4/CapSense_SelfTest.c **** */
 187:Generated_Source\PSoC4/CapSense_SelfTest.c **** 
 188:Generated_Source\PSoC4/CapSense_SelfTest.c **** /* CRC group function prototypes */
 189:Generated_Source\PSoC4/CapSense_SelfTest.c **** #if (CapSense_ENABLE == CapSense_TST_WDGT_CRC_EN)
 190:Generated_Source\PSoC4/CapSense_SelfTest.c ****     static uint32 CapSense_CheckAllWidgetCRC(void);
 191:Generated_Source\PSoC4/CapSense_SelfTest.c **** #endif
 192:Generated_Source\PSoC4/CapSense_SelfTest.c **** 
 193:Generated_Source\PSoC4/CapSense_SelfTest.c **** #if (CapSense_ENABLE == CapSense_TST_CRC_GROUP_EN)
 194:Generated_Source\PSoC4/CapSense_SelfTest.c ****     static uint16 CapSense_DsCalculateCrc16(uint8 *ptrData, uint32 len);
 195:Generated_Source\PSoC4/CapSense_SelfTest.c **** #endif
 196:Generated_Source\PSoC4/CapSense_SelfTest.c **** 
 197:Generated_Source\PSoC4/CapSense_SelfTest.c **** /* Baseline group function prototypes */
 198:Generated_Source\PSoC4/CapSense_SelfTest.c **** #if (CapSense_ENABLE == CapSense_TST_BSLN_DUPLICATION_EN)
 199:Generated_Source\PSoC4/CapSense_SelfTest.c ****     static uint32 CapSense_CheckAllBaselineDuplication(void);
 200:Generated_Source\PSoC4/CapSense_SelfTest.c **** #endif
 201:Generated_Source\PSoC4/CapSense_SelfTest.c **** 
 202:Generated_Source\PSoC4/CapSense_SelfTest.c **** #if (CapSense_ENABLE == CapSense_TST_HW_GROUP_EN)
ARM GAS  C:\Users\YUANFA~1\AppData\Local\Temp\ccnzsvc2.s 			page 5


 203:Generated_Source\PSoC4/CapSense_SelfTest.c **** 
 204:Generated_Source\PSoC4/CapSense_SelfTest.c ****     #if (((CapSense_ENABLE == CapSense_CSD_EN) || (CapSense_ENABLE == CapSense_CSX_EN)) &&\
 205:Generated_Source\PSoC4/CapSense_SelfTest.c ****          (CapSense_ENABLE == CapSense_TST_SNS_SHORT_EN))
 206:Generated_Source\PSoC4/CapSense_SelfTest.c ****         static uint32 CapSense_SnsShortCheckAllSensors(void);
 207:Generated_Source\PSoC4/CapSense_SelfTest.c ****         static void CapSense_SnsShortUpdateTestResult(uint32 wdgtId, uint32 snsId);
 208:Generated_Source\PSoC4/CapSense_SelfTest.c ****         static uint32 CapSense_SnsShortCheckSensor(uint32 widgetId, uint32 sensorId, uint32 mode);
 209:Generated_Source\PSoC4/CapSense_SelfTest.c ****         static uint32 CapSense_SnsShortCheckElectrode(uint32 widgetId, uint32 ioSnsId, uint32 mode)
 210:Generated_Source\PSoC4/CapSense_SelfTest.c ****         static uint32 CapSense_SnsShortGetElectrdeList(uint32 widgetId, uint32 ioSnsId, CapSense_FL
 211:Generated_Source\PSoC4/CapSense_SelfTest.c ****         static void CapSense_BistEnableHwSnsShort(void);
 212:Generated_Source\PSoC4/CapSense_SelfTest.c ****         static void CapSense_BistDisableHwSnsShort(void);
 213:Generated_Source\PSoC4/CapSense_SelfTest.c ****         static void CapSense_SnsShortSetDrExtCapShield(uint32 value);
 214:Generated_Source\PSoC4/CapSense_SelfTest.c ****         static uint32 CapSense_SnsShortReadElectrodeState(CapSense_FLASH_IO_STRUCT const *ioPtr);
 215:Generated_Source\PSoC4/CapSense_SelfTest.c ****     #endif /* (((CapSense_ENABLE == CapSense_CSD_EN) || (CapSense_ENABLE == CapSense_CSX_EN)) &&\
 216:Generated_Source\PSoC4/CapSense_SelfTest.c ****                (CapSense_ENABLE == CapSense_TST_SNS_SHORT_EN)) */
 217:Generated_Source\PSoC4/CapSense_SelfTest.c **** 
 218:Generated_Source\PSoC4/CapSense_SelfTest.c ****     #if (CapSense_ENABLE == CapSense_TST_MEASUREMENT_GROUP_EN)
 219:Generated_Source\PSoC4/CapSense_SelfTest.c ****         #if ((CapSense_ENABLE == CapSense_TST_SNS_CAP_EN) || \
 220:Generated_Source\PSoC4/CapSense_SelfTest.c ****              (CapSense_ENABLE == CapSense_TST_SH_CAP_EN)  ||\
 221:Generated_Source\PSoC4/CapSense_SelfTest.c ****              (CapSense_ENABLE == CapSense_TST_EXTERNAL_CAP_EN))
 222:Generated_Source\PSoC4/CapSense_SelfTest.c ****             static void CapSense_BistEnableHwSnsCap(void);
 223:Generated_Source\PSoC4/CapSense_SelfTest.c ****             static void CapSense_BistSetScanDuration(void);
 224:Generated_Source\PSoC4/CapSense_SelfTest.c ****             CY_ISR(CapSense_BistPostSingleScan);
 225:Generated_Source\PSoC4/CapSense_SelfTest.c ****             static void CapSense_BistStartSample(void);
 226:Generated_Source\PSoC4/CapSense_SelfTest.c ****             static void CapSense_BistConfigClock(uint32 snsClk);
 227:Generated_Source\PSoC4/CapSense_SelfTest.c ****             static void CapSense_BistSetIdac(uint32 idacValue);
 228:Generated_Source\PSoC4/CapSense_SelfTest.c ****             static void CapSense_BistCmodPrecharge(void);
 229:Generated_Source\PSoC4/CapSense_SelfTest.c ****             static void CapSense_WaitEndOfScan(uint32 timeout);
 230:Generated_Source\PSoC4/CapSense_SelfTest.c ****             static void CapSense_BistTriggerScan(void);
 231:Generated_Source\PSoC4/CapSense_SelfTest.c **** 
 232:Generated_Source\PSoC4/CapSense_SelfTest.c ****             #if (((CapSense_ENABLE == CapSense_CSD_EN) || (CapSense_ENABLE == CapSense_CSX_EN)) &&\
 233:Generated_Source\PSoC4/CapSense_SelfTest.c ****                  ((CapSense_ENABLE == CapSense_TST_SNS_CAP_EN) || (CapSense_ENABLE == CapSense_TST_
 234:Generated_Source\PSoC4/CapSense_SelfTest.c **** 
 235:Generated_Source\PSoC4/CapSense_SelfTest.c ****                 #if (CapSense_ENABLE == CapSense_TST_SNS_CAP_EN)
 236:Generated_Source\PSoC4/CapSense_SelfTest.c ****                     #if ((CapSense_ENABLE == CapSense_CSD_SHIELD_EN) &&\
 237:Generated_Source\PSoC4/CapSense_SelfTest.c ****                          (CapSense_ENABLE == CapSense_CSD_SHIELD_TANK_EN))
 238:Generated_Source\PSoC4/CapSense_SelfTest.c ****                         static void CapSense_BistEnableShieldTank(void);
 239:Generated_Source\PSoC4/CapSense_SelfTest.c ****                     #endif /* ((CapSense_ENABLE == CapSense_CSD_SHIELD_EN) &&\
 240:Generated_Source\PSoC4/CapSense_SelfTest.c ****                                (CapSense_ENABLE == CapSense_CSD_SHIELD_TANK_EN)) */
 241:Generated_Source\PSoC4/CapSense_SelfTest.c ****                     static uint32 CapSense_GetSensorCapacitanceExt(uint32 wdgtId,
 242:Generated_Source\PSoC4/CapSense_SelfTest.c ****                                                                    uint32 sensorElement,
 243:Generated_Source\PSoC4/CapSense_SelfTest.c ****                                                                    CapSense_TST_MEASUREMENT_STATUS_
 244:Generated_Source\PSoC4/CapSense_SelfTest.c ****                     static void CapSense_BistConnectSensor(uint32 wdgtId, uint32 sensorElement);
 245:Generated_Source\PSoC4/CapSense_SelfTest.c ****                     static uint32 CapSense_MeasureAllSensorCapacitance(void);
 246:Generated_Source\PSoC4/CapSense_SelfTest.c ****                     static void CapSense_BistSetInactiveSensorConnection(uint32 wdgtId, uint32 sens
 247:Generated_Source\PSoC4/CapSense_SelfTest.c ****                 #endif /* (CapSense_ENABLE == CapSense_TST_SNS_CAP_EN) */
 248:Generated_Source\PSoC4/CapSense_SelfTest.c **** 
 249:Generated_Source\PSoC4/CapSense_SelfTest.c **** 
 250:Generated_Source\PSoC4/CapSense_SelfTest.c ****                 #if (CapSense_ENABLE == CapSense_TST_SH_CAP_EN)
 251:Generated_Source\PSoC4/CapSense_SelfTest.c ****                     #if (0u != CapSense_CSD_TOTAL_SHIELD_COUNT)
 252:Generated_Source\PSoC4/CapSense_SelfTest.c ****                         static void CapSense_SwitchAllShieldsState(CapSense_BIST_IO_CONFIG_ENUM con
 253:Generated_Source\PSoC4/CapSense_SelfTest.c ****                     #endif /* (0u != CapSense_CSD_TOTAL_SHIELD_COUNT) */
 254:Generated_Source\PSoC4/CapSense_SelfTest.c ****                 #endif /* (CapSense_ENABLE == CapSense_TST_SH_CAP_EN) */
 255:Generated_Source\PSoC4/CapSense_SelfTest.c **** 
 256:Generated_Source\PSoC4/CapSense_SelfTest.c ****                 static uint32 CapSense_GetCapacitanceExt(CapSense_TST_MEASUREMENT_STATUS_ENUM * sns
 257:Generated_Source\PSoC4/CapSense_SelfTest.c ****                 static void CapSense_BistDisableHwSnsCap(void);
 258:Generated_Source\PSoC4/CapSense_SelfTest.c ****                 static void CapSense_BistSetIdacGain(uint32 idacValue, uint32 idacGainIndex);
 259:Generated_Source\PSoC4/CapSense_SelfTest.c ****                 static CapSense_BIST_IO_CONFIG_ENUM CapSense_IscToBistIOConfig(uint32 iscState);
ARM GAS  C:\Users\YUANFA~1\AppData\Local\Temp\ccnzsvc2.s 			page 6


 260:Generated_Source\PSoC4/CapSense_SelfTest.c **** 
 261:Generated_Source\PSoC4/CapSense_SelfTest.c ****                 #if (CapSense_ENABLE != CapSense_CSDV2)
 262:Generated_Source\PSoC4/CapSense_SelfTest.c ****                     static void CapSense_BistClockRestart(void);
 263:Generated_Source\PSoC4/CapSense_SelfTest.c ****                 #endif /* (CapSense_ENABLE != CapSense_CSDV2) */
 264:Generated_Source\PSoC4/CapSense_SelfTest.c ****             #endif /* (((CapSense_ENABLE == CapSense_CSD_EN) || (CapSense_ENABLE == CapSense_CSX_EN
 265:Generated_Source\PSoC4/CapSense_SelfTest.c ****                        ((CapSense_ENABLE == CapSense_TST_SNS_CAP_EN) || (CapSense_ENABLE == CapSens
 266:Generated_Source\PSoC4/CapSense_SelfTest.c **** 
 267:Generated_Source\PSoC4/CapSense_SelfTest.c ****             #if (CapSense_ENABLE == CapSense_TST_EXTERNAL_CAP_EN)
 268:Generated_Source\PSoC4/CapSense_SelfTest.c ****                 static uint32 CapSense_MeasureExtCapCapacitance(uint32 extCapId);
 269:Generated_Source\PSoC4/CapSense_SelfTest.c ****                 static void CapSense_GetExtCapCapacitanceExt(uint32 modClkDivider, uint32 iDacVal);
 270:Generated_Source\PSoC4/CapSense_SelfTest.c ****                 static void CapSense_BistConnectExtCapacitor(uint32 extCapId);
 271:Generated_Source\PSoC4/CapSense_SelfTest.c ****                 static void CapSense_BistDisconnectExtCapacitor(uint32 extCapId);
 272:Generated_Source\PSoC4/CapSense_SelfTest.c ****                 static uint32 CapSense_MeasureAllExtCapCapacitance(void);
 273:Generated_Source\PSoC4/CapSense_SelfTest.c ****             #endif /*(CapSense_ENABLE == CapSense_TST_EXTERNAL_CAP_EN) */
 274:Generated_Source\PSoC4/CapSense_SelfTest.c **** 
 275:Generated_Source\PSoC4/CapSense_SelfTest.c ****         #endif /* ((CapSense_ENABLE == CapSense_TST_SNS_CAP_EN) || \
 276:Generated_Source\PSoC4/CapSense_SelfTest.c ****                    (CapSense_ENABLE == CapSense_TST_SH_CAP_EN)  ||\
 277:Generated_Source\PSoC4/CapSense_SelfTest.c ****                    (CapSense_ENABLE == CapSense_TST_EXTERNAL_CAP_EN)) */
 278:Generated_Source\PSoC4/CapSense_SelfTest.c **** 
 279:Generated_Source\PSoC4/CapSense_SelfTest.c ****         #if ((CapSense_ENABLE == CapSense_TST_VDDA_EN) &&\
 280:Generated_Source\PSoC4/CapSense_SelfTest.c ****              (CapSense_ENABLE == CapSense_CSDV2))
 281:Generated_Source\PSoC4/CapSense_SelfTest.c ****             static void CapSense_BistEnableVddaMeasurement(void);
 282:Generated_Source\PSoC4/CapSense_SelfTest.c ****             static uint16 CapSense_BistVddaRunMeasurement(void);
 283:Generated_Source\PSoC4/CapSense_SelfTest.c ****         #endif /* ((CapSense_ENABLE == CapSense_TST_VDDA_EN) &&\
 284:Generated_Source\PSoC4/CapSense_SelfTest.c ****                    (CapSense_ENABLE == CapSense_CSDV2)) */
 285:Generated_Source\PSoC4/CapSense_SelfTest.c ****     #endif /* (CapSense_ENABLE == CapSense_TST_MEASUREMENT_GROUP_EN) */
 286:Generated_Source\PSoC4/CapSense_SelfTest.c **** 
 287:Generated_Source\PSoC4/CapSense_SelfTest.c ****     static void CapSense_BistSwitchHwConfig(CapSense_BIST_HW_CONFIG_ENUM config);
 288:Generated_Source\PSoC4/CapSense_SelfTest.c ****     static void CapSense_SwitchAllIOState(CapSense_BIST_IO_CONFIG_ENUM config);
 289:Generated_Source\PSoC4/CapSense_SelfTest.c ****     static void CapSense_SetSnsHsiom(CapSense_FLASH_IO_STRUCT const *ioPtr, uint32 value);
 290:Generated_Source\PSoC4/CapSense_SelfTest.c ****     static void CapSense_SetSnsDr(CapSense_FLASH_IO_STRUCT const *ioPtr, uint32 value);
 291:Generated_Source\PSoC4/CapSense_SelfTest.c ****     static void CapSense_SetSnsPc(CapSense_FLASH_IO_STRUCT const *ioPtr, uint32 value);
 292:Generated_Source\PSoC4/CapSense_SelfTest.c ****     static void CapSense_SetAllSnsHsiomState(uint32 value);
 293:Generated_Source\PSoC4/CapSense_SelfTest.c ****     static void CapSense_SetAllSnsDrState(uint32 value);
 294:Generated_Source\PSoC4/CapSense_SelfTest.c ****     static void CapSense_SetAllSnsPcState(uint32 value);
 295:Generated_Source\PSoC4/CapSense_SelfTest.c **** 
 296:Generated_Source\PSoC4/CapSense_SelfTest.c **** 
 297:Generated_Source\PSoC4/CapSense_SelfTest.c ****     #if ((CapSense_ENABLE == CapSense_CSD_SHIELD_EN) && \
 298:Generated_Source\PSoC4/CapSense_SelfTest.c ****          (0u != CapSense_CSD_TOTAL_SHIELD_COUNT))
 299:Generated_Source\PSoC4/CapSense_SelfTest.c ****         static void CapSense_BistSetAllShieldsHsiomState(uint32 hsiomValue);
 300:Generated_Source\PSoC4/CapSense_SelfTest.c ****         static void CapSense_BistSetAllShieldsPcState(uint32 pcValue);
 301:Generated_Source\PSoC4/CapSense_SelfTest.c ****     #endif /* ((CapSense_ENABLE == CapSense_CSD_SHIELD_EN) && \
 302:Generated_Source\PSoC4/CapSense_SelfTest.c ****                (0u != CapSense_CSD_TOTAL_SHIELD_COUNT)) */
 303:Generated_Source\PSoC4/CapSense_SelfTest.c **** 
 304:Generated_Source\PSoC4/CapSense_SelfTest.c **** #endif /* (CapSense_ENABLE == CapSense_TST_HW_GROUP_EN) */
 305:Generated_Source\PSoC4/CapSense_SelfTest.c **** 
 306:Generated_Source\PSoC4/CapSense_SelfTest.c **** /** \}
 307:Generated_Source\PSoC4/CapSense_SelfTest.c **** * \endcond */
 308:Generated_Source\PSoC4/CapSense_SelfTest.c **** 
 309:Generated_Source\PSoC4/CapSense_SelfTest.c **** /*******************************************************************************
 310:Generated_Source\PSoC4/CapSense_SelfTest.c **** * Function Name: CapSense_RunSelfTest
 311:Generated_Source\PSoC4/CapSense_SelfTest.c **** ****************************************************************************//**
 312:Generated_Source\PSoC4/CapSense_SelfTest.c **** *
 313:Generated_Source\PSoC4/CapSense_SelfTest.c **** * \brief
 314:Generated_Source\PSoC4/CapSense_SelfTest.c **** *  Runs built-in self-tests specified by the test enable mask.
 315:Generated_Source\PSoC4/CapSense_SelfTest.c **** *
 316:Generated_Source\PSoC4/CapSense_SelfTest.c **** * \details
ARM GAS  C:\Users\YUANFA~1\AppData\Local\Temp\ccnzsvc2.s 			page 7


 317:Generated_Source\PSoC4/CapSense_SelfTest.c **** *  The function performs various self-tests on all enabled widgets
 318:Generated_Source\PSoC4/CapSense_SelfTest.c **** *  and sensors in the Component. The required set of tests can be selected
 319:Generated_Source\PSoC4/CapSense_SelfTest.c **** *  using the bit-mask in the testEnMask parameter.
 320:Generated_Source\PSoC4/CapSense_SelfTest.c **** *
 321:Generated_Source\PSoC4/CapSense_SelfTest.c **** *  Use CapSense_TST_RUN_SELF_TEST_MASK to execute all the self-tests or
 322:Generated_Source\PSoC4/CapSense_SelfTest.c **** *  any combination of the masks (defined in testEnMask parameter) to specify the
 323:Generated_Source\PSoC4/CapSense_SelfTest.c **** *  test list.
 324:Generated_Source\PSoC4/CapSense_SelfTest.c **** *
 325:Generated_Source\PSoC4/CapSense_SelfTest.c **** *  To execute a single-element test (i.e. for one widget or sensor), the following
 326:Generated_Source\PSoC4/CapSense_SelfTest.c **** *  functions are available:
 327:Generated_Source\PSoC4/CapSense_SelfTest.c **** *  - CapSense_CheckGlobalCRC()
 328:Generated_Source\PSoC4/CapSense_SelfTest.c **** *  - CapSense_CheckWidgetCRC()
 329:Generated_Source\PSoC4/CapSense_SelfTest.c **** *  - CapSense_CheckBaselineDuplication()
 330:Generated_Source\PSoC4/CapSense_SelfTest.c **** *  - CapSense_CheckIntegritySensorPins()
 331:Generated_Source\PSoC4/CapSense_SelfTest.c **** *  - CapSense_GetSensorCapacitance()
 332:Generated_Source\PSoC4/CapSense_SelfTest.c **** *  - CapSense_GetShieldCapacitance()
 333:Generated_Source\PSoC4/CapSense_SelfTest.c **** *  - CapSense_GetExtCapCapacitance()
 334:Generated_Source\PSoC4/CapSense_SelfTest.c **** *  - CapSense_GetVdda()
 335:Generated_Source\PSoC4/CapSense_SelfTest.c **** *
 336:Generated_Source\PSoC4/CapSense_SelfTest.c **** *  Refer to these functions for detail information on a corresponding test.
 337:Generated_Source\PSoC4/CapSense_SelfTest.c **** *
 338:Generated_Source\PSoC4/CapSense_SelfTest.c **** * \param testEnMask
 339:Generated_Source\PSoC4/CapSense_SelfTest.c **** *  Specifies the tests to be executed. Each bit corresponds to one test. It is
 340:Generated_Source\PSoC4/CapSense_SelfTest.c **** *  possible to launch the function with any combination of the available tests.
 341:Generated_Source\PSoC4/CapSense_SelfTest.c **** *  - CapSense_TST_GLOBAL_CRC       - Verifies the RAM structure CRC of global parameters.
 342:Generated_Source\PSoC4/CapSense_SelfTest.c **** *  - CapSense_TST_WDGT_CRC         - Verifies the RAM widget structure CRC for all the widgets.
 343:Generated_Source\PSoC4/CapSense_SelfTest.c **** *  - CapSense_TST_BSLN_DUPLICATION - Verifies the baseline consistency of all the sensors (inverse 
 344:Generated_Source\PSoC4/CapSense_SelfTest.c **** *  - CapSense_TST_SNS_SHORT        - Checks all the sensors for a short to GND / VDD / other sensor
 345:Generated_Source\PSoC4/CapSense_SelfTest.c **** *  - CapSense_TST_SNS_CAP          - Measures all the sensors capacitance.
 346:Generated_Source\PSoC4/CapSense_SelfTest.c **** *  - CapSense_TST_SH_CAP           - Measures the shield capacitance.
 347:Generated_Source\PSoC4/CapSense_SelfTest.c **** *  - CapSense_TST_EXTERNAL_CAP     - Measures the capacitance of the available external capacitors.
 348:Generated_Source\PSoC4/CapSense_SelfTest.c **** *  - CapSense_TST_VDDA             - Measures the Vdda voltage.
 349:Generated_Source\PSoC4/CapSense_SelfTest.c **** *  - CapSense_TST_RUN_SELF_TEST_MASK - Executes all available tests.
 350:Generated_Source\PSoC4/CapSense_SelfTest.c **** *
 351:Generated_Source\PSoC4/CapSense_SelfTest.c **** * \return
 352:Generated_Source\PSoC4/CapSense_SelfTest.c **** *  Returns a bit-mask with a status of execution of the specified tests:
 353:Generated_Source\PSoC4/CapSense_SelfTest.c **** *  - CYRET_SUCCESS - All the tests are passed.
 354:Generated_Source\PSoC4/CapSense_SelfTest.c **** *  - CapSense_TST_NOT_EXECUTED - The previously triggered scanning is not
 355:Generated_Source\PSoC4/CapSense_SelfTest.c **** *    completed.
 356:Generated_Source\PSoC4/CapSense_SelfTest.c **** *  - CapSense_TST_BAD_PARAM - A non-defined test was requested in the
 357:Generated_Source\PSoC4/CapSense_SelfTest.c **** *    testEnMask parameter.
 358:Generated_Source\PSoC4/CapSense_SelfTest.c **** *  - CapSense_TST_GLOBAL_CRC       - Fails the test of the RAM structure CRC of global parameters.
 359:Generated_Source\PSoC4/CapSense_SelfTest.c **** *  - CapSense_TST_WDGT_CRC         - Fails the test of the RAM widget structure CRC of any widget.
 360:Generated_Source\PSoC4/CapSense_SelfTest.c **** *  - CapSense_TST_BSLN_DUPLICATION - Fails the baseline consistency test of any sensor.
 361:Generated_Source\PSoC4/CapSense_SelfTest.c **** *  - CapSense_TST_SNS_SHORT        - Fails the test of the short to GND or VDD of any sensor.
 362:Generated_Source\PSoC4/CapSense_SelfTest.c **** *  - CapSense_TST_SNS_CAP          - Fails the execution of any sensor capacitance measurement test
 363:Generated_Source\PSoC4/CapSense_SelfTest.c **** *  - CapSense_TST_SH_CAP           - Fails the execution of the shield capacitance measurement test
 364:Generated_Source\PSoC4/CapSense_SelfTest.c **** *  - CapSense_TST_EXTERNAL_CAP     - Fails the execution of any external capacitor capacitance meas
 365:Generated_Source\PSoC4/CapSense_SelfTest.c **** *  - CapSense_TST_VDDA             - Fails the execution of the Vdda voltage measurement test.
 366:Generated_Source\PSoC4/CapSense_SelfTest.c **** *
 367:Generated_Source\PSoC4/CapSense_SelfTest.c **** *******************************************************************************/
 368:Generated_Source\PSoC4/CapSense_SelfTest.c **** uint32 CapSense_RunSelfTest(uint32 testEnMask)
 369:Generated_Source\PSoC4/CapSense_SelfTest.c **** {
 370:Generated_Source\PSoC4/CapSense_SelfTest.c ****     #if ((CapSense_ENABLE == CapSense_TST_VDDA_EN) &&\
 371:Generated_Source\PSoC4/CapSense_SelfTest.c ****          (CapSense_ENABLE == CapSense_CSDV2))
 372:Generated_Source\PSoC4/CapSense_SelfTest.c ****         uint32 tmpVal;
 373:Generated_Source\PSoC4/CapSense_SelfTest.c ****     #endif
ARM GAS  C:\Users\YUANFA~1\AppData\Local\Temp\ccnzsvc2.s 			page 8


 374:Generated_Source\PSoC4/CapSense_SelfTest.c **** 
 375:Generated_Source\PSoC4/CapSense_SelfTest.c ****     #if (CapSense_ENABLE == CapSense_TST_SH_CAP_EN)
 376:Generated_Source\PSoC4/CapSense_SelfTest.c ****         CapSense_TST_MEASUREMENT_STATUS_ENUM measurementStatus;
 377:Generated_Source\PSoC4/CapSense_SelfTest.c ****     #endif
 378:Generated_Source\PSoC4/CapSense_SelfTest.c **** 
 379:Generated_Source\PSoC4/CapSense_SelfTest.c ****     uint32 result = CYRET_SUCCESS;
 380:Generated_Source\PSoC4/CapSense_SelfTest.c **** 
 381:Generated_Source\PSoC4/CapSense_SelfTest.c ****     if(CapSense_NOT_BUSY != CapSense_IsBusy())
 382:Generated_Source\PSoC4/CapSense_SelfTest.c ****     {
 383:Generated_Source\PSoC4/CapSense_SelfTest.c ****         result = CapSense_TST_NOT_EXECUTED;
 384:Generated_Source\PSoC4/CapSense_SelfTest.c ****     }
 385:Generated_Source\PSoC4/CapSense_SelfTest.c ****     else
 386:Generated_Source\PSoC4/CapSense_SelfTest.c ****     {
 387:Generated_Source\PSoC4/CapSense_SelfTest.c ****         if (0u == (testEnMask & (~CapSense_TST_RUN_SELF_TEST_MASK)))
 388:Generated_Source\PSoC4/CapSense_SelfTest.c ****         {
 389:Generated_Source\PSoC4/CapSense_SelfTest.c ****             #if (CapSense_ENABLE == CapSense_TST_GLOBAL_CRC_EN)
 390:Generated_Source\PSoC4/CapSense_SelfTest.c ****                 if (0u != (CapSense_TST_GLOBAL_CRC & testEnMask))
 391:Generated_Source\PSoC4/CapSense_SelfTest.c ****                 {
 392:Generated_Source\PSoC4/CapSense_SelfTest.c ****                     result |= CapSense_CheckGlobalCRC();
 393:Generated_Source\PSoC4/CapSense_SelfTest.c ****                 }
 394:Generated_Source\PSoC4/CapSense_SelfTest.c ****             #endif /* (CapSense_ENABLE == CapSense_TST_GLOBAL_CRC_EN) */
 395:Generated_Source\PSoC4/CapSense_SelfTest.c **** 
 396:Generated_Source\PSoC4/CapSense_SelfTest.c ****             #if (CapSense_ENABLE == CapSense_TST_WDGT_CRC_EN)
 397:Generated_Source\PSoC4/CapSense_SelfTest.c ****                 if (0u != (CapSense_TST_WDGT_CRC & testEnMask))
 398:Generated_Source\PSoC4/CapSense_SelfTest.c ****                 {
 399:Generated_Source\PSoC4/CapSense_SelfTest.c ****                     result |= CapSense_CheckAllWidgetCRC();
 400:Generated_Source\PSoC4/CapSense_SelfTest.c ****                 }
 401:Generated_Source\PSoC4/CapSense_SelfTest.c ****             #endif /* (CapSense_ENABLE == CapSense_TST_WDGT_CRC_EN) */
 402:Generated_Source\PSoC4/CapSense_SelfTest.c **** 
 403:Generated_Source\PSoC4/CapSense_SelfTest.c ****             #if (CapSense_ENABLE == CapSense_TST_BSLN_DUPLICATION_EN)
 404:Generated_Source\PSoC4/CapSense_SelfTest.c ****                 if (0u != (CapSense_TST_BSLN_DUPLICATION & testEnMask))
 405:Generated_Source\PSoC4/CapSense_SelfTest.c ****                 {
 406:Generated_Source\PSoC4/CapSense_SelfTest.c ****                     result |= CapSense_CheckAllBaselineDuplication();
 407:Generated_Source\PSoC4/CapSense_SelfTest.c ****                 }
 408:Generated_Source\PSoC4/CapSense_SelfTest.c ****             #endif /* (CapSense_ENABLE == CapSense_TST_BSLN_DUPLICATION_EN) */
 409:Generated_Source\PSoC4/CapSense_SelfTest.c **** 
 410:Generated_Source\PSoC4/CapSense_SelfTest.c ****             /* All the next tests are hardware dependent, so requesting to switch the sense method 
 411:Generated_Source\PSoC4/CapSense_SelfTest.c ****             CapSense_SsSwitchSensingMode(CapSense_SENSE_METHOD_BIST_E);
 412:Generated_Source\PSoC4/CapSense_SelfTest.c **** 
 413:Generated_Source\PSoC4/CapSense_SelfTest.c ****             #if ((CapSense_ENABLE == CapSense_CSD_EN) ||\
 414:Generated_Source\PSoC4/CapSense_SelfTest.c ****                  (CapSense_ENABLE == CapSense_CSX_EN))
 415:Generated_Source\PSoC4/CapSense_SelfTest.c **** 
 416:Generated_Source\PSoC4/CapSense_SelfTest.c ****                 #if (CapSense_ENABLE == CapSense_TST_SNS_SHORT_EN)
 417:Generated_Source\PSoC4/CapSense_SelfTest.c ****                     if (0u != (CapSense_TST_SNS_SHORT & testEnMask))
 418:Generated_Source\PSoC4/CapSense_SelfTest.c ****                     {
 419:Generated_Source\PSoC4/CapSense_SelfTest.c ****                         result |= CapSense_SnsShortCheckAllSensors();
 420:Generated_Source\PSoC4/CapSense_SelfTest.c ****                     }
 421:Generated_Source\PSoC4/CapSense_SelfTest.c ****                 #endif /* (CapSense_ENABLE == CapSense_TST_SNS_SHORT_EN) */
 422:Generated_Source\PSoC4/CapSense_SelfTest.c **** 
 423:Generated_Source\PSoC4/CapSense_SelfTest.c ****                 #if (CapSense_ENABLE == CapSense_TST_SNS_CAP_EN)
 424:Generated_Source\PSoC4/CapSense_SelfTest.c ****                     if (0u != (CapSense_TST_SNS_CAP & testEnMask))
 425:Generated_Source\PSoC4/CapSense_SelfTest.c ****                     {
 426:Generated_Source\PSoC4/CapSense_SelfTest.c ****                         result |= CapSense_MeasureAllSensorCapacitance();
 427:Generated_Source\PSoC4/CapSense_SelfTest.c ****                     }
 428:Generated_Source\PSoC4/CapSense_SelfTest.c ****                 #endif /* (CapSense_ENABLE == CapSense_TST_SNS_CAP_EN) */
 429:Generated_Source\PSoC4/CapSense_SelfTest.c **** 
 430:Generated_Source\PSoC4/CapSense_SelfTest.c ****                 #if (CapSense_ENABLE == CapSense_TST_SH_CAP_EN)
ARM GAS  C:\Users\YUANFA~1\AppData\Local\Temp\ccnzsvc2.s 			page 9


 431:Generated_Source\PSoC4/CapSense_SelfTest.c ****                     if (0u != (CapSense_TST_SH_CAP & testEnMask))
 432:Generated_Source\PSoC4/CapSense_SelfTest.c ****                     {
 433:Generated_Source\PSoC4/CapSense_SelfTest.c ****                         (void)CapSense_GetShieldCapacitance(&measurementStatus);
 434:Generated_Source\PSoC4/CapSense_SelfTest.c ****                         if (CapSense_TST_MEASUREMENT_SUCCESS != measurementStatus)
 435:Generated_Source\PSoC4/CapSense_SelfTest.c ****                         {
 436:Generated_Source\PSoC4/CapSense_SelfTest.c ****                             result |= CapSense_TST_SH_CAP;
 437:Generated_Source\PSoC4/CapSense_SelfTest.c ****                         }
 438:Generated_Source\PSoC4/CapSense_SelfTest.c ****                     }
 439:Generated_Source\PSoC4/CapSense_SelfTest.c ****                 #endif /* (CapSense_ENABLE == CapSense_TST_SH_CAP_EN) */
 440:Generated_Source\PSoC4/CapSense_SelfTest.c ****             #endif /* ((CapSense_ENABLE == CapSense_CSD_EN) ||\
 441:Generated_Source\PSoC4/CapSense_SelfTest.c ****                        (CapSense_ENABLE == CapSense_CSX_EN)) */
 442:Generated_Source\PSoC4/CapSense_SelfTest.c **** 
 443:Generated_Source\PSoC4/CapSense_SelfTest.c ****                 #if (CapSense_ENABLE == CapSense_TST_EXTERNAL_CAP_EN)
 444:Generated_Source\PSoC4/CapSense_SelfTest.c ****                     if (0u != (CapSense_TST_EXTERNAL_CAP & testEnMask))
 445:Generated_Source\PSoC4/CapSense_SelfTest.c ****                     {
 446:Generated_Source\PSoC4/CapSense_SelfTest.c ****                         result |= CapSense_MeasureAllExtCapCapacitance();
 447:Generated_Source\PSoC4/CapSense_SelfTest.c ****                     }
 448:Generated_Source\PSoC4/CapSense_SelfTest.c ****                 #endif /* (CapSense_ENABLE == CapSense_TST_EXTERNAL_CAP_EN) */
 449:Generated_Source\PSoC4/CapSense_SelfTest.c **** 
 450:Generated_Source\PSoC4/CapSense_SelfTest.c ****                 #if ((CapSense_ENABLE == CapSense_TST_VDDA_EN) &&\
 451:Generated_Source\PSoC4/CapSense_SelfTest.c ****                      (CapSense_ENABLE == CapSense_CSDV2))
 452:Generated_Source\PSoC4/CapSense_SelfTest.c ****                     if (0u != (CapSense_TST_VDDA & testEnMask))
 453:Generated_Source\PSoC4/CapSense_SelfTest.c ****                     {
 454:Generated_Source\PSoC4/CapSense_SelfTest.c ****                         tmpVal = CapSense_GetVdda();
 455:Generated_Source\PSoC4/CapSense_SelfTest.c ****                         if (CapSense_TST_VDDA_BAD_RESULT == tmpVal)
 456:Generated_Source\PSoC4/CapSense_SelfTest.c ****                         {
 457:Generated_Source\PSoC4/CapSense_SelfTest.c ****                             result |= CapSense_TST_VDDA;
 458:Generated_Source\PSoC4/CapSense_SelfTest.c ****                         }
 459:Generated_Source\PSoC4/CapSense_SelfTest.c ****                     }
 460:Generated_Source\PSoC4/CapSense_SelfTest.c ****                 #endif /* ((CapSense_ENABLE == CapSense_TST_VDDA_EN) &&\
 461:Generated_Source\PSoC4/CapSense_SelfTest.c ****                            (CapSense_ENABLE == CapSense_CSDV2)) */
 462:Generated_Source\PSoC4/CapSense_SelfTest.c ****         }
 463:Generated_Source\PSoC4/CapSense_SelfTest.c ****         else
 464:Generated_Source\PSoC4/CapSense_SelfTest.c ****         {
 465:Generated_Source\PSoC4/CapSense_SelfTest.c ****             result |= CapSense_TST_BAD_PARAM;
 466:Generated_Source\PSoC4/CapSense_SelfTest.c ****         }
 467:Generated_Source\PSoC4/CapSense_SelfTest.c ****     }
 468:Generated_Source\PSoC4/CapSense_SelfTest.c **** 
 469:Generated_Source\PSoC4/CapSense_SelfTest.c ****     return result;
 470:Generated_Source\PSoC4/CapSense_SelfTest.c **** }
 471:Generated_Source\PSoC4/CapSense_SelfTest.c **** 
 472:Generated_Source\PSoC4/CapSense_SelfTest.c **** 
 473:Generated_Source\PSoC4/CapSense_SelfTest.c **** /*******************************************************************************
 474:Generated_Source\PSoC4/CapSense_SelfTest.c **** * Function Name: CapSense_BistDisableMode
 475:Generated_Source\PSoC4/CapSense_SelfTest.c **** ****************************************************************************//**
 476:Generated_Source\PSoC4/CapSense_SelfTest.c **** *
 477:Generated_Source\PSoC4/CapSense_SelfTest.c **** * \brief
 478:Generated_Source\PSoC4/CapSense_SelfTest.c **** *  Releases captured HW resources.
 479:Generated_Source\PSoC4/CapSense_SelfTest.c **** *
 480:Generated_Source\PSoC4/CapSense_SelfTest.c **** * \details
 481:Generated_Source\PSoC4/CapSense_SelfTest.c **** *  Releases captured HW resources to be used by other modes.
 482:Generated_Source\PSoC4/CapSense_SelfTest.c **** *
 483:Generated_Source\PSoC4/CapSense_SelfTest.c **** *******************************************************************************/
 484:Generated_Source\PSoC4/CapSense_SelfTest.c **** void CapSense_BistDisableMode(void)
 485:Generated_Source\PSoC4/CapSense_SelfTest.c **** {
 486:Generated_Source\PSoC4/CapSense_SelfTest.c ****     #if (CapSense_ENABLE == CapSense_TST_HW_GROUP_EN)
 487:Generated_Source\PSoC4/CapSense_SelfTest.c ****         CapSense_BistSwitchHwConfig(CapSense_BIST_HW_UNDEFINED_E);
ARM GAS  C:\Users\YUANFA~1\AppData\Local\Temp\ccnzsvc2.s 			page 10


 488:Generated_Source\PSoC4/CapSense_SelfTest.c **** 
 489:Generated_Source\PSoC4/CapSense_SelfTest.c ****         CapSense_SwitchAllIOState(CapSense_BIST_IO_UNDEFINED_E);
 490:Generated_Source\PSoC4/CapSense_SelfTest.c ****         CapSense_bistCurrentISC = CapSense_BIST_IO_UNDEFINED_E;
 491:Generated_Source\PSoC4/CapSense_SelfTest.c ****     #endif /* (CapSense_ENABLE == CapSense_TST_HW_GROUP_EN) */
 492:Generated_Source\PSoC4/CapSense_SelfTest.c **** }
 493:Generated_Source\PSoC4/CapSense_SelfTest.c **** 
 494:Generated_Source\PSoC4/CapSense_SelfTest.c **** 
 495:Generated_Source\PSoC4/CapSense_SelfTest.c **** /*******************************************************************************
 496:Generated_Source\PSoC4/CapSense_SelfTest.c **** * Function Name: CapSense_BistInitialize
 497:Generated_Source\PSoC4/CapSense_SelfTest.c **** ****************************************************************************//**
 498:Generated_Source\PSoC4/CapSense_SelfTest.c **** *
 499:Generated_Source\PSoC4/CapSense_SelfTest.c **** * \brief
 500:Generated_Source\PSoC4/CapSense_SelfTest.c **** *  Initialize the HW resources to Built-in Self-test mode.
 501:Generated_Source\PSoC4/CapSense_SelfTest.c **** *
 502:Generated_Source\PSoC4/CapSense_SelfTest.c **** * \details
 503:Generated_Source\PSoC4/CapSense_SelfTest.c **** *  Preserved the function to be consistent with other modes (CSX or CSD).
 504:Generated_Source\PSoC4/CapSense_SelfTest.c **** *  In practice resource capturing and initialization are performed later when
 505:Generated_Source\PSoC4/CapSense_SelfTest.c **** *  defined which test type should be executed. Depends on the test type HW
 506:Generated_Source\PSoC4/CapSense_SelfTest.c **** *  resources initialized differently. Only disconnection of all IO from AMUX
 507:Generated_Source\PSoC4/CapSense_SelfTest.c **** *  is common for all the test types.
 508:Generated_Source\PSoC4/CapSense_SelfTest.c **** *
 509:Generated_Source\PSoC4/CapSense_SelfTest.c **** *******************************************************************************/
 510:Generated_Source\PSoC4/CapSense_SelfTest.c **** void CapSense_BistInitialize(void)
 511:Generated_Source\PSoC4/CapSense_SelfTest.c **** {
 512:Generated_Source\PSoC4/CapSense_SelfTest.c ****     #if (CapSense_ENABLE == CapSense_TST_HW_GROUP_EN)
 513:Generated_Source\PSoC4/CapSense_SelfTest.c ****         CapSense_bistCurrentISC = CapSense_BIST_IO_UNDEFINED_E;
 514:Generated_Source\PSoC4/CapSense_SelfTest.c **** 
 515:Generated_Source\PSoC4/CapSense_SelfTest.c ****         #if (CapSense_ENABLE == CapSense_CSD_SHIELD_EN)
 516:Generated_Source\PSoC4/CapSense_SelfTest.c ****             CapSense_SetAllSnsHsiomState(CapSense_TST_HSIOM_GPIO);
 517:Generated_Source\PSoC4/CapSense_SelfTest.c ****         #endif
 518:Generated_Source\PSoC4/CapSense_SelfTest.c ****         /* Set data register to GND that is applicable for all the tests */
 519:Generated_Source\PSoC4/CapSense_SelfTest.c ****         CapSense_SetAllSnsDrState(CapSense_TST_DR_PIN2GND);
 520:Generated_Source\PSoC4/CapSense_SelfTest.c ****     #endif /* (CapSense_ENABLE == CapSense_TST_HW_GROUP_EN) */
 521:Generated_Source\PSoC4/CapSense_SelfTest.c **** }
 522:Generated_Source\PSoC4/CapSense_SelfTest.c **** 
 523:Generated_Source\PSoC4/CapSense_SelfTest.c **** 
 524:Generated_Source\PSoC4/CapSense_SelfTest.c **** #if (CapSense_ENABLE == CapSense_TST_GLOBAL_CRC_EN)
 525:Generated_Source\PSoC4/CapSense_SelfTest.c **** 
 526:Generated_Source\PSoC4/CapSense_SelfTest.c **** /*******************************************************************************
 527:Generated_Source\PSoC4/CapSense_SelfTest.c **** * Function Name: CapSense_CheckGlobalCRC
 528:Generated_Source\PSoC4/CapSense_SelfTest.c **** ****************************************************************************//**
 529:Generated_Source\PSoC4/CapSense_SelfTest.c **** *
 530:Generated_Source\PSoC4/CapSense_SelfTest.c **** * \brief
 531:Generated_Source\PSoC4/CapSense_SelfTest.c **** *  Checks the stored CRC of the CapSense_RAM_STRUCT data structure.
 532:Generated_Source\PSoC4/CapSense_SelfTest.c **** *
 533:Generated_Source\PSoC4/CapSense_SelfTest.c **** * \details
 534:Generated_Source\PSoC4/CapSense_SelfTest.c **** *  This function validates the data integrity of the
 535:Generated_Source\PSoC4/CapSense_SelfTest.c **** *  CapSense_RAM_STRUCT data structure by calculating the CRC and
 536:Generated_Source\PSoC4/CapSense_SelfTest.c **** *  comparing it with the stored CRC value (i.e. CapSense_GLB_CRC_VALUE).
 537:Generated_Source\PSoC4/CapSense_SelfTest.c **** *
 538:Generated_Source\PSoC4/CapSense_SelfTest.c **** *  If the stored and calculated CRC values differ, the calculated CRC
 539:Generated_Source\PSoC4/CapSense_SelfTest.c **** *  is stored to the CapSense_GLB_CRC_CALC_VALUE register and
 540:Generated_Source\PSoC4/CapSense_SelfTest.c **** *  the CapSense_TST_GLOBAL_CRC bit is set in the
 541:Generated_Source\PSoC4/CapSense_SelfTest.c **** *  CapSense_TEST_RESULT_MASK_VALUE register. The function never
 542:Generated_Source\PSoC4/CapSense_SelfTest.c **** *  clears the CapSense_TST_GLOBAL_CRC bit.
 543:Generated_Source\PSoC4/CapSense_SelfTest.c **** *
 544:Generated_Source\PSoC4/CapSense_SelfTest.c **** *  It is recommended to use the CapSense_SetParam() function to
ARM GAS  C:\Users\YUANFA~1\AppData\Local\Temp\ccnzsvc2.s 			page 11


 545:Generated_Source\PSoC4/CapSense_SelfTest.c **** *  change a value of CapSense_RAM_STRUCT data structure register/elements
 546:Generated_Source\PSoC4/CapSense_SelfTest.c **** *  as CRC is updated by the CapSense_SetParam() function.
 547:Generated_Source\PSoC4/CapSense_SelfTest.c **** *
 548:Generated_Source\PSoC4/CapSense_SelfTest.c **** *  This test also can be initiated by using CapSense_RunSelfTest()
 549:Generated_Source\PSoC4/CapSense_SelfTest.c **** *  function with the CapSense_TST_GLOBAL_CRC mask input.
 550:Generated_Source\PSoC4/CapSense_SelfTest.c **** *
 551:Generated_Source\PSoC4/CapSense_SelfTest.c **** * \return
 552:Generated_Source\PSoC4/CapSense_SelfTest.c **** *  Returns a status of the executed test:
 553:Generated_Source\PSoC4/CapSense_SelfTest.c **** *  - CYRET_SUCCESS - The stored CRC matches the calculated CRC
 554:Generated_Source\PSoC4/CapSense_SelfTest.c **** *  - CapSense_TST_GLOBAL_CRC - The stored CRC is wrong.
 555:Generated_Source\PSoC4/CapSense_SelfTest.c **** *
 556:Generated_Source\PSoC4/CapSense_SelfTest.c **** *******************************************************************************/
 557:Generated_Source\PSoC4/CapSense_SelfTest.c **** uint32 CapSense_CheckGlobalCRC(void)
 558:Generated_Source\PSoC4/CapSense_SelfTest.c **** {
 559:Generated_Source\PSoC4/CapSense_SelfTest.c ****     uint32 result = CapSense_TST_GLOBAL_CRC;
 560:Generated_Source\PSoC4/CapSense_SelfTest.c ****     uint16 crcValue = CapSense_DsCalculateCrc16((uint8 *)&CapSense_dsRam +
 561:Generated_Source\PSoC4/CapSense_SelfTest.c ****                                     CapSense_GLOBAL_CRC_AREA_START,
 562:Generated_Source\PSoC4/CapSense_SelfTest.c ****                                     CapSense_GLOBAL_CRC_AREA_SIZE);
 563:Generated_Source\PSoC4/CapSense_SelfTest.c ****     if (CapSense_dsRam.glbCrc == crcValue)
 564:Generated_Source\PSoC4/CapSense_SelfTest.c ****     {
 565:Generated_Source\PSoC4/CapSense_SelfTest.c ****         result = CYRET_SUCCESS;
 566:Generated_Source\PSoC4/CapSense_SelfTest.c ****     }
 567:Generated_Source\PSoC4/CapSense_SelfTest.c ****     else
 568:Generated_Source\PSoC4/CapSense_SelfTest.c ****     {
 569:Generated_Source\PSoC4/CapSense_SelfTest.c ****         CapSense_dsRam.selfTest.glbCrcCalc = crcValue;
 570:Generated_Source\PSoC4/CapSense_SelfTest.c ****         CapSense_dsRam.selfTest.testResultMask |= CapSense_TST_GLOBAL_CRC;
 571:Generated_Source\PSoC4/CapSense_SelfTest.c ****     }
 572:Generated_Source\PSoC4/CapSense_SelfTest.c ****     return result;
 573:Generated_Source\PSoC4/CapSense_SelfTest.c **** }
 574:Generated_Source\PSoC4/CapSense_SelfTest.c **** 
 575:Generated_Source\PSoC4/CapSense_SelfTest.c **** /*******************************************************************************
 576:Generated_Source\PSoC4/CapSense_SelfTest.c **** * Function Name: CapSense_DsUpdateGlobalCrc
 577:Generated_Source\PSoC4/CapSense_SelfTest.c **** ****************************************************************************//**
 578:Generated_Source\PSoC4/CapSense_SelfTest.c **** *
 579:Generated_Source\PSoC4/CapSense_SelfTest.c **** * \brief
 580:Generated_Source\PSoC4/CapSense_SelfTest.c **** *   Recalculates the CRC for the global Component data (certain registers)
 581:Generated_Source\PSoC4/CapSense_SelfTest.c **** *   and writes it to the Data Structure.
 582:Generated_Source\PSoC4/CapSense_SelfTest.c **** *
 583:Generated_Source\PSoC4/CapSense_SelfTest.c **** * \details
 584:Generated_Source\PSoC4/CapSense_SelfTest.c **** *  Uses the function CapSense_DsCalculateCrc16.
 585:Generated_Source\PSoC4/CapSense_SelfTest.c **** *
 586:Generated_Source\PSoC4/CapSense_SelfTest.c **** *******************************************************************************/
 587:Generated_Source\PSoC4/CapSense_SelfTest.c **** void CapSense_DsUpdateGlobalCrc(void)
 588:Generated_Source\PSoC4/CapSense_SelfTest.c **** {
 589:Generated_Source\PSoC4/CapSense_SelfTest.c ****     CapSense_dsRam.glbCrc = CapSense_DsCalculateCrc16((uint8 *)&CapSense_dsRam +
 590:Generated_Source\PSoC4/CapSense_SelfTest.c ****                                                         CapSense_GLOBAL_CRC_AREA_START,
 591:Generated_Source\PSoC4/CapSense_SelfTest.c ****                                                         CapSense_GLOBAL_CRC_AREA_SIZE);
 592:Generated_Source\PSoC4/CapSense_SelfTest.c **** }
 593:Generated_Source\PSoC4/CapSense_SelfTest.c **** #endif /*(CapSense_ENABLE == CapSense_TST_GLOBAL_CRC_EN) */
 594:Generated_Source\PSoC4/CapSense_SelfTest.c **** 
 595:Generated_Source\PSoC4/CapSense_SelfTest.c **** #if (CapSense_ENABLE == CapSense_TST_WDGT_CRC_EN)
 596:Generated_Source\PSoC4/CapSense_SelfTest.c **** 
 597:Generated_Source\PSoC4/CapSense_SelfTest.c **** /*******************************************************************************
 598:Generated_Source\PSoC4/CapSense_SelfTest.c **** * Function Name: CapSense_CheckWidgetCRC
 599:Generated_Source\PSoC4/CapSense_SelfTest.c **** ****************************************************************************//**
 600:Generated_Source\PSoC4/CapSense_SelfTest.c **** *
 601:Generated_Source\PSoC4/CapSense_SelfTest.c **** * \brief
ARM GAS  C:\Users\YUANFA~1\AppData\Local\Temp\ccnzsvc2.s 			page 12


 602:Generated_Source\PSoC4/CapSense_SelfTest.c **** *  Checks the stored CRC of the CapSense_RAM_WD_BASE_STRUCT data
 603:Generated_Source\PSoC4/CapSense_SelfTest.c **** *  structure of the specified widget.
 604:Generated_Source\PSoC4/CapSense_SelfTest.c **** *
 605:Generated_Source\PSoC4/CapSense_SelfTest.c **** * \details
 606:Generated_Source\PSoC4/CapSense_SelfTest.c **** *  This function validates the data integrity of the
 607:Generated_Source\PSoC4/CapSense_SelfTest.c **** *  CapSense_RAM_WD_BASE_STRUCT data structure of the specified widget
 608:Generated_Source\PSoC4/CapSense_SelfTest.c **** *  by calculating the CRC and comparing it with the stored CRC value
 609:Generated_Source\PSoC4/CapSense_SelfTest.c **** *  (i.e. CapSense_<WidgetName>_CRC_VALUE).
 610:Generated_Source\PSoC4/CapSense_SelfTest.c **** *
 611:Generated_Source\PSoC4/CapSense_SelfTest.c **** *  If the stored and calculated CRC values differ:
 612:Generated_Source\PSoC4/CapSense_SelfTest.c **** *  1. The calculated CRC is stored to the CapSense_WDGT_CRC_CALC_VALUE register
 613:Generated_Source\PSoC4/CapSense_SelfTest.c **** *  2. The widget ID is stored to the CapSense_WDGT_CRC_ID_VALUE register
 614:Generated_Source\PSoC4/CapSense_SelfTest.c **** *  3. The CapSense_TST_WDGT_CRC bit is set in the
 615:Generated_Source\PSoC4/CapSense_SelfTest.c **** *     CapSense_TEST_RESULT_MASK_VALUE register.
 616:Generated_Source\PSoC4/CapSense_SelfTest.c **** *
 617:Generated_Source\PSoC4/CapSense_SelfTest.c **** *  The function never clears the CapSense_TST_WDGT_CRC bit.
 618:Generated_Source\PSoC4/CapSense_SelfTest.c **** *  If the CapSense_TST_WDGT_CRC bit is set, the CapSense_WDGT_CRC_CALC_VALUE
 619:Generated_Source\PSoC4/CapSense_SelfTest.c **** *  and CapSense_WDGT_CRC_ID_VALUE registers are not updated.
 620:Generated_Source\PSoC4/CapSense_SelfTest.c **** *
 621:Generated_Source\PSoC4/CapSense_SelfTest.c **** *  It is recommended to use the CapSense_SetParam() function to change
 622:Generated_Source\PSoC4/CapSense_SelfTest.c **** *  a value of CapSense_RAM_WD_BASE_STRUCT data structure register/elements
 623:Generated_Source\PSoC4/CapSense_SelfTest.c **** *  as the CRC is updated by CapSense_SetParam() function.
 624:Generated_Source\PSoC4/CapSense_SelfTest.c **** *
 625:Generated_Source\PSoC4/CapSense_SelfTest.c **** *  This test can be initiated by CapSense_RunSelfTest() function with
 626:Generated_Source\PSoC4/CapSense_SelfTest.c **** *  the CapSense_TST_WDGT_CRC mask as an input.
 627:Generated_Source\PSoC4/CapSense_SelfTest.c **** *
 628:Generated_Source\PSoC4/CapSense_SelfTest.c **** *  The function updates the wdgtWorking register
 629:Generated_Source\PSoC4/CapSense_SelfTest.c **** *  CapSense_WDGT_WORKING<Number>_VALUE by clearing the widget-corresponding bit.
 630:Generated_Source\PSoC4/CapSense_SelfTest.c **** *  Those non-working widgets are skipped by the high-level API.
 631:Generated_Source\PSoC4/CapSense_SelfTest.c **** *  Restoring a widget to its working state should be done by the application level.
 632:Generated_Source\PSoC4/CapSense_SelfTest.c **** *
 633:Generated_Source\PSoC4/CapSense_SelfTest.c **** * \param widgetId
 634:Generated_Source\PSoC4/CapSense_SelfTest.c **** *  Specifies the ID number of the widget to be processed.
 635:Generated_Source\PSoC4/CapSense_SelfTest.c **** *  A macro for the widget ID can be found in the CapSense Configuration
 636:Generated_Source\PSoC4/CapSense_SelfTest.c **** *  header file defined as CapSense_<WidgetName>_WDGT_ID.
 637:Generated_Source\PSoC4/CapSense_SelfTest.c **** *
 638:Generated_Source\PSoC4/CapSense_SelfTest.c **** * \return
 639:Generated_Source\PSoC4/CapSense_SelfTest.c **** *  Returns a status of the test execution:
 640:Generated_Source\PSoC4/CapSense_SelfTest.c **** *  - CYRET_SUCCESS - The stored CRC matches the calculated CRC.
 641:Generated_Source\PSoC4/CapSense_SelfTest.c **** *  - CapSense_TST_WDGT_CRC - The widget CRC is wrong.
 642:Generated_Source\PSoC4/CapSense_SelfTest.c **** *  - CapSense_TST_BAD_PARAM - The input parameter is invalid.
 643:Generated_Source\PSoC4/CapSense_SelfTest.c **** *
 644:Generated_Source\PSoC4/CapSense_SelfTest.c **** *******************************************************************************/
 645:Generated_Source\PSoC4/CapSense_SelfTest.c **** uint32 CapSense_CheckWidgetCRC(uint32 widgetId)
 646:Generated_Source\PSoC4/CapSense_SelfTest.c **** {
 647:Generated_Source\PSoC4/CapSense_SelfTest.c ****     uint32 result = CapSense_TST_WDGT_CRC;
 648:Generated_Source\PSoC4/CapSense_SelfTest.c ****     uint16 crcValue = 0u;
 649:Generated_Source\PSoC4/CapSense_SelfTest.c ****     CapSense_RAM_WD_BASE_STRUCT *ptrWdgt;
 650:Generated_Source\PSoC4/CapSense_SelfTest.c **** 
 651:Generated_Source\PSoC4/CapSense_SelfTest.c ****     if (CapSense_TOTAL_WIDGETS > widgetId)
 652:Generated_Source\PSoC4/CapSense_SelfTest.c ****     {
 653:Generated_Source\PSoC4/CapSense_SelfTest.c ****         /* Get pointer to RAM object data */
 654:Generated_Source\PSoC4/CapSense_SelfTest.c ****         ptrWdgt = (CapSense_RAM_WD_BASE_STRUCT *)CapSense_dsFlash.wdgtArray[widgetId].ptr2WdgtRam;
 655:Generated_Source\PSoC4/CapSense_SelfTest.c ****         crcValue = CapSense_DsCalculateCrc16((uint8 *)ptrWdgt +
 656:Generated_Source\PSoC4/CapSense_SelfTest.c ****                                     CapSense_WIDGET_CRC_AREA_START,
 657:Generated_Source\PSoC4/CapSense_SelfTest.c ****                                     CapSense_WIDGET_CRC_AREA_SIZE);
 658:Generated_Source\PSoC4/CapSense_SelfTest.c ****         if ((ptrWdgt->crc) != crcValue)
ARM GAS  C:\Users\YUANFA~1\AppData\Local\Temp\ccnzsvc2.s 			page 13


 659:Generated_Source\PSoC4/CapSense_SelfTest.c ****         {
 660:Generated_Source\PSoC4/CapSense_SelfTest.c ****             /* Write to self-test data structure wdgtId of the first bad tested widget */
 661:Generated_Source\PSoC4/CapSense_SelfTest.c ****             if (0Lu == (CapSense_dsRam.selfTest.testResultMask &
 662:Generated_Source\PSoC4/CapSense_SelfTest.c ****                        CapSense_TST_WDGT_CRC))
 663:Generated_Source\PSoC4/CapSense_SelfTest.c ****             {
 664:Generated_Source\PSoC4/CapSense_SelfTest.c ****                 CapSense_dsRam.selfTest.wdgtCrcCalc = crcValue;
 665:Generated_Source\PSoC4/CapSense_SelfTest.c ****                 CapSense_dsRam.selfTest.wdgtCrcId = (uint8)widgetId;
 666:Generated_Source\PSoC4/CapSense_SelfTest.c ****                 CapSense_dsRam.selfTest.testResultMask |= CapSense_TST_WDGT_CRC;
 667:Generated_Source\PSoC4/CapSense_SelfTest.c ****             }
 668:Generated_Source\PSoC4/CapSense_SelfTest.c ****             else
 669:Generated_Source\PSoC4/CapSense_SelfTest.c ****             {
 670:Generated_Source\PSoC4/CapSense_SelfTest.c ****             }
 671:Generated_Source\PSoC4/CapSense_SelfTest.c ****             CapSense_dsRam.wdgtWorking[CapSense_GET_WDGT_STATUS_INDEX(widgetId)] &=
 672:Generated_Source\PSoC4/CapSense_SelfTest.c ****                                              ~(CapSense_GET_WDGT_STATUS_MASK(widgetId));
 673:Generated_Source\PSoC4/CapSense_SelfTest.c ****         }
 674:Generated_Source\PSoC4/CapSense_SelfTest.c ****         else
 675:Generated_Source\PSoC4/CapSense_SelfTest.c ****         {
 676:Generated_Source\PSoC4/CapSense_SelfTest.c ****             result = CYRET_SUCCESS;
 677:Generated_Source\PSoC4/CapSense_SelfTest.c ****         }
 678:Generated_Source\PSoC4/CapSense_SelfTest.c ****     }
 679:Generated_Source\PSoC4/CapSense_SelfTest.c ****     else
 680:Generated_Source\PSoC4/CapSense_SelfTest.c ****     {
 681:Generated_Source\PSoC4/CapSense_SelfTest.c ****         result = CapSense_TST_BAD_PARAM;
 682:Generated_Source\PSoC4/CapSense_SelfTest.c ****     }
 683:Generated_Source\PSoC4/CapSense_SelfTest.c ****     return result;
 684:Generated_Source\PSoC4/CapSense_SelfTest.c **** }
 685:Generated_Source\PSoC4/CapSense_SelfTest.c **** 
 686:Generated_Source\PSoC4/CapSense_SelfTest.c **** /*******************************************************************************
 687:Generated_Source\PSoC4/CapSense_SelfTest.c **** * Function Name: CapSense_CheckAllWidgetCRC
 688:Generated_Source\PSoC4/CapSense_SelfTest.c **** ****************************************************************************//**
 689:Generated_Source\PSoC4/CapSense_SelfTest.c **** *
 690:Generated_Source\PSoC4/CapSense_SelfTest.c **** * \brief
 691:Generated_Source\PSoC4/CapSense_SelfTest.c **** *  The internal function that checks CRC of all widget structures.
 692:Generated_Source\PSoC4/CapSense_SelfTest.c **** *
 693:Generated_Source\PSoC4/CapSense_SelfTest.c **** * \details
 694:Generated_Source\PSoC4/CapSense_SelfTest.c **** *  The function calculates CRC of all widget structures and compare it
 695:Generated_Source\PSoC4/CapSense_SelfTest.c **** *  to the stored CRCs.
 696:Generated_Source\PSoC4/CapSense_SelfTest.c **** *  In case of failed comparison the function updates
 697:Generated_Source\PSoC4/CapSense_SelfTest.c **** *  testResultMask and returns the status.
 698:Generated_Source\PSoC4/CapSense_SelfTest.c **** *  The function use CapSense_CheckWidgetCRC.
 699:Generated_Source\PSoC4/CapSense_SelfTest.c **** *
 700:Generated_Source\PSoC4/CapSense_SelfTest.c **** * \return
 701:Generated_Source\PSoC4/CapSense_SelfTest.c **** *  Returns the status of the test processing:
 702:Generated_Source\PSoC4/CapSense_SelfTest.c **** *  - CYRET_SUCCESS if all widget CRC are OK;
 703:Generated_Source\PSoC4/CapSense_SelfTest.c **** *  - CapSense_TST_WDGT_CRC if any widget CRC is wrong.
 704:Generated_Source\PSoC4/CapSense_SelfTest.c **** *  - CapSense_TST_NOT_EXECUTED if any widget is unavailable.
 705:Generated_Source\PSoC4/CapSense_SelfTest.c **** *
 706:Generated_Source\PSoC4/CapSense_SelfTest.c **** *******************************************************************************/
 707:Generated_Source\PSoC4/CapSense_SelfTest.c **** static uint32 CapSense_CheckAllWidgetCRC(void)
 708:Generated_Source\PSoC4/CapSense_SelfTest.c **** {
 709:Generated_Source\PSoC4/CapSense_SelfTest.c ****     uint32 result = CYRET_SUCCESS;
 710:Generated_Source\PSoC4/CapSense_SelfTest.c ****     uint32 wdgtIndex = 0u;
 711:Generated_Source\PSoC4/CapSense_SelfTest.c **** 
 712:Generated_Source\PSoC4/CapSense_SelfTest.c ****     for (wdgtIndex = 0u;
 713:Generated_Source\PSoC4/CapSense_SelfTest.c ****          wdgtIndex < CapSense_TOTAL_WIDGETS;
 714:Generated_Source\PSoC4/CapSense_SelfTest.c ****          wdgtIndex++)
 715:Generated_Source\PSoC4/CapSense_SelfTest.c ****     {
ARM GAS  C:\Users\YUANFA~1\AppData\Local\Temp\ccnzsvc2.s 			page 14


 716:Generated_Source\PSoC4/CapSense_SelfTest.c ****         if (0u != (CapSense_CheckWidgetCRC(wdgtIndex)))
 717:Generated_Source\PSoC4/CapSense_SelfTest.c ****         {
 718:Generated_Source\PSoC4/CapSense_SelfTest.c ****             result |= CapSense_TST_WDGT_CRC;
 719:Generated_Source\PSoC4/CapSense_SelfTest.c ****         }
 720:Generated_Source\PSoC4/CapSense_SelfTest.c ****     }
 721:Generated_Source\PSoC4/CapSense_SelfTest.c ****     return result;
 722:Generated_Source\PSoC4/CapSense_SelfTest.c **** }
 723:Generated_Source\PSoC4/CapSense_SelfTest.c **** 
 724:Generated_Source\PSoC4/CapSense_SelfTest.c **** /*******************************************************************************
 725:Generated_Source\PSoC4/CapSense_SelfTest.c **** * Function Name: CapSense_DsUpdateWidgetCrc
 726:Generated_Source\PSoC4/CapSense_SelfTest.c **** ****************************************************************************//**
 727:Generated_Source\PSoC4/CapSense_SelfTest.c **** *
 728:Generated_Source\PSoC4/CapSense_SelfTest.c **** * \brief
 729:Generated_Source\PSoC4/CapSense_SelfTest.c **** *   Recalculates the CRC for the specified widgetId and
 730:Generated_Source\PSoC4/CapSense_SelfTest.c **** *   writes it to the Data Structure.
 731:Generated_Source\PSoC4/CapSense_SelfTest.c **** *
 732:Generated_Source\PSoC4/CapSense_SelfTest.c **** * \details
 733:Generated_Source\PSoC4/CapSense_SelfTest.c **** *  The maximum size of the RAM Widget Object is 192 bits. So, the best suitable
 734:Generated_Source\PSoC4/CapSense_SelfTest.c **** *  CRC polynomial is 0xAC9A that has hamming distance 5 for the data up to 241 bits.
 735:Generated_Source\PSoC4/CapSense_SelfTest.c **** *
 736:Generated_Source\PSoC4/CapSense_SelfTest.c **** *  Reference:  "P. Koopman, T. Chakravarthy,
 737:Generated_Source\PSoC4/CapSense_SelfTest.c **** *  "Cyclic Redundancy Code (CRC) Polynomial Selection for Embedded Networks",
 738:Generated_Source\PSoC4/CapSense_SelfTest.c **** *  The International Conference on Dependable Systems and Networks, DSN-2004"
 739:Generated_Source\PSoC4/CapSense_SelfTest.c **** *
 740:Generated_Source\PSoC4/CapSense_SelfTest.c **** * \param widgetId  The widget index number.
 741:Generated_Source\PSoC4/CapSense_SelfTest.c **** *
 742:Generated_Source\PSoC4/CapSense_SelfTest.c **** *******************************************************************************/
 743:Generated_Source\PSoC4/CapSense_SelfTest.c **** void CapSense_DsUpdateWidgetCrc(uint32 widgetId)
 744:Generated_Source\PSoC4/CapSense_SelfTest.c **** {
 745:Generated_Source\PSoC4/CapSense_SelfTest.c ****     uint32 len;
 746:Generated_Source\PSoC4/CapSense_SelfTest.c ****     uint8 *ptrData;
 747:Generated_Source\PSoC4/CapSense_SelfTest.c ****     CapSense_RAM_WD_BASE_STRUCT *ptrWdgt;
 748:Generated_Source\PSoC4/CapSense_SelfTest.c **** 
 749:Generated_Source\PSoC4/CapSense_SelfTest.c ****     if (widgetId < CapSense_TOTAL_WIDGETS)
 750:Generated_Source\PSoC4/CapSense_SelfTest.c ****     {
 751:Generated_Source\PSoC4/CapSense_SelfTest.c ****         /* Get pointer to RAM object data */
 752:Generated_Source\PSoC4/CapSense_SelfTest.c ****         ptrWdgt = (CapSense_RAM_WD_BASE_STRUCT *)CapSense_dsFlash.wdgtArray[widgetId].ptr2WdgtRam;
 753:Generated_Source\PSoC4/CapSense_SelfTest.c ****         ptrData = (uint8 *)CapSense_dsFlash.wdgtArray[widgetId].ptr2WdgtRam;
 754:Generated_Source\PSoC4/CapSense_SelfTest.c ****         len = (uint32)CapSense_WIDGET_CRC_AREA_SIZE;
 755:Generated_Source\PSoC4/CapSense_SelfTest.c **** 
 756:Generated_Source\PSoC4/CapSense_SelfTest.c ****         /* Skip CRC in RAM object structure for CRC calculation */
 757:Generated_Source\PSoC4/CapSense_SelfTest.c ****         ptrData += CapSense_WIDGET_CRC_AREA_START;
 758:Generated_Source\PSoC4/CapSense_SelfTest.c **** 
 759:Generated_Source\PSoC4/CapSense_SelfTest.c ****         ptrWdgt->crc = CapSense_DsCalculateCrc16(ptrData, len);
 760:Generated_Source\PSoC4/CapSense_SelfTest.c ****     }
 761:Generated_Source\PSoC4/CapSense_SelfTest.c **** }
 762:Generated_Source\PSoC4/CapSense_SelfTest.c **** #endif /* (CapSense_ENABLE == CapSense_TST_WDGT_CRC_EN) */
 763:Generated_Source\PSoC4/CapSense_SelfTest.c **** 
 764:Generated_Source\PSoC4/CapSense_SelfTest.c **** #if (CapSense_ENABLE == CapSense_TST_CRC_GROUP_EN)
 765:Generated_Source\PSoC4/CapSense_SelfTest.c **** 
 766:Generated_Source\PSoC4/CapSense_SelfTest.c **** /*******************************************************************************
 767:Generated_Source\PSoC4/CapSense_SelfTest.c **** * Function Name: DsCalculateCrc16
 768:Generated_Source\PSoC4/CapSense_SelfTest.c **** ****************************************************************************//**
 769:Generated_Source\PSoC4/CapSense_SelfTest.c **** *
 770:Generated_Source\PSoC4/CapSense_SelfTest.c **** * \brief
 771:Generated_Source\PSoC4/CapSense_SelfTest.c **** *   Calculates CRC for the specified buffer and length. CRC Poly: 0xAC9A
 772:Generated_Source\PSoC4/CapSense_SelfTest.c **** *
ARM GAS  C:\Users\YUANFA~1\AppData\Local\Temp\ccnzsvc2.s 			page 15


 773:Generated_Source\PSoC4/CapSense_SelfTest.c **** * \details
 774:Generated_Source\PSoC4/CapSense_SelfTest.c **** *  This API is used for the CRC protection of the RAM Widget Object.
 775:Generated_Source\PSoC4/CapSense_SelfTest.c **** *  The maximum size of the RAM Widget Object is 192 bits. So, the best suitable
 776:Generated_Source\PSoC4/CapSense_SelfTest.c **** *  CRC polynomial is 0xAC9A. It has a Hamming distance 5 for data words up to 241 bits.
 777:Generated_Source\PSoC4/CapSense_SelfTest.c **** *
 778:Generated_Source\PSoC4/CapSense_SelfTest.c **** *  Reference:  "P. Koopman, T. Chakravarthy,
 779:Generated_Source\PSoC4/CapSense_SelfTest.c **** *  "Cyclic Redundancy Code (CRC) Polynomial Selection for Embedded Networks",
 780:Generated_Source\PSoC4/CapSense_SelfTest.c **** *  The International Conference on Dependable Systems and Networks, DSN-2004"
 781:Generated_Source\PSoC4/CapSense_SelfTest.c **** *
 782:Generated_Source\PSoC4/CapSense_SelfTest.c **** * \param ptrData The pointer to the data.
 783:Generated_Source\PSoC4/CapSense_SelfTest.c **** * \param len     The length of the data in bytes.
 784:Generated_Source\PSoC4/CapSense_SelfTest.c **** *
 785:Generated_Source\PSoC4/CapSense_SelfTest.c **** * \return A calculated CRC-16 value.
 786:Generated_Source\PSoC4/CapSense_SelfTest.c **** *
 787:Generated_Source\PSoC4/CapSense_SelfTest.c **** *******************************************************************************/
 788:Generated_Source\PSoC4/CapSense_SelfTest.c **** static uint16 CapSense_DsCalculateCrc16(uint8 *ptrData, uint32 len)
 789:Generated_Source\PSoC4/CapSense_SelfTest.c **** {
  27              		.loc 1 789 0
  28              		.cfi_startproc
  29              		@ args = 0, pretend = 0, frame = 32
  30              		@ frame_needed = 0, uses_anonymous_args = 0
  31              	.LVL0:
  32 0000 70B5     		push	{r4, r5, r6, lr}
  33              		.cfi_def_cfa_offset 16
  34              		.cfi_offset 4, -16
  35              		.cfi_offset 5, -12
  36              		.cfi_offset 6, -8
  37              		.cfi_offset 14, -4
  38 0002 88B0     		sub	sp, sp, #32
  39              		.cfi_def_cfa_offset 48
  40 0004 0400     		movs	r4, r0
  41 0006 0D00     		movs	r5, r1
  42              	.LVL1:
 790:Generated_Source\PSoC4/CapSense_SelfTest.c ****     uint32 idx;
 791:Generated_Source\PSoC4/CapSense_SelfTest.c ****     uint32 actualCrc = 0Lu;
 792:Generated_Source\PSoC4/CapSense_SelfTest.c ****     const uint16 crcTable[] =
  43              		.loc 1 792 0
  44 0008 2022     		movs	r2, #32
  45 000a 1049     		ldr	r1, .L4
  46              	.LVL2:
  47 000c 6846     		mov	r0, sp
  48              	.LVL3:
  49 000e FFF7FEFF 		bl	memcpy
  50              	.LVL4:
 791:Generated_Source\PSoC4/CapSense_SelfTest.c ****     const uint16 crcTable[] =
  51              		.loc 1 791 0
  52 0012 0020     		movs	r0, #0
 793:Generated_Source\PSoC4/CapSense_SelfTest.c ****     {
 794:Generated_Source\PSoC4/CapSense_SelfTest.c ****         0x0000u, 0xAC9Au, 0xF5AEu, 0x5934u, 0x47C6u, 0xEB5Cu, 0xB268u, 0x1EF2u,
 795:Generated_Source\PSoC4/CapSense_SelfTest.c ****         0x8F8Cu, 0x2316u, 0x7A22u, 0xD6B8u, 0xC84Au, 0x64D0u, 0x3DE4u, 0x917Eu
 796:Generated_Source\PSoC4/CapSense_SelfTest.c ****     };
 797:Generated_Source\PSoC4/CapSense_SelfTest.c **** 
 798:Generated_Source\PSoC4/CapSense_SelfTest.c ****     for (;len-- > 0u;)
  53              		.loc 1 798 0
  54 0014 13E0     		b	.L2
  55              	.LVL5:
  56              	.L3:
ARM GAS  C:\Users\YUANFA~1\AppData\Local\Temp\ccnzsvc2.s 			page 16


 799:Generated_Source\PSoC4/CapSense_SelfTest.c ****     {
 800:Generated_Source\PSoC4/CapSense_SelfTest.c ****         /* Process HI Nibble */
 801:Generated_Source\PSoC4/CapSense_SelfTest.c ****         idx = ((actualCrc >> 12u) ^ (((uint32)*ptrData) >> 4u)) & 0xFLu;
  57              		.loc 1 801 0
  58 0016 050B     		lsrs	r5, r0, #12
  59 0018 2278     		ldrb	r2, [r4]
  60 001a 1309     		lsrs	r3, r2, #4
  61 001c 6B40     		eors	r3, r5
  62 001e 0F25     		movs	r5, #15
  63 0020 2B40     		ands	r3, r5
  64              	.LVL6:
 802:Generated_Source\PSoC4/CapSense_SelfTest.c ****         actualCrc = crcTable[idx] ^ (actualCrc << 4u);
  65              		.loc 1 802 0
  66 0022 5B00     		lsls	r3, r3, #1
  67              	.LVL7:
  68 0024 6E46     		mov	r6, sp
  69 0026 9B5B     		ldrh	r3, [r3, r6]
  70 0028 0001     		lsls	r0, r0, #4
  71              	.LVL8:
  72 002a 4340     		eors	r3, r0
  73              	.LVL9:
 803:Generated_Source\PSoC4/CapSense_SelfTest.c **** 
 804:Generated_Source\PSoC4/CapSense_SelfTest.c ****         /* Process LO Nibble */
 805:Generated_Source\PSoC4/CapSense_SelfTest.c ****         idx = ((actualCrc >> 12u) ^ (uint32)*ptrData) & 0xFLu;
  74              		.loc 1 805 0
  75 002c 180B     		lsrs	r0, r3, #12
  76 002e 4240     		eors	r2, r0
  77 0030 2A40     		ands	r2, r5
  78              	.LVL10:
 806:Generated_Source\PSoC4/CapSense_SelfTest.c ****         actualCrc = crcTable[idx] ^ (actualCrc << 4u);
  79              		.loc 1 806 0
  80 0032 5200     		lsls	r2, r2, #1
  81              	.LVL11:
  82 0034 905B     		ldrh	r0, [r2, r6]
  83              	.LVL12:
  84 0036 1B01     		lsls	r3, r3, #4
  85              	.LVL13:
  86 0038 5840     		eors	r0, r3
  87              	.LVL14:
 807:Generated_Source\PSoC4/CapSense_SelfTest.c **** 
 808:Generated_Source\PSoC4/CapSense_SelfTest.c ****         ptrData++;
  88              		.loc 1 808 0
  89 003a 0134     		adds	r4, r4, #1
  90              	.LVL15:
 798:Generated_Source\PSoC4/CapSense_SelfTest.c ****     {
  91              		.loc 1 798 0
  92 003c 0D00     		movs	r5, r1
  93              	.LVL16:
  94              	.L2:
  95 003e 691E     		subs	r1, r5, #1
  96              	.LVL17:
  97 0040 002D     		cmp	r5, #0
  98 0042 E8D1     		bne	.L3
 809:Generated_Source\PSoC4/CapSense_SelfTest.c ****     }
 810:Generated_Source\PSoC4/CapSense_SelfTest.c **** 
 811:Generated_Source\PSoC4/CapSense_SelfTest.c ****     return (uint16)actualCrc;
  99              		.loc 1 811 0
ARM GAS  C:\Users\YUANFA~1\AppData\Local\Temp\ccnzsvc2.s 			page 17


 100 0044 80B2     		uxth	r0, r0
 101              	.LVL18:
 812:Generated_Source\PSoC4/CapSense_SelfTest.c **** }
 102              		.loc 1 812 0
 103 0046 08B0     		add	sp, sp, #32
 104              		@ sp needed
 105              	.LVL19:
 106 0048 70BD     		pop	{r4, r5, r6, pc}
 107              	.L5:
 108 004a C046     		.align	2
 109              	.L4:
 110 004c 00000000 		.word	.LANCHOR0
 111              		.cfi_endproc
 112              	.LFE9:
 113              		.size	CapSense_DsCalculateCrc16, .-CapSense_DsCalculateCrc16
 114              		.section	.text.CapSense_SnsShortUpdateTestResult,"ax",%progbits
 115              		.align	2
 116              		.code	16
 117              		.thumb_func
 118              		.type	CapSense_SnsShortUpdateTestResult, %function
 119              	CapSense_SnsShortUpdateTestResult:
 120              	.LFB16:
 813:Generated_Source\PSoC4/CapSense_SelfTest.c **** #endif /* (CapSense_ENABLE == CapSense_TST_CRC_GROUP_EN) */
 814:Generated_Source\PSoC4/CapSense_SelfTest.c **** 
 815:Generated_Source\PSoC4/CapSense_SelfTest.c **** #if (CapSense_ENABLE == CapSense_TST_BSLN_DUPLICATION_EN)
 816:Generated_Source\PSoC4/CapSense_SelfTest.c **** /*******************************************************************************
 817:Generated_Source\PSoC4/CapSense_SelfTest.c **** * Function Name: CapSense_CheckBaselineDuplication
 818:Generated_Source\PSoC4/CapSense_SelfTest.c **** ****************************************************************************//**
 819:Generated_Source\PSoC4/CapSense_SelfTest.c **** *
 820:Generated_Source\PSoC4/CapSense_SelfTest.c **** * \brief
 821:Generated_Source\PSoC4/CapSense_SelfTest.c **** *  Checks that the baseline of the specified widget/sensor is not corrupted by
 822:Generated_Source\PSoC4/CapSense_SelfTest.c **** *  comparing it with a baseline inverse copy.
 823:Generated_Source\PSoC4/CapSense_SelfTest.c **** *
 824:Generated_Source\PSoC4/CapSense_SelfTest.c **** * \details
 825:Generated_Source\PSoC4/CapSense_SelfTest.c **** *  This function validates the integrity of baseline of sensor by comparing
 826:Generated_Source\PSoC4/CapSense_SelfTest.c **** *  the conformity of the baseline and its inversion.
 827:Generated_Source\PSoC4/CapSense_SelfTest.c **** *
 828:Generated_Source\PSoC4/CapSense_SelfTest.c **** *  If the baseline does not match its inverse copy:
 829:Generated_Source\PSoC4/CapSense_SelfTest.c **** *  1. The widget ID is stored to the CapSense_INV_BSLN_WDGT_ID_VALUE register
 830:Generated_Source\PSoC4/CapSense_SelfTest.c **** *  2. The sensor ID is stored to the CapSense_INV_BSLN_SNS_ID_VALUE register
 831:Generated_Source\PSoC4/CapSense_SelfTest.c **** *  3. The CapSense_TST_BSLN_DUPLICATION bit is set in the
 832:Generated_Source\PSoC4/CapSense_SelfTest.c **** *     CapSense_TEST_RESULT_MASK_VALUE register.
 833:Generated_Source\PSoC4/CapSense_SelfTest.c **** *
 834:Generated_Source\PSoC4/CapSense_SelfTest.c **** *  The function never clears the CapSense_TST_BSLN_DUPLICATION bit.
 835:Generated_Source\PSoC4/CapSense_SelfTest.c **** *  If the CapSense_TST_BSLN_DUPLICATION bit is set, the CapSense_INV_BSLN_WDGT_ID_VALUE
 836:Generated_Source\PSoC4/CapSense_SelfTest.c **** *  and CapSense_INV_BSLN_SNS_ID_VALUE registers are not updated.
 837:Generated_Source\PSoC4/CapSense_SelfTest.c **** *
 838:Generated_Source\PSoC4/CapSense_SelfTest.c **** *  It is possible to execute a test for all the widgets using CapSense_RunSelfTest() function
 839:Generated_Source\PSoC4/CapSense_SelfTest.c **** *  with the CapSense_TST_BSLN_DUPLICATION mask.
 840:Generated_Source\PSoC4/CapSense_SelfTest.c **** *  In this case, the CapSense_INV_BSLN_WDGT_ID_VALUE and
 841:Generated_Source\PSoC4/CapSense_SelfTest.c **** *  CapSense_INV_BSLN_SNS_ID_VALUE registers contain the widget and
 842:Generated_Source\PSoC4/CapSense_SelfTest.c **** *  sensor ID of the first detected fail.
 843:Generated_Source\PSoC4/CapSense_SelfTest.c **** *
 844:Generated_Source\PSoC4/CapSense_SelfTest.c **** *  The function updates the wdgtWorking register CapSense_WDGT_WORKING<Number>_VALUE
 845:Generated_Source\PSoC4/CapSense_SelfTest.c **** *  by clearing the widget-corresponding bit. Those non-working widgets are skipped by
 846:Generated_Source\PSoC4/CapSense_SelfTest.c **** *  the high-level API. Restoring a widget to its working state should be done by the application le
 847:Generated_Source\PSoC4/CapSense_SelfTest.c **** *
ARM GAS  C:\Users\YUANFA~1\AppData\Local\Temp\ccnzsvc2.s 			page 18


 848:Generated_Source\PSoC4/CapSense_SelfTest.c **** *  The test is integrated into the CapSense Component. All CapSense
 849:Generated_Source\PSoC4/CapSense_SelfTest.c **** *  processing functions like CapSense_ProcessAllWidgets()
 850:Generated_Source\PSoC4/CapSense_SelfTest.c **** *  or CapSense_UpdateSensorBaseline() automatically verify the baseline
 851:Generated_Source\PSoC4/CapSense_SelfTest.c **** *  value before using it and update its inverse copy after processing.
 852:Generated_Source\PSoC4/CapSense_SelfTest.c **** *  If fail is detected during a baseline update a CYRET_BAD_DATA result
 853:Generated_Source\PSoC4/CapSense_SelfTest.c **** *  is returned. The baseline initialization functions do not verify the
 854:Generated_Source\PSoC4/CapSense_SelfTest.c **** *  baseline and update the baseline inverse copy.
 855:Generated_Source\PSoC4/CapSense_SelfTest.c **** *
 856:Generated_Source\PSoC4/CapSense_SelfTest.c **** * \param widgetId
 857:Generated_Source\PSoC4/CapSense_SelfTest.c **** *  Specifies the ID number of the widget to be processed.
 858:Generated_Source\PSoC4/CapSense_SelfTest.c **** *  A macro for the widget ID can be found in the
 859:Generated_Source\PSoC4/CapSense_SelfTest.c **** *  CapSense Configuration header file defined as
 860:Generated_Source\PSoC4/CapSense_SelfTest.c **** *  CapSense_<WidgetName>_WDGT_ID.
 861:Generated_Source\PSoC4/CapSense_SelfTest.c **** *
 862:Generated_Source\PSoC4/CapSense_SelfTest.c **** * \param sensorId
 863:Generated_Source\PSoC4/CapSense_SelfTest.c **** *  Specifies the ID number of the sensor within the widget.
 864:Generated_Source\PSoC4/CapSense_SelfTest.c **** *  A macro for the sensor ID within the specified widget can be found in
 865:Generated_Source\PSoC4/CapSense_SelfTest.c **** *  the CapSense Configuration header file defined as
 866:Generated_Source\PSoC4/CapSense_SelfTest.c **** *  CapSense_<WidgetName>_SNS<SensorNumber>_ID.
 867:Generated_Source\PSoC4/CapSense_SelfTest.c **** *
 868:Generated_Source\PSoC4/CapSense_SelfTest.c **** * \return
 869:Generated_Source\PSoC4/CapSense_SelfTest.c **** *  Returns the status of the test execution:
 870:Generated_Source\PSoC4/CapSense_SelfTest.c **** *  - CY_RET_SUCCESS - The baseline matches its inverse copy.
 871:Generated_Source\PSoC4/CapSense_SelfTest.c **** *  - CapSense_TST_BSLN_DUPLICATION - The test failed.
 872:Generated_Source\PSoC4/CapSense_SelfTest.c **** *  - CapSense_TST_BAD_PARAM - The input parameters are invalid.
 873:Generated_Source\PSoC4/CapSense_SelfTest.c **** *
 874:Generated_Source\PSoC4/CapSense_SelfTest.c **** *******************************************************************************/
 875:Generated_Source\PSoC4/CapSense_SelfTest.c **** uint32 CapSense_CheckBaselineDuplication(uint32 widgetId, uint32 sensorId)
 876:Generated_Source\PSoC4/CapSense_SelfTest.c **** {
 877:Generated_Source\PSoC4/CapSense_SelfTest.c ****     uint32 result = CYRET_SUCCESS;
 878:Generated_Source\PSoC4/CapSense_SelfTest.c ****     uint32 freqChannel;
 879:Generated_Source\PSoC4/CapSense_SelfTest.c ****     CapSense_RAM_SNS_STRUCT *ptrSensor = NULL;
 880:Generated_Source\PSoC4/CapSense_SelfTest.c ****     CapSense_FLASH_WD_STRUCT const *ptrWidget = NULL;
 881:Generated_Source\PSoC4/CapSense_SelfTest.c **** 
 882:Generated_Source\PSoC4/CapSense_SelfTest.c ****     if ((CapSense_TOTAL_WIDGETS > widgetId) && ((CapSense_GET_SENSOR_COUNT(widgetId)) > sensorId))
 883:Generated_Source\PSoC4/CapSense_SelfTest.c ****     {
 884:Generated_Source\PSoC4/CapSense_SelfTest.c ****         ptrWidget = &CapSense_dsFlash.wdgtArray[widgetId];
 885:Generated_Source\PSoC4/CapSense_SelfTest.c ****         /* Find pointer to specified sensor object */
 886:Generated_Source\PSoC4/CapSense_SelfTest.c ****         ptrSensor = ptrWidget->ptr2SnsRam;
 887:Generated_Source\PSoC4/CapSense_SelfTest.c ****         ptrSensor = &ptrSensor[sensorId];
 888:Generated_Source\PSoC4/CapSense_SelfTest.c ****         /* Check baseline inversion of every channel in sensor */
 889:Generated_Source\PSoC4/CapSense_SelfTest.c ****         for(freqChannel = 0u; freqChannel < CapSense_NUM_SCAN_FREQS; freqChannel++)
 890:Generated_Source\PSoC4/CapSense_SelfTest.c ****         {
 891:Generated_Source\PSoC4/CapSense_SelfTest.c ****             if (ptrSensor->bsln[freqChannel] != ((uint16) ~(ptrSensor->bslnInv[freqChannel])))
 892:Generated_Source\PSoC4/CapSense_SelfTest.c ****             {
 893:Generated_Source\PSoC4/CapSense_SelfTest.c ****                 CapSense_UpdateTestResultBaselineDuplication(widgetId, sensorId);
 894:Generated_Source\PSoC4/CapSense_SelfTest.c ****                 result |= CapSense_TST_BSLN_DUPLICATION;
 895:Generated_Source\PSoC4/CapSense_SelfTest.c ****             }
 896:Generated_Source\PSoC4/CapSense_SelfTest.c ****         }
 897:Generated_Source\PSoC4/CapSense_SelfTest.c ****     }
 898:Generated_Source\PSoC4/CapSense_SelfTest.c ****     else
 899:Generated_Source\PSoC4/CapSense_SelfTest.c ****     {
 900:Generated_Source\PSoC4/CapSense_SelfTest.c ****         result |= CapSense_TST_BAD_PARAM;
 901:Generated_Source\PSoC4/CapSense_SelfTest.c ****     }
 902:Generated_Source\PSoC4/CapSense_SelfTest.c ****     return result;
 903:Generated_Source\PSoC4/CapSense_SelfTest.c **** }
 904:Generated_Source\PSoC4/CapSense_SelfTest.c **** 
ARM GAS  C:\Users\YUANFA~1\AppData\Local\Temp\ccnzsvc2.s 			page 19


 905:Generated_Source\PSoC4/CapSense_SelfTest.c **** /*******************************************************************************
 906:Generated_Source\PSoC4/CapSense_SelfTest.c **** * Function Name: CapSense_CheckAllBaselineDuplication
 907:Generated_Source\PSoC4/CapSense_SelfTest.c **** ****************************************************************************//**
 908:Generated_Source\PSoC4/CapSense_SelfTest.c **** *
 909:Generated_Source\PSoC4/CapSense_SelfTest.c **** * \brief
 910:Generated_Source\PSoC4/CapSense_SelfTest.c **** *  The internal function that checks baseline duplication of all the sensors.
 911:Generated_Source\PSoC4/CapSense_SelfTest.c **** *
 912:Generated_Source\PSoC4/CapSense_SelfTest.c **** * \details
 913:Generated_Source\PSoC4/CapSense_SelfTest.c **** *  The function checks baseline duplication of all the sensors by using
 914:Generated_Source\PSoC4/CapSense_SelfTest.c **** *  CapSense_CheckBaselineDuplication() function.
 915:Generated_Source\PSoC4/CapSense_SelfTest.c **** *
 916:Generated_Source\PSoC4/CapSense_SelfTest.c **** * \return
 917:Generated_Source\PSoC4/CapSense_SelfTest.c **** *  Returns the status of the test processing:
 918:Generated_Source\PSoC4/CapSense_SelfTest.c **** *    - CYRET_SUCCESS if the test is successfully completed;
 919:Generated_Source\PSoC4/CapSense_SelfTest.c **** *    - CapSense_TST_BSLN_DUPLICATION if any sensor baseline duplication
 920:Generated_Source\PSoC4/CapSense_SelfTest.c ****        is wrong;
 921:Generated_Source\PSoC4/CapSense_SelfTest.c **** *******************************************************************************/
 922:Generated_Source\PSoC4/CapSense_SelfTest.c **** static uint32 CapSense_CheckAllBaselineDuplication(void)
 923:Generated_Source\PSoC4/CapSense_SelfTest.c **** {
 924:Generated_Source\PSoC4/CapSense_SelfTest.c ****     uint32 result = CYRET_SUCCESS;
 925:Generated_Source\PSoC4/CapSense_SelfTest.c ****     uint32 wdgtIndex;
 926:Generated_Source\PSoC4/CapSense_SelfTest.c ****     uint32 snsIndex;
 927:Generated_Source\PSoC4/CapSense_SelfTest.c **** 
 928:Generated_Source\PSoC4/CapSense_SelfTest.c ****     for (wdgtIndex = 0u; wdgtIndex < CapSense_TOTAL_WIDGETS; wdgtIndex++)
 929:Generated_Source\PSoC4/CapSense_SelfTest.c ****     {
 930:Generated_Source\PSoC4/CapSense_SelfTest.c ****         for (snsIndex = 0u; snsIndex < (CapSense_GET_SENSOR_COUNT(wdgtIndex)); snsIndex++)
 931:Generated_Source\PSoC4/CapSense_SelfTest.c ****         {
 932:Generated_Source\PSoC4/CapSense_SelfTest.c ****             if (CYRET_SUCCESS != CapSense_CheckBaselineDuplication(wdgtIndex, snsIndex))
 933:Generated_Source\PSoC4/CapSense_SelfTest.c ****             {
 934:Generated_Source\PSoC4/CapSense_SelfTest.c ****                 result |= CapSense_TST_BSLN_DUPLICATION;
 935:Generated_Source\PSoC4/CapSense_SelfTest.c ****                 break;
 936:Generated_Source\PSoC4/CapSense_SelfTest.c ****             }
 937:Generated_Source\PSoC4/CapSense_SelfTest.c ****         }
 938:Generated_Source\PSoC4/CapSense_SelfTest.c ****     }
 939:Generated_Source\PSoC4/CapSense_SelfTest.c ****     return result;
 940:Generated_Source\PSoC4/CapSense_SelfTest.c **** }
 941:Generated_Source\PSoC4/CapSense_SelfTest.c **** 
 942:Generated_Source\PSoC4/CapSense_SelfTest.c **** /*******************************************************************************
 943:Generated_Source\PSoC4/CapSense_SelfTest.c **** * Function Name: CapSense_UpdateTestResultBaselineDuplication
 944:Generated_Source\PSoC4/CapSense_SelfTest.c **** ****************************************************************************//**
 945:Generated_Source\PSoC4/CapSense_SelfTest.c **** *
 946:Generated_Source\PSoC4/CapSense_SelfTest.c **** * \brief
 947:Generated_Source\PSoC4/CapSense_SelfTest.c **** *  The internal function that updates SefTest data structure and
 948:Generated_Source\PSoC4/CapSense_SelfTest.c **** *  widgetWorking register.
 949:Generated_Source\PSoC4/CapSense_SelfTest.c **** *
 950:Generated_Source\PSoC4/CapSense_SelfTest.c **** * \details
 951:Generated_Source\PSoC4/CapSense_SelfTest.c **** *  The function resets a corresponding bit in widgetWorking register,
 952:Generated_Source\PSoC4/CapSense_SelfTest.c **** *  checks TestResultMask for CapSense_TST_BSLN_DUPLICATION
 953:Generated_Source\PSoC4/CapSense_SelfTest.c **** *  bit and if it was not setted to 1 sets it and memorizes wdgtId and snsId
 954:Generated_Source\PSoC4/CapSense_SelfTest.c **** *  in registers invBslnWdgtId and invBslnSnsId of the SefTest data structure.
 955:Generated_Source\PSoC4/CapSense_SelfTest.c **** *
 956:Generated_Source\PSoC4/CapSense_SelfTest.c **** * \param widgetId
 957:Generated_Source\PSoC4/CapSense_SelfTest.c **** *  Specifies the ID number of the widget to be processed.
 958:Generated_Source\PSoC4/CapSense_SelfTest.c **** *
 959:Generated_Source\PSoC4/CapSense_SelfTest.c **** * \param sensorId
 960:Generated_Source\PSoC4/CapSense_SelfTest.c **** *  Specifies the ID number of the sensor within the widget which
 961:Generated_Source\PSoC4/CapSense_SelfTest.c **** *  will be processed.
ARM GAS  C:\Users\YUANFA~1\AppData\Local\Temp\ccnzsvc2.s 			page 20


 962:Generated_Source\PSoC4/CapSense_SelfTest.c **** *
 963:Generated_Source\PSoC4/CapSense_SelfTest.c **** *******************************************************************************/
 964:Generated_Source\PSoC4/CapSense_SelfTest.c **** void CapSense_UpdateTestResultBaselineDuplication(uint32 widgetId, uint32 sensorId)
 965:Generated_Source\PSoC4/CapSense_SelfTest.c **** {
 966:Generated_Source\PSoC4/CapSense_SelfTest.c ****     CapSense_dsRam.wdgtWorking[CapSense_GET_WDGT_STATUS_INDEX(widgetId)] &=
 967:Generated_Source\PSoC4/CapSense_SelfTest.c ****                                      ~(CapSense_GET_WDGT_STATUS_MASK(widgetId));
 968:Generated_Source\PSoC4/CapSense_SelfTest.c ****     /* Write to self-test data structure wdgtId and snsId of the first sensor with a damaged baseli
 969:Generated_Source\PSoC4/CapSense_SelfTest.c ****     if (0Lu == (CapSense_dsRam.selfTest.testResultMask &
 970:Generated_Source\PSoC4/CapSense_SelfTest.c ****                 CapSense_TST_BSLN_DUPLICATION))
 971:Generated_Source\PSoC4/CapSense_SelfTest.c ****     {
 972:Generated_Source\PSoC4/CapSense_SelfTest.c ****         CapSense_dsRam.selfTest.testResultMask |= CapSense_TST_BSLN_DUPLICATION;
 973:Generated_Source\PSoC4/CapSense_SelfTest.c ****         CapSense_dsRam.selfTest.invBslnWdgtId = (uint8)widgetId;
 974:Generated_Source\PSoC4/CapSense_SelfTest.c ****         CapSense_dsRam.selfTest.invBslnSnsId = (uint8)sensorId;
 975:Generated_Source\PSoC4/CapSense_SelfTest.c ****     }
 976:Generated_Source\PSoC4/CapSense_SelfTest.c **** }
 977:Generated_Source\PSoC4/CapSense_SelfTest.c **** #endif /*(CapSense_ENABLE == CapSense_TST_BSLN_DUPLICATION_EN)*/
 978:Generated_Source\PSoC4/CapSense_SelfTest.c **** 
 979:Generated_Source\PSoC4/CapSense_SelfTest.c **** #if (CapSense_ENABLE == CapSense_TST_BSLN_RAW_OUT_RANGE_EN)
 980:Generated_Source\PSoC4/CapSense_SelfTest.c **** 
 981:Generated_Source\PSoC4/CapSense_SelfTest.c **** /*******************************************************************************
 982:Generated_Source\PSoC4/CapSense_SelfTest.c **** * Function Name: CapSense_CheckBaselineRawcountRange
 983:Generated_Source\PSoC4/CapSense_SelfTest.c **** ****************************************************************************//**
 984:Generated_Source\PSoC4/CapSense_SelfTest.c **** *
 985:Generated_Source\PSoC4/CapSense_SelfTest.c **** * \brief
 986:Generated_Source\PSoC4/CapSense_SelfTest.c **** *  Checks that raw count and baseline of the specified widget/sensor are
 987:Generated_Source\PSoC4/CapSense_SelfTest.c **** *  within the specified range.
 988:Generated_Source\PSoC4/CapSense_SelfTest.c **** *
 989:Generated_Source\PSoC4/CapSense_SelfTest.c **** * \details
 990:Generated_Source\PSoC4/CapSense_SelfTest.c **** *  The baseline and raw count shall be within specific range (based on
 991:Generated_Source\PSoC4/CapSense_SelfTest.c **** *  calibration target) for good units. The function checks whether or not
 992:Generated_Source\PSoC4/CapSense_SelfTest.c **** *  the baseline and raw count are within the limits defined by the user in the
 993:Generated_Source\PSoC4/CapSense_SelfTest.c **** *  ranges function argument. If baseline or raw count are out of limits this
 994:Generated_Source\PSoC4/CapSense_SelfTest.c **** *  function sets the CapSense_TST_BSLN_RAW_OUT_RANGE bit in the
 995:Generated_Source\PSoC4/CapSense_SelfTest.c **** *  CapSense_TEST_RESULT_MASK_VALUE register.
 996:Generated_Source\PSoC4/CapSense_SelfTest.c **** *
 997:Generated_Source\PSoC4/CapSense_SelfTest.c **** *  Unlike other tests, this test does not update
 998:Generated_Source\PSoC4/CapSense_SelfTest.c **** *  CapSense_WDGT_WORKING<Number>_VALUE register and is not available in
 999:Generated_Source\PSoC4/CapSense_SelfTest.c **** *  the CapSense_RunSelfTest() function.
1000:Generated_Source\PSoC4/CapSense_SelfTest.c **** *
1001:Generated_Source\PSoC4/CapSense_SelfTest.c **** *  Use this function to verify the uniformity of sensors, for example, at
1002:Generated_Source\PSoC4/CapSense_SelfTest.c **** *  mass-production or during an operation phase.
1003:Generated_Source\PSoC4/CapSense_SelfTest.c **** *
1004:Generated_Source\PSoC4/CapSense_SelfTest.c **** * \param widgetId
1005:Generated_Source\PSoC4/CapSense_SelfTest.c **** *  Specifies the ID number of the widget.
1006:Generated_Source\PSoC4/CapSense_SelfTest.c **** *  A macro for the widget ID can be found in the
1007:Generated_Source\PSoC4/CapSense_SelfTest.c **** *  CapSense Configuration header file defined as
1008:Generated_Source\PSoC4/CapSense_SelfTest.c **** *  CapSense_<WidgetName>_WDGT_ID.
1009:Generated_Source\PSoC4/CapSense_SelfTest.c **** *
1010:Generated_Source\PSoC4/CapSense_SelfTest.c **** * \param sensorId
1011:Generated_Source\PSoC4/CapSense_SelfTest.c **** *  Specifies the ID number of the sensor within the widget.
1012:Generated_Source\PSoC4/CapSense_SelfTest.c **** *  A macro for the sensor ID within the specified widget can be found in
1013:Generated_Source\PSoC4/CapSense_SelfTest.c **** *  the CapSense Configuration header file defined as
1014:Generated_Source\PSoC4/CapSense_SelfTest.c **** *  CapSense_<WidgetName>_SNS<SensorNumber>_ID.
1015:Generated_Source\PSoC4/CapSense_SelfTest.c **** *
1016:Generated_Source\PSoC4/CapSense_SelfTest.c **** * \param *ranges
1017:Generated_Source\PSoC4/CapSense_SelfTest.c **** *  Specifies the pointer to the CapSense_BSLN_RAW_RANGE_STRUCT structure
1018:Generated_Source\PSoC4/CapSense_SelfTest.c **** *  with valid ranges for the raw count and baseline.
ARM GAS  C:\Users\YUANFA~1\AppData\Local\Temp\ccnzsvc2.s 			page 21


1019:Generated_Source\PSoC4/CapSense_SelfTest.c **** *
1020:Generated_Source\PSoC4/CapSense_SelfTest.c **** * \return
1021:Generated_Source\PSoC4/CapSense_SelfTest.c **** *  Returns a status of the test execution:
1022:Generated_Source\PSoC4/CapSense_SelfTest.c **** *  - CYRET_SUCCESS - The raw count and baseline are within the specified range
1023:Generated_Source\PSoC4/CapSense_SelfTest.c **** *  - CapSense_TST_BSLN_RAW_OUT_RANGE - The test failed and baseline or
1024:Generated_Source\PSoC4/CapSense_SelfTest.c ****      raw count or both are out of the specified limit.
1025:Generated_Source\PSoC4/CapSense_SelfTest.c **** *  - CapSense_TST_BAD_PARAM - The input parameters are invalid.
1026:Generated_Source\PSoC4/CapSense_SelfTest.c **** *
1027:Generated_Source\PSoC4/CapSense_SelfTest.c **** *******************************************************************************/
1028:Generated_Source\PSoC4/CapSense_SelfTest.c **** uint32 CapSense_CheckBaselineRawcountRange(uint32 widgetId, uint32 sensorId,CapSense_BSLN_RAW_RANGE
1029:Generated_Source\PSoC4/CapSense_SelfTest.c **** {
1030:Generated_Source\PSoC4/CapSense_SelfTest.c ****     uint32 result = CYRET_SUCCESS;
1031:Generated_Source\PSoC4/CapSense_SelfTest.c ****     uint32 freqChannel;
1032:Generated_Source\PSoC4/CapSense_SelfTest.c ****     CapSense_RAM_SNS_STRUCT *ptrSensor = NULL;
1033:Generated_Source\PSoC4/CapSense_SelfTest.c ****     CapSense_FLASH_WD_STRUCT const *ptrWidget = NULL;
1034:Generated_Source\PSoC4/CapSense_SelfTest.c **** 
1035:Generated_Source\PSoC4/CapSense_SelfTest.c **** 
1036:Generated_Source\PSoC4/CapSense_SelfTest.c ****     if ((CapSense_TOTAL_WIDGETS > widgetId) &&
1037:Generated_Source\PSoC4/CapSense_SelfTest.c ****        ((CapSense_GET_SENSOR_COUNT(widgetId)) > sensorId))
1038:Generated_Source\PSoC4/CapSense_SelfTest.c ****     {
1039:Generated_Source\PSoC4/CapSense_SelfTest.c ****         ptrWidget = &CapSense_dsFlash.wdgtArray[widgetId];
1040:Generated_Source\PSoC4/CapSense_SelfTest.c ****         /* Find pointer to specified sensor object */
1041:Generated_Source\PSoC4/CapSense_SelfTest.c ****         ptrSensor = ptrWidget->ptr2SnsRam;
1042:Generated_Source\PSoC4/CapSense_SelfTest.c ****         ptrSensor = &ptrSensor[sensorId];
1043:Generated_Source\PSoC4/CapSense_SelfTest.c **** 
1044:Generated_Source\PSoC4/CapSense_SelfTest.c ****         #if(CapSense_ENABLE == CapSense_MULTI_FREQ_SCAN_EN)
1045:Generated_Source\PSoC4/CapSense_SelfTest.c ****         /* Check baseline and rawcont of every channel in sensor */
1046:Generated_Source\PSoC4/CapSense_SelfTest.c ****             for(freqChannel = 0u;
1047:Generated_Source\PSoC4/CapSense_SelfTest.c ****                 freqChannel < CapSense_NUM_SCAN_FREQS;
1048:Generated_Source\PSoC4/CapSense_SelfTest.c ****                 freqChannel++)
1049:Generated_Source\PSoC4/CapSense_SelfTest.c ****             {
1050:Generated_Source\PSoC4/CapSense_SelfTest.c ****         #else
1051:Generated_Source\PSoC4/CapSense_SelfTest.c ****             freqChannel = 0u;
1052:Generated_Source\PSoC4/CapSense_SelfTest.c ****         #endif /* (CapSense_ENABLE == CapSense_MULTI_FREQ_SCAN_EN) */
1053:Generated_Source\PSoC4/CapSense_SelfTest.c **** 
1054:Generated_Source\PSoC4/CapSense_SelfTest.c ****                 if ((ptrSensor->bsln[freqChannel] > ranges->bslnHiLim) ||
1055:Generated_Source\PSoC4/CapSense_SelfTest.c ****                     (ptrSensor->bsln[freqChannel] < ranges->bslnLoLim) ||
1056:Generated_Source\PSoC4/CapSense_SelfTest.c ****                     (ptrSensor->raw[freqChannel]  > ranges->rawHiLim)  ||
1057:Generated_Source\PSoC4/CapSense_SelfTest.c ****                     (ptrSensor->raw[freqChannel]  < ranges->rawLoLim))
1058:Generated_Source\PSoC4/CapSense_SelfTest.c ****                 {
1059:Generated_Source\PSoC4/CapSense_SelfTest.c ****                     CapSense_dsRam.selfTest.testResultMask |= CapSense_TST_BSLN_RAW_OUT_RANGE;
1060:Generated_Source\PSoC4/CapSense_SelfTest.c ****                     result = CapSense_TST_BSLN_RAW_OUT_RANGE;
1061:Generated_Source\PSoC4/CapSense_SelfTest.c ****                 }
1062:Generated_Source\PSoC4/CapSense_SelfTest.c **** 
1063:Generated_Source\PSoC4/CapSense_SelfTest.c ****         #if(CapSense_ENABLE == CapSense_MULTI_FREQ_SCAN_EN)
1064:Generated_Source\PSoC4/CapSense_SelfTest.c ****             }
1065:Generated_Source\PSoC4/CapSense_SelfTest.c ****         #endif /* (CapSense_ENABLE == CapSense_MULTI_FREQ_SCAN_EN) */
1066:Generated_Source\PSoC4/CapSense_SelfTest.c **** 
1067:Generated_Source\PSoC4/CapSense_SelfTest.c ****     }
1068:Generated_Source\PSoC4/CapSense_SelfTest.c ****     else
1069:Generated_Source\PSoC4/CapSense_SelfTest.c ****     {
1070:Generated_Source\PSoC4/CapSense_SelfTest.c ****         result |= CapSense_TST_BAD_PARAM;
1071:Generated_Source\PSoC4/CapSense_SelfTest.c ****     }
1072:Generated_Source\PSoC4/CapSense_SelfTest.c ****     return result;
1073:Generated_Source\PSoC4/CapSense_SelfTest.c **** }
1074:Generated_Source\PSoC4/CapSense_SelfTest.c **** #endif /* (CapSense_ENABLE == CapSense_TST_BSLN_RAW_OUT_RANGE_EN) */
1075:Generated_Source\PSoC4/CapSense_SelfTest.c **** 
ARM GAS  C:\Users\YUANFA~1\AppData\Local\Temp\ccnzsvc2.s 			page 22


1076:Generated_Source\PSoC4/CapSense_SelfTest.c **** 
1077:Generated_Source\PSoC4/CapSense_SelfTest.c **** #if (CapSense_ENABLE == CapSense_TST_HW_GROUP_EN)
1078:Generated_Source\PSoC4/CapSense_SelfTest.c ****     #if (((CapSense_ENABLE == CapSense_CSD_EN) || (CapSense_ENABLE == CapSense_CSX_EN)) &&\
1079:Generated_Source\PSoC4/CapSense_SelfTest.c ****          (CapSense_ENABLE == CapSense_TST_SNS_SHORT_EN))
1080:Generated_Source\PSoC4/CapSense_SelfTest.c ****         /*******************************************************************************
1081:Generated_Source\PSoC4/CapSense_SelfTest.c ****         * Function Name: CapSense_CheckIntegritySensorPins
1082:Generated_Source\PSoC4/CapSense_SelfTest.c ****         ****************************************************************************//**
1083:Generated_Source\PSoC4/CapSense_SelfTest.c ****         *
1084:Generated_Source\PSoC4/CapSense_SelfTest.c ****         * \brief
1085:Generated_Source\PSoC4/CapSense_SelfTest.c ****         *  Checks the specified widget/sensor for shorts to GND, VDD or other sensors.
1086:Generated_Source\PSoC4/CapSense_SelfTest.c ****         *
1087:Generated_Source\PSoC4/CapSense_SelfTest.c ****         * \details
1088:Generated_Source\PSoC4/CapSense_SelfTest.c ****         *  This function performs several tests to verify a specified sensor that
1089:Generated_Source\PSoC4/CapSense_SelfTest.c ****         *  is not electrically shorted and in good condition to reliably detect
1090:Generated_Source\PSoC4/CapSense_SelfTest.c ****         *  user interactions.
1091:Generated_Source\PSoC4/CapSense_SelfTest.c ****         *
1092:Generated_Source\PSoC4/CapSense_SelfTest.c ****         *  This function performs tests to check if the specified sensor is shorted to:
1093:Generated_Source\PSoC4/CapSense_SelfTest.c ****         *   * GND, VDD
1094:Generated_Source\PSoC4/CapSense_SelfTest.c ****         *   * Other GPIOs used by CapSense (such as sensors, Tx, Rx,
1095:Generated_Source\PSoC4/CapSense_SelfTest.c ****         *     shield electrodes, and external capacitors)
1096:Generated_Source\PSoC4/CapSense_SelfTest.c ****         *   * Other non-CapSense GPIOs (only if they are configured
1097:Generated_Source\PSoC4/CapSense_SelfTest.c ****         *     in a strong high or low state during the test execution).
1098:Generated_Source\PSoC4/CapSense_SelfTest.c ****         *
1099:Generated_Source\PSoC4/CapSense_SelfTest.c ****         *  The absolute resistance of an electrical short must be less than 1500 Ohm
1100:Generated_Source\PSoC4/CapSense_SelfTest.c ****         *  including all series resistors on the sensor for the short to be detected
1101:Generated_Source\PSoC4/CapSense_SelfTest.c ****         *  to GND, VDD or GPIOs. For example, if a series resistor on a sensor is
1102:Generated_Source\PSoC4/CapSense_SelfTest.c ****         *  560 Ohm (as recommended) and the sensor is shorted with another sensor,
1103:Generated_Source\PSoC4/CapSense_SelfTest.c ****         *  the function can detect a short of 380 Ohm or less as there are two
1104:Generated_Source\PSoC4/CapSense_SelfTest.c ****         *  560 ohm resistors between the shorted sensor GPIOs.
1105:Generated_Source\PSoC4/CapSense_SelfTest.c ****         *
1106:Generated_Source\PSoC4/CapSense_SelfTest.c ****         *  The function executes the following flow to detect a short:
1107:Generated_Source\PSoC4/CapSense_SelfTest.c ****         *   * Configures all the Component controlled GPIOs to strong-drive-low,
1108:Generated_Source\PSoC4/CapSense_SelfTest.c ****         *     and the specified sensor GPIO to resistive Pull up mode.
1109:Generated_Source\PSoC4/CapSense_SelfTest.c ****         *   * A delay of CapSense_SNS_SHORT_TIME_VALUE in microseconds.
1110:Generated_Source\PSoC4/CapSense_SelfTest.c ****         *   * Checks the status of the specified sensor for the expected state
1111:Generated_Source\PSoC4/CapSense_SelfTest.c ****         *     (logic high).
1112:Generated_Source\PSoC4/CapSense_SelfTest.c ****         *   * Configures all CapSense controlled GPIOs to strong-drive-high,
1113:Generated_Source\PSoC4/CapSense_SelfTest.c ****         *     and the specified sensor GPIO to resistive Pull down mode.
1114:Generated_Source\PSoC4/CapSense_SelfTest.c ****         *   * A delay of CapSense_SNS_SHORT_TIME_VALUE in microseconds.
1115:Generated_Source\PSoC4/CapSense_SelfTest.c ****         *   * Checks the status of the specified sensor for the expected state
1116:Generated_Source\PSoC4/CapSense_SelfTest.c ****         *     (logic low).
1117:Generated_Source\PSoC4/CapSense_SelfTest.c ****         *   * The test result is stored in CapSense Data Structure.
1118:Generated_Source\PSoC4/CapSense_SelfTest.c ****         *     A short is reported only when the sensor status check returns
1119:Generated_Source\PSoC4/CapSense_SelfTest.c ****         *     an unexpected state.
1120:Generated_Source\PSoC4/CapSense_SelfTest.c ****         *
1121:Generated_Source\PSoC4/CapSense_SelfTest.c ****         *  Due to the sensor parasitic capacitance and internal pull-up/down resistor,
1122:Generated_Source\PSoC4/CapSense_SelfTest.c ****         *  logic high-to-low (and vice versa) transitions require setting time before
1123:Generated_Source\PSoC4/CapSense_SelfTest.c ****         *  checking the sensor status. A 2-us delay is used as the setting time and can
1124:Generated_Source\PSoC4/CapSense_SelfTest.c ****         *  that be changed using the CapSense_SNS_SHORT_TIME_VALUE parameter.
1125:Generated_Source\PSoC4/CapSense_SelfTest.c ****         *
1126:Generated_Source\PSoC4/CapSense_SelfTest.c ****         *  This function updates the following statuses if a short is detected:
1127:Generated_Source\PSoC4/CapSense_SelfTest.c ****         *   * The widget ID is stored to the
1128:Generated_Source\PSoC4/CapSense_SelfTest.c ****         *     CapSense_SHORTED_WDGT_ID_VALUE register.
1129:Generated_Source\PSoC4/CapSense_SelfTest.c ****         *   * The sensor ID is stored to the CapSense_SHORTED_SNS_ID_VALUE
1130:Generated_Source\PSoC4/CapSense_SelfTest.c ****         *     register.
1131:Generated_Source\PSoC4/CapSense_SelfTest.c ****         *   * The CapSense_TST_SNS_SHORT bit is set in the
1132:Generated_Source\PSoC4/CapSense_SelfTest.c ****         *     CapSense_TEST_RESULT_MASK_VALUE register.
ARM GAS  C:\Users\YUANFA~1\AppData\Local\Temp\ccnzsvc2.s 			page 23


1133:Generated_Source\PSoC4/CapSense_SelfTest.c ****         *   * If CapSense_TST_SNS_SHORT is already set due to a previously
1134:Generated_Source\PSoC4/CapSense_SelfTest.c ****         *     detected fault on any of the sensor, this function does not update
1135:Generated_Source\PSoC4/CapSense_SelfTest.c ****         *     the CapSense_SHORTED_WDGT_ID_VALUE and
1136:Generated_Source\PSoC4/CapSense_SelfTest.c ****         *     CapSense_SHORTED_SNS_ID_VALUE registers. For this reason,
1137:Generated_Source\PSoC4/CapSense_SelfTest.c ****         *     clear CapSense_TST_SNS_SHORT prior to calling this function.
1138:Generated_Source\PSoC4/CapSense_SelfTest.c ****         *   * The widget is disabled by clearing the correcting bit
1139:Generated_Source\PSoC4/CapSense_SelfTest.c ****         *     (CapSense_WDGT_WORKING<Number>_VALUE) in the wdgtWorking
1140:Generated_Source\PSoC4/CapSense_SelfTest.c ****         *     register. The widget is ignored by a high-level function during
1141:Generated_Source\PSoC4/CapSense_SelfTest.c ****         *     further scans and data processing tasks. The application layer can
1142:Generated_Source\PSoC4/CapSense_SelfTest.c ****         *     be set to the corresponding bit to restore the widget operation.
1143:Generated_Source\PSoC4/CapSense_SelfTest.c ****         *   * To check all the Component sensor at once, use the
1144:Generated_Source\PSoC4/CapSense_SelfTest.c ****         *     CapSense_RunSelfTest() function with the
1145:Generated_Source\PSoC4/CapSense_SelfTest.c ****         *     CapSense_TST_SNS_SHORT mask.
1146:Generated_Source\PSoC4/CapSense_SelfTest.c ****         *   * To detect an electrical short or fault condition with resistance
1147:Generated_Source\PSoC4/CapSense_SelfTest.c ****         *     higher than 1500 ohm, the CapSense_GetSensorCapacitance()
1148:Generated_Source\PSoC4/CapSense_SelfTest.c ****         *     function can be used as the fault condition changes the
1149:Generated_Source\PSoC4/CapSense_SelfTest.c ****         *     sensor capacitance, hence it can be detected.
1150:Generated_Source\PSoC4/CapSense_SelfTest.c ****         *
1151:Generated_Source\PSoC4/CapSense_SelfTest.c ****         * \param widgetId
1152:Generated_Source\PSoC4/CapSense_SelfTest.c ****         *  Specifies the ID number of the widget to be processed.
1153:Generated_Source\PSoC4/CapSense_SelfTest.c ****         *  A macro for the widget ID is in the CapSense Configuration
1154:Generated_Source\PSoC4/CapSense_SelfTest.c ****         *  header file defined as CapSense_<WidgetName>_WDGT_ID.
1155:Generated_Source\PSoC4/CapSense_SelfTest.c ****         *
1156:Generated_Source\PSoC4/CapSense_SelfTest.c ****         * \param sensorId
1157:Generated_Source\PSoC4/CapSense_SelfTest.c ****         *  Specifies the ID number of the sensor within the widget.
1158:Generated_Source\PSoC4/CapSense_SelfTest.c ****         *  A macro for the sensor ID within the specified widget is in
1159:Generated_Source\PSoC4/CapSense_SelfTest.c ****         *  the CapSense Configuration header file defined as
1160:Generated_Source\PSoC4/CapSense_SelfTest.c ****         *  CapSense_<WidgetName>_SNS<SensorNumber>_ID.
1161:Generated_Source\PSoC4/CapSense_SelfTest.c ****         *
1162:Generated_Source\PSoC4/CapSense_SelfTest.c ****         * \return
1163:Generated_Source\PSoC4/CapSense_SelfTest.c ****         *  Returns a status of the test execution:
1164:Generated_Source\PSoC4/CapSense_SelfTest.c ****         *  - CYRET_SUCCESS - The sensor does not have a short and is in the
1165:Generated_Source\PSoC4/CapSense_SelfTest.c ****         *    working condition.
1166:Generated_Source\PSoC4/CapSense_SelfTest.c ****         *  - CapSense_TST_SNS_SHORT - A short is detected on
1167:Generated_Source\PSoC4/CapSense_SelfTest.c ****         *    the specified sensor.
1168:Generated_Source\PSoC4/CapSense_SelfTest.c ****         *  - CapSense_TST_BAD_PARAM - The input parameters are invalid.
1169:Generated_Source\PSoC4/CapSense_SelfTest.c ****         *
1170:Generated_Source\PSoC4/CapSense_SelfTest.c ****         *******************************************************************************/
1171:Generated_Source\PSoC4/CapSense_SelfTest.c ****         uint32 CapSense_CheckIntegritySensorPins(uint32 widgetId, uint32 sensorId)
1172:Generated_Source\PSoC4/CapSense_SelfTest.c ****         {
1173:Generated_Source\PSoC4/CapSense_SelfTest.c ****             uint32 result = CYRET_SUCCESS;
1174:Generated_Source\PSoC4/CapSense_SelfTest.c **** 
1175:Generated_Source\PSoC4/CapSense_SelfTest.c ****             if ((CapSense_TOTAL_WIDGETS > widgetId) &&
1176:Generated_Source\PSoC4/CapSense_SelfTest.c ****                ((CapSense_GET_SENSOR_COUNT(widgetId)) > sensorId))
1177:Generated_Source\PSoC4/CapSense_SelfTest.c ****             {
1178:Generated_Source\PSoC4/CapSense_SelfTest.c ****                 /* Release previously captured HW resources by other mode and capture them for BIST
1179:Generated_Source\PSoC4/CapSense_SelfTest.c ****                 CapSense_SsSwitchSensingMode(CapSense_SENSE_METHOD_BIST_E);
1180:Generated_Source\PSoC4/CapSense_SelfTest.c ****                 /* Switch HW resource configuration to sensor short test */
1181:Generated_Source\PSoC4/CapSense_SelfTest.c ****                 CapSense_BistSwitchHwConfig(CapSense_BIST_HW_SNS_SHORT_E);
1182:Generated_Source\PSoC4/CapSense_SelfTest.c ****                 CapSense_SwitchAllIOState(CapSense_BIST_IO_STRONG_E);
1183:Generated_Source\PSoC4/CapSense_SelfTest.c **** 
1184:Generated_Source\PSoC4/CapSense_SelfTest.c ****                 /* Set all sensors to strong-low */
1185:Generated_Source\PSoC4/CapSense_SelfTest.c ****                 CapSense_SetAllSnsDrState(CapSense_TST_DR_PIN2GND);
1186:Generated_Source\PSoC4/CapSense_SelfTest.c ****                 CapSense_SnsShortSetDrExtCapShield(CapSense_TST_DR_PIN2GND);
1187:Generated_Source\PSoC4/CapSense_SelfTest.c ****                 /* Execute the test */
1188:Generated_Source\PSoC4/CapSense_SelfTest.c ****                 result = CapSense_SnsShortCheckSensor(widgetId, sensorId, CapSense_TST_DR_PIN2GND);
1189:Generated_Source\PSoC4/CapSense_SelfTest.c **** 
ARM GAS  C:\Users\YUANFA~1\AppData\Local\Temp\ccnzsvc2.s 			page 24


1190:Generated_Source\PSoC4/CapSense_SelfTest.c ****                 if (CYRET_SUCCESS == result)
1191:Generated_Source\PSoC4/CapSense_SelfTest.c ****                 {
1192:Generated_Source\PSoC4/CapSense_SelfTest.c ****                     /* Set all sensors to strong-high */
1193:Generated_Source\PSoC4/CapSense_SelfTest.c ****                     CapSense_SetAllSnsDrState(CapSense_TST_DR_PIN2VDD);
1194:Generated_Source\PSoC4/CapSense_SelfTest.c ****                     CapSense_SnsShortSetDrExtCapShield(CapSense_TST_DR_PIN2VDD);
1195:Generated_Source\PSoC4/CapSense_SelfTest.c ****                     /* Execute the test */
1196:Generated_Source\PSoC4/CapSense_SelfTest.c ****                     result = CapSense_SnsShortCheckSensor(widgetId, sensorId, CapSense_TST_DR_PIN2V
1197:Generated_Source\PSoC4/CapSense_SelfTest.c ****                 }
1198:Generated_Source\PSoC4/CapSense_SelfTest.c ****             }
1199:Generated_Source\PSoC4/CapSense_SelfTest.c ****             else
1200:Generated_Source\PSoC4/CapSense_SelfTest.c ****             {
1201:Generated_Source\PSoC4/CapSense_SelfTest.c ****                 result = CapSense_TST_BAD_PARAM;
1202:Generated_Source\PSoC4/CapSense_SelfTest.c ****             }
1203:Generated_Source\PSoC4/CapSense_SelfTest.c **** 
1204:Generated_Source\PSoC4/CapSense_SelfTest.c ****             CapSense_bistCurrentISC = CapSense_BIST_IO_UNDEFINED_E;
1205:Generated_Source\PSoC4/CapSense_SelfTest.c ****             return result;
1206:Generated_Source\PSoC4/CapSense_SelfTest.c ****         }
1207:Generated_Source\PSoC4/CapSense_SelfTest.c **** 
1208:Generated_Source\PSoC4/CapSense_SelfTest.c **** 
1209:Generated_Source\PSoC4/CapSense_SelfTest.c ****         /*******************************************************************************
1210:Generated_Source\PSoC4/CapSense_SelfTest.c ****         * Function Name: CapSense_SnsShortCheckAllSensors
1211:Generated_Source\PSoC4/CapSense_SelfTest.c ****         ****************************************************************************//**
1212:Generated_Source\PSoC4/CapSense_SelfTest.c ****         *
1213:Generated_Source\PSoC4/CapSense_SelfTest.c ****         * \brief
1214:Generated_Source\PSoC4/CapSense_SelfTest.c ****         *  The internal function that checks all the sensors short.
1215:Generated_Source\PSoC4/CapSense_SelfTest.c ****         *
1216:Generated_Source\PSoC4/CapSense_SelfTest.c ****         * \details
1217:Generated_Source\PSoC4/CapSense_SelfTest.c ****         *  The function that checks for shorts on Vdd/GND of all sensor (not
1218:Generated_Source\PSoC4/CapSense_SelfTest.c ****         *  electrode) by using CapSense_ExecuteSnsShort. The function returns
1219:Generated_Source\PSoC4/CapSense_SelfTest.c ****         *  the status and updates testResultMask and wdgtWorking register
1220:Generated_Source\PSoC4/CapSense_SelfTest.c ****         *  in a case of any shorts detection.
1221:Generated_Source\PSoC4/CapSense_SelfTest.c ****         *
1222:Generated_Source\PSoC4/CapSense_SelfTest.c ****         * \return
1223:Generated_Source\PSoC4/CapSense_SelfTest.c ****         *  Returns the status of the test processing:
1224:Generated_Source\PSoC4/CapSense_SelfTest.c ****         *  - CYRET_SUCCESS if test passed successfully;
1225:Generated_Source\PSoC4/CapSense_SelfTest.c ****         *  - CapSense_TST_SNS_SHORT if any sensor of any widget is
1226:Generated_Source\PSoC4/CapSense_SelfTest.c ****         *    shorted to Vdd or GND.
1227:Generated_Source\PSoC4/CapSense_SelfTest.c ****         *
1228:Generated_Source\PSoC4/CapSense_SelfTest.c ****         *******************************************************************************/
1229:Generated_Source\PSoC4/CapSense_SelfTest.c ****         static uint32 CapSense_SnsShortCheckAllSensors(void)
1230:Generated_Source\PSoC4/CapSense_SelfTest.c ****         {
1231:Generated_Source\PSoC4/CapSense_SelfTest.c ****             uint32 wdgtIndex;
1232:Generated_Source\PSoC4/CapSense_SelfTest.c ****             uint32 snsIndex;
1233:Generated_Source\PSoC4/CapSense_SelfTest.c ****             uint32 result = CYRET_SUCCESS;
1234:Generated_Source\PSoC4/CapSense_SelfTest.c ****             uint32 resultWidget = CYRET_SUCCESS;
1235:Generated_Source\PSoC4/CapSense_SelfTest.c **** 
1236:Generated_Source\PSoC4/CapSense_SelfTest.c ****             /* Releasing of previously captured HW resources by other mode was done in RunSelfTest 
1237:Generated_Source\PSoC4/CapSense_SelfTest.c ****             /* Switch HW resource configuration to sensor short test */
1238:Generated_Source\PSoC4/CapSense_SelfTest.c ****             CapSense_BistSwitchHwConfig(CapSense_BIST_HW_SNS_SHORT_E);
1239:Generated_Source\PSoC4/CapSense_SelfTest.c ****             CapSense_SwitchAllIOState(CapSense_BIST_IO_STRONG_E);
1240:Generated_Source\PSoC4/CapSense_SelfTest.c **** 
1241:Generated_Source\PSoC4/CapSense_SelfTest.c ****             /* For performance reason the CapSense_CheckIntegritySensorPins() function is not used 
1242:Generated_Source\PSoC4/CapSense_SelfTest.c **** 
1243:Generated_Source\PSoC4/CapSense_SelfTest.c ****             /* Set all sensors to strong-low */
1244:Generated_Source\PSoC4/CapSense_SelfTest.c ****             CapSense_SetAllSnsDrState(CapSense_TST_DR_PIN2GND);
1245:Generated_Source\PSoC4/CapSense_SelfTest.c ****             CapSense_SnsShortSetDrExtCapShield(CapSense_TST_DR_PIN2GND);
1246:Generated_Source\PSoC4/CapSense_SelfTest.c ****             for (wdgtIndex = 0u; wdgtIndex < CapSense_TOTAL_WIDGETS; wdgtIndex++)
ARM GAS  C:\Users\YUANFA~1\AppData\Local\Temp\ccnzsvc2.s 			page 25


1247:Generated_Source\PSoC4/CapSense_SelfTest.c ****             {
1248:Generated_Source\PSoC4/CapSense_SelfTest.c ****                 resultWidget = CYRET_SUCCESS;
1249:Generated_Source\PSoC4/CapSense_SelfTest.c ****                 for (snsIndex = 0u; snsIndex < (CapSense_GET_SENSOR_COUNT(wdgtIndex)); snsIndex++)
1250:Generated_Source\PSoC4/CapSense_SelfTest.c ****                 {
1251:Generated_Source\PSoC4/CapSense_SelfTest.c ****                     resultWidget = CapSense_SnsShortCheckSensor(wdgtIndex, snsIndex, CapSense_TST_D
1252:Generated_Source\PSoC4/CapSense_SelfTest.c ****                     if (CYRET_SUCCESS != resultWidget)
1253:Generated_Source\PSoC4/CapSense_SelfTest.c ****                     {
1254:Generated_Source\PSoC4/CapSense_SelfTest.c ****                         break;
1255:Generated_Source\PSoC4/CapSense_SelfTest.c ****                     }
1256:Generated_Source\PSoC4/CapSense_SelfTest.c ****                 }
1257:Generated_Source\PSoC4/CapSense_SelfTest.c ****                 result |= resultWidget;
1258:Generated_Source\PSoC4/CapSense_SelfTest.c ****             }
1259:Generated_Source\PSoC4/CapSense_SelfTest.c **** 
1260:Generated_Source\PSoC4/CapSense_SelfTest.c ****             /* Set all sensors to strong-high */
1261:Generated_Source\PSoC4/CapSense_SelfTest.c ****             CapSense_SetAllSnsDrState(CapSense_TST_DR_PIN2VDD);
1262:Generated_Source\PSoC4/CapSense_SelfTest.c ****             CapSense_SnsShortSetDrExtCapShield(CapSense_TST_DR_PIN2VDD);
1263:Generated_Source\PSoC4/CapSense_SelfTest.c ****             for (wdgtIndex = 0u; wdgtIndex < CapSense_TOTAL_WIDGETS; wdgtIndex++)
1264:Generated_Source\PSoC4/CapSense_SelfTest.c ****             {
1265:Generated_Source\PSoC4/CapSense_SelfTest.c ****                 resultWidget = CYRET_SUCCESS;
1266:Generated_Source\PSoC4/CapSense_SelfTest.c ****                 for (snsIndex = 0u; snsIndex < (CapSense_GET_SENSOR_COUNT(wdgtIndex)); snsIndex++)
1267:Generated_Source\PSoC4/CapSense_SelfTest.c ****                 {
1268:Generated_Source\PSoC4/CapSense_SelfTest.c ****                     resultWidget = CapSense_SnsShortCheckSensor(wdgtIndex, snsIndex, CapSense_TST_D
1269:Generated_Source\PSoC4/CapSense_SelfTest.c ****                     if (CYRET_SUCCESS != resultWidget)
1270:Generated_Source\PSoC4/CapSense_SelfTest.c ****                     {
1271:Generated_Source\PSoC4/CapSense_SelfTest.c ****                         break;
1272:Generated_Source\PSoC4/CapSense_SelfTest.c ****                     }
1273:Generated_Source\PSoC4/CapSense_SelfTest.c ****                 }
1274:Generated_Source\PSoC4/CapSense_SelfTest.c ****                 result |= resultWidget;
1275:Generated_Source\PSoC4/CapSense_SelfTest.c ****             }
1276:Generated_Source\PSoC4/CapSense_SelfTest.c **** 
1277:Generated_Source\PSoC4/CapSense_SelfTest.c ****             CapSense_bistCurrentISC = CapSense_BIST_IO_UNDEFINED_E;
1278:Generated_Source\PSoC4/CapSense_SelfTest.c ****             return result;
1279:Generated_Source\PSoC4/CapSense_SelfTest.c ****         }
1280:Generated_Source\PSoC4/CapSense_SelfTest.c **** 
1281:Generated_Source\PSoC4/CapSense_SelfTest.c **** 
1282:Generated_Source\PSoC4/CapSense_SelfTest.c ****         /*******************************************************************************
1283:Generated_Source\PSoC4/CapSense_SelfTest.c ****         * Function Name: CapSense_SnsShortUpdateTestResult
1284:Generated_Source\PSoC4/CapSense_SelfTest.c ****         ****************************************************************************//**
1285:Generated_Source\PSoC4/CapSense_SelfTest.c ****         * \brief
1286:Generated_Source\PSoC4/CapSense_SelfTest.c ****         *  Updates SefTest data structure and widgetWorking register with
1287:Generated_Source\PSoC4/CapSense_SelfTest.c ****         *  the test result.
1288:Generated_Source\PSoC4/CapSense_SelfTest.c ****         *
1289:Generated_Source\PSoC4/CapSense_SelfTest.c ****         * \details
1290:Generated_Source\PSoC4/CapSense_SelfTest.c ****         *  The function resets a corresponding bit in widgetWorking register,
1291:Generated_Source\PSoC4/CapSense_SelfTest.c ****         *  checks TestResultMask for CapSense_TST_SNS_SHORT bit and if
1292:Generated_Source\PSoC4/CapSense_SelfTest.c ****         *  it was not setted to 1 sets it and memorizes wdgtId and snsId
1293:Generated_Source\PSoC4/CapSense_SelfTest.c ****         *  in corresponding registers of the SefTest data structure.
1294:Generated_Source\PSoC4/CapSense_SelfTest.c ****         *
1295:Generated_Source\PSoC4/CapSense_SelfTest.c ****         * \param wdgtId
1296:Generated_Source\PSoC4/CapSense_SelfTest.c ****         *  Specifies the ID number of the widget to be processed.
1297:Generated_Source\PSoC4/CapSense_SelfTest.c ****         *
1298:Generated_Source\PSoC4/CapSense_SelfTest.c ****         * \param snsId
1299:Generated_Source\PSoC4/CapSense_SelfTest.c ****         *  Specifies the ID number of the sensor within the widget which
1300:Generated_Source\PSoC4/CapSense_SelfTest.c ****         *  will be processed.
1301:Generated_Source\PSoC4/CapSense_SelfTest.c ****         *******************************************************************************/
1302:Generated_Source\PSoC4/CapSense_SelfTest.c ****         static void CapSense_SnsShortUpdateTestResult(uint32 wdgtId, uint32 snsId)
1303:Generated_Source\PSoC4/CapSense_SelfTest.c ****         {
ARM GAS  C:\Users\YUANFA~1\AppData\Local\Temp\ccnzsvc2.s 			page 26


 121              		.loc 1 1303 0
 122              		.cfi_startproc
 123              		@ args = 0, pretend = 0, frame = 0
 124              		@ frame_needed = 0, uses_anonymous_args = 0
 125              	.LVL20:
 126 0000 30B5     		push	{r4, r5, lr}
 127              		.cfi_def_cfa_offset 12
 128              		.cfi_offset 4, -12
 129              		.cfi_offset 5, -8
 130              		.cfi_offset 14, -4
1304:Generated_Source\PSoC4/CapSense_SelfTest.c ****             CapSense_dsRam.wdgtWorking[CapSense_GET_WDGT_STATUS_INDEX(wdgtId)] &=
 131              		.loc 1 1304 0
 132 0002 4309     		lsrs	r3, r0, #5
1305:Generated_Source\PSoC4/CapSense_SelfTest.c ****                                              ~(CapSense_GET_WDGT_STATUS_MASK(wdgtId));
 133              		.loc 1 1305 0
 134 0004 1F24     		movs	r4, #31
 135 0006 0440     		ands	r4, r0
 136 0008 0122     		movs	r2, #1
 137 000a A240     		lsls	r2, r2, r4
1304:Generated_Source\PSoC4/CapSense_SelfTest.c ****             CapSense_dsRam.wdgtWorking[CapSense_GET_WDGT_STATUS_INDEX(wdgtId)] &=
 138              		.loc 1 1304 0
 139 000c 0B4C     		ldr	r4, .L8
 140 000e 0433     		adds	r3, r3, #4
 141 0010 9B00     		lsls	r3, r3, #2
 142 0012 E318     		adds	r3, r4, r3
 143 0014 5D68     		ldr	r5, [r3, #4]
 144 0016 9543     		bics	r5, r2
 145 0018 5D60     		str	r5, [r3, #4]
1306:Generated_Source\PSoC4/CapSense_SelfTest.c ****             if (0Lu == (CapSense_dsRam.selfTest.testResultMask & CapSense_TST_SNS_SHORT))
 146              		.loc 1 1306 0
 147 001a 9723     		movs	r3, #151
 148 001c 9B00     		lsls	r3, r3, #2
 149 001e E358     		ldr	r3, [r4, r3]
 150 0020 DA05     		lsls	r2, r3, #23
 151 0022 0AD4     		bmi	.L6
1307:Generated_Source\PSoC4/CapSense_SelfTest.c ****             {
1308:Generated_Source\PSoC4/CapSense_SelfTest.c ****                 /* Write to self-test data structure wdgtId and snsId of the first shorted sensor *
1309:Generated_Source\PSoC4/CapSense_SelfTest.c ****                 CapSense_dsRam.selfTest.testResultMask |= CapSense_TST_SNS_SHORT;
 152              		.loc 1 1309 0
 153 0024 2200     		movs	r2, r4
 154 0026 8024     		movs	r4, #128
 155 0028 6400     		lsls	r4, r4, #1
 156 002a 2343     		orrs	r3, r4
 157 002c 5D34     		adds	r4, r4, #93
 158 002e FF34     		adds	r4, r4, #255
 159 0030 1351     		str	r3, [r2, r4]
1310:Generated_Source\PSoC4/CapSense_SelfTest.c ****                 CapSense_dsRam.selfTest.shortedWdgtId = (uint8)wdgtId;
 160              		.loc 1 1310 0
 161 0032 034B     		ldr	r3, .L8+4
 162 0034 D054     		strb	r0, [r2, r3]
1311:Generated_Source\PSoC4/CapSense_SelfTest.c ****                 CapSense_dsRam.selfTest.shortedSnsId = (uint8)snsId;
 163              		.loc 1 1311 0
 164 0036 034B     		ldr	r3, .L8+8
 165 0038 D154     		strb	r1, [r2, r3]
 166              	.L6:
1312:Generated_Source\PSoC4/CapSense_SelfTest.c ****             }
1313:Generated_Source\PSoC4/CapSense_SelfTest.c ****         }
ARM GAS  C:\Users\YUANFA~1\AppData\Local\Temp\ccnzsvc2.s 			page 27


 167              		.loc 1 1313 0
 168              		@ sp needed
 169 003a 30BD     		pop	{r4, r5, pc}
 170              	.L9:
 171              		.align	2
 172              	.L8:
 173 003c 00000000 		.word	CapSense_dsRam
 174 0040 6D020000 		.word	621
 175 0044 6E020000 		.word	622
 176              		.cfi_endproc
 177              	.LFE16:
 178              		.size	CapSense_SnsShortUpdateTestResult, .-CapSense_SnsShortUpdateTestResult
 179              		.section	.text.CapSense_SnsShortGetElectrdeList,"ax",%progbits
 180              		.align	2
 181              		.code	16
 182              		.thumb_func
 183              		.type	CapSense_SnsShortGetElectrdeList, %function
 184              	CapSense_SnsShortGetElectrdeList:
 185              	.LFB19:
1314:Generated_Source\PSoC4/CapSense_SelfTest.c **** 
1315:Generated_Source\PSoC4/CapSense_SelfTest.c **** 
1316:Generated_Source\PSoC4/CapSense_SelfTest.c ****         /*******************************************************************************
1317:Generated_Source\PSoC4/CapSense_SelfTest.c ****         * Function Name: CapSense_SnsShortCheckSensor
1318:Generated_Source\PSoC4/CapSense_SelfTest.c ****         ****************************************************************************//**
1319:Generated_Source\PSoC4/CapSense_SelfTest.c ****         *
1320:Generated_Source\PSoC4/CapSense_SelfTest.c ****         * \brief
1321:Generated_Source\PSoC4/CapSense_SelfTest.c ****         *  Check if the specified sensor is shorted to VDD or GND level by configuring
1322:Generated_Source\PSoC4/CapSense_SelfTest.c ****         *  each of its electrode to pull-up or pull-down and check its state.
1323:Generated_Source\PSoC4/CapSense_SelfTest.c ****         *
1324:Generated_Source\PSoC4/CapSense_SelfTest.c ****         * \details
1325:Generated_Source\PSoC4/CapSense_SelfTest.c ****         *  Check if the specified sensor is shorted to VDD or GND level by connfiguring
1326:Generated_Source\PSoC4/CapSense_SelfTest.c ****         *  each of its electrodes to pull-up or pull-down and check its state.
1327:Generated_Source\PSoC4/CapSense_SelfTest.c ****         *  An additional delay is added between configuring the electrode and
1328:Generated_Source\PSoC4/CapSense_SelfTest.c ****         *  reading its state to establish the transition process for cases
1329:Generated_Source\PSoC4/CapSense_SelfTest.c ****         *  with big capacitance and short resistance.
1330:Generated_Source\PSoC4/CapSense_SelfTest.c ****         *  The function assumes all rest electrodes are set to strong drive mode,
1331:Generated_Source\PSoC4/CapSense_SelfTest.c ****         *  so the sensor-to-sensor short condition is also detected.
1332:Generated_Source\PSoC4/CapSense_SelfTest.c ****         *
1333:Generated_Source\PSoC4/CapSense_SelfTest.c ****         * \param widgetId
1334:Generated_Source\PSoC4/CapSense_SelfTest.c ****         *  Specifies the ID number of the widget to be processed.
1335:Generated_Source\PSoC4/CapSense_SelfTest.c ****         *
1336:Generated_Source\PSoC4/CapSense_SelfTest.c ****         * \param sensorId
1337:Generated_Source\PSoC4/CapSense_SelfTest.c ****         *  Specifies the ID number of the sensor within the widget
1338:Generated_Source\PSoC4/CapSense_SelfTest.c ****         *  to be processed.
1339:Generated_Source\PSoC4/CapSense_SelfTest.c ****         *
1340:Generated_Source\PSoC4/CapSense_SelfTest.c ****         * \param mode
1341:Generated_Source\PSoC4/CapSense_SelfTest.c ****         *  Specifies the test mode, either:
1342:Generated_Source\PSoC4/CapSense_SelfTest.c ****         *  * CapSense_TST_DR_PIN2GND means sensor is configured
1343:Generated_Source\PSoC4/CapSense_SelfTest.c ****         *    to pull-up and checked for logical 0
1344:Generated_Source\PSoC4/CapSense_SelfTest.c ****         *  * CapSense_TST_DR_PIN2VDD means sensor is configured
1345:Generated_Source\PSoC4/CapSense_SelfTest.c ****         *    to pull-down and checked for logical 1
1346:Generated_Source\PSoC4/CapSense_SelfTest.c ****         *
1347:Generated_Source\PSoC4/CapSense_SelfTest.c ****         * \return
1348:Generated_Source\PSoC4/CapSense_SelfTest.c ****         *  Returns the status of the test processing:
1349:Generated_Source\PSoC4/CapSense_SelfTest.c ****         *  - CYRET_SUCCESS if the sensor of the widget is not shorted.
1350:Generated_Source\PSoC4/CapSense_SelfTest.c ****         *  - CapSense_TST_SNS_SHORT if the sensor is shorted.
1351:Generated_Source\PSoC4/CapSense_SelfTest.c ****         *
ARM GAS  C:\Users\YUANFA~1\AppData\Local\Temp\ccnzsvc2.s 			page 28


1352:Generated_Source\PSoC4/CapSense_SelfTest.c ****         *******************************************************************************/
1353:Generated_Source\PSoC4/CapSense_SelfTest.c ****         static uint32 CapSense_SnsShortCheckSensor(uint32 widgetId, uint32 sensorId, uint32 mode)
1354:Generated_Source\PSoC4/CapSense_SelfTest.c ****         {
1355:Generated_Source\PSoC4/CapSense_SelfTest.c ****             uint32 result = CYRET_SUCCESS;
1356:Generated_Source\PSoC4/CapSense_SelfTest.c **** 
1357:Generated_Source\PSoC4/CapSense_SelfTest.c ****             #if (CapSense_ENABLE == CapSense_CSX_EN)
1358:Generated_Source\PSoC4/CapSense_SelfTest.c ****                 uint32 ioSnsId;
1359:Generated_Source\PSoC4/CapSense_SelfTest.c ****                 if (CapSense_SENSE_METHOD_CSX_E == CapSense_GET_SENSE_METHOD(&CapSense_dsFlash.wdgt
1360:Generated_Source\PSoC4/CapSense_SelfTest.c ****                 {
1361:Generated_Source\PSoC4/CapSense_SelfTest.c ****                     /* For CSX widgets get an index of Rx electrode */
1362:Generated_Source\PSoC4/CapSense_SelfTest.c ****                     ioSnsId = sensorId / CapSense_dsFlash.wdgtArray[widgetId].numRows;
1363:Generated_Source\PSoC4/CapSense_SelfTest.c ****                     result = CapSense_SnsShortCheckElectrode(widgetId, ioSnsId, mode);
1364:Generated_Source\PSoC4/CapSense_SelfTest.c ****                     if (CYRET_SUCCESS == result)
1365:Generated_Source\PSoC4/CapSense_SelfTest.c ****                     {
1366:Generated_Source\PSoC4/CapSense_SelfTest.c ****                         /* For CSX widgets get an index of Tx electrode */
1367:Generated_Source\PSoC4/CapSense_SelfTest.c ****                         ioSnsId = (uint32)(sensorId % CapSense_dsFlash.wdgtArray[widgetId].numRows)
1368:Generated_Source\PSoC4/CapSense_SelfTest.c ****                                   (uint32)CapSense_dsFlash.wdgtArray[widgetId].numCols;
1369:Generated_Source\PSoC4/CapSense_SelfTest.c ****                         result = CapSense_SnsShortCheckElectrode(widgetId, ioSnsId, mode);
1370:Generated_Source\PSoC4/CapSense_SelfTest.c ****                     }
1371:Generated_Source\PSoC4/CapSense_SelfTest.c ****                 }
1372:Generated_Source\PSoC4/CapSense_SelfTest.c ****                 else
1373:Generated_Source\PSoC4/CapSense_SelfTest.c ****                 {
1374:Generated_Source\PSoC4/CapSense_SelfTest.c ****                     result = CapSense_SnsShortCheckElectrode(widgetId, sensorId, mode);
1375:Generated_Source\PSoC4/CapSense_SelfTest.c ****                 }
1376:Generated_Source\PSoC4/CapSense_SelfTest.c ****             #else
1377:Generated_Source\PSoC4/CapSense_SelfTest.c ****                 result = CapSense_SnsShortCheckElectrode(widgetId, sensorId, mode);
1378:Generated_Source\PSoC4/CapSense_SelfTest.c ****             #endif
1379:Generated_Source\PSoC4/CapSense_SelfTest.c **** 
1380:Generated_Source\PSoC4/CapSense_SelfTest.c ****             if (CYRET_SUCCESS != result)
1381:Generated_Source\PSoC4/CapSense_SelfTest.c ****             {
1382:Generated_Source\PSoC4/CapSense_SelfTest.c ****                 CapSense_SnsShortUpdateTestResult(widgetId, sensorId);
1383:Generated_Source\PSoC4/CapSense_SelfTest.c ****             }
1384:Generated_Source\PSoC4/CapSense_SelfTest.c ****             return result;
1385:Generated_Source\PSoC4/CapSense_SelfTest.c ****         }
1386:Generated_Source\PSoC4/CapSense_SelfTest.c **** 
1387:Generated_Source\PSoC4/CapSense_SelfTest.c **** 
1388:Generated_Source\PSoC4/CapSense_SelfTest.c ****         /*******************************************************************************
1389:Generated_Source\PSoC4/CapSense_SelfTest.c ****         * Function Name: CapSense_SnsShortCheckElectrode
1390:Generated_Source\PSoC4/CapSense_SelfTest.c ****         ****************************************************************************//**
1391:Generated_Source\PSoC4/CapSense_SelfTest.c ****         *
1392:Generated_Source\PSoC4/CapSense_SelfTest.c ****         * \brief
1393:Generated_Source\PSoC4/CapSense_SelfTest.c ****         *  Check if a sensor or Rx or Tx are shorted to VDD or GND level by configuring
1394:Generated_Source\PSoC4/CapSense_SelfTest.c ****         *  each of its electrode to pull-up or pull-down and check its state.
1395:Generated_Source\PSoC4/CapSense_SelfTest.c ****         *
1396:Generated_Source\PSoC4/CapSense_SelfTest.c ****         * \details
1397:Generated_Source\PSoC4/CapSense_SelfTest.c ****         *  Check if a sensor or Rx or Tx are shorted to VDD or GND level by connfiguring
1398:Generated_Source\PSoC4/CapSense_SelfTest.c ****         *  each of its electrodes to pull-up or pull-down and check its state.
1399:Generated_Source\PSoC4/CapSense_SelfTest.c ****         *  An additional delay is added between configuring the electrode and
1400:Generated_Source\PSoC4/CapSense_SelfTest.c ****         *  reading its state to establish the transition process for cases
1401:Generated_Source\PSoC4/CapSense_SelfTest.c ****         *  with big capacitance and short resistance.
1402:Generated_Source\PSoC4/CapSense_SelfTest.c ****         *  The function assumes all rest electrodes are set to strong drive mode,
1403:Generated_Source\PSoC4/CapSense_SelfTest.c ****         *  so the sensor-to-sensor short condition is also detected.
1404:Generated_Source\PSoC4/CapSense_SelfTest.c ****         *
1405:Generated_Source\PSoC4/CapSense_SelfTest.c ****         * \param wdgtId
1406:Generated_Source\PSoC4/CapSense_SelfTest.c ****         *  Specifies the ID number of the widget to be processed.
1407:Generated_Source\PSoC4/CapSense_SelfTest.c ****         *
1408:Generated_Source\PSoC4/CapSense_SelfTest.c ****         * \param ioSnsId
ARM GAS  C:\Users\YUANFA~1\AppData\Local\Temp\ccnzsvc2.s 			page 29


1409:Generated_Source\PSoC4/CapSense_SelfTest.c ****         *  Specifies the ID number of the sensor (electrode) within the widget
1410:Generated_Source\PSoC4/CapSense_SelfTest.c ****         *  to be processed.
1411:Generated_Source\PSoC4/CapSense_SelfTest.c ****         *
1412:Generated_Source\PSoC4/CapSense_SelfTest.c ****         * \param mode
1413:Generated_Source\PSoC4/CapSense_SelfTest.c ****         *  Specifies the test mode, either:
1414:Generated_Source\PSoC4/CapSense_SelfTest.c ****         *  * CapSense_TST_DR_PIN2GND means sensor is configured
1415:Generated_Source\PSoC4/CapSense_SelfTest.c ****         *    to pull-up and checked for logical 0
1416:Generated_Source\PSoC4/CapSense_SelfTest.c ****         *  * CapSense_TST_DR_PIN2VDD means sensor is configured
1417:Generated_Source\PSoC4/CapSense_SelfTest.c ****         *    to pull-down and checked for logical 1
1418:Generated_Source\PSoC4/CapSense_SelfTest.c ****         *
1419:Generated_Source\PSoC4/CapSense_SelfTest.c ****         * \return
1420:Generated_Source\PSoC4/CapSense_SelfTest.c ****         *  Returns the status of the test processing:
1421:Generated_Source\PSoC4/CapSense_SelfTest.c ****         *  - CYRET_SUCCESS if the electrode of the widget is not shorted.
1422:Generated_Source\PSoC4/CapSense_SelfTest.c ****         *  - CapSense_TST_SNS_SHORT if the electrode is shorted.
1423:Generated_Source\PSoC4/CapSense_SelfTest.c ****         *
1424:Generated_Source\PSoC4/CapSense_SelfTest.c ****         *******************************************************************************/
1425:Generated_Source\PSoC4/CapSense_SelfTest.c ****         static uint32 CapSense_SnsShortCheckElectrode(uint32 widgetId, uint32 ioSnsId, uint32 mode)
1426:Generated_Source\PSoC4/CapSense_SelfTest.c ****         {
1427:Generated_Source\PSoC4/CapSense_SelfTest.c ****             uint32 i;
1428:Generated_Source\PSoC4/CapSense_SelfTest.c ****             uint32 eltdNum;
1429:Generated_Source\PSoC4/CapSense_SelfTest.c ****             uint32 eltdState;
1430:Generated_Source\PSoC4/CapSense_SelfTest.c ****             uint32 eltdDM = CapSense_TST_PC_PULLDOWN;
1431:Generated_Source\PSoC4/CapSense_SelfTest.c ****             uint32 result = CYRET_SUCCESS;
1432:Generated_Source\PSoC4/CapSense_SelfTest.c ****             CapSense_FLASH_IO_STRUCT const *ioPtr;
1433:Generated_Source\PSoC4/CapSense_SelfTest.c **** 
1434:Generated_Source\PSoC4/CapSense_SelfTest.c ****             if (CapSense_TST_DR_PIN2GND == mode)
1435:Generated_Source\PSoC4/CapSense_SelfTest.c ****             {
1436:Generated_Source\PSoC4/CapSense_SelfTest.c ****                 eltdDM = CapSense_TST_PC_PULLUP;
1437:Generated_Source\PSoC4/CapSense_SelfTest.c ****             }
1438:Generated_Source\PSoC4/CapSense_SelfTest.c **** 
1439:Generated_Source\PSoC4/CapSense_SelfTest.c ****             eltdNum = CapSense_SnsShortGetElectrdeList(widgetId, ioSnsId, &ioPtr);
1440:Generated_Source\PSoC4/CapSense_SelfTest.c **** 
1441:Generated_Source\PSoC4/CapSense_SelfTest.c ****             /* Loop through all electrodes of specified sensor */
1442:Generated_Source\PSoC4/CapSense_SelfTest.c ****             for (i = 0u; i < eltdNum; i++)
1443:Generated_Source\PSoC4/CapSense_SelfTest.c ****             {
1444:Generated_Source\PSoC4/CapSense_SelfTest.c ****                 /* Set electrode drive mode */
1445:Generated_Source\PSoC4/CapSense_SelfTest.c ****                 CapSense_SetSnsDr(ioPtr, (mode ^ 0x01u));
1446:Generated_Source\PSoC4/CapSense_SelfTest.c ****                 CapSense_SetSnsPc(ioPtr, eltdDM);
1447:Generated_Source\PSoC4/CapSense_SelfTest.c ****                 /* Wait for establishing the transition process */
1448:Generated_Source\PSoC4/CapSense_SelfTest.c ****                 CyDelayUs((uint16)CapSense_dsRam.selfTestConfig.snsShortTimeUs);
1449:Generated_Source\PSoC4/CapSense_SelfTest.c ****                 /* Read the electrode state */
1450:Generated_Source\PSoC4/CapSense_SelfTest.c ****                 eltdState = CapSense_SnsShortReadElectrodeState(ioPtr);
1451:Generated_Source\PSoC4/CapSense_SelfTest.c ****                 if (CapSense_TST_DR_PIN2GND != eltdState)
1452:Generated_Source\PSoC4/CapSense_SelfTest.c ****                 {
1453:Generated_Source\PSoC4/CapSense_SelfTest.c ****                     eltdState = CapSense_TST_DR_PIN2VDD;
1454:Generated_Source\PSoC4/CapSense_SelfTest.c ****                 }
1455:Generated_Source\PSoC4/CapSense_SelfTest.c ****                 /* Revert electrode to default drive mode */
1456:Generated_Source\PSoC4/CapSense_SelfTest.c ****                 CapSense_SetSnsDr(ioPtr, mode);
1457:Generated_Source\PSoC4/CapSense_SelfTest.c ****                 CapSense_SetSnsPc(ioPtr, CapSense_TST_PC_STRONG);
1458:Generated_Source\PSoC4/CapSense_SelfTest.c ****                 /* Check the electrode state */
1459:Generated_Source\PSoC4/CapSense_SelfTest.c ****                 if (mode == eltdState)
1460:Generated_Source\PSoC4/CapSense_SelfTest.c ****                 {
1461:Generated_Source\PSoC4/CapSense_SelfTest.c ****                     result = CapSense_TST_SNS_SHORT;
1462:Generated_Source\PSoC4/CapSense_SelfTest.c ****                     break;
1463:Generated_Source\PSoC4/CapSense_SelfTest.c ****                 }
1464:Generated_Source\PSoC4/CapSense_SelfTest.c ****                 /* Get the next electrode */
1465:Generated_Source\PSoC4/CapSense_SelfTest.c ****                 ioPtr++;
ARM GAS  C:\Users\YUANFA~1\AppData\Local\Temp\ccnzsvc2.s 			page 30


1466:Generated_Source\PSoC4/CapSense_SelfTest.c ****             }
1467:Generated_Source\PSoC4/CapSense_SelfTest.c ****             return result;
1468:Generated_Source\PSoC4/CapSense_SelfTest.c ****         }
1469:Generated_Source\PSoC4/CapSense_SelfTest.c **** 
1470:Generated_Source\PSoC4/CapSense_SelfTest.c **** 
1471:Generated_Source\PSoC4/CapSense_SelfTest.c ****         /*******************************************************************************
1472:Generated_Source\PSoC4/CapSense_SelfTest.c ****         * Function Name: CapSense_SnsShortGetElectrdeList
1473:Generated_Source\PSoC4/CapSense_SelfTest.c ****         ****************************************************************************//**
1474:Generated_Source\PSoC4/CapSense_SelfTest.c ****         *
1475:Generated_Source\PSoC4/CapSense_SelfTest.c ****         * \brief
1476:Generated_Source\PSoC4/CapSense_SelfTest.c ****         *  Returns the number of electrodes in a specified sensor or Rx or Tx
1477:Generated_Source\PSoC4/CapSense_SelfTest.c ****         *  and a pointer to the first electrode in the flash IO structure.
1478:Generated_Source\PSoC4/CapSense_SelfTest.c ****         *
1479:Generated_Source\PSoC4/CapSense_SelfTest.c ****         * \details
1480:Generated_Source\PSoC4/CapSense_SelfTest.c ****         *  Returns the number of electrodes in a specified sensor or Rx or Tx
1481:Generated_Source\PSoC4/CapSense_SelfTest.c ****         *  and a pointer to the first electrode in the flash IO structure.
1482:Generated_Source\PSoC4/CapSense_SelfTest.c ****         *  The function considers is an input object is ganged or not.
1483:Generated_Source\PSoC4/CapSense_SelfTest.c ****         *
1484:Generated_Source\PSoC4/CapSense_SelfTest.c ****         * \param widgetId
1485:Generated_Source\PSoC4/CapSense_SelfTest.c ****         *  Specifies the ID number of the widget to be processed.
1486:Generated_Source\PSoC4/CapSense_SelfTest.c ****         *
1487:Generated_Source\PSoC4/CapSense_SelfTest.c ****         * \param ioSnsId
1488:Generated_Source\PSoC4/CapSense_SelfTest.c ****         *  Specifies the ID number of the sensor (electrode) within the widget
1489:Generated_Source\PSoC4/CapSense_SelfTest.c ****         *  to be processed.
1490:Generated_Source\PSoC4/CapSense_SelfTest.c ****         *
1491:Generated_Source\PSoC4/CapSense_SelfTest.c ****         * \param **ioPtr
1492:Generated_Source\PSoC4/CapSense_SelfTest.c ****         *  A pointer to a pointer to the electrode in the flash IO structure.
1493:Generated_Source\PSoC4/CapSense_SelfTest.c ****         *
1494:Generated_Source\PSoC4/CapSense_SelfTest.c ****         * \return
1495:Generated_Source\PSoC4/CapSense_SelfTest.c ****         *  Returns the number of electrodes in a sensor or Rx or Tx.
1496:Generated_Source\PSoC4/CapSense_SelfTest.c ****         *
1497:Generated_Source\PSoC4/CapSense_SelfTest.c ****         *******************************************************************************/
1498:Generated_Source\PSoC4/CapSense_SelfTest.c ****         static uint32 CapSense_SnsShortGetElectrdeList(uint32 widgetId, uint32 ioSnsId, CapSense_FL
1499:Generated_Source\PSoC4/CapSense_SelfTest.c ****         {
 186              		.loc 1 1499 0
 187              		.cfi_startproc
 188              		@ args = 0, pretend = 0, frame = 0
 189              		@ frame_needed = 0, uses_anonymous_args = 0
 190              	.LVL21:
 191 0000 10B5     		push	{r4, lr}
 192              		.cfi_def_cfa_offset 8
 193              		.cfi_offset 4, -8
 194              		.cfi_offset 14, -4
1500:Generated_Source\PSoC4/CapSense_SelfTest.c ****             uint32 eltdNum;
1501:Generated_Source\PSoC4/CapSense_SelfTest.c ****             CapSense_FLASH_SNS_STRUCT const *curFlashSnsPtr;
1502:Generated_Source\PSoC4/CapSense_SelfTest.c **** 
1503:Generated_Source\PSoC4/CapSense_SelfTest.c ****             /* Check ganged sns flag */
1504:Generated_Source\PSoC4/CapSense_SelfTest.c ****             if (CapSense_GANGED_SNS_MASK == (CapSense_dsFlash.wdgtArray[widgetId].staticConfig & Ca
 195              		.loc 1 1504 0
 196 0002 C400     		lsls	r4, r0, #3
 197 0004 241A     		subs	r4, r4, r0
 198 0006 E300     		lsls	r3, r4, #3
 199 0008 0D4C     		ldr	r4, .L13
 200 000a E318     		adds	r3, r4, r3
 201 000c 5B69     		ldr	r3, [r3, #20]
 202 000e 5B07     		lsls	r3, r3, #29
 203 0010 0CD5     		bpl	.L11
ARM GAS  C:\Users\YUANFA~1\AppData\Local\Temp\ccnzsvc2.s 			page 31


1505:Generated_Source\PSoC4/CapSense_SelfTest.c ****             {
1506:Generated_Source\PSoC4/CapSense_SelfTest.c ****                 curFlashSnsPtr = (CapSense_FLASH_SNS_STRUCT const *)CapSense_dsFlash.wdgtArray[widg
 204              		.loc 1 1506 0
 205 0012 C300     		lsls	r3, r0, #3
 206 0014 181A     		subs	r0, r3, r0
 207              	.LVL22:
 208 0016 C300     		lsls	r3, r0, #3
 209 0018 1B59     		ldr	r3, [r3, r4]
 210              	.LVL23:
1507:Generated_Source\PSoC4/CapSense_SelfTest.c ****                 curFlashSnsPtr += ioSnsId;
 211              		.loc 1 1507 0
 212 001a 8900     		lsls	r1, r1, #2
 213              	.LVL24:
 214 001c 5918     		adds	r1, r3, r1
 215              	.LVL25:
1508:Generated_Source\PSoC4/CapSense_SelfTest.c ****                 *ioPtr = &CapSense_ioList[curFlashSnsPtr->firstPinId];
 216              		.loc 1 1508 0
 217 001e 0B88     		ldrh	r3, [r1]
 218 0020 5B01     		lsls	r3, r3, #5
 219 0022 0848     		ldr	r0, .L13+4
 220 0024 1B18     		adds	r3, r3, r0
 221 0026 1360     		str	r3, [r2]
1509:Generated_Source\PSoC4/CapSense_SelfTest.c ****                 eltdNum = curFlashSnsPtr->numPins;
 222              		.loc 1 1509 0
 223 0028 8878     		ldrb	r0, [r1, #2]
 224              	.LVL26:
 225 002a 08E0     		b	.L12
 226              	.LVL27:
 227              	.L11:
1510:Generated_Source\PSoC4/CapSense_SelfTest.c ****             }
1511:Generated_Source\PSoC4/CapSense_SelfTest.c ****             else
1512:Generated_Source\PSoC4/CapSense_SelfTest.c ****             {
1513:Generated_Source\PSoC4/CapSense_SelfTest.c ****                 *ioPtr = (CapSense_FLASH_IO_STRUCT const *)CapSense_dsFlash.wdgtArray[widgetId].ptr
 228              		.loc 1 1513 0
 229 002c C300     		lsls	r3, r0, #3
 230 002e 181A     		subs	r0, r3, r0
 231              	.LVL28:
 232 0030 C300     		lsls	r3, r0, #3
 233 0032 0348     		ldr	r0, .L13
 234 0034 1B58     		ldr	r3, [r3, r0]
 235 0036 4901     		lsls	r1, r1, #5
 236              	.LVL29:
 237 0038 5918     		adds	r1, r3, r1
 238 003a 1160     		str	r1, [r2]
 239              	.LVL30:
1514:Generated_Source\PSoC4/CapSense_SelfTest.c ****                 eltdNum = 1u;
 240              		.loc 1 1514 0
 241 003c 0120     		movs	r0, #1
 242              	.LVL31:
 243              	.L12:
1515:Generated_Source\PSoC4/CapSense_SelfTest.c ****             }
1516:Generated_Source\PSoC4/CapSense_SelfTest.c **** 
1517:Generated_Source\PSoC4/CapSense_SelfTest.c ****             return eltdNum;
1518:Generated_Source\PSoC4/CapSense_SelfTest.c ****         }
 244              		.loc 1 1518 0
 245              		@ sp needed
 246 003e 10BD     		pop	{r4, pc}
ARM GAS  C:\Users\YUANFA~1\AppData\Local\Temp\ccnzsvc2.s 			page 32


 247              	.L14:
 248              		.align	2
 249              	.L13:
 250 0040 00000000 		.word	CapSense_dsFlash
 251 0044 00000000 		.word	CapSense_ioList
 252              		.cfi_endproc
 253              	.LFE19:
 254              		.size	CapSense_SnsShortGetElectrdeList, .-CapSense_SnsShortGetElectrdeList
 255              		.global	__aeabi_uidiv
 256              		.section	.text.CapSense_BistSetScanDuration,"ax",%progbits
 257              		.align	2
 258              		.code	16
 259              		.thumb_func
 260              		.type	CapSense_BistSetScanDuration, %function
 261              	CapSense_BistSetScanDuration:
 262              	.LFB25:
1519:Generated_Source\PSoC4/CapSense_SelfTest.c **** 
1520:Generated_Source\PSoC4/CapSense_SelfTest.c **** 
1521:Generated_Source\PSoC4/CapSense_SelfTest.c ****         /*******************************************************************************
1522:Generated_Source\PSoC4/CapSense_SelfTest.c ****         * Function Name: CapSense_BistEnableHwSnsShort
1523:Generated_Source\PSoC4/CapSense_SelfTest.c ****         ****************************************************************************//**
1524:Generated_Source\PSoC4/CapSense_SelfTest.c ****         *
1525:Generated_Source\PSoC4/CapSense_SelfTest.c ****         * \brief
1526:Generated_Source\PSoC4/CapSense_SelfTest.c ****         *  This function configures external capacitors and shield to strong drive mode.
1527:Generated_Source\PSoC4/CapSense_SelfTest.c ****         *
1528:Generated_Source\PSoC4/CapSense_SelfTest.c ****         * \details
1529:Generated_Source\PSoC4/CapSense_SelfTest.c ****         *  This function configures external capacitors and shield to strong drive mode.
1530:Generated_Source\PSoC4/CapSense_SelfTest.c ****         *
1531:Generated_Source\PSoC4/CapSense_SelfTest.c ****         *******************************************************************************/
1532:Generated_Source\PSoC4/CapSense_SelfTest.c ****         static void CapSense_BistEnableHwSnsShort(void)
1533:Generated_Source\PSoC4/CapSense_SelfTest.c ****         {
1534:Generated_Source\PSoC4/CapSense_SelfTest.c ****             uint32 regValue;
1535:Generated_Source\PSoC4/CapSense_SelfTest.c ****             uint8 interruptState;
1536:Generated_Source\PSoC4/CapSense_SelfTest.c ****             #if ((CapSense_ENABLE == CapSense_CSD_SHIELD_EN) && \
1537:Generated_Source\PSoC4/CapSense_SelfTest.c ****                  (0u != CapSense_CSD_TOTAL_SHIELD_COUNT))
1538:Generated_Source\PSoC4/CapSense_SelfTest.c ****                 uint32 shieldIndex;
1539:Generated_Source\PSoC4/CapSense_SelfTest.c ****             #endif
1540:Generated_Source\PSoC4/CapSense_SelfTest.c **** 
1541:Generated_Source\PSoC4/CapSense_SelfTest.c **** 
1542:Generated_Source\PSoC4/CapSense_SelfTest.c ****             #if (CapSense_ENABLE == CapSense_CSD_EN)
1543:Generated_Source\PSoC4/CapSense_SelfTest.c ****                 /* Configure Cmod to strong drive mode */
1544:Generated_Source\PSoC4/CapSense_SelfTest.c ****                 interruptState = CyEnterCriticalSection();
1545:Generated_Source\PSoC4/CapSense_SelfTest.c ****                 regValue = CY_GET_REG32(CapSense_CMOD_PC_PTR);
1546:Generated_Source\PSoC4/CapSense_SelfTest.c ****                 regValue &= (uint32)(~((uint32)CapSense_GPIO_PC_MASK << CapSense_CMOD_PC_SHIFT));
1547:Generated_Source\PSoC4/CapSense_SelfTest.c ****                 regValue |= (CapSense_GPIO_STRGDRV << CapSense_CMOD_PC_SHIFT);
1548:Generated_Source\PSoC4/CapSense_SelfTest.c ****                 CY_SET_REG32(CapSense_CMOD_PC_PTR, regValue);
1549:Generated_Source\PSoC4/CapSense_SelfTest.c ****                 CyExitCriticalSection(interruptState);
1550:Generated_Source\PSoC4/CapSense_SelfTest.c **** 
1551:Generated_Source\PSoC4/CapSense_SelfTest.c ****                 #if ((CapSense_ENABLE == CapSense_CSD_SHIELD_EN) && \
1552:Generated_Source\PSoC4/CapSense_SelfTest.c ****                      (CapSense_ENABLE == CapSense_CSD_SHIELD_TANK_EN))
1553:Generated_Source\PSoC4/CapSense_SelfTest.c ****                     /* Configure Csh to strong drive mode */
1554:Generated_Source\PSoC4/CapSense_SelfTest.c ****                     interruptState = CyEnterCriticalSection();
1555:Generated_Source\PSoC4/CapSense_SelfTest.c ****                     regValue = CY_GET_REG32(CapSense_CSH_PC_PTR);
1556:Generated_Source\PSoC4/CapSense_SelfTest.c ****                     regValue &= (uint32)(~((uint32)CapSense_GPIO_PC_MASK << CapSense_CSH_PC_SHIFT))
1557:Generated_Source\PSoC4/CapSense_SelfTest.c ****                     regValue |= (CapSense_GPIO_STRGDRV << CapSense_CSH_PC_SHIFT);
1558:Generated_Source\PSoC4/CapSense_SelfTest.c ****                     CY_SET_REG32(CapSense_CSH_PC_PTR, regValue);
1559:Generated_Source\PSoC4/CapSense_SelfTest.c ****                     CyExitCriticalSection(interruptState);
ARM GAS  C:\Users\YUANFA~1\AppData\Local\Temp\ccnzsvc2.s 			page 33


1560:Generated_Source\PSoC4/CapSense_SelfTest.c ****                 #endif
1561:Generated_Source\PSoC4/CapSense_SelfTest.c **** 
1562:Generated_Source\PSoC4/CapSense_SelfTest.c ****                 #if ((CapSense_ENABLE == CapSense_CSD_SHIELD_EN) && \
1563:Generated_Source\PSoC4/CapSense_SelfTest.c ****                      (0u != CapSense_CSD_TOTAL_SHIELD_COUNT))
1564:Generated_Source\PSoC4/CapSense_SelfTest.c ****                     /* Configure all shield electrodes to strong drive mode */
1565:Generated_Source\PSoC4/CapSense_SelfTest.c ****                     for (shieldIndex = 0u; shieldIndex < CapSense_CSD_TOTAL_SHIELD_COUNT; shieldInd
1566:Generated_Source\PSoC4/CapSense_SelfTest.c ****                     {
1567:Generated_Source\PSoC4/CapSense_SelfTest.c ****                         interruptState = CyEnterCriticalSection();
1568:Generated_Source\PSoC4/CapSense_SelfTest.c ****                         regValue = CY_GET_REG32(CapSense_shieldIoList[shieldIndex].pcPtr);
1569:Generated_Source\PSoC4/CapSense_SelfTest.c ****                         regValue &= ~(CapSense_GPIO_PC_MASK << CapSense_shieldIoList[shieldIndex].s
1570:Generated_Source\PSoC4/CapSense_SelfTest.c ****                         regValue |= (CapSense_SNS_GROUND_CONNECT << CapSense_shieldIoList[shieldInd
1571:Generated_Source\PSoC4/CapSense_SelfTest.c ****                         CY_SET_REG32(CapSense_shieldIoList[shieldIndex].pcPtr, regValue);
1572:Generated_Source\PSoC4/CapSense_SelfTest.c ****                         CyExitCriticalSection(interruptState);
1573:Generated_Source\PSoC4/CapSense_SelfTest.c ****                     }
1574:Generated_Source\PSoC4/CapSense_SelfTest.c ****                 #endif
1575:Generated_Source\PSoC4/CapSense_SelfTest.c ****             #endif
1576:Generated_Source\PSoC4/CapSense_SelfTest.c **** 
1577:Generated_Source\PSoC4/CapSense_SelfTest.c ****             #if (CapSense_ENABLE == CapSense_CSX_EN)
1578:Generated_Source\PSoC4/CapSense_SelfTest.c ****                 /* Configure CintA to strong drive mode */
1579:Generated_Source\PSoC4/CapSense_SelfTest.c ****                 interruptState = CyEnterCriticalSection();
1580:Generated_Source\PSoC4/CapSense_SelfTest.c ****                 regValue = CY_GET_REG32(CapSense_CintA_PC_PTR);
1581:Generated_Source\PSoC4/CapSense_SelfTest.c ****                 regValue &= (uint32)(~((uint32)CapSense_GPIO_PC_MASK << (CapSense_CintA_SHIFT * Cap
1582:Generated_Source\PSoC4/CapSense_SelfTest.c ****                 regValue |= (CapSense_GPIO_STRGDRV << (CapSense_CintA_SHIFT * CapSense_GPIO_PC_BIT_
1583:Generated_Source\PSoC4/CapSense_SelfTest.c ****                 CY_SET_REG32(CapSense_CintA_PC_PTR, regValue);
1584:Generated_Source\PSoC4/CapSense_SelfTest.c ****                 CyExitCriticalSection(interruptState);
1585:Generated_Source\PSoC4/CapSense_SelfTest.c **** 
1586:Generated_Source\PSoC4/CapSense_SelfTest.c ****                 /* Configure CintB to strong drive mode */
1587:Generated_Source\PSoC4/CapSense_SelfTest.c ****                 interruptState = CyEnterCriticalSection();
1588:Generated_Source\PSoC4/CapSense_SelfTest.c ****                 regValue = CY_GET_REG32(CapSense_CintB_PC_PTR);
1589:Generated_Source\PSoC4/CapSense_SelfTest.c ****                 regValue &= (uint32)(~((uint32)CapSense_GPIO_PC_MASK << (CapSense_CintB_SHIFT * Cap
1590:Generated_Source\PSoC4/CapSense_SelfTest.c ****                 regValue |= (CapSense_GPIO_STRGDRV << (CapSense_CintB_SHIFT * CapSense_GPIO_PC_BIT_
1591:Generated_Source\PSoC4/CapSense_SelfTest.c ****                 CY_SET_REG32(CapSense_CintB_PC_PTR, regValue);
1592:Generated_Source\PSoC4/CapSense_SelfTest.c ****                 CyExitCriticalSection(interruptState);
1593:Generated_Source\PSoC4/CapSense_SelfTest.c ****             #endif
1594:Generated_Source\PSoC4/CapSense_SelfTest.c ****         }
1595:Generated_Source\PSoC4/CapSense_SelfTest.c **** 
1596:Generated_Source\PSoC4/CapSense_SelfTest.c **** 
1597:Generated_Source\PSoC4/CapSense_SelfTest.c ****         /*******************************************************************************
1598:Generated_Source\PSoC4/CapSense_SelfTest.c ****         * Function Name: CapSense_BistDisableHwSnsShort
1599:Generated_Source\PSoC4/CapSense_SelfTest.c ****         ****************************************************************************//**
1600:Generated_Source\PSoC4/CapSense_SelfTest.c ****         *
1601:Generated_Source\PSoC4/CapSense_SelfTest.c ****         * \brief
1602:Generated_Source\PSoC4/CapSense_SelfTest.c ****         *  This function configures external capacitors to High-Z drive mode.
1603:Generated_Source\PSoC4/CapSense_SelfTest.c ****         *
1604:Generated_Source\PSoC4/CapSense_SelfTest.c ****         * \details
1605:Generated_Source\PSoC4/CapSense_SelfTest.c ****         *  This function configures external capacitors to High-Z drive mode.
1606:Generated_Source\PSoC4/CapSense_SelfTest.c ****         *
1607:Generated_Source\PSoC4/CapSense_SelfTest.c ****         *******************************************************************************/
1608:Generated_Source\PSoC4/CapSense_SelfTest.c ****         static void CapSense_BistDisableHwSnsShort(void)
1609:Generated_Source\PSoC4/CapSense_SelfTest.c ****         {
1610:Generated_Source\PSoC4/CapSense_SelfTest.c ****             uint8 interruptState;
1611:Generated_Source\PSoC4/CapSense_SelfTest.c ****             uint32 newRegValue;
1612:Generated_Source\PSoC4/CapSense_SelfTest.c **** 
1613:Generated_Source\PSoC4/CapSense_SelfTest.c ****             #if (CapSense_ENABLE == CapSense_CSD_EN)
1614:Generated_Source\PSoC4/CapSense_SelfTest.c ****                 /* Set port configuration register (drive mode) for Cmod in HIGHZ-A mode (PC=000) *
1615:Generated_Source\PSoC4/CapSense_SelfTest.c ****                 interruptState = CyEnterCriticalSection();
1616:Generated_Source\PSoC4/CapSense_SelfTest.c ****                 newRegValue = CY_GET_REG32(CapSense_CMOD_PC_PTR);
ARM GAS  C:\Users\YUANFA~1\AppData\Local\Temp\ccnzsvc2.s 			page 34


1617:Generated_Source\PSoC4/CapSense_SelfTest.c ****                 newRegValue &= (uint32)(~((uint32)CapSense_GPIO_PC_MASK << CapSense_CMOD_PC_SHIFT))
1618:Generated_Source\PSoC4/CapSense_SelfTest.c ****                 newRegValue |= (CapSense_GPIO_HIGHZ << CapSense_CMOD_PC_SHIFT);
1619:Generated_Source\PSoC4/CapSense_SelfTest.c ****                 CY_SET_REG32(CapSense_CMOD_PC_PTR, newRegValue);
1620:Generated_Source\PSoC4/CapSense_SelfTest.c ****                 CyExitCriticalSection(interruptState);
1621:Generated_Source\PSoC4/CapSense_SelfTest.c **** 
1622:Generated_Source\PSoC4/CapSense_SelfTest.c ****                 #if (CapSense_ENABLE == CapSense_CSDV2)
1623:Generated_Source\PSoC4/CapSense_SelfTest.c ****                     interruptState = CyEnterCriticalSection();
1624:Generated_Source\PSoC4/CapSense_SelfTest.c ****                     /* Disconnect CSDCMP from CSDBUS-A (parallel pass via SFCA switch) */
1625:Generated_Source\PSoC4/CapSense_SelfTest.c ****                     newRegValue = CY_GET_REG32(CapSense_SW_CMP_P_SEL_PTR);
1626:Generated_Source\PSoC4/CapSense_SelfTest.c ****                     newRegValue &= (uint32) (~CapSense_SW_CMP_P_SEL_SW_SFCA_MASK);
1627:Generated_Source\PSoC4/CapSense_SelfTest.c ****                     CY_SET_REG32(CapSense_SW_CMP_P_SEL_PTR, newRegValue);
1628:Generated_Source\PSoC4/CapSense_SelfTest.c ****                     CyExitCriticalSection(interruptState);
1629:Generated_Source\PSoC4/CapSense_SelfTest.c ****                 #endif /* (CapSense_ENABLE == CapSense_CSDV2) */
1630:Generated_Source\PSoC4/CapSense_SelfTest.c **** 
1631:Generated_Source\PSoC4/CapSense_SelfTest.c ****                 /* Set port data register for Cmod in 0 (DR=0) */
1632:Generated_Source\PSoC4/CapSense_SelfTest.c ****                 interruptState = CyEnterCriticalSection();
1633:Generated_Source\PSoC4/CapSense_SelfTest.c ****                 newRegValue = CY_GET_REG32(CapSense_CMOD_DR_PTR);
1634:Generated_Source\PSoC4/CapSense_SelfTest.c ****                 newRegValue &= (uint32)(~((uint32)1u << CapSense_CMOD_DR_SHIFT));
1635:Generated_Source\PSoC4/CapSense_SelfTest.c ****                 CY_SET_REG32(CapSense_CMOD_DR_PTR, newRegValue);
1636:Generated_Source\PSoC4/CapSense_SelfTest.c ****                 CyExitCriticalSection(interruptState);
1637:Generated_Source\PSoC4/CapSense_SelfTest.c **** 
1638:Generated_Source\PSoC4/CapSense_SelfTest.c ****                 #if ((CapSense_ENABLE == CapSense_CSD_SHIELD_EN) && \
1639:Generated_Source\PSoC4/CapSense_SelfTest.c ****                      (CapSense_ENABLE == CapSense_CSD_SHIELD_TANK_EN))
1640:Generated_Source\PSoC4/CapSense_SelfTest.c ****                     /* Set port configuration register (drive mode) for CTANK in HIGHZ-A mode */
1641:Generated_Source\PSoC4/CapSense_SelfTest.c ****                     interruptState = CyEnterCriticalSection();
1642:Generated_Source\PSoC4/CapSense_SelfTest.c ****                     newRegValue = CY_GET_REG32(CapSense_CSH_PC_PTR);
1643:Generated_Source\PSoC4/CapSense_SelfTest.c ****                     newRegValue &= (uint32)(~((uint32)CapSense_GPIO_PC_MASK << CapSense_CSH_PC_SHIF
1644:Generated_Source\PSoC4/CapSense_SelfTest.c ****                     newRegValue |= (CapSense_GPIO_HIGHZ << CapSense_CMOD_PC_SHIFT);
1645:Generated_Source\PSoC4/CapSense_SelfTest.c ****                     CY_SET_REG32(CapSense_CSH_PC_PTR, newRegValue);
1646:Generated_Source\PSoC4/CapSense_SelfTest.c ****                     /* Set port data register for CTANK in 0 (DR=0) */
1647:Generated_Source\PSoC4/CapSense_SelfTest.c ****                     newRegValue = CY_GET_REG32(CapSense_CSH_DR_PTR);
1648:Generated_Source\PSoC4/CapSense_SelfTest.c ****                     newRegValue &= (uint32)(~((uint32)1u << CapSense_CSH_SHIFT));
1649:Generated_Source\PSoC4/CapSense_SelfTest.c ****                     CY_SET_REG32(CapSense_CSH_DR_PTR, newRegValue);
1650:Generated_Source\PSoC4/CapSense_SelfTest.c ****                     CyExitCriticalSection(interruptState);
1651:Generated_Source\PSoC4/CapSense_SelfTest.c ****                 #endif /* ((CapSense_ENABLE == CapSense_CSD_SHIELD_EN) && \
1652:Generated_Source\PSoC4/CapSense_SelfTest.c ****                            (CapSense_ENABLE == CapSense_CSD_SHIELD_TANK_EN)) */
1653:Generated_Source\PSoC4/CapSense_SelfTest.c ****             #endif /* (CapSense_ENABLE == CapSense_CSD_EN) */
1654:Generated_Source\PSoC4/CapSense_SelfTest.c **** 
1655:Generated_Source\PSoC4/CapSense_SelfTest.c ****             #if (CapSense_ENABLE == CapSense_CSX_EN)
1656:Generated_Source\PSoC4/CapSense_SelfTest.c ****                 /* Set port configuration register (drive mode) for CintA in HIGHZ-A mode (PC=000) 
1657:Generated_Source\PSoC4/CapSense_SelfTest.c ****                 interruptState = CyEnterCriticalSection();
1658:Generated_Source\PSoC4/CapSense_SelfTest.c ****                 newRegValue = CY_GET_REG32(CapSense_CintA_PC_PTR);
1659:Generated_Source\PSoC4/CapSense_SelfTest.c ****                 newRegValue &= (uint32)(~((uint32)CapSense_GPIO_PC_MASK << (CapSense_CintA_SHIFT * 
1660:Generated_Source\PSoC4/CapSense_SelfTest.c ****                 newRegValue |= (CapSense_GPIO_HIGHZ << (CapSense_CintA_SHIFT * CapSense_GPIO_PC_BIT
1661:Generated_Source\PSoC4/CapSense_SelfTest.c ****                 CY_SET_REG32(CapSense_CintA_PC_PTR, newRegValue);
1662:Generated_Source\PSoC4/CapSense_SelfTest.c ****                 /* Set port data register for CintA in 0 (DR=0) */
1663:Generated_Source\PSoC4/CapSense_SelfTest.c ****                 newRegValue = CY_GET_REG32(CapSense_CintA_DR_PTR);
1664:Generated_Source\PSoC4/CapSense_SelfTest.c ****                 newRegValue &= (uint32)(~((uint32)1u << CapSense_CintA_SHIFT));
1665:Generated_Source\PSoC4/CapSense_SelfTest.c ****                 CY_SET_REG32(CapSense_CintA_DR_PTR, newRegValue);
1666:Generated_Source\PSoC4/CapSense_SelfTest.c ****                 CyExitCriticalSection(interruptState);
1667:Generated_Source\PSoC4/CapSense_SelfTest.c **** 
1668:Generated_Source\PSoC4/CapSense_SelfTest.c ****                 /* Set port configuration register (drive mode) for CintB in HIGHZ-A mode */
1669:Generated_Source\PSoC4/CapSense_SelfTest.c ****                 interruptState = CyEnterCriticalSection();
1670:Generated_Source\PSoC4/CapSense_SelfTest.c ****                 newRegValue = CY_GET_REG32(CapSense_CintB_PC_PTR);
1671:Generated_Source\PSoC4/CapSense_SelfTest.c ****                 newRegValue &= (uint32)(~((uint32)CapSense_GPIO_PC_MASK << (CapSense_CintB_SHIFT * 
1672:Generated_Source\PSoC4/CapSense_SelfTest.c ****                 newRegValue |= (CapSense_GPIO_HIGHZ << (CapSense_CintB_SHIFT * CapSense_GPIO_PC_BIT
1673:Generated_Source\PSoC4/CapSense_SelfTest.c ****                 CY_SET_REG32(CapSense_CintB_PC_PTR, newRegValue);
ARM GAS  C:\Users\YUANFA~1\AppData\Local\Temp\ccnzsvc2.s 			page 35


1674:Generated_Source\PSoC4/CapSense_SelfTest.c ****                 /* Set port data register for CintB in 0 (DR=0) */
1675:Generated_Source\PSoC4/CapSense_SelfTest.c ****                 newRegValue = CY_GET_REG32(CapSense_CintB_DR_PTR);
1676:Generated_Source\PSoC4/CapSense_SelfTest.c ****                 newRegValue &= (uint32)(~((uint32)1u << CapSense_CintB_SHIFT));
1677:Generated_Source\PSoC4/CapSense_SelfTest.c ****                 CY_SET_REG32(CapSense_CintB_DR_PTR, newRegValue);
1678:Generated_Source\PSoC4/CapSense_SelfTest.c ****                 CyExitCriticalSection(interruptState);
1679:Generated_Source\PSoC4/CapSense_SelfTest.c ****             #endif /* (CapSense_ENABLE == CapSense_CSX_EN) */
1680:Generated_Source\PSoC4/CapSense_SelfTest.c ****         }
1681:Generated_Source\PSoC4/CapSense_SelfTest.c **** 
1682:Generated_Source\PSoC4/CapSense_SelfTest.c **** 
1683:Generated_Source\PSoC4/CapSense_SelfTest.c ****         /*******************************************************************************
1684:Generated_Source\PSoC4/CapSense_SelfTest.c ****         * Function Name: CapSense_SnsShortSetDrExtCapShield
1685:Generated_Source\PSoC4/CapSense_SelfTest.c ****         ****************************************************************************//**
1686:Generated_Source\PSoC4/CapSense_SelfTest.c ****         *
1687:Generated_Source\PSoC4/CapSense_SelfTest.c ****         * \brief
1688:Generated_Source\PSoC4/CapSense_SelfTest.c ****         *  This function configures external capacitors and shield to either
1689:Generated_Source\PSoC4/CapSense_SelfTest.c ****         *  strong-low or strong-high.
1690:Generated_Source\PSoC4/CapSense_SelfTest.c ****         *
1691:Generated_Source\PSoC4/CapSense_SelfTest.c ****         * \details
1692:Generated_Source\PSoC4/CapSense_SelfTest.c ****         *  This function configures external capacitors and shield to either
1693:Generated_Source\PSoC4/CapSense_SelfTest.c ****         *  strong-low or strong-high.
1694:Generated_Source\PSoC4/CapSense_SelfTest.c ****         *
1695:Generated_Source\PSoC4/CapSense_SelfTest.c ****         * \param value
1696:Generated_Source\PSoC4/CapSense_SelfTest.c ****         *  Specifies the strong state, either:
1697:Generated_Source\PSoC4/CapSense_SelfTest.c ****         *  * CapSense_TST_DR_PIN2GND means electrodes are configured to GND
1698:Generated_Source\PSoC4/CapSense_SelfTest.c ****         *  * CapSense_TST_DR_PIN2VDD means electrodes are configured to VDD
1699:Generated_Source\PSoC4/CapSense_SelfTest.c ****         *
1700:Generated_Source\PSoC4/CapSense_SelfTest.c ****         *******************************************************************************/
1701:Generated_Source\PSoC4/CapSense_SelfTest.c ****         static void CapSense_SnsShortSetDrExtCapShield(uint32 value)
1702:Generated_Source\PSoC4/CapSense_SelfTest.c ****         {
1703:Generated_Source\PSoC4/CapSense_SelfTest.c ****             uint32 regValue;
1704:Generated_Source\PSoC4/CapSense_SelfTest.c ****             uint8 interruptState;
1705:Generated_Source\PSoC4/CapSense_SelfTest.c ****             #if ((CapSense_ENABLE == CapSense_CSD_SHIELD_EN) && \
1706:Generated_Source\PSoC4/CapSense_SelfTest.c ****                  (0u != CapSense_CSD_TOTAL_SHIELD_COUNT))
1707:Generated_Source\PSoC4/CapSense_SelfTest.c ****                 uint32 shieldIndex;
1708:Generated_Source\PSoC4/CapSense_SelfTest.c ****             #endif
1709:Generated_Source\PSoC4/CapSense_SelfTest.c **** 
1710:Generated_Source\PSoC4/CapSense_SelfTest.c ****             #if (CapSense_ENABLE == CapSense_CSD_EN)
1711:Generated_Source\PSoC4/CapSense_SelfTest.c ****                 /* Configure Cmod to strong drive mode */
1712:Generated_Source\PSoC4/CapSense_SelfTest.c ****                 interruptState = CyEnterCriticalSection();
1713:Generated_Source\PSoC4/CapSense_SelfTest.c ****                 regValue = CY_GET_REG32(CapSense_CMOD_DR_PTR);
1714:Generated_Source\PSoC4/CapSense_SelfTest.c ****                 regValue &= (uint32)(~(uint32) (1uL << CapSense_CMOD_DR_SHIFT));
1715:Generated_Source\PSoC4/CapSense_SelfTest.c ****                 regValue |= (uint32)(value << CapSense_CMOD_DR_SHIFT);
1716:Generated_Source\PSoC4/CapSense_SelfTest.c ****                 CY_SET_REG32(CapSense_CMOD_DR_PTR, regValue);
1717:Generated_Source\PSoC4/CapSense_SelfTest.c ****                 CyExitCriticalSection(interruptState);
1718:Generated_Source\PSoC4/CapSense_SelfTest.c **** 
1719:Generated_Source\PSoC4/CapSense_SelfTest.c ****                 #if ((CapSense_ENABLE == CapSense_CSD_SHIELD_EN) && \
1720:Generated_Source\PSoC4/CapSense_SelfTest.c ****                      (CapSense_ENABLE == CapSense_CSD_SHIELD_TANK_EN))
1721:Generated_Source\PSoC4/CapSense_SelfTest.c ****                     /* Configure Csh to strong drive mode */
1722:Generated_Source\PSoC4/CapSense_SelfTest.c ****                     interruptState = CyEnterCriticalSection();
1723:Generated_Source\PSoC4/CapSense_SelfTest.c ****                     regValue = CY_GET_REG32(CapSense_CSH_DR_PTR);
1724:Generated_Source\PSoC4/CapSense_SelfTest.c ****                     regValue &= (uint32)(~(uint32) (1uL << CapSense_CSH_SHIFT));
1725:Generated_Source\PSoC4/CapSense_SelfTest.c ****                     regValue |= (uint32)(value << CapSense_CSH_SHIFT);
1726:Generated_Source\PSoC4/CapSense_SelfTest.c ****                     CY_SET_REG32(CapSense_CSH_DR_PTR, regValue);
1727:Generated_Source\PSoC4/CapSense_SelfTest.c ****                     CyExitCriticalSection(interruptState);
1728:Generated_Source\PSoC4/CapSense_SelfTest.c ****                 #endif
1729:Generated_Source\PSoC4/CapSense_SelfTest.c **** 
1730:Generated_Source\PSoC4/CapSense_SelfTest.c ****                 #if ((CapSense_ENABLE == CapSense_CSD_SHIELD_EN) && \
ARM GAS  C:\Users\YUANFA~1\AppData\Local\Temp\ccnzsvc2.s 			page 36


1731:Generated_Source\PSoC4/CapSense_SelfTest.c ****                      (0u != CapSense_CSD_TOTAL_SHIELD_COUNT))
1732:Generated_Source\PSoC4/CapSense_SelfTest.c ****                     /* Configure all shield electrodes to strong drive mode */
1733:Generated_Source\PSoC4/CapSense_SelfTest.c ****                     for (shieldIndex = 0u; shieldIndex < CapSense_CSD_TOTAL_SHIELD_COUNT; shieldInd
1734:Generated_Source\PSoC4/CapSense_SelfTest.c ****                     {
1735:Generated_Source\PSoC4/CapSense_SelfTest.c ****                         interruptState = CyEnterCriticalSection();
1736:Generated_Source\PSoC4/CapSense_SelfTest.c ****                         regValue = CY_GET_REG32(CapSense_shieldIoList[shieldIndex].drPtr);
1737:Generated_Source\PSoC4/CapSense_SelfTest.c ****                         regValue &= (uint32)(~(uint32) (1uL << CapSense_shieldIoList[shieldIndex].d
1738:Generated_Source\PSoC4/CapSense_SelfTest.c ****                         regValue |= (uint32)(value << CapSense_shieldIoList[shieldIndex].drShift);
1739:Generated_Source\PSoC4/CapSense_SelfTest.c ****                         CY_SET_REG32(CapSense_shieldIoList[shieldIndex].drPtr, regValue);
1740:Generated_Source\PSoC4/CapSense_SelfTest.c ****                         CyExitCriticalSection(interruptState);
1741:Generated_Source\PSoC4/CapSense_SelfTest.c ****                     }
1742:Generated_Source\PSoC4/CapSense_SelfTest.c ****                 #endif
1743:Generated_Source\PSoC4/CapSense_SelfTest.c ****             #endif
1744:Generated_Source\PSoC4/CapSense_SelfTest.c **** 
1745:Generated_Source\PSoC4/CapSense_SelfTest.c ****             #if (CapSense_ENABLE == CapSense_CSX_EN)
1746:Generated_Source\PSoC4/CapSense_SelfTest.c ****                 /* Configure CintA to strong-low */
1747:Generated_Source\PSoC4/CapSense_SelfTest.c ****                 interruptState = CyEnterCriticalSection();
1748:Generated_Source\PSoC4/CapSense_SelfTest.c ****                 regValue = CY_GET_REG32(CapSense_CintA_DR_PTR);
1749:Generated_Source\PSoC4/CapSense_SelfTest.c ****                 regValue &= (uint32)(~(uint32) (1uL << CapSense_CintA_SHIFT));
1750:Generated_Source\PSoC4/CapSense_SelfTest.c ****                 regValue |= (uint32)(value << CapSense_CintA_SHIFT);
1751:Generated_Source\PSoC4/CapSense_SelfTest.c ****                 CY_SET_REG32(CapSense_CintA_DR_PTR, regValue);
1752:Generated_Source\PSoC4/CapSense_SelfTest.c ****                 CyExitCriticalSection(interruptState);
1753:Generated_Source\PSoC4/CapSense_SelfTest.c **** 
1754:Generated_Source\PSoC4/CapSense_SelfTest.c ****                 /* Configure CintB to strong-low */
1755:Generated_Source\PSoC4/CapSense_SelfTest.c ****                 interruptState = CyEnterCriticalSection();
1756:Generated_Source\PSoC4/CapSense_SelfTest.c ****                 regValue = CY_GET_REG32(CapSense_CintB_DR_PTR);
1757:Generated_Source\PSoC4/CapSense_SelfTest.c ****                 regValue &= (uint32)(~(uint32) (1uL << CapSense_CintB_SHIFT));
1758:Generated_Source\PSoC4/CapSense_SelfTest.c ****                 regValue |= (uint32)(value << CapSense_CintB_SHIFT);
1759:Generated_Source\PSoC4/CapSense_SelfTest.c ****                 CY_SET_REG32(CapSense_CintB_DR_PTR, regValue);
1760:Generated_Source\PSoC4/CapSense_SelfTest.c ****                 CyExitCriticalSection(interruptState);
1761:Generated_Source\PSoC4/CapSense_SelfTest.c ****             #endif
1762:Generated_Source\PSoC4/CapSense_SelfTest.c ****         }
1763:Generated_Source\PSoC4/CapSense_SelfTest.c **** 
1764:Generated_Source\PSoC4/CapSense_SelfTest.c **** 
1765:Generated_Source\PSoC4/CapSense_SelfTest.c ****         /*******************************************************************************
1766:Generated_Source\PSoC4/CapSense_SelfTest.c ****         * Function Name: CapSense_SnsShortReadElectrodeState
1767:Generated_Source\PSoC4/CapSense_SelfTest.c ****         ****************************************************************************//**
1768:Generated_Source\PSoC4/CapSense_SelfTest.c ****         *
1769:Generated_Source\PSoC4/CapSense_SelfTest.c ****         * \brief
1770:Generated_Source\PSoC4/CapSense_SelfTest.c ****         *  Reads a certain electrode state.
1771:Generated_Source\PSoC4/CapSense_SelfTest.c ****         *
1772:Generated_Source\PSoC4/CapSense_SelfTest.c ****         * \details
1773:Generated_Source\PSoC4/CapSense_SelfTest.c ****         *  The function activates an input buffer for the specified electrode and reads
1774:Generated_Source\PSoC4/CapSense_SelfTest.c ****         *  the correspondent input bit. After that it disables the input buffer.
1775:Generated_Source\PSoC4/CapSense_SelfTest.c ****         *
1776:Generated_Source\PSoC4/CapSense_SelfTest.c ****         * \param *ioPtr
1777:Generated_Source\PSoC4/CapSense_SelfTest.c ****         *  A pointer to IO data structure of the specified electrode.
1778:Generated_Source\PSoC4/CapSense_SelfTest.c ****         *
1779:Generated_Source\PSoC4/CapSense_SelfTest.c ****         * \return
1780:Generated_Source\PSoC4/CapSense_SelfTest.c ****         *  Returns the state of the input buffer of the electrode (0 or non 0).
1781:Generated_Source\PSoC4/CapSense_SelfTest.c ****         *
1782:Generated_Source\PSoC4/CapSense_SelfTest.c ****         *******************************************************************************/
1783:Generated_Source\PSoC4/CapSense_SelfTest.c ****         static uint32 CapSense_SnsShortReadElectrodeState(CapSense_FLASH_IO_STRUCT const *ioPtr)
1784:Generated_Source\PSoC4/CapSense_SelfTest.c ****         {
1785:Generated_Source\PSoC4/CapSense_SelfTest.c ****             uint32 newRegisterValue;
1786:Generated_Source\PSoC4/CapSense_SelfTest.c ****             uint8  interruptState;
1787:Generated_Source\PSoC4/CapSense_SelfTest.c ****             uint32 result;
ARM GAS  C:\Users\YUANFA~1\AppData\Local\Temp\ccnzsvc2.s 			page 37


1788:Generated_Source\PSoC4/CapSense_SelfTest.c **** 
1789:Generated_Source\PSoC4/CapSense_SelfTest.c ****             /* Enable the input buffer for the specified electrode */
1790:Generated_Source\PSoC4/CapSense_SelfTest.c ****             interruptState = CyEnterCriticalSection();
1791:Generated_Source\PSoC4/CapSense_SelfTest.c ****             newRegisterValue = CY_GET_REG32(ioPtr->pc2Ptr);
1792:Generated_Source\PSoC4/CapSense_SelfTest.c ****             newRegisterValue &= ~(ioPtr->mask);
1793:Generated_Source\PSoC4/CapSense_SelfTest.c ****             CY_SET_REG32(ioPtr->pc2Ptr, newRegisterValue);
1794:Generated_Source\PSoC4/CapSense_SelfTest.c ****             CyExitCriticalSection(interruptState);
1795:Generated_Source\PSoC4/CapSense_SelfTest.c **** 
1796:Generated_Source\PSoC4/CapSense_SelfTest.c ****             /* Read the bit from the IO pad state register (PS) */
1797:Generated_Source\PSoC4/CapSense_SelfTest.c ****             result = CY_GET_REG32(ioPtr->psPtr) & ioPtr->mask;
1798:Generated_Source\PSoC4/CapSense_SelfTest.c **** 
1799:Generated_Source\PSoC4/CapSense_SelfTest.c ****             /* Disable the input buffer for this pin (set PC2 bit to logic 1) */
1800:Generated_Source\PSoC4/CapSense_SelfTest.c ****             interruptState = CyEnterCriticalSection();
1801:Generated_Source\PSoC4/CapSense_SelfTest.c ****             newRegisterValue = CY_GET_REG32(ioPtr->pc2Ptr);
1802:Generated_Source\PSoC4/CapSense_SelfTest.c ****             newRegisterValue |= ioPtr->mask;
1803:Generated_Source\PSoC4/CapSense_SelfTest.c ****             CY_SET_REG32(ioPtr->pc2Ptr, newRegisterValue);
1804:Generated_Source\PSoC4/CapSense_SelfTest.c ****             CyExitCriticalSection(interruptState);
1805:Generated_Source\PSoC4/CapSense_SelfTest.c **** 
1806:Generated_Source\PSoC4/CapSense_SelfTest.c ****             return(result);
1807:Generated_Source\PSoC4/CapSense_SelfTest.c ****         }
1808:Generated_Source\PSoC4/CapSense_SelfTest.c ****     #endif /* (((CapSense_ENABLE == CapSense_CSD_EN) || (CapSense_ENABLE == CapSense_CSX_EN)) &&\
1809:Generated_Source\PSoC4/CapSense_SelfTest.c ****                (CapSense_ENABLE == CapSense_TST_SNS_SHORT_EN)) */
1810:Generated_Source\PSoC4/CapSense_SelfTest.c **** 
1811:Generated_Source\PSoC4/CapSense_SelfTest.c **** 
1812:Generated_Source\PSoC4/CapSense_SelfTest.c ****     #if (CapSense_ENABLE == CapSense_TST_MEASUREMENT_GROUP_EN)
1813:Generated_Source\PSoC4/CapSense_SelfTest.c ****         #if ((CapSense_ENABLE == CapSense_TST_SNS_CAP_EN) || \
1814:Generated_Source\PSoC4/CapSense_SelfTest.c ****              (CapSense_ENABLE == CapSense_TST_SH_CAP_EN)  ||\
1815:Generated_Source\PSoC4/CapSense_SelfTest.c ****              (CapSense_ENABLE == CapSense_TST_EXTERNAL_CAP_EN))
1816:Generated_Source\PSoC4/CapSense_SelfTest.c ****             /*******************************************************************************
1817:Generated_Source\PSoC4/CapSense_SelfTest.c ****             * Function Name: CapSense_BistEnableHwSnsCap
1818:Generated_Source\PSoC4/CapSense_SelfTest.c ****             ****************************************************************************//**
1819:Generated_Source\PSoC4/CapSense_SelfTest.c ****             *
1820:Generated_Source\PSoC4/CapSense_SelfTest.c ****             * \brief
1821:Generated_Source\PSoC4/CapSense_SelfTest.c ****             *  Sets up the CapSense block to perform a capacitanse measuring.
1822:Generated_Source\PSoC4/CapSense_SelfTest.c ****             *
1823:Generated_Source\PSoC4/CapSense_SelfTest.c ****             * \details
1824:Generated_Source\PSoC4/CapSense_SelfTest.c ****             *   This function prepare HW of the CapSense block to CSD sensing mode
1825:Generated_Source\PSoC4/CapSense_SelfTest.c ****             *   with BIST defined parameters.
1826:Generated_Source\PSoC4/CapSense_SelfTest.c ****             *   The function performs the following tasks:
1827:Generated_Source\PSoC4/CapSense_SelfTest.c ****             *   1. Sets the default CSD configuration for BIST scans
1828:Generated_Source\PSoC4/CapSense_SelfTest.c ****             *   2. Enables shield electrodes and Csh (if defined)
1829:Generated_Source\PSoC4/CapSense_SelfTest.c ****             *   3. Sets Idac config for BIST scans
1830:Generated_Source\PSoC4/CapSense_SelfTest.c ****             *   4. Sets a sensor clock frequency (only for a sensor capacitance measuring)
1831:Generated_Source\PSoC4/CapSense_SelfTest.c ****             *   5. Sets the ISR handler for BIST scans.
1832:Generated_Source\PSoC4/CapSense_SelfTest.c ****             *
1833:Generated_Source\PSoC4/CapSense_SelfTest.c ****             *******************************************************************************/
1834:Generated_Source\PSoC4/CapSense_SelfTest.c ****             static void CapSense_BistEnableHwSnsCap(void)
1835:Generated_Source\PSoC4/CapSense_SelfTest.c ****             {
1836:Generated_Source\PSoC4/CapSense_SelfTest.c ****                 uint32 newRegValue;
1837:Generated_Source\PSoC4/CapSense_SelfTest.c ****                 uint8  interruptState;
1838:Generated_Source\PSoC4/CapSense_SelfTest.c **** 
1839:Generated_Source\PSoC4/CapSense_SelfTest.c ****                 CapSense_DischargeExtCapacitors(CapSense_EXT_CAP_DISCHARGE_TIME);
1840:Generated_Source\PSoC4/CapSense_SelfTest.c **** 
1841:Generated_Source\PSoC4/CapSense_SelfTest.c ****                 #if (((CapSense_ENABLE == CapSense_CSD_EN) || (CapSense_ENABLE == CapSense_CSX_EN))
1842:Generated_Source\PSoC4/CapSense_SelfTest.c ****                      (CapSense_ENABLE == CapSense_TST_SNS_CAP_EN))
1843:Generated_Source\PSoC4/CapSense_SelfTest.c ****                     /* Verification of the bist mode */
1844:Generated_Source\PSoC4/CapSense_SelfTest.c ****                     if (CapSense_BIST_HW_SNS_CAP_E == CapSense_bistHwConfig)
ARM GAS  C:\Users\YUANFA~1\AppData\Local\Temp\ccnzsvc2.s 			page 38


1845:Generated_Source\PSoC4/CapSense_SelfTest.c ****                     {
1846:Generated_Source\PSoC4/CapSense_SelfTest.c ****                         #if ((CapSense_ENABLE == CapSense_CSD_SHIELD_EN) &&\
1847:Generated_Source\PSoC4/CapSense_SelfTest.c ****                              (CapSense_ENABLE == CapSense_CSD_SHIELD_TANK_EN))
1848:Generated_Source\PSoC4/CapSense_SelfTest.c ****                             /* Configure Csh */
1849:Generated_Source\PSoC4/CapSense_SelfTest.c ****                             CapSense_BistEnableShieldTank();
1850:Generated_Source\PSoC4/CapSense_SelfTest.c ****                         #endif
1851:Generated_Source\PSoC4/CapSense_SelfTest.c ****                     }
1852:Generated_Source\PSoC4/CapSense_SelfTest.c ****                 #endif /* (((CapSense_ENABLE == CapSense_CSD_EN) || (CapSense_ENABLE == CapSense_CS
1853:Generated_Source\PSoC4/CapSense_SelfTest.c ****                            (CapSense_ENABLE == CapSense_TST_SNS_CAP_EN)) */
1854:Generated_Source\PSoC4/CapSense_SelfTest.c **** 
1855:Generated_Source\PSoC4/CapSense_SelfTest.c ****                 #if (CapSense_ENABLE == CapSense_CSDV2)
1856:Generated_Source\PSoC4/CapSense_SelfTest.c **** 
1857:Generated_Source\PSoC4/CapSense_SelfTest.c ****                     /* Initialize the unused CSD registers to defaut state */
1858:Generated_Source\PSoC4/CapSense_SelfTest.c ****                     CY_SET_REG32(CapSense_INTR_SET_PTR,         CapSense_BIST_INTR_SET_CFG);
1859:Generated_Source\PSoC4/CapSense_SelfTest.c ****                     CY_SET_REG32(CapSense_SW_FW_TANK_SEL_PTR,   CapSense_BIST_SW_FW_TANK_SEL_CFG);
1860:Generated_Source\PSoC4/CapSense_SelfTest.c ****                     CY_SET_REG32(CapSense_SW_DSI_SEL_PTR,       CapSense_BIST_DEFAULT_SW_DSI_SEL);
1861:Generated_Source\PSoC4/CapSense_SelfTest.c ****                     CY_SET_REG32(CapSense_ADC_CTL_PTR,          CapSense_BIST_ADC_CTL_CFG);
1862:Generated_Source\PSoC4/CapSense_SelfTest.c ****                     CY_SET_REG32(CapSense_AMBUF_PTR,            CapSense_BIST_AMBUF_PWR_MODE_OFF);
1863:Generated_Source\PSoC4/CapSense_SelfTest.c ****                     CY_SET_REG32(CapSense_SW_SHIELD_SEL_PTR,    CapSense_BIST_SW_SHIELD_SEL_CFG);
1864:Generated_Source\PSoC4/CapSense_SelfTest.c ****                     CY_SET_REG32(CapSense_SW_HS_P_SEL_PTR,      CapSense_BIST_SW_HS_P_SEL_CFG);
1865:Generated_Source\PSoC4/CapSense_SelfTest.c ****                     CY_SET_REG32(CapSense_SW_HS_N_SEL_PTR,      CapSense_BIST_SW_HS_N_SEL_CFG);
1866:Generated_Source\PSoC4/CapSense_SelfTest.c ****                     CY_SET_REG32(CapSense_HSCMP_PTR,            CapSense_BIST_HSCMP_CFG);
1867:Generated_Source\PSoC4/CapSense_SelfTest.c ****                     CY_SET_REG32(CapSense_SEQ_TIME_PTR,         CapSense_BIST_AUTO_ZERO_TIME);
1868:Generated_Source\PSoC4/CapSense_SelfTest.c ****                     CY_SET_REG32(CapSense_SW_RES_PTR,           CapSense_BIST_SW_RES_INIT);
1869:Generated_Source\PSoC4/CapSense_SelfTest.c **** 
1870:Generated_Source\PSoC4/CapSense_SelfTest.c ****                     /* Connect AMUXBUS-A to CSDBUS-A */
1871:Generated_Source\PSoC4/CapSense_SelfTest.c ****                     interruptState = CyEnterCriticalSection();
1872:Generated_Source\PSoC4/CapSense_SelfTest.c ****                     newRegValue = CY_GET_REG32(CapSense_SW_BYP_SEL_PTR);
1873:Generated_Source\PSoC4/CapSense_SelfTest.c ****                     newRegValue |= CapSense_SW_BYP_SEL_SW_BYA_MASK;
1874:Generated_Source\PSoC4/CapSense_SelfTest.c ****                     CY_SET_REG32(CapSense_SW_BYP_SEL_PTR, newRegValue);
1875:Generated_Source\PSoC4/CapSense_SelfTest.c ****                     CyExitCriticalSection(interruptState);
1876:Generated_Source\PSoC4/CapSense_SelfTest.c **** 
1877:Generated_Source\PSoC4/CapSense_SelfTest.c ****                     /* Verification of the bist mode */
1878:Generated_Source\PSoC4/CapSense_SelfTest.c ****                     if (CapSense_BIST_HW_EXT_CAP_E != CapSense_bistHwConfig)
1879:Generated_Source\PSoC4/CapSense_SelfTest.c ****                     {
1880:Generated_Source\PSoC4/CapSense_SelfTest.c ****                         #if (CapSense_ENABLE == CapSense_CSD_EN)
1881:Generated_Source\PSoC4/CapSense_SelfTest.c ****                             /* Connect CMOD to AMUXBUS-A */
1882:Generated_Source\PSoC4/CapSense_SelfTest.c ****                             interruptState = CyEnterCriticalSection();
1883:Generated_Source\PSoC4/CapSense_SelfTest.c ****                             newRegValue = CY_GET_REG32(CapSense_CMOD_HSIOM_PTR);
1884:Generated_Source\PSoC4/CapSense_SelfTest.c ****                             newRegValue &= (uint32)(~(uint32)CapSense_CMOD_HSIOM_MASK);
1885:Generated_Source\PSoC4/CapSense_SelfTest.c ****                             newRegValue |= (CapSense_HSIOM_SEL_AMUXA << CapSense_CMOD_HSIOM_SHIFT);
1886:Generated_Source\PSoC4/CapSense_SelfTest.c ****                             CY_SET_REG32(CapSense_CMOD_HSIOM_PTR, newRegValue);
1887:Generated_Source\PSoC4/CapSense_SelfTest.c ****                             CyExitCriticalSection(interruptState);
1888:Generated_Source\PSoC4/CapSense_SelfTest.c **** 
1889:Generated_Source\PSoC4/CapSense_SelfTest.c ****                             /* Connect CMOD to (sense path) to CSDCOMP */
1890:Generated_Source\PSoC4/CapSense_SelfTest.c ****                             #if (CapSense_CSD__CMOD_PAD == CapSense_CMOD_CONNECTION)
1891:Generated_Source\PSoC4/CapSense_SelfTest.c ****                                 CY_SET_REG32(CapSense_SW_CMP_P_SEL_PTR, CapSense_SW_CMP_P_SEL_SW_SF
1892:Generated_Source\PSoC4/CapSense_SelfTest.c ****                             #elif (CapSense_CSD__CSHIELD_PAD == CapSense_CMOD_CONNECTION)
1893:Generated_Source\PSoC4/CapSense_SelfTest.c ****                                 CY_SET_REG32(CapSense_SW_CMP_P_SEL_PTR, CapSense_SW_CMP_P_SEL_SW_SF
1894:Generated_Source\PSoC4/CapSense_SelfTest.c ****                             #else
1895:Generated_Source\PSoC4/CapSense_SelfTest.c ****                                 CY_SET_REG32(CapSense_SW_CMP_P_SEL_PTR, CapSense_SW_CMP_P_SEL_SW_SF
1896:Generated_Source\PSoC4/CapSense_SelfTest.c ****                             #endif /* (CapSense_CSD__CMOD_PAD == CapSense_CMOD_CONNECTION) */
1897:Generated_Source\PSoC4/CapSense_SelfTest.c ****                         #else
1898:Generated_Source\PSoC4/CapSense_SelfTest.c ****                             interruptState = CyEnterCriticalSection();
1899:Generated_Source\PSoC4/CapSense_SelfTest.c ****                             newRegValue = CY_GET_REG32(CapSense_CintA_HSIOM_PTR);
1900:Generated_Source\PSoC4/CapSense_SelfTest.c ****                             newRegValue &= (uint32)(~(uint32)CapSense_CintA_HSIOM_MASK);
1901:Generated_Source\PSoC4/CapSense_SelfTest.c ****                             newRegValue |= (CapSense_HSIOM_SEL_AMUXA << CapSense_CintA_HSIOM_SHIFT)
ARM GAS  C:\Users\YUANFA~1\AppData\Local\Temp\ccnzsvc2.s 			page 39


1902:Generated_Source\PSoC4/CapSense_SelfTest.c ****                             CY_SET_REG32(CapSense_CintA_HSIOM_PTR, newRegValue);
1903:Generated_Source\PSoC4/CapSense_SelfTest.c ****                             CyExitCriticalSection(interruptState);
1904:Generated_Source\PSoC4/CapSense_SelfTest.c **** 
1905:Generated_Source\PSoC4/CapSense_SelfTest.c ****                             interruptState = CyEnterCriticalSection();
1906:Generated_Source\PSoC4/CapSense_SelfTest.c ****                             newRegValue = CY_GET_REG32(CapSense_CintB_HSIOM_PTR);
1907:Generated_Source\PSoC4/CapSense_SelfTest.c ****                             newRegValue &= (uint32)(~(uint32)CapSense_CintB_HSIOM_MASK);
1908:Generated_Source\PSoC4/CapSense_SelfTest.c ****                             newRegValue |= (CapSense_HSIOM_SEL_AMUXA << CapSense_CintB_HSIOM_SHIFT)
1909:Generated_Source\PSoC4/CapSense_SelfTest.c ****                             CY_SET_REG32(CapSense_CintB_HSIOM_PTR, newRegValue);
1910:Generated_Source\PSoC4/CapSense_SelfTest.c ****                             CyExitCriticalSection(interruptState);
1911:Generated_Source\PSoC4/CapSense_SelfTest.c **** 
1912:Generated_Source\PSoC4/CapSense_SelfTest.c ****                             CY_SET_REG32(CapSense_SW_CMP_P_SEL_PTR, CapSense_SW_CMP_P_SEL_SW_SFPT_S
1913:Generated_Source\PSoC4/CapSense_SelfTest.c ****                         #endif /* (CapSense_ENABLE == CapSense_CSD_EN) */
1914:Generated_Source\PSoC4/CapSense_SelfTest.c ****                     }
1915:Generated_Source\PSoC4/CapSense_SelfTest.c **** 
1916:Generated_Source\PSoC4/CapSense_SelfTest.c ****                     /* Verification of the bist mode */
1917:Generated_Source\PSoC4/CapSense_SelfTest.c ****                     if (CapSense_BIST_HW_SNS_CAP_E == CapSense_bistHwConfig)
1918:Generated_Source\PSoC4/CapSense_SelfTest.c ****                     {
1919:Generated_Source\PSoC4/CapSense_SelfTest.c ****                         /* Configure shield driving path */
1920:Generated_Source\PSoC4/CapSense_SelfTest.c ****                         #if (CapSense_ENABLE == CapSense_CSD_SHIELD_EN)
1921:Generated_Source\PSoC4/CapSense_SelfTest.c ****                             /* Connect AMUXBUS-B to CSDBUS-B (and AMUXBUS-A to CSDBUS-A ) */
1922:Generated_Source\PSoC4/CapSense_SelfTest.c ****                             CY_SET_REG32(CapSense_SW_BYP_SEL_PTR, CapSense_SW_BYP_SEL_SW_BYA_MASK |
1923:Generated_Source\PSoC4/CapSense_SelfTest.c ****                                                                           CapSense_SW_BYP_SEL_SW_BY
1924:Generated_Source\PSoC4/CapSense_SelfTest.c ****                         #endif /* (CapSense_ENABLE == CapSense_CSD_SHIELD_EN) */
1925:Generated_Source\PSoC4/CapSense_SelfTest.c ****                     }
1926:Generated_Source\PSoC4/CapSense_SelfTest.c **** 
1927:Generated_Source\PSoC4/CapSense_SelfTest.c ****                     /* Connect VREF to REFGEN (IAIB switch is open) */
1928:Generated_Source\PSoC4/CapSense_SelfTest.c ****                     CY_SET_REG32(CapSense_SW_REFGEN_SEL_PTR, CapSense_BIST_SW_REFGEN_SEL_CFG);
1929:Generated_Source\PSoC4/CapSense_SelfTest.c **** 
1930:Generated_Source\PSoC4/CapSense_SelfTest.c ****                     CY_SET_REG32(CapSense_SW_CMP_N_SEL_PTR, CapSense_SW_CMP_N_SEL_SW_SCRH_STATIC_CL
1931:Generated_Source\PSoC4/CapSense_SelfTest.c ****                     #if (CapSense_2000_MV > CapSense_CYDEV_VDDA_MV)
1932:Generated_Source\PSoC4/CapSense_SelfTest.c **** 
1933:Generated_Source\PSoC4/CapSense_SelfTest.c ****                         /* Configure REFGEN. Set reference voltage when Vdda < 2 V */
1934:Generated_Source\PSoC4/CapSense_SelfTest.c ****                         CY_SET_REG32(CapSense_REFGEN_PTR, CapSense_TST_REFGEN_LV);
1935:Generated_Source\PSoC4/CapSense_SelfTest.c **** 
1936:Generated_Source\PSoC4/CapSense_SelfTest.c ****                         #if (CapSense_ENABLE == CapSense_CSD_SHIELD_EN)
1937:Generated_Source\PSoC4/CapSense_SelfTest.c ****                             CY_SET_REG32(CapSense_AMBUF_PTR, CapSense_AMBUF_PWR_MODE_NORM);
1938:Generated_Source\PSoC4/CapSense_SelfTest.c ****                             CY_SET_REG32(CapSense_SW_AMUXBUF_SEL_PTR, CapSense_SW_AMUXBUF_SEL_SW_IR
1939:Generated_Source\PSoC4/CapSense_SelfTest.c ****                                                                               CapSense_SW_AMUXBUF_S
1940:Generated_Source\PSoC4/CapSense_SelfTest.c ****                                                                               CapSense_SW_AMUXBUF_S
1941:Generated_Source\PSoC4/CapSense_SelfTest.c ****                         #else
1942:Generated_Source\PSoC4/CapSense_SelfTest.c ****                             CY_SET_REG32(CapSense_AMBUF_PTR, CapSense_AMBUF_PWR_MODE_NORM);
1943:Generated_Source\PSoC4/CapSense_SelfTest.c ****                             CY_SET_REG32(CapSense_SW_AMUXBUF_SEL_PTR, CapSense_SW_AMUXBUF_SEL_SW_IR
1944:Generated_Source\PSoC4/CapSense_SelfTest.c ****                                                                               CapSense_SW_AMUXBUF_S
1945:Generated_Source\PSoC4/CapSense_SelfTest.c ****                         #endif /* (CapSense_ENABLE == CapSense_CSD_SHIELD_EN) */
1946:Generated_Source\PSoC4/CapSense_SelfTest.c ****                     #else
1947:Generated_Source\PSoC4/CapSense_SelfTest.c **** 
1948:Generated_Source\PSoC4/CapSense_SelfTest.c **** 
1949:Generated_Source\PSoC4/CapSense_SelfTest.c ****                         /* Configure REFGEN. Set reference voltage when Vdda >= 2 V */
1950:Generated_Source\PSoC4/CapSense_SelfTest.c ****                         #if (((CapSense_ENABLE == CapSense_CSD_EN) || (CapSense_ENABLE == CapSense_
1951:Generated_Source\PSoC4/CapSense_SelfTest.c ****                              ((0u != CapSense_TST_SNS_CAP_EN) || (0u != CapSense_TST_SH_CAP_EN)))
1952:Generated_Source\PSoC4/CapSense_SelfTest.c ****                             if ((CapSense_BIST_HW_SNS_CAP_E == CapSense_bistHwConfig) ||
1953:Generated_Source\PSoC4/CapSense_SelfTest.c ****                                 (CapSense_BIST_HW_SH_CAP_E == CapSense_bistHwConfig))
1954:Generated_Source\PSoC4/CapSense_SelfTest.c ****                             {
1955:Generated_Source\PSoC4/CapSense_SelfTest.c ****                             newRegValue = CapSense_TST_REFGEN_HV |
1956:Generated_Source\PSoC4/CapSense_SelfTest.c ****                                     ((uint32)CapSense_dsRam.selfTestConfig.snsCapVrefGain << CYFLD_
1957:Generated_Source\PSoC4/CapSense_SelfTest.c ****                             }
1958:Generated_Source\PSoC4/CapSense_SelfTest.c ****                         #endif /* (((CapSense_ENABLE == CapSense_CSD_EN) || (CapSense_ENABLE == Cap
ARM GAS  C:\Users\YUANFA~1\AppData\Local\Temp\ccnzsvc2.s 			page 40


1959:Generated_Source\PSoC4/CapSense_SelfTest.c ****                                    ((0u != CapSense_TST_SNS_CAP_EN) || (0u != CapSense_TST_SH_CAP_E
1960:Generated_Source\PSoC4/CapSense_SelfTest.c **** 
1961:Generated_Source\PSoC4/CapSense_SelfTest.c ****                         #if (0u != CapSense_TST_EXTERNAL_CAP_EN)
1962:Generated_Source\PSoC4/CapSense_SelfTest.c ****                             if ((CapSense_BIST_HW_EXT_CAP_E == CapSense_bistHwConfig))
1963:Generated_Source\PSoC4/CapSense_SelfTest.c ****                             {
1964:Generated_Source\PSoC4/CapSense_SelfTest.c ****                             newRegValue = CapSense_TST_REFGEN_HV |
1965:Generated_Source\PSoC4/CapSense_SelfTest.c ****                                     ((uint32)CapSense_dsRam.selfTestConfig.extCapVrefGain << CYFLD_
1966:Generated_Source\PSoC4/CapSense_SelfTest.c ****                             }
1967:Generated_Source\PSoC4/CapSense_SelfTest.c ****                         #endif /* #if (0u != CapSense_TST_EXTERNAL_CAP_EN) */
1968:Generated_Source\PSoC4/CapSense_SelfTest.c **** 
1969:Generated_Source\PSoC4/CapSense_SelfTest.c ****                         CY_SET_REG32(CapSense_REFGEN_PTR, newRegValue);
1970:Generated_Source\PSoC4/CapSense_SelfTest.c **** 
1971:Generated_Source\PSoC4/CapSense_SelfTest.c ****                         #if (CapSense_ENABLE == CapSense_CSD_SHIELD_EN)
1972:Generated_Source\PSoC4/CapSense_SelfTest.c ****                             /* Turn on CSD_AMBUF high power level when Vdaa >= 2V */
1973:Generated_Source\PSoC4/CapSense_SelfTest.c ****                             CY_SET_REG32(CapSense_AMBUF_PTR, CapSense_AMBUF_PWR_MODE_HI);
1974:Generated_Source\PSoC4/CapSense_SelfTest.c ****                             CY_SET_REG32(CapSense_SW_AMUXBUF_SEL_PTR, CapSense_SW_AMUXBUF_SEL_SW_IR
1975:Generated_Source\PSoC4/CapSense_SelfTest.c ****                                                                               CapSense_SW_AMUXBUF_S
1976:Generated_Source\PSoC4/CapSense_SelfTest.c ****                         #else
1977:Generated_Source\PSoC4/CapSense_SelfTest.c **** 
1978:Generated_Source\PSoC4/CapSense_SelfTest.c ****                             CY_SET_REG32(CapSense_AMBUF_PTR, CapSense_AMBUF_PWR_MODE_OFF);
1979:Generated_Source\PSoC4/CapSense_SelfTest.c **** 
1980:Generated_Source\PSoC4/CapSense_SelfTest.c ****                             /* Configure REFGEN. Set reference voltage when Vdda >= 2 V */
1981:Generated_Source\PSoC4/CapSense_SelfTest.c ****                             CY_SET_REG32(CapSense_SW_AMUXBUF_SEL_PTR, CapSense_SW_AMUXBUF_SEL_SW_DE
1982:Generated_Source\PSoC4/CapSense_SelfTest.c ****                         #endif /* (CapSense_ENABLE == CapSense_CSD_SHIELD_EN) */
1983:Generated_Source\PSoC4/CapSense_SelfTest.c ****                     #endif /* (CapSense_2000_MV > CapSense_CYDEV_VDDA_MV) */
1984:Generated_Source\PSoC4/CapSense_SelfTest.c **** 
1985:Generated_Source\PSoC4/CapSense_SelfTest.c ****                     #if ((CapSense_ENABLE == CapSense_TST_SNS_CAP_EN) ||\
1986:Generated_Source\PSoC4/CapSense_SelfTest.c ****                          (CapSense_ENABLE == CapSense_TST_SH_CAP_EN))
1987:Generated_Source\PSoC4/CapSense_SelfTest.c ****                         if (CapSense_BIST_HW_EXT_CAP_E != CapSense_bistHwConfig)
1988:Generated_Source\PSoC4/CapSense_SelfTest.c ****                         {
1989:Generated_Source\PSoC4/CapSense_SelfTest.c ****                             /* Configure ModClk */
1990:Generated_Source\PSoC4/CapSense_SelfTest.c ****                             CapSense_SsSetModClkClockDivider((uint32)CapSense_dsRam.selfTestConfig.
1991:Generated_Source\PSoC4/CapSense_SelfTest.c ****                         }
1992:Generated_Source\PSoC4/CapSense_SelfTest.c ****                     #endif /* ((CapSense_ENABLE == CapSense_TST_SNS_CAP_EN) ||\
1993:Generated_Source\PSoC4/CapSense_SelfTest.c ****                                (CapSense_ENABLE == CapSense_TST_SH_CAP_EN)) */
1994:Generated_Source\PSoC4/CapSense_SelfTest.c **** 
1995:Generated_Source\PSoC4/CapSense_SelfTest.c ****                     /* Verification of the bist mode */
1996:Generated_Source\PSoC4/CapSense_SelfTest.c ****                     if (CapSense_BIST_HW_SNS_CAP_E == CapSense_bistHwConfig)
1997:Generated_Source\PSoC4/CapSense_SelfTest.c ****                     {
1998:Generated_Source\PSoC4/CapSense_SelfTest.c ****                         #if (CapSense_ENABLE == CapSense_CSD_SHIELD_EN)
1999:Generated_Source\PSoC4/CapSense_SelfTest.c ****                             /* Update CSD config register shield delay bits with shield delay value
2000:Generated_Source\PSoC4/CapSense_SelfTest.c ****                             CapSense_bistConfigCsd &= (uint32)(~CapSense_CONFIG_SHIELD_DELAY_MASK);
2001:Generated_Source\PSoC4/CapSense_SelfTest.c ****                             CapSense_bistConfigCsd |= ((uint32)CapSense_CSD_SHIELD_DELAY <<
2002:Generated_Source\PSoC4/CapSense_SelfTest.c ****                                                                                    CYFLD_CSD_SHIELD
2003:Generated_Source\PSoC4/CapSense_SelfTest.c ****                         #endif /* (CapSense_ENABLE == CapSense_CSD_SHIELD_EN) */
2004:Generated_Source\PSoC4/CapSense_SelfTest.c ****                     }
2005:Generated_Source\PSoC4/CapSense_SelfTest.c **** 
2006:Generated_Source\PSoC4/CapSense_SelfTest.c ****                     /* Configure HW block filter delay */
2007:Generated_Source\PSoC4/CapSense_SelfTest.c ****                     CapSense_bistConfigCsd &= (uint32)(~CapSense_CONFIG_FILTER_DELAY_MASK);
2008:Generated_Source\PSoC4/CapSense_SelfTest.c ****                     CapSense_bistConfigCsd |= CapSense_FILTER_DELAY_CFG;
2009:Generated_Source\PSoC4/CapSense_SelfTest.c **** 
2010:Generated_Source\PSoC4/CapSense_SelfTest.c ****                     /* Enable power to sub-blocks */
2011:Generated_Source\PSoC4/CapSense_SelfTest.c ****                     CY_SET_REG32(CapSense_CONFIG_PTR,     CapSense_bistConfigCsd |
2012:Generated_Source\PSoC4/CapSense_SelfTest.c ****                                                                   CapSense_CONFIG_SENSE_EN_MASK |
2013:Generated_Source\PSoC4/CapSense_SelfTest.c ****                                                                   CapSense_CONFIG_ENABLE_MASK |
2014:Generated_Source\PSoC4/CapSense_SelfTest.c ****                                                                   CapSense_CONFIG_SAMPLE_SYNC_MASK)
2015:Generated_Source\PSoC4/CapSense_SelfTest.c **** 
ARM GAS  C:\Users\YUANFA~1\AppData\Local\Temp\ccnzsvc2.s 			page 41


2016:Generated_Source\PSoC4/CapSense_SelfTest.c ****                     #if(CapSense_TST_ANALOG_STARTUP_DELAY_US > 0uL)
2017:Generated_Source\PSoC4/CapSense_SelfTest.c ****                         CyDelayUs(CapSense_TST_ANALOG_STARTUP_DELAY_US);
2018:Generated_Source\PSoC4/CapSense_SelfTest.c ****                     #endif /* (CapSense_TST_ANALOG_STARTUP_DELAY_US > 0uL) */
2019:Generated_Source\PSoC4/CapSense_SelfTest.c **** 
2020:Generated_Source\PSoC4/CapSense_SelfTest.c **** 
2021:Generated_Source\PSoC4/CapSense_SelfTest.c ****                     /* Set the number of dummy fine initialization cycles depending of the bist mod
2022:Generated_Source\PSoC4/CapSense_SelfTest.c ****                     /* Set Phi1 and Phi2 switches to non-overlapping (no low EMI) and width dependi
2023:Generated_Source\PSoC4/CapSense_SelfTest.c ****                     if (CapSense_BIST_HW_EXT_CAP_E != CapSense_bistHwConfig)
2024:Generated_Source\PSoC4/CapSense_SelfTest.c ****                     {
2025:Generated_Source\PSoC4/CapSense_SelfTest.c ****                         #if (((CapSense_ENABLE == CapSense_CSD_EN) || (CapSense_ENABLE == CapSense_
2026:Generated_Source\PSoC4/CapSense_SelfTest.c ****                              ((0u != CapSense_TST_SNS_CAP_EN) || (0u != CapSense_TST_SH_CAP_EN)))
2027:Generated_Source\PSoC4/CapSense_SelfTest.c ****                             CY_SET_REG32(CapSense_SEQ_INIT_CNT_PTR, (uint32)CapSense_dsRam.selfTest
2028:Generated_Source\PSoC4/CapSense_SelfTest.c ****                             CY_SET_REG32(CapSense_SENSE_DUTY_PTR, CapSense_SENSE_DUTY_OVERLAP_PHI1_
2029:Generated_Source\PSoC4/CapSense_SelfTest.c ****                                                                           CapSense_SENSE_DUTY_OVERL
2030:Generated_Source\PSoC4/CapSense_SelfTest.c ****                         #endif /* (((CapSense_ENABLE == CapSense_CSD_EN) || (CapSense_ENABLE == Cap
2031:Generated_Source\PSoC4/CapSense_SelfTest.c ****                                    ((0u != CapSense_TST_SNS_CAP_EN) || (0u != CapSense_TST_SH_CAP_E
2032:Generated_Source\PSoC4/CapSense_SelfTest.c ****                     }
2033:Generated_Source\PSoC4/CapSense_SelfTest.c ****                     else
2034:Generated_Source\PSoC4/CapSense_SelfTest.c ****                     {
2035:Generated_Source\PSoC4/CapSense_SelfTest.c ****                         #if (0u != CapSense_TST_EXTERNAL_CAP_EN)
2036:Generated_Source\PSoC4/CapSense_SelfTest.c ****                             CY_SET_REG32(CapSense_SEQ_INIT_CNT_PTR, CapSense_SEQ_INIT_CNT_FINE_INIT
2037:Generated_Source\PSoC4/CapSense_SelfTest.c ****                             CY_SET_REG32(CapSense_SENSE_DUTY_PTR, CapSense_SENSE_DUTY_OVERLAP_PHI1_
2038:Generated_Source\PSoC4/CapSense_SelfTest.c ****                                                                           CapSense_SENSE_DUTY_OVERL
2039:Generated_Source\PSoC4/CapSense_SelfTest.c ****                                                                           CapSense_SENSE_DUTY_TST_E
2040:Generated_Source\PSoC4/CapSense_SelfTest.c ****                         #endif /* #if (0u != CapSense_TST_EXTERNAL_CAP_EN) */
2041:Generated_Source\PSoC4/CapSense_SelfTest.c ****                     }
2042:Generated_Source\PSoC4/CapSense_SelfTest.c ****                 #endif /* (CapSense_ENABLE == CapSense_CSDV2) */
2043:Generated_Source\PSoC4/CapSense_SelfTest.c **** 
2044:Generated_Source\PSoC4/CapSense_SelfTest.c ****                 #if (CapSense_DISABLE == CapSense_CSDV2)
2045:Generated_Source\PSoC4/CapSense_SelfTest.c **** 
2046:Generated_Source\PSoC4/CapSense_SelfTest.c ****                     if (CapSense_BIST_HW_EXT_CAP_E != CapSense_bistHwConfig)
2047:Generated_Source\PSoC4/CapSense_SelfTest.c ****                     {
2048:Generated_Source\PSoC4/CapSense_SelfTest.c ****                         #if (CapSense_ENABLE == CapSense_CSD_EN)
2049:Generated_Source\PSoC4/CapSense_SelfTest.c ****                             /* Connect Cmod to AMUXBUS-A using the HSIOM registers */
2050:Generated_Source\PSoC4/CapSense_SelfTest.c ****                             interruptState = CyEnterCriticalSection();
2051:Generated_Source\PSoC4/CapSense_SelfTest.c ****                             newRegValue = CY_GET_REG32(CapSense_CMOD_HSIOM_PTR);
2052:Generated_Source\PSoC4/CapSense_SelfTest.c ****                             newRegValue &= (uint32)(~(uint32)CapSense_CMOD_HSIOM_MASK);
2053:Generated_Source\PSoC4/CapSense_SelfTest.c ****                             newRegValue |= (CapSense_HSIOM_SEL_AMUXA << CapSense_CMOD_HSIOM_SHIFT);
2054:Generated_Source\PSoC4/CapSense_SelfTest.c ****                             CY_SET_REG32(CapSense_CMOD_HSIOM_PTR, newRegValue);
2055:Generated_Source\PSoC4/CapSense_SelfTest.c ****                             CyExitCriticalSection(interruptState);
2056:Generated_Source\PSoC4/CapSense_SelfTest.c ****                         #else
2057:Generated_Source\PSoC4/CapSense_SelfTest.c ****                             interruptState = CyEnterCriticalSection();
2058:Generated_Source\PSoC4/CapSense_SelfTest.c ****                             newRegValue = CY_GET_REG32(CapSense_CintB_HSIOM_PTR);
2059:Generated_Source\PSoC4/CapSense_SelfTest.c ****                             newRegValue &= ~CapSense_CintB_HSIOM_MASK;
2060:Generated_Source\PSoC4/CapSense_SelfTest.c ****                             newRegValue |= (CapSense_HSIOM_SEL_AMUXA << CapSense_CintB_HSIOM_SHIFT)
2061:Generated_Source\PSoC4/CapSense_SelfTest.c ****                             CY_SET_REG32(CapSense_CintB_HSIOM_PTR, newRegValue);
2062:Generated_Source\PSoC4/CapSense_SelfTest.c ****                             CyExitCriticalSection(interruptState);
2063:Generated_Source\PSoC4/CapSense_SelfTest.c ****                         #endif /* (CapSense_ENABLE == CapSense_CSD_EN) */
2064:Generated_Source\PSoC4/CapSense_SelfTest.c ****                     }
2065:Generated_Source\PSoC4/CapSense_SelfTest.c ****                     #if (CapSense_ENABLE == CapSense_CSD_SHIELD_EN)
2066:Generated_Source\PSoC4/CapSense_SelfTest.c ****                         /* Verification of the BIST mode */
2067:Generated_Source\PSoC4/CapSense_SelfTest.c ****                         if (CapSense_BIST_HW_SNS_CAP_E == CapSense_bistHwConfig)
2068:Generated_Source\PSoC4/CapSense_SelfTest.c ****                         {
2069:Generated_Source\PSoC4/CapSense_SelfTest.c ****                             /* Update CSD config register shield delay bits with a shield delay val
2070:Generated_Source\PSoC4/CapSense_SelfTest.c ****                             CapSense_bistConfigCsd &= (uint32)(~CapSense_CONFIG_SHIELD_DELAY_MASK);
2071:Generated_Source\PSoC4/CapSense_SelfTest.c ****                             CapSense_bistConfigCsd |= ((uint32)CapSense_CSD_SHIELD_DELAY << CapSens
2072:Generated_Source\PSoC4/CapSense_SelfTest.c ****                         }
ARM GAS  C:\Users\YUANFA~1\AppData\Local\Temp\ccnzsvc2.s 			page 42


2073:Generated_Source\PSoC4/CapSense_SelfTest.c ****                     #endif /* (CapSense_ENABLE == CapSense_CSD_SHIELD_EN) */
2074:Generated_Source\PSoC4/CapSense_SelfTest.c **** 
2075:Generated_Source\PSoC4/CapSense_SelfTest.c ****                     if (CapSense_BIST_HW_EXT_CAP_E != CapSense_bistHwConfig)
2076:Generated_Source\PSoC4/CapSense_SelfTest.c ****                     {
2077:Generated_Source\PSoC4/CapSense_SelfTest.c ****                         /* Enable the CSD block. Connect Vref buffer to AMUX bus to make sure that 
2078:Generated_Source\PSoC4/CapSense_SelfTest.c ****                         #if (CapSense_ENABLE == CapSense_BLOCK_OFF_AFTER_SCAN_EN)
2079:Generated_Source\PSoC4/CapSense_SelfTest.c ****                             CY_SET_REG32(CapSense_CONFIG_PTR, CapSense_bistConfigCsd);
2080:Generated_Source\PSoC4/CapSense_SelfTest.c ****                         #else
2081:Generated_Source\PSoC4/CapSense_SelfTest.c ****                             CY_SET_REG32(CapSense_CONFIG_PTR, CapSense_bistConfigCsd | CapSense_BIS
2082:Generated_Source\PSoC4/CapSense_SelfTest.c ****                         #endif /* (CapSense_ENABLE == CapSense_BLOCK_OFF_AFTER_SCAN_EN) */
2083:Generated_Source\PSoC4/CapSense_SelfTest.c ****                     }
2084:Generated_Source\PSoC4/CapSense_SelfTest.c ****                 #endif /* (CapSense_DISABLE == CapSense_CSDV2) */
2085:Generated_Source\PSoC4/CapSense_SelfTest.c **** 
2086:Generated_Source\PSoC4/CapSense_SelfTest.c ****                 /* Configure IDAC */
2087:Generated_Source\PSoC4/CapSense_SelfTest.c ****                 CapSense_BistSetIdac(0uL);
2088:Generated_Source\PSoC4/CapSense_SelfTest.c **** 
2089:Generated_Source\PSoC4/CapSense_SelfTest.c ****                 #if ((CapSense_ENABLE == CapSense_TST_SNS_CAP_EN) ||\
2090:Generated_Source\PSoC4/CapSense_SelfTest.c ****                      (CapSense_ENABLE == CapSense_TST_SH_CAP_EN))
2091:Generated_Source\PSoC4/CapSense_SelfTest.c ****                 if (CapSense_BIST_HW_EXT_CAP_E != CapSense_bistHwConfig)
2092:Generated_Source\PSoC4/CapSense_SelfTest.c ****                 {
2093:Generated_Source\PSoC4/CapSense_SelfTest.c ****                     /* Set clock dividers and clock source mode */
2094:Generated_Source\PSoC4/CapSense_SelfTest.c ****                     CapSense_BistConfigClock((uint32)CapSense_dsRam.selfTestConfig.snsCapSnsClkDivi
2095:Generated_Source\PSoC4/CapSense_SelfTest.c ****                 }
2096:Generated_Source\PSoC4/CapSense_SelfTest.c ****                 else
2097:Generated_Source\PSoC4/CapSense_SelfTest.c ****                 #endif
2098:Generated_Source\PSoC4/CapSense_SelfTest.c ****                 {
2099:Generated_Source\PSoC4/CapSense_SelfTest.c ****                     #if (CapSense_DISABLE == CapSense_CSDV2)
2100:Generated_Source\PSoC4/CapSense_SelfTest.c ****                         /* Enable the CSD block. Connect Vref buffer to AMUX bus to make sure that 
2101:Generated_Source\PSoC4/CapSense_SelfTest.c ****                         CY_SET_REG32(CapSense_CONFIG_PTR, CapSense_bistConfigCsd | CapSense_CONFIG_
2102:Generated_Source\PSoC4/CapSense_SelfTest.c ****                     #endif /* (CapSense_DISABLE == CapSense_CSDV2) */
2103:Generated_Source\PSoC4/CapSense_SelfTest.c ****                 }
2104:Generated_Source\PSoC4/CapSense_SelfTest.c ****                 CapSense_ISR_StartEx(&CapSense_BistPostSingleScan);
2105:Generated_Source\PSoC4/CapSense_SelfTest.c ****             }
2106:Generated_Source\PSoC4/CapSense_SelfTest.c **** 
2107:Generated_Source\PSoC4/CapSense_SelfTest.c **** 
2108:Generated_Source\PSoC4/CapSense_SelfTest.c ****             /*******************************************************************************
2109:Generated_Source\PSoC4/CapSense_SelfTest.c ****             * Function Name: CapSense_BistSetScanDuration
2110:Generated_Source\PSoC4/CapSense_SelfTest.c ****             ****************************************************************************//**
2111:Generated_Source\PSoC4/CapSense_SelfTest.c ****             *
2112:Generated_Source\PSoC4/CapSense_SelfTest.c ****             * \brief
2113:Generated_Source\PSoC4/CapSense_SelfTest.c ****             *   Calculates Scan Duration which is defined by scan resolution
2114:Generated_Source\PSoC4/CapSense_SelfTest.c ****             *
2115:Generated_Source\PSoC4/CapSense_SelfTest.c ****             * \details
2116:Generated_Source\PSoC4/CapSense_SelfTest.c ****             *   For Fourth-generation HW block: The function calculates the number of conversions a
2117:Generated_Source\PSoC4/CapSense_SelfTest.c ****             *   SEQ_NORM_CNT register. The number of conversions depends on the resolution and
2118:Generated_Source\PSoC4/CapSense_SelfTest.c ****             *   snsClk divider.
2119:Generated_Source\PSoC4/CapSense_SelfTest.c ****             *   For Third-generation HW block: The function recalculates the resolution using the f
2120:Generated_Source\PSoC4/CapSense_SelfTest.c ****             *   2^resolution - 1. The calculated value is contained in the
2121:Generated_Source\PSoC4/CapSense_SelfTest.c ****             *   CapSense_bistCounterResolution global variable and used in the
2122:Generated_Source\PSoC4/CapSense_SelfTest.c ****             *   CapSense_bistStartSample() function to trigger a scan process.
2123:Generated_Source\PSoC4/CapSense_SelfTest.c ****             *
2124:Generated_Source\PSoC4/CapSense_SelfTest.c ****             *******************************************************************************/
2125:Generated_Source\PSoC4/CapSense_SelfTest.c ****             static void CapSense_BistSetScanDuration(void)
2126:Generated_Source\PSoC4/CapSense_SelfTest.c ****             {
 263              		.loc 1 2126 0
 264              		.cfi_startproc
 265              		@ args = 0, pretend = 0, frame = 0
ARM GAS  C:\Users\YUANFA~1\AppData\Local\Temp\ccnzsvc2.s 			page 43


 266              		@ frame_needed = 0, uses_anonymous_args = 0
 267 0000 10B5     		push	{r4, lr}
 268              		.cfi_def_cfa_offset 8
 269              		.cfi_offset 4, -8
 270              		.cfi_offset 14, -4
2127:Generated_Source\PSoC4/CapSense_SelfTest.c ****                 uint32 scanDuration;
2128:Generated_Source\PSoC4/CapSense_SelfTest.c **** 
2129:Generated_Source\PSoC4/CapSense_SelfTest.c ****                 if (CapSense_bistHwConfig == CapSense_BIST_HW_EXT_CAP_E)
 271              		.loc 1 2129 0
 272 0002 0C4B     		ldr	r3, .L18
 273 0004 1B78     		ldrb	r3, [r3]
 274 0006 062B     		cmp	r3, #6
 275 0008 03D1     		bne	.L16
 276              	.LVL32:
2130:Generated_Source\PSoC4/CapSense_SelfTest.c ****                 {
2131:Generated_Source\PSoC4/CapSense_SelfTest.c ****                     #if (CapSense_ENABLE == CapSense_TST_EXTERNAL_CAP_EN)
2132:Generated_Source\PSoC4/CapSense_SelfTest.c ****                         #if (CapSense_ENABLE == CapSense_CSDV2)
2133:Generated_Source\PSoC4/CapSense_SelfTest.c ****                             scanDuration = CapSense_TST_EXT_CAP_DURATION;
2134:Generated_Source\PSoC4/CapSense_SelfTest.c ****                             CY_SET_REG32(CapSense_SEQ_NORM_CNT_PTR, scanDuration & CapSense_SEQ_NOR
 277              		.loc 1 2134 0
 278 000a 0122     		movs	r2, #1
 279 000c 0A4B     		ldr	r3, .L18+4
 280 000e 1A60     		str	r2, [r3]
 281 0010 0EE0     		b	.L15
 282              	.LVL33:
 283              	.L16:
2135:Generated_Source\PSoC4/CapSense_SelfTest.c ****                         #else
2136:Generated_Source\PSoC4/CapSense_SelfTest.c ****                             scanDuration = ((uint32)CapSense_TST_EXT_CAP_MEASURE_WND << 1u) - 1u;
2137:Generated_Source\PSoC4/CapSense_SelfTest.c ****                             scanDuration <<= CapSense_RESOLUTION_OFFSET;
2138:Generated_Source\PSoC4/CapSense_SelfTest.c ****                             CapSense_bistCounterResolution = scanDuration;
2139:Generated_Source\PSoC4/CapSense_SelfTest.c ****                         #endif
2140:Generated_Source\PSoC4/CapSense_SelfTest.c ****                     #endif
2141:Generated_Source\PSoC4/CapSense_SelfTest.c ****                 }
2142:Generated_Source\PSoC4/CapSense_SelfTest.c ****                 else
2143:Generated_Source\PSoC4/CapSense_SelfTest.c ****                 {
2144:Generated_Source\PSoC4/CapSense_SelfTest.c ****                 #if ((CapSense_ENABLE == CapSense_TST_SNS_CAP_EN) ||\
2145:Generated_Source\PSoC4/CapSense_SelfTest.c ****                      (CapSense_ENABLE == CapSense_TST_SH_CAP_EN))
2146:Generated_Source\PSoC4/CapSense_SelfTest.c ****                     #if (CapSense_ENABLE == CapSense_CSDV2)
2147:Generated_Source\PSoC4/CapSense_SelfTest.c ****                         /* Calculate scanning resolution value in register */
2148:Generated_Source\PSoC4/CapSense_SelfTest.c ****                         scanDuration = (uint32)(((0x01uL << CapSense_dsRam.selfTestConfig.snsCapRes
 284              		.loc 1 2148 0
 285 0012 0A4B     		ldr	r3, .L18+8
 286 0014 A222     		movs	r2, #162
 287 0016 9200     		lsls	r2, r2, #2
 288 0018 9A5C     		ldrb	r2, [r3, r2]
 289 001a 0120     		movs	r0, #1
 290 001c 9040     		lsls	r0, r0, r2
2149:Generated_Source\PSoC4/CapSense_SelfTest.c ****                                                             CapSense_dsRam.selfTestConfig.snsCapSns
 291              		.loc 1 2149 0
 292 001e 9E22     		movs	r2, #158
 293 0020 9200     		lsls	r2, r2, #2
 294 0022 995A     		ldrh	r1, [r3, r2]
2148:Generated_Source\PSoC4/CapSense_SelfTest.c ****                                                             CapSense_dsRam.selfTestConfig.snsCapSns
 295              		.loc 1 2148 0
 296 0024 FFF7FEFF 		bl	__aeabi_uidiv
 297              	.LVL34:
2150:Generated_Source\PSoC4/CapSense_SelfTest.c ****                                                             CapSense_SEQ_NORM_CNT_CONV_CNT_MASK);
ARM GAS  C:\Users\YUANFA~1\AppData\Local\Temp\ccnzsvc2.s 			page 44


2151:Generated_Source\PSoC4/CapSense_SelfTest.c ****                         CY_SET_REG32(CapSense_SEQ_NORM_CNT_PTR, scanDuration & CapSense_SEQ_NORM_CN
 298              		.loc 1 2151 0
 299 0028 0004     		lsls	r0, r0, #16
 300              	.LVL35:
 301 002a 000C     		lsrs	r0, r0, #16
 302 002c 024B     		ldr	r3, .L18+4
 303 002e 1860     		str	r0, [r3]
 304              	.L15:
2152:Generated_Source\PSoC4/CapSense_SelfTest.c ****                     #else
2153:Generated_Source\PSoC4/CapSense_SelfTest.c ****                         scanDuration = (((0x01uL << CapSense_dsRam.selfTestConfig.snsCapResolution)
2154:Generated_Source\PSoC4/CapSense_SelfTest.c ****                                                     CapSense_RESOLUTION_OFFSET);
2155:Generated_Source\PSoC4/CapSense_SelfTest.c ****                         CapSense_bistCounterResolution = scanDuration;
2156:Generated_Source\PSoC4/CapSense_SelfTest.c ****                     #endif
2157:Generated_Source\PSoC4/CapSense_SelfTest.c ****                 #endif /* ((CapSense_ENABLE == CapSense_TST_SNS_CAP_EN) ||\
2158:Generated_Source\PSoC4/CapSense_SelfTest.c ****                            (CapSense_ENABLE == CapSense_TST_SH_CAP_EN)) */
2159:Generated_Source\PSoC4/CapSense_SelfTest.c ****                 }
2160:Generated_Source\PSoC4/CapSense_SelfTest.c ****             }
 305              		.loc 1 2160 0
 306              		@ sp needed
 307 0030 10BD     		pop	{r4, pc}
 308              	.L19:
 309 0032 C046     		.align	2
 310              	.L18:
 311 0034 00000000 		.word	.LANCHOR1
 312 0038 14032940 		.word	1076429588
 313 003c 00000000 		.word	CapSense_dsRam
 314              		.cfi_endproc
 315              	.LFE25:
 316              		.size	CapSense_BistSetScanDuration, .-CapSense_BistSetScanDuration
 317              		.section	.text.CapSense_BistPostSingleScan,"ax",%progbits
 318              		.align	2
 319              		.global	CapSense_BistPostSingleScan
 320              		.code	16
 321              		.thumb_func
 322              		.type	CapSense_BistPostSingleScan, %function
 323              	CapSense_BistPostSingleScan:
 324              	.LFB26:
2161:Generated_Source\PSoC4/CapSense_SelfTest.c **** 
2162:Generated_Source\PSoC4/CapSense_SelfTest.c **** 
2163:Generated_Source\PSoC4/CapSense_SelfTest.c ****             /*******************************************************************************
2164:Generated_Source\PSoC4/CapSense_SelfTest.c ****             * Function Name: CapSense_BistPostSingleScan
2165:Generated_Source\PSoC4/CapSense_SelfTest.c ****             ****************************************************************************//**
2166:Generated_Source\PSoC4/CapSense_SelfTest.c ****             *
2167:Generated_Source\PSoC4/CapSense_SelfTest.c ****             * \brief
2168:Generated_Source\PSoC4/CapSense_SelfTest.c ****             *  This is an internal ISR function for the single-sensor scanning implementation.
2169:Generated_Source\PSoC4/CapSense_SelfTest.c ****             *
2170:Generated_Source\PSoC4/CapSense_SelfTest.c ****             * \details
2171:Generated_Source\PSoC4/CapSense_SelfTest.c ****             *  This ISR handler is triggered when the CSD scan for a capacitance measuring
2172:Generated_Source\PSoC4/CapSense_SelfTest.c ****             *  is finished.
2173:Generated_Source\PSoC4/CapSense_SelfTest.c ****             *
2174:Generated_Source\PSoC4/CapSense_SelfTest.c ****             *  The following tasks are performed:
2175:Generated_Source\PSoC4/CapSense_SelfTest.c ****             *    1. Disable the CSD interrupt.
2176:Generated_Source\PSoC4/CapSense_SelfTest.c ****             *    2. Read the Counter register and update the CapSense_bistRawcount with raw data.
2177:Generated_Source\PSoC4/CapSense_SelfTest.c ****             *    3. Reset the BUSY flag.
2178:Generated_Source\PSoC4/CapSense_SelfTest.c ****             *    4. Connect the Vref buffer to the AMUX bus (for Third-generation HW block).
2179:Generated_Source\PSoC4/CapSense_SelfTest.c ****             *
2180:Generated_Source\PSoC4/CapSense_SelfTest.c ****             *******************************************************************************/
ARM GAS  C:\Users\YUANFA~1\AppData\Local\Temp\ccnzsvc2.s 			page 45


2181:Generated_Source\PSoC4/CapSense_SelfTest.c ****             CY_ISR(CapSense_BistPostSingleScan)
2182:Generated_Source\PSoC4/CapSense_SelfTest.c ****             {
 325              		.loc 1 2182 0
 326              		.cfi_startproc
 327              		@ args = 0, pretend = 0, frame = 0
 328              		@ frame_needed = 0, uses_anonymous_args = 0
 329              		@ link register save eliminated.
2183:Generated_Source\PSoC4/CapSense_SelfTest.c ****                 uint32 tmpRawData;
2184:Generated_Source\PSoC4/CapSense_SelfTest.c **** 
2185:Generated_Source\PSoC4/CapSense_SelfTest.c ****                 /* Clear pending interrupt */
2186:Generated_Source\PSoC4/CapSense_SelfTest.c ****                 CY_SET_REG32(CapSense_INTR_PTR, CapSense_INTR_SET_MASK);
 330              		.loc 1 2186 0
 331 0000 8322     		movs	r2, #131
 332 0002 5200     		lsls	r2, r2, #1
 333 0004 064B     		ldr	r3, .L21
 334 0006 1A60     		str	r2, [r3]
2187:Generated_Source\PSoC4/CapSense_SelfTest.c ****                 /* Read SlotResult from Raw Counter */
2188:Generated_Source\PSoC4/CapSense_SelfTest.c ****                 tmpRawData = (uint16)CY_GET_REG32(CapSense_COUNTER_PTR);
 335              		.loc 1 2188 0
 336 0008 064B     		ldr	r3, .L21+4
 337 000a 1B68     		ldr	r3, [r3]
 338              	.LVL36:
2189:Generated_Source\PSoC4/CapSense_SelfTest.c **** 
2190:Generated_Source\PSoC4/CapSense_SelfTest.c ****                 CapSense_bistRawcount = LO16(tmpRawData);
 339              		.loc 1 2190 0
 340 000c 9BB2     		uxth	r3, r3
 341              	.LVL37:
 342 000e 064A     		ldr	r2, .L21+8
 343 0010 5380     		strh	r3, [r2, #2]
2191:Generated_Source\PSoC4/CapSense_SelfTest.c **** 
2192:Generated_Source\PSoC4/CapSense_SelfTest.c ****                 /* Sensor is totally scanned. Reset BUSY flag */
2193:Generated_Source\PSoC4/CapSense_SelfTest.c ****                 CapSense_dsRam.status &= ~(CapSense_SW_STS_BUSY | CapSense_WDGT_SW_STS_BUSY);
 344              		.loc 1 2193 0
 345 0012 064A     		ldr	r2, .L21+12
 346 0014 D168     		ldr	r1, [r2, #12]
 347 0016 064B     		ldr	r3, .L21+16
 348 0018 0B40     		ands	r3, r1
 349 001a D360     		str	r3, [r2, #12]
2194:Generated_Source\PSoC4/CapSense_SelfTest.c ****                 #if (CapSense_ENABLE == CapSense_CSDV2)
2195:Generated_Source\PSoC4/CapSense_SelfTest.c ****                     #if (CapSense_ENABLE == CapSense_CSD_SHIELD_EN)
2196:Generated_Source\PSoC4/CapSense_SelfTest.c ****                     /* Open HCBV and HCBG switches */
2197:Generated_Source\PSoC4/CapSense_SelfTest.c ****                         CY_SET_REG32(CapSense_SW_SHIELD_SEL_PTR, CapSense_SW_SHIELD_SEL_SW_HCBV_STA
2198:Generated_Source\PSoC4/CapSense_SelfTest.c ****                                                                          CapSense_SW_SHIELD_SEL_SW_
2199:Generated_Source\PSoC4/CapSense_SelfTest.c ****                     #endif /* (CapSense_ENABLE == CapSense_CSD_SHIELD_EN) */
2200:Generated_Source\PSoC4/CapSense_SelfTest.c ****                     #if (CapSense_ENABLE == CapSense_BLOCK_OFF_AFTER_SCAN_EN)
2201:Generated_Source\PSoC4/CapSense_SelfTest.c ****                         /* Disable the Fourth-generation HW block */
2202:Generated_Source\PSoC4/CapSense_SelfTest.c ****                         CY_SET_REG32(CapSense_CONFIG_PTR, CapSense_bistConfigCsd);
2203:Generated_Source\PSoC4/CapSense_SelfTest.c ****                     #endif /* (CapSense_ENABLE == CapSense_BLOCK_OFF_AFTER_SCAN_EN) */
2204:Generated_Source\PSoC4/CapSense_SelfTest.c ****                 #else /* (CapSense_ENABLE == CapSense_CSDV2) */
2205:Generated_Source\PSoC4/CapSense_SelfTest.c ****                     #if (CapSense_ENABLE == CapSense_BLOCK_OFF_AFTER_SCAN_EN)
2206:Generated_Source\PSoC4/CapSense_SelfTest.c ****                         /* Disable the Third-generation HW block. Connect the Vref buffer to AMUX b
2207:Generated_Source\PSoC4/CapSense_SelfTest.c ****                         #if ((CapSense_CSH_PRECHARGE_IO_BUF == CapSense_CSD_CSH_PRECHARGE_SRC) &&\
2208:Generated_Source\PSoC4/CapSense_SelfTest.c ****                              (CapSense_ENABLE == CapSense_CSD_SHIELD_TANK_EN))
2209:Generated_Source\PSoC4/CapSense_SelfTest.c ****                             CY_SET_REG32(CapSense_CONFIG_PTR, CapSense_bistConfigCsd | CapSense_BIS
2210:Generated_Source\PSoC4/CapSense_SelfTest.c ****                         #else
2211:Generated_Source\PSoC4/CapSense_SelfTest.c ****                             CY_SET_REG32(CapSense_CONFIG_PTR, CapSense_bistConfigCsd | CapSense_BIS
2212:Generated_Source\PSoC4/CapSense_SelfTest.c ****                         #endif /* ((CapSense_CSH_PRECHARGE_IO_BUF == CapSense_CSD_CSH_PRECHARGE_SRC
ARM GAS  C:\Users\YUANFA~1\AppData\Local\Temp\ccnzsvc2.s 			page 46


2213:Generated_Source\PSoC4/CapSense_SelfTest.c ****                                    (CapSense_ENABLE == CapSense_CSD_SHIELD_TANK_EN)) */
2214:Generated_Source\PSoC4/CapSense_SelfTest.c ****                     #else
2215:Generated_Source\PSoC4/CapSense_SelfTest.c ****                         /* Connect the Vref buffer to AMUX bus. The Third-generation HW block is en
2216:Generated_Source\PSoC4/CapSense_SelfTest.c ****                         CY_SET_REG32(CapSense_CONFIG_PTR, CapSense_bistConfigCsd | CapSense_BIST_CT
2217:Generated_Source\PSoC4/CapSense_SelfTest.c ****                     #endif /* (CapSense_ENABLE == CapSense_BLOCK_OFF_AFTER_SCAN_EN) */
2218:Generated_Source\PSoC4/CapSense_SelfTest.c ****                 #endif /* (CapSense_ENABLE == CapSense_CSDV2) */
2219:Generated_Source\PSoC4/CapSense_SelfTest.c ****             }
 350              		.loc 1 2219 0
 351              		@ sp needed
 352 001c 7047     		bx	lr
 353              	.L22:
 354 001e C046     		.align	2
 355              	.L21:
 356 0020 F0002940 		.word	1076429040
 357 0024 D0002940 		.word	1076429008
 358 0028 00000000 		.word	.LANCHOR1
 359 002c 00000000 		.word	CapSense_dsRam
 360 0030 7FFFFEFF 		.word	-65665
 361              		.cfi_endproc
 362              	.LFE26:
 363              		.size	CapSense_BistPostSingleScan, .-CapSense_BistPostSingleScan
 364              		.section	.text.CapSense_BistConfigClock,"ax",%progbits
 365              		.align	2
 366              		.code	16
 367              		.thumb_func
 368              		.type	CapSense_BistConfigClock, %function
 369              	CapSense_BistConfigClock:
 370              	.LFB28:
2220:Generated_Source\PSoC4/CapSense_SelfTest.c **** 
2221:Generated_Source\PSoC4/CapSense_SelfTest.c **** 
2222:Generated_Source\PSoC4/CapSense_SelfTest.c ****             /*******************************************************************************
2223:Generated_Source\PSoC4/CapSense_SelfTest.c ****             * Function Name: CapSense_BistStartSample
2224:Generated_Source\PSoC4/CapSense_SelfTest.c ****             ****************************************************************************//**
2225:Generated_Source\PSoC4/CapSense_SelfTest.c ****             *
2226:Generated_Source\PSoC4/CapSense_SelfTest.c ****             * \brief
2227:Generated_Source\PSoC4/CapSense_SelfTest.c ****             *   Starts the CSD conversion for a capacitance measuring.
2228:Generated_Source\PSoC4/CapSense_SelfTest.c ****             *
2229:Generated_Source\PSoC4/CapSense_SelfTest.c ****             * \details
2230:Generated_Source\PSoC4/CapSense_SelfTest.c ****             *   This function assumes that the CSD block is already set up using
2231:Generated_Source\PSoC4/CapSense_SelfTest.c ****             *   the CapSense_BistEnableHwSnsCap function and the capacitance
2232:Generated_Source\PSoC4/CapSense_SelfTest.c ****             *   is connected to the CSD block.
2233:Generated_Source\PSoC4/CapSense_SelfTest.c ****             *   The function performs the following tasks:
2234:Generated_Source\PSoC4/CapSense_SelfTest.c ****             *   1. Disables the CSD interrupt.
2235:Generated_Source\PSoC4/CapSense_SelfTest.c ****             *   2. Enables CSD block if it was disabled.
2236:Generated_Source\PSoC4/CapSense_SelfTest.c ****             *   3. Restarts the clock (only for the Third-generation HW block and only for sensor c
2237:Generated_Source\PSoC4/CapSense_SelfTest.c ****             *   3. Pre charges Cmod (only for a sensor capacitance measuring or for the Third-gener
2238:Generated_Source\PSoC4/CapSense_SelfTest.c ****             *   4. Starts the scan.
2239:Generated_Source\PSoC4/CapSense_SelfTest.c ****             *
2240:Generated_Source\PSoC4/CapSense_SelfTest.c ****             *******************************************************************************/
2241:Generated_Source\PSoC4/CapSense_SelfTest.c ****             static void CapSense_BistStartSample(void)
2242:Generated_Source\PSoC4/CapSense_SelfTest.c ****             {
2243:Generated_Source\PSoC4/CapSense_SelfTest.c ****                 CapSense_DischargeExtCapacitors(0u);
2244:Generated_Source\PSoC4/CapSense_SelfTest.c **** 
2245:Generated_Source\PSoC4/CapSense_SelfTest.c ****                 #if (CapSense_ENABLE == CapSense_CSDV2)
2246:Generated_Source\PSoC4/CapSense_SelfTest.c ****                     /* Fourth-generation HW block section */
2247:Generated_Source\PSoC4/CapSense_SelfTest.c **** 
2248:Generated_Source\PSoC4/CapSense_SelfTest.c ****                     /* Disable the CSD interrupt to prevent it during coarse initialization */
ARM GAS  C:\Users\YUANFA~1\AppData\Local\Temp\ccnzsvc2.s 			page 47


2249:Generated_Source\PSoC4/CapSense_SelfTest.c ****                     CyIntDisable(CapSense_ISR_NUMBER);
2250:Generated_Source\PSoC4/CapSense_SelfTest.c ****                     /* Enable power to sub-blocks */
2251:Generated_Source\PSoC4/CapSense_SelfTest.c ****                     CY_SET_REG32(CapSense_HSCMP_PTR, CapSense_HSCMP_EN_MASK);
2252:Generated_Source\PSoC4/CapSense_SelfTest.c **** 
2253:Generated_Source\PSoC4/CapSense_SelfTest.c ****                     #if (CapSense_ENABLE == CapSense_BLOCK_OFF_AFTER_SCAN_EN)
2254:Generated_Source\PSoC4/CapSense_SelfTest.c ****                         CY_SET_REG32(CapSense_CONFIG_PTR, CapSense_bistConfigCsd |
2255:Generated_Source\PSoC4/CapSense_SelfTest.c ****                                                                   CapSense_CONFIG_SENSE_EN_MASK |
2256:Generated_Source\PSoC4/CapSense_SelfTest.c ****                                                                   CapSense_CONFIG_ENABLE_MASK);
