ARM GAS  C:\Users\YUANFA~1\AppData\Local\Temp\cc9Xhnxa.s 			page 1


   1              		.syntax unified
   2              		.cpu cortex-m0plus
   3              		.fpu softvfp
   4              		.eabi_attribute 20, 1
   5              		.eabi_attribute 21, 1
   6              		.eabi_attribute 23, 3
   7              		.eabi_attribute 24, 1
   8              		.eabi_attribute 25, 1
   9              		.eabi_attribute 26, 1
  10              		.eabi_attribute 30, 1
  11              		.eabi_attribute 34, 0
  12              		.eabi_attribute 18, 4
  13              		.thumb
  14              		.syntax unified
  15              		.file	"CapSense_Structure.c"
  16              		.text
  17              	.Ltext0:
  18              		.cfi_sections	.debug_frame
  19              		.section	.text.DsParseParamId,"ax",%progbits
  20              		.align	2
  21              		.code	16
  22              		.thumb_func
  23              		.type	DsParseParamId, %function
  24              	DsParseParamId:
  25              	.LFB2:
  26              		.file 1 "Generated_Source\\PSoC4\\CapSense_Structure.c"
   1:Generated_Source\PSoC4/CapSense_Structure.c **** /***************************************************************************//**
   2:Generated_Source\PSoC4/CapSense_Structure.c **** * \file CapSense_Structure.c
   3:Generated_Source\PSoC4/CapSense_Structure.c **** * \version 7.0
   4:Generated_Source\PSoC4/CapSense_Structure.c **** *
   5:Generated_Source\PSoC4/CapSense_Structure.c **** * \brief
   6:Generated_Source\PSoC4/CapSense_Structure.c **** *   This file defines the data structure global variables and provides implementation
   7:Generated_Source\PSoC4/CapSense_Structure.c **** *   for the high-level and low-level APIs of the Data Structure module.
   8:Generated_Source\PSoC4/CapSense_Structure.c **** *
   9:Generated_Source\PSoC4/CapSense_Structure.c **** * \see CapSense v7.0 Datasheet
  10:Generated_Source\PSoC4/CapSense_Structure.c **** *
  11:Generated_Source\PSoC4/CapSense_Structure.c **** *//*****************************************************************************
  12:Generated_Source\PSoC4/CapSense_Structure.c **** * Copyright (2016-2019), Cypress Semiconductor Corporation.
  13:Generated_Source\PSoC4/CapSense_Structure.c **** ********************************************************************************
  14:Generated_Source\PSoC4/CapSense_Structure.c **** * This software is owned by Cypress Semiconductor Corporation (Cypress) and is
  15:Generated_Source\PSoC4/CapSense_Structure.c **** * protected by and subject to worldwide patent protection (United States and
  16:Generated_Source\PSoC4/CapSense_Structure.c **** * foreign), United States copyright laws and international treaty provisions.
  17:Generated_Source\PSoC4/CapSense_Structure.c **** * Cypress hereby grants to licensee a personal, non-exclusive, non-transferable
  18:Generated_Source\PSoC4/CapSense_Structure.c **** * license to copy, use, modify, create derivative works of, and compile the
  19:Generated_Source\PSoC4/CapSense_Structure.c **** * Cypress Source Code and derivative works for the sole purpose of creating
  20:Generated_Source\PSoC4/CapSense_Structure.c **** * custom software in support of licensee product to be used only in conjunction
  21:Generated_Source\PSoC4/CapSense_Structure.c **** * with a Cypress integrated circuit as specified in the applicable agreement.
  22:Generated_Source\PSoC4/CapSense_Structure.c **** * Any reproduction, modification, translation, compilation, or representation of
  23:Generated_Source\PSoC4/CapSense_Structure.c **** * this software except as specified above is prohibited without the express
  24:Generated_Source\PSoC4/CapSense_Structure.c **** * written permission of Cypress.
  25:Generated_Source\PSoC4/CapSense_Structure.c **** *
  26:Generated_Source\PSoC4/CapSense_Structure.c **** * Disclaimer: CYPRESS MAKES NO WARRANTY OF ANY KIND, EXPRESS OR IMPLIED, WITH
  27:Generated_Source\PSoC4/CapSense_Structure.c **** * REGARD TO THIS MATERIAL, INCLUDING, BUT NOT LIMITED TO, THE IMPLIED
  28:Generated_Source\PSoC4/CapSense_Structure.c **** * WARRANTIES OF MERCHANTABILITY AND FITNESS FOR A PARTICULAR PURPOSE.
  29:Generated_Source\PSoC4/CapSense_Structure.c **** * Cypress reserves the right to make changes without further notice to the
  30:Generated_Source\PSoC4/CapSense_Structure.c **** * materials described herein. Cypress does not assume any liability arising out
  31:Generated_Source\PSoC4/CapSense_Structure.c **** * of the application or use of any product or circuit described herein. Cypress
ARM GAS  C:\Users\YUANFA~1\AppData\Local\Temp\cc9Xhnxa.s 			page 2


  32:Generated_Source\PSoC4/CapSense_Structure.c **** * does not authorize its products for use as critical components in life-support
  33:Generated_Source\PSoC4/CapSense_Structure.c **** * systems where a malfunction or failure may reasonably be expected to result in
  34:Generated_Source\PSoC4/CapSense_Structure.c **** * significant injury to the user. The inclusion of Cypress' product in a life-
  35:Generated_Source\PSoC4/CapSense_Structure.c **** * support systems application implies that the manufacturer assumes all risk of
  36:Generated_Source\PSoC4/CapSense_Structure.c **** * such use and in doing so indemnifies Cypress against all charges. Use may be
  37:Generated_Source\PSoC4/CapSense_Structure.c **** * limited by and subject to the applicable Cypress software license agreement.
  38:Generated_Source\PSoC4/CapSense_Structure.c **** *******************************************************************************/
  39:Generated_Source\PSoC4/CapSense_Structure.c **** 
  40:Generated_Source\PSoC4/CapSense_Structure.c **** #include <cytypes.h>
  41:Generated_Source\PSoC4/CapSense_Structure.c **** #include "CyLib.h"
  42:Generated_Source\PSoC4/CapSense_Structure.c **** #include "CapSense_Structure.h"
  43:Generated_Source\PSoC4/CapSense_Structure.c **** #include "CapSense_Configuration.h"
  44:Generated_Source\PSoC4/CapSense_Structure.c **** 
  45:Generated_Source\PSoC4/CapSense_Structure.c **** #if (0u != CapSense_ADC_EN)
  46:Generated_Source\PSoC4/CapSense_Structure.c ****     #include "CapSense_Adc.h"
  47:Generated_Source\PSoC4/CapSense_Structure.c **** #endif /* (0u != CapSense_ADC_EN) */
  48:Generated_Source\PSoC4/CapSense_Structure.c **** 
  49:Generated_Source\PSoC4/CapSense_Structure.c **** #if (CapSense_ENABLE == CapSense_SELF_TEST_EN)
  50:Generated_Source\PSoC4/CapSense_Structure.c ****     #include "CapSense_SelfTest.h"
  51:Generated_Source\PSoC4/CapSense_Structure.c **** #endif
  52:Generated_Source\PSoC4/CapSense_Structure.c **** 
  53:Generated_Source\PSoC4/CapSense_Structure.c **** #if (CapSense_ENABLE == CapSense_CENTROID_5X5_CSD_EN)
  54:Generated_Source\PSoC4/CapSense_Structure.c ****     #include "CapSense_AdvancedCentroid_LL.h"
  55:Generated_Source\PSoC4/CapSense_Structure.c **** #endif
  56:Generated_Source\PSoC4/CapSense_Structure.c **** 
  57:Generated_Source\PSoC4/CapSense_Structure.c **** #if (CapSense_ENABLE == CapSense_GES_GLOBAL_EN)
  58:Generated_Source\PSoC4/CapSense_Structure.c ****     #include "CapSense_Gesture.h"
  59:Generated_Source\PSoC4/CapSense_Structure.c **** #endif /* (CapSense_ENABLE == CapSense_GES_GLOBAL_EN) */
  60:Generated_Source\PSoC4/CapSense_Structure.c **** 
  61:Generated_Source\PSoC4/CapSense_Structure.c **** /*******************************************************************************
  62:Generated_Source\PSoC4/CapSense_Structure.c **** * Defines the RAM Data Structure variables and their init data in flash
  63:Generated_Source\PSoC4/CapSense_Structure.c **** *******************************************************************************/
  64:Generated_Source\PSoC4/CapSense_Structure.c **** /**
  65:Generated_Source\PSoC4/CapSense_Structure.c **** * \cond SECTION_GLOBAL_VARIABLES
  66:Generated_Source\PSoC4/CapSense_Structure.c **** * \addtogroup group_global_variables
  67:Generated_Source\PSoC4/CapSense_Structure.c **** * \{
  68:Generated_Source\PSoC4/CapSense_Structure.c **** */
  69:Generated_Source\PSoC4/CapSense_Structure.c **** 
  70:Generated_Source\PSoC4/CapSense_Structure.c **** /**
  71:Generated_Source\PSoC4/CapSense_Structure.c **** * The variable that contains the CapSense configuration, settings and
  72:Generated_Source\PSoC4/CapSense_Structure.c **** * scanning results. CapSense_dsRam represents RAM Data Structure.
  73:Generated_Source\PSoC4/CapSense_Structure.c **** */
  74:Generated_Source\PSoC4/CapSense_Structure.c **** CapSense_RAM_STRUCT CapSense_dsRam;
  75:Generated_Source\PSoC4/CapSense_Structure.c **** /** \}
  76:Generated_Source\PSoC4/CapSense_Structure.c **** * \endcond */
  77:Generated_Source\PSoC4/CapSense_Structure.c **** 
  78:Generated_Source\PSoC4/CapSense_Structure.c **** /*******************************************************************************
  79:Generated_Source\PSoC4/CapSense_Structure.c **** * Declares Widget's De-bounce Counters
  80:Generated_Source\PSoC4/CapSense_Structure.c **** *******************************************************************************/
  81:Generated_Source\PSoC4/CapSense_Structure.c **** 
  82:Generated_Source\PSoC4/CapSense_Structure.c **** 
  83:Generated_Source\PSoC4/CapSense_Structure.c **** /***************************************************************************//**
  84:Generated_Source\PSoC4/CapSense_Structure.c **** * Declares CSX Touchpad data
  85:Generated_Source\PSoC4/CapSense_Structure.c **** *******************************************************************************/
  86:Generated_Source\PSoC4/CapSense_Structure.c **** static CapSense_CSX_TOUCHPAD_DATA_STRUCT CapSense_csxTouchpadData_Touchpad0;
  87:Generated_Source\PSoC4/CapSense_Structure.c **** 
  88:Generated_Source\PSoC4/CapSense_Structure.c **** 
ARM GAS  C:\Users\YUANFA~1\AppData\Local\Temp\cc9Xhnxa.s 			page 3


  89:Generated_Source\PSoC4/CapSense_Structure.c **** /*******************************************************************************
  90:Generated_Source\PSoC4/CapSense_Structure.c **** * Defines and initializes the Flash Data Structure
  91:Generated_Source\PSoC4/CapSense_Structure.c **** *******************************************************************************/
  92:Generated_Source\PSoC4/CapSense_Structure.c **** 
  93:Generated_Source\PSoC4/CapSense_Structure.c **** 
  94:Generated_Source\PSoC4/CapSense_Structure.c **** 
  95:Generated_Source\PSoC4/CapSense_Structure.c **** /**
  96:Generated_Source\PSoC4/CapSense_Structure.c **** * \cond SECTION_API_CONSTANTS
  97:Generated_Source\PSoC4/CapSense_Structure.c **** * \addtogroup group_api_constants
  98:Generated_Source\PSoC4/CapSense_Structure.c **** * \{
  99:Generated_Source\PSoC4/CapSense_Structure.c **** */
 100:Generated_Source\PSoC4/CapSense_Structure.c **** /**
 101:Generated_Source\PSoC4/CapSense_Structure.c **** * Constant for the FLASH Data Structure
 102:Generated_Source\PSoC4/CapSense_Structure.c **** */
 103:Generated_Source\PSoC4/CapSense_Structure.c **** const CapSense_FLASH_STRUCT CapSense_dsFlash =
 104:Generated_Source\PSoC4/CapSense_Structure.c **** {
 105:Generated_Source\PSoC4/CapSense_Structure.c ****     /* Flash Widget Initialization Data */
 106:Generated_Source\PSoC4/CapSense_Structure.c ****     {
 107:Generated_Source\PSoC4/CapSense_Structure.c ****         { /* Touchpad0 */
 108:Generated_Source\PSoC4/CapSense_Structure.c ****             &CapSense_ioList[0u],
 109:Generated_Source\PSoC4/CapSense_Structure.c ****             (void *)&CapSense_dsRam.wdgtList.touchpad0,
 110:Generated_Source\PSoC4/CapSense_Structure.c ****             CapSense_dsRam.snsList.touchpad0,
 111:Generated_Source\PSoC4/CapSense_Structure.c ****             (void *)0u,
 112:Generated_Source\PSoC4/CapSense_Structure.c ****             (void *)0u,
 113:Generated_Source\PSoC4/CapSense_Structure.c ****             CapSense_TOUCHPAD0_STATIC_CONFIG,
 114:Generated_Source\PSoC4/CapSense_Structure.c ****             (CapSense_TOUCHPAD0_NUM_RX) * (CapSense_TOUCHPAD0_NUM_TX),
 115:Generated_Source\PSoC4/CapSense_Structure.c ****             (uint8)CapSense_WD_TOUCHPAD_E,
 116:Generated_Source\PSoC4/CapSense_Structure.c ****             CapSense_TOUCHPAD0_NUM_RX,
 117:Generated_Source\PSoC4/CapSense_Structure.c ****             CapSense_TOUCHPAD0_NUM_TX,
 118:Generated_Source\PSoC4/CapSense_Structure.c ****             CapSense_TOUCHPAD0_X_RESOLUTION,
 119:Generated_Source\PSoC4/CapSense_Structure.c ****             CapSense_TOUCHPAD0_Y_RESOLUTION,
 120:Generated_Source\PSoC4/CapSense_Structure.c ****             CapSense_TOUCHPAD0_X_CENT_MULT,
 121:Generated_Source\PSoC4/CapSense_Structure.c ****             CapSense_TOUCHPAD0_Y_CENT_MULT,
 122:Generated_Source\PSoC4/CapSense_Structure.c ****             &CapSense_dsRam.snsCp.touchpad0[0u],
 123:Generated_Source\PSoC4/CapSense_Structure.c ****             &CapSense_csxTouchpadData_Touchpad0,
 124:Generated_Source\PSoC4/CapSense_Structure.c ****             CapSense_TOUCHPAD0_IIR_FILTER_COEFF,
 125:Generated_Source\PSoC4/CapSense_Structure.c ****         },
 126:Generated_Source\PSoC4/CapSense_Structure.c ****     },
 127:Generated_Source\PSoC4/CapSense_Structure.c **** };
 128:Generated_Source\PSoC4/CapSense_Structure.c **** 
 129:Generated_Source\PSoC4/CapSense_Structure.c **** /**
 130:Generated_Source\PSoC4/CapSense_Structure.c **** * The array of the pointers to the electrode specific register.
 131:Generated_Source\PSoC4/CapSense_Structure.c **** */
 132:Generated_Source\PSoC4/CapSense_Structure.c **** const CapSense_FLASH_IO_STRUCT CapSense_ioList[CapSense_TOTAL_ELECTRODES] =
 133:Generated_Source\PSoC4/CapSense_Structure.c **** {
 134:Generated_Source\PSoC4/CapSense_Structure.c ****     { /* 0: Touchpad0_Rx0 */
 135:Generated_Source\PSoC4/CapSense_Structure.c ****         (reg32 *)CapSense_Rx__0__HSIOM,
 136:Generated_Source\PSoC4/CapSense_Structure.c ****         (reg32 *)CapSense_Rx__0__PC,
 137:Generated_Source\PSoC4/CapSense_Structure.c ****         (reg32 *)CapSense_Rx__0__PC2,
 138:Generated_Source\PSoC4/CapSense_Structure.c ****         (reg32 *)CapSense_Rx__0__DR,
 139:Generated_Source\PSoC4/CapSense_Structure.c ****         (reg32 *)CapSense_Rx__0__PS,
 140:Generated_Source\PSoC4/CapSense_Structure.c ****         CapSense_Rx__0__HSIOM_MASK,
 141:Generated_Source\PSoC4/CapSense_Structure.c ****         CapSense_Rx__0__MASK,
 142:Generated_Source\PSoC4/CapSense_Structure.c ****         CapSense_Rx__0__HSIOM_SHIFT,
 143:Generated_Source\PSoC4/CapSense_Structure.c ****         (uint8)CapSense_Rx__0__SHIFT,
 144:Generated_Source\PSoC4/CapSense_Structure.c ****         (uint8)CapSense_Rx__0__SHIFT * 3u,
 145:Generated_Source\PSoC4/CapSense_Structure.c ****     },
ARM GAS  C:\Users\YUANFA~1\AppData\Local\Temp\cc9Xhnxa.s 			page 4


 146:Generated_Source\PSoC4/CapSense_Structure.c ****     { /* 1: Touchpad0_Rx1 */
 147:Generated_Source\PSoC4/CapSense_Structure.c ****         (reg32 *)CapSense_Rx__1__HSIOM,
 148:Generated_Source\PSoC4/CapSense_Structure.c ****         (reg32 *)CapSense_Rx__1__PC,
 149:Generated_Source\PSoC4/CapSense_Structure.c ****         (reg32 *)CapSense_Rx__1__PC2,
 150:Generated_Source\PSoC4/CapSense_Structure.c ****         (reg32 *)CapSense_Rx__1__DR,
 151:Generated_Source\PSoC4/CapSense_Structure.c ****         (reg32 *)CapSense_Rx__1__PS,
 152:Generated_Source\PSoC4/CapSense_Structure.c ****         CapSense_Rx__1__HSIOM_MASK,
 153:Generated_Source\PSoC4/CapSense_Structure.c ****         CapSense_Rx__1__MASK,
 154:Generated_Source\PSoC4/CapSense_Structure.c ****         CapSense_Rx__1__HSIOM_SHIFT,
 155:Generated_Source\PSoC4/CapSense_Structure.c ****         (uint8)CapSense_Rx__1__SHIFT,
 156:Generated_Source\PSoC4/CapSense_Structure.c ****         (uint8)CapSense_Rx__1__SHIFT * 3u,
 157:Generated_Source\PSoC4/CapSense_Structure.c ****     },
 158:Generated_Source\PSoC4/CapSense_Structure.c ****     { /* 2: Touchpad0_Rx2 */
 159:Generated_Source\PSoC4/CapSense_Structure.c ****         (reg32 *)CapSense_Rx__2__HSIOM,
 160:Generated_Source\PSoC4/CapSense_Structure.c ****         (reg32 *)CapSense_Rx__2__PC,
 161:Generated_Source\PSoC4/CapSense_Structure.c ****         (reg32 *)CapSense_Rx__2__PC2,
 162:Generated_Source\PSoC4/CapSense_Structure.c ****         (reg32 *)CapSense_Rx__2__DR,
 163:Generated_Source\PSoC4/CapSense_Structure.c ****         (reg32 *)CapSense_Rx__2__PS,
 164:Generated_Source\PSoC4/CapSense_Structure.c ****         CapSense_Rx__2__HSIOM_MASK,
 165:Generated_Source\PSoC4/CapSense_Structure.c ****         CapSense_Rx__2__MASK,
 166:Generated_Source\PSoC4/CapSense_Structure.c ****         CapSense_Rx__2__HSIOM_SHIFT,
 167:Generated_Source\PSoC4/CapSense_Structure.c ****         (uint8)CapSense_Rx__2__SHIFT,
 168:Generated_Source\PSoC4/CapSense_Structure.c ****         (uint8)CapSense_Rx__2__SHIFT * 3u,
 169:Generated_Source\PSoC4/CapSense_Structure.c ****     },
 170:Generated_Source\PSoC4/CapSense_Structure.c ****     { /* 3: Touchpad0_Rx3 */
 171:Generated_Source\PSoC4/CapSense_Structure.c ****         (reg32 *)CapSense_Rx__3__HSIOM,
 172:Generated_Source\PSoC4/CapSense_Structure.c ****         (reg32 *)CapSense_Rx__3__PC,
 173:Generated_Source\PSoC4/CapSense_Structure.c ****         (reg32 *)CapSense_Rx__3__PC2,
 174:Generated_Source\PSoC4/CapSense_Structure.c ****         (reg32 *)CapSense_Rx__3__DR,
 175:Generated_Source\PSoC4/CapSense_Structure.c ****         (reg32 *)CapSense_Rx__3__PS,
 176:Generated_Source\PSoC4/CapSense_Structure.c ****         CapSense_Rx__3__HSIOM_MASK,
 177:Generated_Source\PSoC4/CapSense_Structure.c ****         CapSense_Rx__3__MASK,
 178:Generated_Source\PSoC4/CapSense_Structure.c ****         CapSense_Rx__3__HSIOM_SHIFT,
 179:Generated_Source\PSoC4/CapSense_Structure.c ****         (uint8)CapSense_Rx__3__SHIFT,
 180:Generated_Source\PSoC4/CapSense_Structure.c ****         (uint8)CapSense_Rx__3__SHIFT * 3u,
 181:Generated_Source\PSoC4/CapSense_Structure.c ****     },
 182:Generated_Source\PSoC4/CapSense_Structure.c ****     { /* 4: Touchpad0_Rx4 */
 183:Generated_Source\PSoC4/CapSense_Structure.c ****         (reg32 *)CapSense_Rx__4__HSIOM,
 184:Generated_Source\PSoC4/CapSense_Structure.c ****         (reg32 *)CapSense_Rx__4__PC,
 185:Generated_Source\PSoC4/CapSense_Structure.c ****         (reg32 *)CapSense_Rx__4__PC2,
 186:Generated_Source\PSoC4/CapSense_Structure.c ****         (reg32 *)CapSense_Rx__4__DR,
 187:Generated_Source\PSoC4/CapSense_Structure.c ****         (reg32 *)CapSense_Rx__4__PS,
 188:Generated_Source\PSoC4/CapSense_Structure.c ****         CapSense_Rx__4__HSIOM_MASK,
 189:Generated_Source\PSoC4/CapSense_Structure.c ****         CapSense_Rx__4__MASK,
 190:Generated_Source\PSoC4/CapSense_Structure.c ****         CapSense_Rx__4__HSIOM_SHIFT,
 191:Generated_Source\PSoC4/CapSense_Structure.c ****         (uint8)CapSense_Rx__4__SHIFT,
 192:Generated_Source\PSoC4/CapSense_Structure.c ****         (uint8)CapSense_Rx__4__SHIFT * 3u,
 193:Generated_Source\PSoC4/CapSense_Structure.c ****     },
 194:Generated_Source\PSoC4/CapSense_Structure.c ****     { /* 5: Touchpad0_Rx5 */
 195:Generated_Source\PSoC4/CapSense_Structure.c ****         (reg32 *)CapSense_Rx__5__HSIOM,
 196:Generated_Source\PSoC4/CapSense_Structure.c ****         (reg32 *)CapSense_Rx__5__PC,
 197:Generated_Source\PSoC4/CapSense_Structure.c ****         (reg32 *)CapSense_Rx__5__PC2,
 198:Generated_Source\PSoC4/CapSense_Structure.c ****         (reg32 *)CapSense_Rx__5__DR,
 199:Generated_Source\PSoC4/CapSense_Structure.c ****         (reg32 *)CapSense_Rx__5__PS,
 200:Generated_Source\PSoC4/CapSense_Structure.c ****         CapSense_Rx__5__HSIOM_MASK,
 201:Generated_Source\PSoC4/CapSense_Structure.c ****         CapSense_Rx__5__MASK,
 202:Generated_Source\PSoC4/CapSense_Structure.c ****         CapSense_Rx__5__HSIOM_SHIFT,
ARM GAS  C:\Users\YUANFA~1\AppData\Local\Temp\cc9Xhnxa.s 			page 5


 203:Generated_Source\PSoC4/CapSense_Structure.c ****         (uint8)CapSense_Rx__5__SHIFT,
 204:Generated_Source\PSoC4/CapSense_Structure.c ****         (uint8)CapSense_Rx__5__SHIFT * 3u,
 205:Generated_Source\PSoC4/CapSense_Structure.c ****     },
 206:Generated_Source\PSoC4/CapSense_Structure.c ****     { /* 6: Touchpad0_Rx6 */
 207:Generated_Source\PSoC4/CapSense_Structure.c ****         (reg32 *)CapSense_Rx__6__HSIOM,
 208:Generated_Source\PSoC4/CapSense_Structure.c ****         (reg32 *)CapSense_Rx__6__PC,
 209:Generated_Source\PSoC4/CapSense_Structure.c ****         (reg32 *)CapSense_Rx__6__PC2,
 210:Generated_Source\PSoC4/CapSense_Structure.c ****         (reg32 *)CapSense_Rx__6__DR,
 211:Generated_Source\PSoC4/CapSense_Structure.c ****         (reg32 *)CapSense_Rx__6__PS,
 212:Generated_Source\PSoC4/CapSense_Structure.c ****         CapSense_Rx__6__HSIOM_MASK,
 213:Generated_Source\PSoC4/CapSense_Structure.c ****         CapSense_Rx__6__MASK,
 214:Generated_Source\PSoC4/CapSense_Structure.c ****         CapSense_Rx__6__HSIOM_SHIFT,
 215:Generated_Source\PSoC4/CapSense_Structure.c ****         (uint8)CapSense_Rx__6__SHIFT,
 216:Generated_Source\PSoC4/CapSense_Structure.c ****         (uint8)CapSense_Rx__6__SHIFT * 3u,
 217:Generated_Source\PSoC4/CapSense_Structure.c ****     },
 218:Generated_Source\PSoC4/CapSense_Structure.c ****     { /* 7: Touchpad0_Rx7 */
 219:Generated_Source\PSoC4/CapSense_Structure.c ****         (reg32 *)CapSense_Rx__7__HSIOM,
 220:Generated_Source\PSoC4/CapSense_Structure.c ****         (reg32 *)CapSense_Rx__7__PC,
 221:Generated_Source\PSoC4/CapSense_Structure.c ****         (reg32 *)CapSense_Rx__7__PC2,
 222:Generated_Source\PSoC4/CapSense_Structure.c ****         (reg32 *)CapSense_Rx__7__DR,
 223:Generated_Source\PSoC4/CapSense_Structure.c ****         (reg32 *)CapSense_Rx__7__PS,
 224:Generated_Source\PSoC4/CapSense_Structure.c ****         CapSense_Rx__7__HSIOM_MASK,
 225:Generated_Source\PSoC4/CapSense_Structure.c ****         CapSense_Rx__7__MASK,
 226:Generated_Source\PSoC4/CapSense_Structure.c ****         CapSense_Rx__7__HSIOM_SHIFT,
 227:Generated_Source\PSoC4/CapSense_Structure.c ****         (uint8)CapSense_Rx__7__SHIFT,
 228:Generated_Source\PSoC4/CapSense_Structure.c ****         (uint8)CapSense_Rx__7__SHIFT * 3u,
 229:Generated_Source\PSoC4/CapSense_Structure.c ****     },
 230:Generated_Source\PSoC4/CapSense_Structure.c ****     { /* 8: Touchpad0_Rx8 */
 231:Generated_Source\PSoC4/CapSense_Structure.c ****         (reg32 *)CapSense_Rx__8__HSIOM,
 232:Generated_Source\PSoC4/CapSense_Structure.c ****         (reg32 *)CapSense_Rx__8__PC,
 233:Generated_Source\PSoC4/CapSense_Structure.c ****         (reg32 *)CapSense_Rx__8__PC2,
 234:Generated_Source\PSoC4/CapSense_Structure.c ****         (reg32 *)CapSense_Rx__8__DR,
 235:Generated_Source\PSoC4/CapSense_Structure.c ****         (reg32 *)CapSense_Rx__8__PS,
 236:Generated_Source\PSoC4/CapSense_Structure.c ****         CapSense_Rx__8__HSIOM_MASK,
 237:Generated_Source\PSoC4/CapSense_Structure.c ****         CapSense_Rx__8__MASK,
 238:Generated_Source\PSoC4/CapSense_Structure.c ****         CapSense_Rx__8__HSIOM_SHIFT,
 239:Generated_Source\PSoC4/CapSense_Structure.c ****         (uint8)CapSense_Rx__8__SHIFT,
 240:Generated_Source\PSoC4/CapSense_Structure.c ****         (uint8)CapSense_Rx__8__SHIFT * 3u,
 241:Generated_Source\PSoC4/CapSense_Structure.c ****     },
 242:Generated_Source\PSoC4/CapSense_Structure.c ****     { /* 9: Touchpad0_Rx9 */
 243:Generated_Source\PSoC4/CapSense_Structure.c ****         (reg32 *)CapSense_Rx__9__HSIOM,
 244:Generated_Source\PSoC4/CapSense_Structure.c ****         (reg32 *)CapSense_Rx__9__PC,
 245:Generated_Source\PSoC4/CapSense_Structure.c ****         (reg32 *)CapSense_Rx__9__PC2,
 246:Generated_Source\PSoC4/CapSense_Structure.c ****         (reg32 *)CapSense_Rx__9__DR,
 247:Generated_Source\PSoC4/CapSense_Structure.c ****         (reg32 *)CapSense_Rx__9__PS,
 248:Generated_Source\PSoC4/CapSense_Structure.c ****         CapSense_Rx__9__HSIOM_MASK,
 249:Generated_Source\PSoC4/CapSense_Structure.c ****         CapSense_Rx__9__MASK,
 250:Generated_Source\PSoC4/CapSense_Structure.c ****         CapSense_Rx__9__HSIOM_SHIFT,
 251:Generated_Source\PSoC4/CapSense_Structure.c ****         (uint8)CapSense_Rx__9__SHIFT,
 252:Generated_Source\PSoC4/CapSense_Structure.c ****         (uint8)CapSense_Rx__9__SHIFT * 3u,
 253:Generated_Source\PSoC4/CapSense_Structure.c ****     },
 254:Generated_Source\PSoC4/CapSense_Structure.c ****     { /* 10: Touchpad0_Rx10 */
 255:Generated_Source\PSoC4/CapSense_Structure.c ****         (reg32 *)CapSense_Rx__10__HSIOM,
 256:Generated_Source\PSoC4/CapSense_Structure.c ****         (reg32 *)CapSense_Rx__10__PC,
 257:Generated_Source\PSoC4/CapSense_Structure.c ****         (reg32 *)CapSense_Rx__10__PC2,
 258:Generated_Source\PSoC4/CapSense_Structure.c ****         (reg32 *)CapSense_Rx__10__DR,
 259:Generated_Source\PSoC4/CapSense_Structure.c ****         (reg32 *)CapSense_Rx__10__PS,
ARM GAS  C:\Users\YUANFA~1\AppData\Local\Temp\cc9Xhnxa.s 			page 6


 260:Generated_Source\PSoC4/CapSense_Structure.c ****         CapSense_Rx__10__HSIOM_MASK,
 261:Generated_Source\PSoC4/CapSense_Structure.c ****         CapSense_Rx__10__MASK,
 262:Generated_Source\PSoC4/CapSense_Structure.c ****         CapSense_Rx__10__HSIOM_SHIFT,
 263:Generated_Source\PSoC4/CapSense_Structure.c ****         (uint8)CapSense_Rx__10__SHIFT,
 264:Generated_Source\PSoC4/CapSense_Structure.c ****         (uint8)CapSense_Rx__10__SHIFT * 3u,
 265:Generated_Source\PSoC4/CapSense_Structure.c ****     },
 266:Generated_Source\PSoC4/CapSense_Structure.c ****     { /* 11: Touchpad0_Rx11 */
 267:Generated_Source\PSoC4/CapSense_Structure.c ****         (reg32 *)CapSense_Rx__11__HSIOM,
 268:Generated_Source\PSoC4/CapSense_Structure.c ****         (reg32 *)CapSense_Rx__11__PC,
 269:Generated_Source\PSoC4/CapSense_Structure.c ****         (reg32 *)CapSense_Rx__11__PC2,
 270:Generated_Source\PSoC4/CapSense_Structure.c ****         (reg32 *)CapSense_Rx__11__DR,
 271:Generated_Source\PSoC4/CapSense_Structure.c ****         (reg32 *)CapSense_Rx__11__PS,
 272:Generated_Source\PSoC4/CapSense_Structure.c ****         CapSense_Rx__11__HSIOM_MASK,
 273:Generated_Source\PSoC4/CapSense_Structure.c ****         CapSense_Rx__11__MASK,
 274:Generated_Source\PSoC4/CapSense_Structure.c ****         CapSense_Rx__11__HSIOM_SHIFT,
 275:Generated_Source\PSoC4/CapSense_Structure.c ****         (uint8)CapSense_Rx__11__SHIFT,
 276:Generated_Source\PSoC4/CapSense_Structure.c ****         (uint8)CapSense_Rx__11__SHIFT * 3u,
 277:Generated_Source\PSoC4/CapSense_Structure.c ****     },
 278:Generated_Source\PSoC4/CapSense_Structure.c ****     { /* 12: Touchpad0_Rx12 */
 279:Generated_Source\PSoC4/CapSense_Structure.c ****         (reg32 *)CapSense_Rx__12__HSIOM,
 280:Generated_Source\PSoC4/CapSense_Structure.c ****         (reg32 *)CapSense_Rx__12__PC,
 281:Generated_Source\PSoC4/CapSense_Structure.c ****         (reg32 *)CapSense_Rx__12__PC2,
 282:Generated_Source\PSoC4/CapSense_Structure.c ****         (reg32 *)CapSense_Rx__12__DR,
 283:Generated_Source\PSoC4/CapSense_Structure.c ****         (reg32 *)CapSense_Rx__12__PS,
 284:Generated_Source\PSoC4/CapSense_Structure.c ****         CapSense_Rx__12__HSIOM_MASK,
 285:Generated_Source\PSoC4/CapSense_Structure.c ****         CapSense_Rx__12__MASK,
 286:Generated_Source\PSoC4/CapSense_Structure.c ****         CapSense_Rx__12__HSIOM_SHIFT,
 287:Generated_Source\PSoC4/CapSense_Structure.c ****         (uint8)CapSense_Rx__12__SHIFT,
 288:Generated_Source\PSoC4/CapSense_Structure.c ****         (uint8)CapSense_Rx__12__SHIFT * 3u,
 289:Generated_Source\PSoC4/CapSense_Structure.c ****     },
 290:Generated_Source\PSoC4/CapSense_Structure.c ****     { /* 13: Touchpad0_Rx13 */
 291:Generated_Source\PSoC4/CapSense_Structure.c ****         (reg32 *)CapSense_Rx__13__HSIOM,
 292:Generated_Source\PSoC4/CapSense_Structure.c ****         (reg32 *)CapSense_Rx__13__PC,
 293:Generated_Source\PSoC4/CapSense_Structure.c ****         (reg32 *)CapSense_Rx__13__PC2,
 294:Generated_Source\PSoC4/CapSense_Structure.c ****         (reg32 *)CapSense_Rx__13__DR,
 295:Generated_Source\PSoC4/CapSense_Structure.c ****         (reg32 *)CapSense_Rx__13__PS,
 296:Generated_Source\PSoC4/CapSense_Structure.c ****         CapSense_Rx__13__HSIOM_MASK,
 297:Generated_Source\PSoC4/CapSense_Structure.c ****         CapSense_Rx__13__MASK,
 298:Generated_Source\PSoC4/CapSense_Structure.c ****         CapSense_Rx__13__HSIOM_SHIFT,
 299:Generated_Source\PSoC4/CapSense_Structure.c ****         (uint8)CapSense_Rx__13__SHIFT,
 300:Generated_Source\PSoC4/CapSense_Structure.c ****         (uint8)CapSense_Rx__13__SHIFT * 3u,
 301:Generated_Source\PSoC4/CapSense_Structure.c ****     },
 302:Generated_Source\PSoC4/CapSense_Structure.c ****     { /* 14: Touchpad0_Rx14 */
 303:Generated_Source\PSoC4/CapSense_Structure.c ****         (reg32 *)CapSense_Rx__14__HSIOM,
 304:Generated_Source\PSoC4/CapSense_Structure.c ****         (reg32 *)CapSense_Rx__14__PC,
 305:Generated_Source\PSoC4/CapSense_Structure.c ****         (reg32 *)CapSense_Rx__14__PC2,
 306:Generated_Source\PSoC4/CapSense_Structure.c ****         (reg32 *)CapSense_Rx__14__DR,
 307:Generated_Source\PSoC4/CapSense_Structure.c ****         (reg32 *)CapSense_Rx__14__PS,
 308:Generated_Source\PSoC4/CapSense_Structure.c ****         CapSense_Rx__14__HSIOM_MASK,
 309:Generated_Source\PSoC4/CapSense_Structure.c ****         CapSense_Rx__14__MASK,
 310:Generated_Source\PSoC4/CapSense_Structure.c ****         CapSense_Rx__14__HSIOM_SHIFT,
 311:Generated_Source\PSoC4/CapSense_Structure.c ****         (uint8)CapSense_Rx__14__SHIFT,
 312:Generated_Source\PSoC4/CapSense_Structure.c ****         (uint8)CapSense_Rx__14__SHIFT * 3u,
 313:Generated_Source\PSoC4/CapSense_Structure.c ****     },
 314:Generated_Source\PSoC4/CapSense_Structure.c ****     { /* 15: Touchpad0_Tx0 */
 315:Generated_Source\PSoC4/CapSense_Structure.c ****         (reg32 *)CapSense_Tx__0__HSIOM,
 316:Generated_Source\PSoC4/CapSense_Structure.c ****         (reg32 *)CapSense_Tx__0__PC,
ARM GAS  C:\Users\YUANFA~1\AppData\Local\Temp\cc9Xhnxa.s 			page 7


 317:Generated_Source\PSoC4/CapSense_Structure.c ****         (reg32 *)CapSense_Tx__0__PC2,
 318:Generated_Source\PSoC4/CapSense_Structure.c ****         (reg32 *)CapSense_Tx__0__DR,
 319:Generated_Source\PSoC4/CapSense_Structure.c ****         (reg32 *)CapSense_Tx__0__PS,
 320:Generated_Source\PSoC4/CapSense_Structure.c ****         CapSense_Tx__0__HSIOM_MASK,
 321:Generated_Source\PSoC4/CapSense_Structure.c ****         CapSense_Tx__0__MASK,
 322:Generated_Source\PSoC4/CapSense_Structure.c ****         CapSense_Tx__0__HSIOM_SHIFT,
 323:Generated_Source\PSoC4/CapSense_Structure.c ****         (uint8)CapSense_Tx__0__SHIFT,
 324:Generated_Source\PSoC4/CapSense_Structure.c ****         (uint8)CapSense_Tx__0__SHIFT * 3u,
 325:Generated_Source\PSoC4/CapSense_Structure.c ****     },
 326:Generated_Source\PSoC4/CapSense_Structure.c ****     { /* 16: Touchpad0_Tx1 */
 327:Generated_Source\PSoC4/CapSense_Structure.c ****         (reg32 *)CapSense_Tx__1__HSIOM,
 328:Generated_Source\PSoC4/CapSense_Structure.c ****         (reg32 *)CapSense_Tx__1__PC,
 329:Generated_Source\PSoC4/CapSense_Structure.c ****         (reg32 *)CapSense_Tx__1__PC2,
 330:Generated_Source\PSoC4/CapSense_Structure.c ****         (reg32 *)CapSense_Tx__1__DR,
 331:Generated_Source\PSoC4/CapSense_Structure.c ****         (reg32 *)CapSense_Tx__1__PS,
 332:Generated_Source\PSoC4/CapSense_Structure.c ****         CapSense_Tx__1__HSIOM_MASK,
 333:Generated_Source\PSoC4/CapSense_Structure.c ****         CapSense_Tx__1__MASK,
 334:Generated_Source\PSoC4/CapSense_Structure.c ****         CapSense_Tx__1__HSIOM_SHIFT,
 335:Generated_Source\PSoC4/CapSense_Structure.c ****         (uint8)CapSense_Tx__1__SHIFT,
 336:Generated_Source\PSoC4/CapSense_Structure.c ****         (uint8)CapSense_Tx__1__SHIFT * 3u,
 337:Generated_Source\PSoC4/CapSense_Structure.c ****     },
 338:Generated_Source\PSoC4/CapSense_Structure.c ****     { /* 17: Touchpad0_Tx2 */
 339:Generated_Source\PSoC4/CapSense_Structure.c ****         (reg32 *)CapSense_Tx__2__HSIOM,
 340:Generated_Source\PSoC4/CapSense_Structure.c ****         (reg32 *)CapSense_Tx__2__PC,
 341:Generated_Source\PSoC4/CapSense_Structure.c ****         (reg32 *)CapSense_Tx__2__PC2,
 342:Generated_Source\PSoC4/CapSense_Structure.c ****         (reg32 *)CapSense_Tx__2__DR,
 343:Generated_Source\PSoC4/CapSense_Structure.c ****         (reg32 *)CapSense_Tx__2__PS,
 344:Generated_Source\PSoC4/CapSense_Structure.c ****         CapSense_Tx__2__HSIOM_MASK,
 345:Generated_Source\PSoC4/CapSense_Structure.c ****         CapSense_Tx__2__MASK,
 346:Generated_Source\PSoC4/CapSense_Structure.c ****         CapSense_Tx__2__HSIOM_SHIFT,
 347:Generated_Source\PSoC4/CapSense_Structure.c ****         (uint8)CapSense_Tx__2__SHIFT,
 348:Generated_Source\PSoC4/CapSense_Structure.c ****         (uint8)CapSense_Tx__2__SHIFT * 3u,
 349:Generated_Source\PSoC4/CapSense_Structure.c ****     },
 350:Generated_Source\PSoC4/CapSense_Structure.c **** };
 351:Generated_Source\PSoC4/CapSense_Structure.c **** 
 352:Generated_Source\PSoC4/CapSense_Structure.c **** 
 353:Generated_Source\PSoC4/CapSense_Structure.c **** 
 354:Generated_Source\PSoC4/CapSense_Structure.c **** /** \}
 355:Generated_Source\PSoC4/CapSense_Structure.c **** * \endcond */
 356:Generated_Source\PSoC4/CapSense_Structure.c **** 
 357:Generated_Source\PSoC4/CapSense_Structure.c **** /* Initialization data for RAM widget list */
 358:Generated_Source\PSoC4/CapSense_Structure.c **** const CapSense_RAM_WD_LIST_STRUCT CapSense_ramWidgetInit =
 359:Generated_Source\PSoC4/CapSense_Structure.c **** {
 360:Generated_Source\PSoC4/CapSense_Structure.c ****     { /* Touchpad0 */
 361:Generated_Source\PSoC4/CapSense_Structure.c ****         CapSense_TOUCHPAD0_CRC,
 362:Generated_Source\PSoC4/CapSense_Structure.c ****         CapSense_TOUCHPAD0_RESOLUTION,
 363:Generated_Source\PSoC4/CapSense_Structure.c ****         CapSense_TOUCHPAD0_FINGER_TH,
 364:Generated_Source\PSoC4/CapSense_Structure.c ****         CapSense_TOUCHPAD0_NOISE_TH,
 365:Generated_Source\PSoC4/CapSense_Structure.c ****         CapSense_TOUCHPAD0_NNOISE_TH,
 366:Generated_Source\PSoC4/CapSense_Structure.c ****         CapSense_TOUCHPAD0_HYSTERESIS,
 367:Generated_Source\PSoC4/CapSense_Structure.c ****         CapSense_TOUCHPAD0_ON_DEBOUNCE,
 368:Generated_Source\PSoC4/CapSense_Structure.c ****         CapSense_TOUCHPAD0_LOW_BSLN_RST,
 369:Generated_Source\PSoC4/CapSense_Structure.c ****         CapSense_TOUCHPAD0_IDAC_GAIN_INDEX,
 370:Generated_Source\PSoC4/CapSense_Structure.c ****         CapSense_TOUCHPAD0_SNS_CLK,
 371:Generated_Source\PSoC4/CapSense_Structure.c ****         CapSense_TOUCHPAD0_SNS_CLK_SOURCE,
 372:Generated_Source\PSoC4/CapSense_Structure.c ****         CapSense_TOUCHPAD0_VELOCITY,
 373:Generated_Source\PSoC4/CapSense_Structure.c ****         {
ARM GAS  C:\Users\YUANFA~1\AppData\Local\Temp\cc9Xhnxa.s 			page 8


 374:Generated_Source\PSoC4/CapSense_Structure.c ****             {
 375:Generated_Source\PSoC4/CapSense_Structure.c ****                 CapSense_TOUCHPAD0_TOUCH0_X,
 376:Generated_Source\PSoC4/CapSense_Structure.c ****                 CapSense_TOUCHPAD0_TOUCH0_Y,
 377:Generated_Source\PSoC4/CapSense_Structure.c ****                 CapSense_TOUCHPAD0_TOUCH0_Z,
 378:Generated_Source\PSoC4/CapSense_Structure.c ****                 CapSense_TOUCHPAD0_TOUCH0_ID,
 379:Generated_Source\PSoC4/CapSense_Structure.c ****             },
 380:Generated_Source\PSoC4/CapSense_Structure.c ****         },
 381:Generated_Source\PSoC4/CapSense_Structure.c ****     },
 382:Generated_Source\PSoC4/CapSense_Structure.c **** };
 383:Generated_Source\PSoC4/CapSense_Structure.c **** 
 384:Generated_Source\PSoC4/CapSense_Structure.c **** 
 385:Generated_Source\PSoC4/CapSense_Structure.c **** /* IDAC Initialization Data */
 386:Generated_Source\PSoC4/CapSense_Structure.c **** const uint8 CapSense_ramIdacInit[CapSense_TOTAL_SENSORS] =
 387:Generated_Source\PSoC4/CapSense_Structure.c **** {
 388:Generated_Source\PSoC4/CapSense_Structure.c ****     /* Touchpad0 */
 389:Generated_Source\PSoC4/CapSense_Structure.c ****     CapSense_TOUCHPAD0_RX0_TX0_IDAC_COMP0,
 390:Generated_Source\PSoC4/CapSense_Structure.c ****     CapSense_TOUCHPAD0_RX0_TX1_IDAC_COMP0,
 391:Generated_Source\PSoC4/CapSense_Structure.c ****     CapSense_TOUCHPAD0_RX0_TX2_IDAC_COMP0,
 392:Generated_Source\PSoC4/CapSense_Structure.c ****     CapSense_TOUCHPAD0_RX1_TX0_IDAC_COMP0,
 393:Generated_Source\PSoC4/CapSense_Structure.c ****     CapSense_TOUCHPAD0_RX1_TX1_IDAC_COMP0,
 394:Generated_Source\PSoC4/CapSense_Structure.c ****     CapSense_TOUCHPAD0_RX1_TX2_IDAC_COMP0,
 395:Generated_Source\PSoC4/CapSense_Structure.c ****     CapSense_TOUCHPAD0_RX2_TX0_IDAC_COMP0,
 396:Generated_Source\PSoC4/CapSense_Structure.c ****     CapSense_TOUCHPAD0_RX2_TX1_IDAC_COMP0,
 397:Generated_Source\PSoC4/CapSense_Structure.c ****     CapSense_TOUCHPAD0_RX2_TX2_IDAC_COMP0,
 398:Generated_Source\PSoC4/CapSense_Structure.c ****     CapSense_TOUCHPAD0_RX3_TX0_IDAC_COMP0,
 399:Generated_Source\PSoC4/CapSense_Structure.c ****     CapSense_TOUCHPAD0_RX3_TX1_IDAC_COMP0,
 400:Generated_Source\PSoC4/CapSense_Structure.c ****     CapSense_TOUCHPAD0_RX3_TX2_IDAC_COMP0,
 401:Generated_Source\PSoC4/CapSense_Structure.c ****     CapSense_TOUCHPAD0_RX4_TX0_IDAC_COMP0,
 402:Generated_Source\PSoC4/CapSense_Structure.c ****     CapSense_TOUCHPAD0_RX4_TX1_IDAC_COMP0,
 403:Generated_Source\PSoC4/CapSense_Structure.c ****     CapSense_TOUCHPAD0_RX4_TX2_IDAC_COMP0,
 404:Generated_Source\PSoC4/CapSense_Structure.c ****     CapSense_TOUCHPAD0_RX5_TX0_IDAC_COMP0,
 405:Generated_Source\PSoC4/CapSense_Structure.c ****     CapSense_TOUCHPAD0_RX5_TX1_IDAC_COMP0,
 406:Generated_Source\PSoC4/CapSense_Structure.c ****     CapSense_TOUCHPAD0_RX5_TX2_IDAC_COMP0,
 407:Generated_Source\PSoC4/CapSense_Structure.c ****     CapSense_TOUCHPAD0_RX6_TX0_IDAC_COMP0,
 408:Generated_Source\PSoC4/CapSense_Structure.c ****     CapSense_TOUCHPAD0_RX6_TX1_IDAC_COMP0,
 409:Generated_Source\PSoC4/CapSense_Structure.c ****     CapSense_TOUCHPAD0_RX6_TX2_IDAC_COMP0,
 410:Generated_Source\PSoC4/CapSense_Structure.c ****     CapSense_TOUCHPAD0_RX7_TX0_IDAC_COMP0,
 411:Generated_Source\PSoC4/CapSense_Structure.c ****     CapSense_TOUCHPAD0_RX7_TX1_IDAC_COMP0,
 412:Generated_Source\PSoC4/CapSense_Structure.c ****     CapSense_TOUCHPAD0_RX7_TX2_IDAC_COMP0,
 413:Generated_Source\PSoC4/CapSense_Structure.c ****     CapSense_TOUCHPAD0_RX8_TX0_IDAC_COMP0,
 414:Generated_Source\PSoC4/CapSense_Structure.c ****     CapSense_TOUCHPAD0_RX8_TX1_IDAC_COMP0,
 415:Generated_Source\PSoC4/CapSense_Structure.c ****     CapSense_TOUCHPAD0_RX8_TX2_IDAC_COMP0,
 416:Generated_Source\PSoC4/CapSense_Structure.c ****     CapSense_TOUCHPAD0_RX9_TX0_IDAC_COMP0,
 417:Generated_Source\PSoC4/CapSense_Structure.c ****     CapSense_TOUCHPAD0_RX9_TX1_IDAC_COMP0,
 418:Generated_Source\PSoC4/CapSense_Structure.c ****     CapSense_TOUCHPAD0_RX9_TX2_IDAC_COMP0,
 419:Generated_Source\PSoC4/CapSense_Structure.c ****     CapSense_TOUCHPAD0_RX10_TX0_IDAC_COMP0,
 420:Generated_Source\PSoC4/CapSense_Structure.c ****     CapSense_TOUCHPAD0_RX10_TX1_IDAC_COMP0,
 421:Generated_Source\PSoC4/CapSense_Structure.c ****     CapSense_TOUCHPAD0_RX10_TX2_IDAC_COMP0,
 422:Generated_Source\PSoC4/CapSense_Structure.c ****     CapSense_TOUCHPAD0_RX11_TX0_IDAC_COMP0,
 423:Generated_Source\PSoC4/CapSense_Structure.c ****     CapSense_TOUCHPAD0_RX11_TX1_IDAC_COMP0,
 424:Generated_Source\PSoC4/CapSense_Structure.c ****     CapSense_TOUCHPAD0_RX11_TX2_IDAC_COMP0,
 425:Generated_Source\PSoC4/CapSense_Structure.c ****     CapSense_TOUCHPAD0_RX12_TX0_IDAC_COMP0,
 426:Generated_Source\PSoC4/CapSense_Structure.c ****     CapSense_TOUCHPAD0_RX12_TX1_IDAC_COMP0,
 427:Generated_Source\PSoC4/CapSense_Structure.c ****     CapSense_TOUCHPAD0_RX12_TX2_IDAC_COMP0,
 428:Generated_Source\PSoC4/CapSense_Structure.c ****     CapSense_TOUCHPAD0_RX13_TX0_IDAC_COMP0,
 429:Generated_Source\PSoC4/CapSense_Structure.c ****     CapSense_TOUCHPAD0_RX13_TX1_IDAC_COMP0,
 430:Generated_Source\PSoC4/CapSense_Structure.c ****     CapSense_TOUCHPAD0_RX13_TX2_IDAC_COMP0,
ARM GAS  C:\Users\YUANFA~1\AppData\Local\Temp\cc9Xhnxa.s 			page 9


 431:Generated_Source\PSoC4/CapSense_Structure.c ****     CapSense_TOUCHPAD0_RX14_TX0_IDAC_COMP0,
 432:Generated_Source\PSoC4/CapSense_Structure.c ****     CapSense_TOUCHPAD0_RX14_TX1_IDAC_COMP0,
 433:Generated_Source\PSoC4/CapSense_Structure.c ****     CapSense_TOUCHPAD0_RX14_TX2_IDAC_COMP0,
 434:Generated_Source\PSoC4/CapSense_Structure.c **** };
 435:Generated_Source\PSoC4/CapSense_Structure.c **** 
 436:Generated_Source\PSoC4/CapSense_Structure.c **** 
 437:Generated_Source\PSoC4/CapSense_Structure.c **** 
 438:Generated_Source\PSoC4/CapSense_Structure.c **** 
 439:Generated_Source\PSoC4/CapSense_Structure.c **** 
 440:Generated_Source\PSoC4/CapSense_Structure.c **** /*******************************************************************************
 441:Generated_Source\PSoC4/CapSense_Structure.c **** * Defines internal data types and statements
 442:Generated_Source\PSoC4/CapSense_Structure.c **** *******************************************************************************/
 443:Generated_Source\PSoC4/CapSense_Structure.c **** #define PARAM_TYPE_OFFSET       (30u)
 444:Generated_Source\PSoC4/CapSense_Structure.c **** #define PARAM_TYPE_MASK         (3Lu << PARAM_TYPE_OFFSET)
 445:Generated_Source\PSoC4/CapSense_Structure.c **** #define PARAM_RWBIT_OFFSET      (29u)
 446:Generated_Source\PSoC4/CapSense_Structure.c **** #define PARAM_RWBIT_MASK        (1Lu << PARAM_RWBIT_OFFSET)
 447:Generated_Source\PSoC4/CapSense_Structure.c **** #define PARAM_FBIT_OFFSET       (28u)
 448:Generated_Source\PSoC4/CapSense_Structure.c **** #define PARAM_FBIT_MASK         (1Lu << PARAM_FBIT_OFFSET)
 449:Generated_Source\PSoC4/CapSense_Structure.c **** #define PARAM_UBIT_OFFSET       (23u)
 450:Generated_Source\PSoC4/CapSense_Structure.c **** #define PARAM_UBIT_MASK         (1Lu << PARAM_UBIT_OFFSET)
 451:Generated_Source\PSoC4/CapSense_Structure.c **** #define PARAM_WDID_OFFSET       (16u)
 452:Generated_Source\PSoC4/CapSense_Structure.c **** #define PARAM_WDID_MASK         (0x7FLu << PARAM_WDID_OFFSET)
 453:Generated_Source\PSoC4/CapSense_Structure.c **** #define PARAM_CRC_OFFSET        (24u)
 454:Generated_Source\PSoC4/CapSense_Structure.c **** #define PARAM_CRC_MASK          (0x0FLu << PARAM_CRC_OFFSET)
 455:Generated_Source\PSoC4/CapSense_Structure.c **** 
 456:Generated_Source\PSoC4/CapSense_Structure.c **** /* Defines align masks for uint16 and uint32 */
 457:Generated_Source\PSoC4/CapSense_Structure.c **** #define UINT16_ALIGN_MASK       (1Lu)
 458:Generated_Source\PSoC4/CapSense_Structure.c **** #define UINT32_ALIGN_MASK       (3Lu)
 459:Generated_Source\PSoC4/CapSense_Structure.c **** 
 460:Generated_Source\PSoC4/CapSense_Structure.c **** /* Defines supported parameter types */
 461:Generated_Source\PSoC4/CapSense_Structure.c **** #define DS_PARAM_TYPE_UINT8     (0x01u)
 462:Generated_Source\PSoC4/CapSense_Structure.c **** #define DS_PARAM_TYPE_UINT16    (0x02u)
 463:Generated_Source\PSoC4/CapSense_Structure.c **** #define DS_PARAM_TYPE_UINT32    (0x03u)
 464:Generated_Source\PSoC4/CapSense_Structure.c **** 
 465:Generated_Source\PSoC4/CapSense_Structure.c **** 
 466:Generated_Source\PSoC4/CapSense_Structure.c **** /* Defines PARAM_ID structure */
 467:Generated_Source\PSoC4/CapSense_Structure.c **** typedef struct
 468:Generated_Source\PSoC4/CapSense_Structure.c **** {
 469:Generated_Source\PSoC4/CapSense_Structure.c ****     uint16 offset;      /* parameter offset */
 470:Generated_Source\PSoC4/CapSense_Structure.c ****     uint8  widgetId;    /* widget Id parameter belongs to */
 471:Generated_Source\PSoC4/CapSense_Structure.c ****     uint8  affectsCrc;  /* parameter affects widget CRC */
 472:Generated_Source\PSoC4/CapSense_Structure.c ****     uint8  crc;         /* parameter CRC */
 473:Generated_Source\PSoC4/CapSense_Structure.c ****     uint8  flash;       /* parameter located in FLASH flag */
 474:Generated_Source\PSoC4/CapSense_Structure.c ****     uint8  rw;          /* parameter is read/write flag */
 475:Generated_Source\PSoC4/CapSense_Structure.c ****     uint8  type;        /* parameter type: uint8/uint16/uint32 */
 476:Generated_Source\PSoC4/CapSense_Structure.c **** } PARAM_ID_STRUCT;
 477:Generated_Source\PSoC4/CapSense_Structure.c **** 
 478:Generated_Source\PSoC4/CapSense_Structure.c **** 
 479:Generated_Source\PSoC4/CapSense_Structure.c **** /*******************************************************************************
 480:Generated_Source\PSoC4/CapSense_Structure.c **** * Static Function Prototypes
 481:Generated_Source\PSoC4/CapSense_Structure.c **** *******************************************************************************/
 482:Generated_Source\PSoC4/CapSense_Structure.c **** /**
 483:Generated_Source\PSoC4/CapSense_Structure.c **** * \cond SECTION_C_INTERNAL
 484:Generated_Source\PSoC4/CapSense_Structure.c **** * \addtogroup group_c_internal
 485:Generated_Source\PSoC4/CapSense_Structure.c **** * \{
 486:Generated_Source\PSoC4/CapSense_Structure.c **** */
 487:Generated_Source\PSoC4/CapSense_Structure.c **** 
ARM GAS  C:\Users\YUANFA~1\AppData\Local\Temp\cc9Xhnxa.s 			page 10


 488:Generated_Source\PSoC4/CapSense_Structure.c **** 
 489:Generated_Source\PSoC4/CapSense_Structure.c **** /* Ext Cap Mapping Data */
 490:Generated_Source\PSoC4/CapSense_Structure.c **** const uint8 CapSense_extCapMap[CapSense_TST_EXT_CAPS_NUM] =
 491:Generated_Source\PSoC4/CapSense_Structure.c **** {
 492:Generated_Source\PSoC4/CapSense_Structure.c ****     CapSense_TST_CINTA_MAP,
 493:Generated_Source\PSoC4/CapSense_Structure.c ****     CapSense_TST_CINTB_MAP,
 494:Generated_Source\PSoC4/CapSense_Structure.c **** };
 495:Generated_Source\PSoC4/CapSense_Structure.c **** 
 496:Generated_Source\PSoC4/CapSense_Structure.c **** 
 497:Generated_Source\PSoC4/CapSense_Structure.c **** static cystatus DsParseParamId(uint32 paramId, PARAM_ID_STRUCT *pData);
 498:Generated_Source\PSoC4/CapSense_Structure.c **** 
 499:Generated_Source\PSoC4/CapSense_Structure.c **** /** \}
 500:Generated_Source\PSoC4/CapSense_Structure.c **** * \endcond */
 501:Generated_Source\PSoC4/CapSense_Structure.c **** 
 502:Generated_Source\PSoC4/CapSense_Structure.c **** 
 503:Generated_Source\PSoC4/CapSense_Structure.c **** /*******************************************************************************
 504:Generated_Source\PSoC4/CapSense_Structure.c **** * Function Name: CapSense_DsInitialize
 505:Generated_Source\PSoC4/CapSense_Structure.c **** ****************************************************************************//**
 506:Generated_Source\PSoC4/CapSense_Structure.c **** *
 507:Generated_Source\PSoC4/CapSense_Structure.c **** * \brief
 508:Generated_Source\PSoC4/CapSense_Structure.c **** *   This function initializes the Data Structure storage.
 509:Generated_Source\PSoC4/CapSense_Structure.c **** *
 510:Generated_Source\PSoC4/CapSense_Structure.c **** * \details
 511:Generated_Source\PSoC4/CapSense_Structure.c **** *   This function copies the default widget configuration parameters
 512:Generated_Source\PSoC4/CapSense_Structure.c **** *   from the Flash storage into the RAM Data Structure.
 513:Generated_Source\PSoC4/CapSense_Structure.c **** *
 514:Generated_Source\PSoC4/CapSense_Structure.c **** *******************************************************************************/
 515:Generated_Source\PSoC4/CapSense_Structure.c **** void CapSense_DsInitialize(void)
 516:Generated_Source\PSoC4/CapSense_Structure.c **** {
 517:Generated_Source\PSoC4/CapSense_Structure.c ****     #if ((CapSense_ENABLE == CapSense_CSX_EN) || \
 518:Generated_Source\PSoC4/CapSense_Structure.c ****          (CapSense_ENABLE == CapSense_CSD_IDAC_COMP_EN) || \
 519:Generated_Source\PSoC4/CapSense_Structure.c ****         ((CapSense_ENABLE == CapSense_CSX_EN) && \
 520:Generated_Source\PSoC4/CapSense_Structure.c ****          (CapSense_ENABLE == CapSense_CSX_SKIP_OVSMPL_SPECIFIC_NODES)))
 521:Generated_Source\PSoC4/CapSense_Structure.c ****         uint32 snsId;
 522:Generated_Source\PSoC4/CapSense_Structure.c ****         uint32 wdgtId;
 523:Generated_Source\PSoC4/CapSense_Structure.c ****         CapSense_RAM_SNS_STRUCT * ptrSnsTmp;
 524:Generated_Source\PSoC4/CapSense_Structure.c ****         CapSense_FLASH_WD_STRUCT const * ptrFlashWdgt;
 525:Generated_Source\PSoC4/CapSense_Structure.c ****     #endif
 526:Generated_Source\PSoC4/CapSense_Structure.c **** 
 527:Generated_Source\PSoC4/CapSense_Structure.c ****     #if ((CapSense_ENABLE == CapSense_CSX_EN) && \
 528:Generated_Source\PSoC4/CapSense_Structure.c ****          (CapSense_ENABLE == CapSense_CSX_SKIP_OVSMPL_SPECIFIC_NODES))
 529:Generated_Source\PSoC4/CapSense_Structure.c ****         uint16 subConvNumber;
 530:Generated_Source\PSoC4/CapSense_Structure.c ****     #endif
 531:Generated_Source\PSoC4/CapSense_Structure.c **** 
 532:Generated_Source\PSoC4/CapSense_Structure.c ****     #if ((0u != CapSense_CSX_EN) || (0 != CapSense_CSD_IDAC_COMP_EN))
 533:Generated_Source\PSoC4/CapSense_Structure.c ****         uint8 const * ptrIdacInit = CapSense_ramIdacInit;
 534:Generated_Source\PSoC4/CapSense_Structure.c ****     #endif
 535:Generated_Source\PSoC4/CapSense_Structure.c **** 
 536:Generated_Source\PSoC4/CapSense_Structure.c ****     /* Reset RAM data structure content */
 537:Generated_Source\PSoC4/CapSense_Structure.c ****     (void)memset(&CapSense_dsRam, 0, sizeof(CapSense_dsRam));
 538:Generated_Source\PSoC4/CapSense_Structure.c **** 
 539:Generated_Source\PSoC4/CapSense_Structure.c ****     /* Initialize configId, deviceId and hwClock registers */
 540:Generated_Source\PSoC4/CapSense_Structure.c ****     CapSense_dsRam.configId = CapSense_CONFIG_ID;
 541:Generated_Source\PSoC4/CapSense_Structure.c ****     CapSense_dsRam.deviceId = CapSense_DEVICE_ID;
 542:Generated_Source\PSoC4/CapSense_Structure.c ****     CapSense_dsRam.hwClock = CapSense_HW_CLOCK;
 543:Generated_Source\PSoC4/CapSense_Structure.c **** 
 544:Generated_Source\PSoC4/CapSense_Structure.c ****     /* Initialize global RAM data */
ARM GAS  C:\Users\YUANFA~1\AppData\Local\Temp\cc9Xhnxa.s 			page 11


 545:Generated_Source\PSoC4/CapSense_Structure.c ****     CapSense_dsRam.csd0Config = CapSense_CSD0_CONFIG;
 546:Generated_Source\PSoC4/CapSense_Structure.c **** 
 547:Generated_Source\PSoC4/CapSense_Structure.c ****     CapSense_dsRam.scanCurrentISC = CapSense_SNS_CONNECTION_UNDEFINED;
 548:Generated_Source\PSoC4/CapSense_Structure.c ****     #if (0u != CapSense_TOTAL_CSD_WIDGETS)
 549:Generated_Source\PSoC4/CapSense_Structure.c ****         CapSense_dsRam.modCsdClk = CapSense_CSD_SCANSPEED_DIVIDER;
 550:Generated_Source\PSoC4/CapSense_Structure.c ****         CapSense_dsRam.scanCsdISC = CapSense_CSD_INACTIVE_SNS_CONNECTION;
 551:Generated_Source\PSoC4/CapSense_Structure.c **** 
 552:Generated_Source\PSoC4/CapSense_Structure.c ****         #if (0u != CapSense_CSD_COMMON_SNS_CLK_EN)
 553:Generated_Source\PSoC4/CapSense_Structure.c ****             CapSense_dsRam.snsCsdClk = CapSense_CSD_SNS_CLK_DIVIDER;
 554:Generated_Source\PSoC4/CapSense_Structure.c ****         #endif /* #if (0u != CapSense_CSD_COMMON_SNS_CLK_EN) */
 555:Generated_Source\PSoC4/CapSense_Structure.c ****     #endif /* #if (0u != CapSense_TOTAL_CSD_WIDGETS) */
 556:Generated_Source\PSoC4/CapSense_Structure.c **** 
 557:Generated_Source\PSoC4/CapSense_Structure.c ****     #if (CapSense_ENABLE == CapSense_CSX_EN)
 558:Generated_Source\PSoC4/CapSense_Structure.c ****         CapSense_dsRam.modCsxClk = CapSense_CSX_SCANSPEED_DIVIDER;
 559:Generated_Source\PSoC4/CapSense_Structure.c ****         CapSense_dsRam.scanCsxISC = CapSense_CSX_INACTIVE_SNS_CONNECTION;
 560:Generated_Source\PSoC4/CapSense_Structure.c **** 
 561:Generated_Source\PSoC4/CapSense_Structure.c ****         #if (0u != CapSense_CSX_COMMON_TX_CLK_EN)
 562:Generated_Source\PSoC4/CapSense_Structure.c ****             CapSense_dsRam.snsCsxClk = CapSense_CSX_TX_CLK_DIVIDER;
 563:Generated_Source\PSoC4/CapSense_Structure.c ****         #endif /* #if (0u != CapSense_CSX_COMMON_TX_CLK_EN) */
 564:Generated_Source\PSoC4/CapSense_Structure.c ****     #endif /* #if (CapSense_ENABLE == CapSense_CSX_EN) */
 565:Generated_Source\PSoC4/CapSense_Structure.c **** 
 566:Generated_Source\PSoC4/CapSense_Structure.c ****     #if (CapSense_ENABLE == CapSense_ISX_EN)
 567:Generated_Source\PSoC4/CapSense_Structure.c ****         CapSense_dsRam.modIsxClk = CapSense_ISX_SCANSPEED_DIVIDER;
 568:Generated_Source\PSoC4/CapSense_Structure.c ****     #endif /* #if (0u != CapSense_ISX_EN) */
 569:Generated_Source\PSoC4/CapSense_Structure.c **** 
 570:Generated_Source\PSoC4/CapSense_Structure.c ****     #if (0u != CapSense_SELF_TEST_EN)
 571:Generated_Source\PSoC4/CapSense_Structure.c **** 
 572:Generated_Source\PSoC4/CapSense_Structure.c ****         CapSense_dsRam.glbCrc = CapSense_GLB_CRC;
 573:Generated_Source\PSoC4/CapSense_Structure.c ****         CapSense_dsRam.selfTestConfig.fineInitTime = (uint8)CapSense_TST_FINE_INIT_TIME;
 574:Generated_Source\PSoC4/CapSense_Structure.c ****         CapSense_dsRam.selfTestConfig.startupDelay = CapSense_TST_ANALOG_STARTUP_DELAY_US;
 575:Generated_Source\PSoC4/CapSense_Structure.c **** 
 576:Generated_Source\PSoC4/CapSense_Structure.c ****         #if (0u != CapSense_TST_SNS_SHORT_EN)
 577:Generated_Source\PSoC4/CapSense_Structure.c ****             CapSense_dsRam.selfTestConfig.snsShortTimeUs = CapSense_TST_SNS_SHORT_TIME;
 578:Generated_Source\PSoC4/CapSense_Structure.c ****         #endif
 579:Generated_Source\PSoC4/CapSense_Structure.c **** 
 580:Generated_Source\PSoC4/CapSense_Structure.c ****         #if ((0u != CapSense_TST_SNS_CAP_EN) ||\
 581:Generated_Source\PSoC4/CapSense_Structure.c ****              (0u != CapSense_TST_SH_CAP_EN))
 582:Generated_Source\PSoC4/CapSense_Structure.c ****             CapSense_dsRam.selfTestConfig.snsCapSnsClkDivider = CapSense_TST_SNS_CAP_SNS_CLK_DIVIDE
 583:Generated_Source\PSoC4/CapSense_Structure.c ****             CapSense_dsRam.selfTestConfig.snsCapSnsClkHz = CapSense_TST_SNS_CAP_SNS_CLK_HZ;
 584:Generated_Source\PSoC4/CapSense_Structure.c ****             CapSense_dsRam.selfTestConfig.snsCapResolution = CapSense_TST_SNS_CAP_RESOLUTION;
 585:Generated_Source\PSoC4/CapSense_Structure.c ****             CapSense_dsRam.selfTestConfig.snsCapVrefGain = CapSense_TST_SNS_CAP_VREF_GAIN ;
 586:Generated_Source\PSoC4/CapSense_Structure.c ****             CapSense_dsRam.selfTestConfig.snsCapVrefVoltage = CapSense_TST_SNS_CAP_VREF_MV;
 587:Generated_Source\PSoC4/CapSense_Structure.c ****             CapSense_dsRam.selfTestConfig.snsCapModClkDivider = CapSense_TST_MOD_CLK_DIVIDER ;
 588:Generated_Source\PSoC4/CapSense_Structure.c ****             CapSense_dsRam.selfTestConfig.snsCapModClkKHz = CapSense_TST_MOD_CLK_KHZ ;
 589:Generated_Source\PSoC4/CapSense_Structure.c ****         #endif /* ((0u != CapSense_TST_SNS_CAP_EN) ||
 590:Generated_Source\PSoC4/CapSense_Structure.c ****                    (0u != CapSense_TST_SH_CAP_EN)) */
 591:Generated_Source\PSoC4/CapSense_Structure.c **** 
 592:Generated_Source\PSoC4/CapSense_Structure.c ****         #if (0u != CapSense_TST_SNS_CAP_EN)
 593:Generated_Source\PSoC4/CapSense_Structure.c ****             #if (0u != CapSense_CSD_EN)
 594:Generated_Source\PSoC4/CapSense_Structure.c ****                 CapSense_dsRam.selfTestConfig.bistCsdSnsCapISC = CapSense_SNS_CAP_CSD_INACTIVE_CONN
 595:Generated_Source\PSoC4/CapSense_Structure.c ****             #endif /* (0u != CapSense_CSD_EN) */
 596:Generated_Source\PSoC4/CapSense_Structure.c ****             #if (0u != CapSense_CSX_EN)
 597:Generated_Source\PSoC4/CapSense_Structure.c ****                 CapSense_dsRam.selfTestConfig.bistCsxSnsCapISC = CapSense_SNS_CAP_CSX_INACTIVE_CONN
 598:Generated_Source\PSoC4/CapSense_Structure.c ****             #endif /* (0u != CapSense_CSX_EN) */
 599:Generated_Source\PSoC4/CapSense_Structure.c ****         #endif /* (0u != CapSense_TST_SNS_CAP_EN) */
 600:Generated_Source\PSoC4/CapSense_Structure.c **** 
 601:Generated_Source\PSoC4/CapSense_Structure.c ****         #if (0u != CapSense_TST_SH_CAP_EN)
ARM GAS  C:\Users\YUANFA~1\AppData\Local\Temp\cc9Xhnxa.s 			page 12


 602:Generated_Source\PSoC4/CapSense_Structure.c ****             #if ((0u != CapSense_CSD_EN) && (0u != CapSense_CSD_SHIELD_EN))
 603:Generated_Source\PSoC4/CapSense_Structure.c ****                 CapSense_dsRam.selfTestConfig.bistCsdShCapISC = CapSense_SHIELD_CAP_INACTIVE_CONNEC
 604:Generated_Source\PSoC4/CapSense_Structure.c ****             #endif /* ((0u != CapSense_CSD_EN) && (0u != CapSense_CSD_SHIELD_EN)) */
 605:Generated_Source\PSoC4/CapSense_Structure.c ****         #endif /* (0u != CapSense_TST_SH_CAP_EN) */
 606:Generated_Source\PSoC4/CapSense_Structure.c **** 
 607:Generated_Source\PSoC4/CapSense_Structure.c ****         #if (0u != CapSense_TST_EXTERNAL_CAP_EN)
 608:Generated_Source\PSoC4/CapSense_Structure.c ****             CapSense_dsRam.selfTestConfig.extCapVrefGain = CapSense_TST_EXT_CAP_VREF_GAIN;
 609:Generated_Source\PSoC4/CapSense_Structure.c ****             CapSense_dsRam.selfTestConfig.extCapVrefVoltage = CapSense_TST_EXT_CAP_VREF_MV;
 610:Generated_Source\PSoC4/CapSense_Structure.c ****         #endif /* #if (0u != CapSense_TST_EXTERNAL_CAP_EN) */
 611:Generated_Source\PSoC4/CapSense_Structure.c **** 
 612:Generated_Source\PSoC4/CapSense_Structure.c ****         #if (0u != CapSense_TST_VDDA_EN)
 613:Generated_Source\PSoC4/CapSense_Structure.c ****             CapSense_dsRam.selfTestConfig.vddaResolution = CapSense_TST_VDDA_RESOLUTION;
 614:Generated_Source\PSoC4/CapSense_Structure.c ****             CapSense_dsRam.selfTestConfig.vddaModClkDivider = CapSense_TST_VDDA_MOD_CLK_DIVIDER;
 615:Generated_Source\PSoC4/CapSense_Structure.c **** 
 616:Generated_Source\PSoC4/CapSense_Structure.c ****             CapSense_dsRam.selfTestConfig.vddaVrefGain = CapSense_TST_VDDA_VREF_GAIN;
 617:Generated_Source\PSoC4/CapSense_Structure.c ****             CapSense_dsRam.selfTestConfig.vddaVrefVoltage = CapSense_TST_VDDA_VREF_MV;
 618:Generated_Source\PSoC4/CapSense_Structure.c ****         #endif /* #if (0u != CapSense_TST_VDDA_EN) */
 619:Generated_Source\PSoC4/CapSense_Structure.c **** 
 620:Generated_Source\PSoC4/CapSense_Structure.c ****     #endif /* #if (0u != CapSense_SELF_TEST_EN) */
 621:Generated_Source\PSoC4/CapSense_Structure.c **** 
 622:Generated_Source\PSoC4/CapSense_Structure.c ****     /* Initialize RAM widget data */
 623:Generated_Source\PSoC4/CapSense_Structure.c ****     CapSense_dsRam.wdgtList = CapSense_ramWidgetInit;
 624:Generated_Source\PSoC4/CapSense_Structure.c **** 
 625:Generated_Source\PSoC4/CapSense_Structure.c ****     /* Initialize Gesture configuration structure */
 626:Generated_Source\PSoC4/CapSense_Structure.c ****     #if ((0u != CapSense_GES_GLOBAL_EN) || (0u != CapSense_BALLISTIC_MULTIPLIER_EN))
 627:Generated_Source\PSoC4/CapSense_Structure.c ****         CapSense_dsRam.timestampInterval = CapSense_TIMESTAMP_INTERVAL;
 628:Generated_Source\PSoC4/CapSense_Structure.c ****     #endif /* ((0u != CapSense_GES_GLOBAL_EN) || (0u != CapSense_BALLISTIC_MULTIPLIER_EN)) */
 629:Generated_Source\PSoC4/CapSense_Structure.c **** 
 630:Generated_Source\PSoC4/CapSense_Structure.c ****     #if (0u != CapSense_GES_GLOBAL_EN)
 631:Generated_Source\PSoC4/CapSense_Structure.c ****         CapSense_dsRam.gestures = CapSense_ramGesturesInit;
 632:Generated_Source\PSoC4/CapSense_Structure.c ****     #endif /* (0u != CapSense_GES_GLOBAL_EN) */
 633:Generated_Source\PSoC4/CapSense_Structure.c **** 
 634:Generated_Source\PSoC4/CapSense_Structure.c ****     #if (0u != CapSense_BALLISTIC_MULTIPLIER_EN)
 635:Generated_Source\PSoC4/CapSense_Structure.c ****         CapSense_dsRam.ballisticConfig = CapSense_ramBallisticInit;
 636:Generated_Source\PSoC4/CapSense_Structure.c ****     #endif /* (0u != CapSense_BALLISTIC_MULTIPLIER_EN) */
 637:Generated_Source\PSoC4/CapSense_Structure.c **** 
 638:Generated_Source\PSoC4/CapSense_Structure.c ****     #if (0u != CapSense_CSX_EN) || (0 != CapSense_CSD_IDAC_COMP_EN)
 639:Generated_Source\PSoC4/CapSense_Structure.c ****         /* Initialize IDAC data */
 640:Generated_Source\PSoC4/CapSense_Structure.c ****         ptrFlashWdgt = CapSense_dsFlash.wdgtArray;
 641:Generated_Source\PSoC4/CapSense_Structure.c **** 
 642:Generated_Source\PSoC4/CapSense_Structure.c ****         for (wdgtId = CapSense_TOTAL_WIDGETS; wdgtId-- > 0u; )
 643:Generated_Source\PSoC4/CapSense_Structure.c ****         {
 644:Generated_Source\PSoC4/CapSense_Structure.c ****             ptrSnsTmp = ptrFlashWdgt->ptr2SnsRam;
 645:Generated_Source\PSoC4/CapSense_Structure.c **** 
 646:Generated_Source\PSoC4/CapSense_Structure.c ****             for (snsId = CapSense_GET_SNS_CNT_BY_PTR(ptrFlashWdgt); snsId-- > 0u;)
 647:Generated_Source\PSoC4/CapSense_Structure.c ****             {
 648:Generated_Source\PSoC4/CapSense_Structure.c ****                 ptrSnsTmp->idacComp[0u] = *ptrIdacInit;
 649:Generated_Source\PSoC4/CapSense_Structure.c ****                 ptrIdacInit++;
 650:Generated_Source\PSoC4/CapSense_Structure.c **** 
 651:Generated_Source\PSoC4/CapSense_Structure.c ****                 #if (0u != CapSense_MULTI_FREQ_SCAN_EN)
 652:Generated_Source\PSoC4/CapSense_Structure.c ****                     ptrSnsTmp->idacComp[1u] = *ptrIdacInit;
 653:Generated_Source\PSoC4/CapSense_Structure.c ****                     ptrIdacInit++;
 654:Generated_Source\PSoC4/CapSense_Structure.c **** 
 655:Generated_Source\PSoC4/CapSense_Structure.c ****                     ptrSnsTmp->idacComp[2u] = *ptrIdacInit;
 656:Generated_Source\PSoC4/CapSense_Structure.c ****                     ptrIdacInit++;
 657:Generated_Source\PSoC4/CapSense_Structure.c ****                 #endif /* #if (0u != CapSense_MULTI_FREQ_SCAN_EN) */
 658:Generated_Source\PSoC4/CapSense_Structure.c **** 
ARM GAS  C:\Users\YUANFA~1\AppData\Local\Temp\cc9Xhnxa.s 			page 13


 659:Generated_Source\PSoC4/CapSense_Structure.c ****                 ptrSnsTmp++;
 660:Generated_Source\PSoC4/CapSense_Structure.c ****             }
 661:Generated_Source\PSoC4/CapSense_Structure.c **** 
 662:Generated_Source\PSoC4/CapSense_Structure.c ****             ptrFlashWdgt++; /* Move to next widget */
 663:Generated_Source\PSoC4/CapSense_Structure.c ****         }
 664:Generated_Source\PSoC4/CapSense_Structure.c ****     #endif /*(0u != CapSense_CSX_EN) || (0 != CapSense_CSD_IDAC_COMP_EN)*/
 665:Generated_Source\PSoC4/CapSense_Structure.c **** 
 666:Generated_Source\PSoC4/CapSense_Structure.c ****     #if ((CapSense_ENABLE == CapSense_CSX_EN) && \
 667:Generated_Source\PSoC4/CapSense_Structure.c ****          (CapSense_ENABLE == CapSense_CSX_SKIP_OVSMPL_SPECIFIC_NODES))
 668:Generated_Source\PSoC4/CapSense_Structure.c ****         /* Initialize Sub-Conversion Number for each node of each CSX widget */
 669:Generated_Source\PSoC4/CapSense_Structure.c ****         ptrFlashWdgt = CapSense_dsFlash.wdgtArray;
 670:Generated_Source\PSoC4/CapSense_Structure.c ****         for (wdgtId = CapSense_TOTAL_WIDGETS; wdgtId-- > 0u;)
 671:Generated_Source\PSoC4/CapSense_Structure.c ****         {
 672:Generated_Source\PSoC4/CapSense_Structure.c ****             /* Check for widget sense method */
 673:Generated_Source\PSoC4/CapSense_Structure.c ****             if (CapSense_SENSE_METHOD_CSX_E == CapSense_GET_SENSE_METHOD(ptrFlashWdgt))
 674:Generated_Source\PSoC4/CapSense_Structure.c ****             {
 675:Generated_Source\PSoC4/CapSense_Structure.c ****                 /* Take the sub-convesion number of a CSX widget and initialize each node of this w
 676:Generated_Source\PSoC4/CapSense_Structure.c ****                 subConvNumber = ((CapSense_RAM_WD_BASE_STRUCT *)(ptrFlashWdgt->ptr2WdgtRam))->resol
 677:Generated_Source\PSoC4/CapSense_Structure.c ****                 ptrSnsTmp = ptrFlashWdgt->ptr2SnsRam;
 678:Generated_Source\PSoC4/CapSense_Structure.c ****                 for (snsId = CapSense_GET_SNS_CNT_BY_PTR(ptrFlashWdgt); snsId-- > 0u;)
 679:Generated_Source\PSoC4/CapSense_Structure.c ****                 {
 680:Generated_Source\PSoC4/CapSense_Structure.c ****                     ptrSnsTmp->subConvNum = subConvNumber;
 681:Generated_Source\PSoC4/CapSense_Structure.c ****                     ptrSnsTmp++;
 682:Generated_Source\PSoC4/CapSense_Structure.c ****                 }
 683:Generated_Source\PSoC4/CapSense_Structure.c ****             }
 684:Generated_Source\PSoC4/CapSense_Structure.c ****             /* Move to the next widget */
 685:Generated_Source\PSoC4/CapSense_Structure.c ****             ptrFlashWdgt++;
 686:Generated_Source\PSoC4/CapSense_Structure.c ****         }
 687:Generated_Source\PSoC4/CapSense_Structure.c ****     #endif /* ((CapSense_ENABLE == CapSense_CSX_EN) && \
 688:Generated_Source\PSoC4/CapSense_Structure.c ****                (CapSense_ENABLE == CapSense_CSX_SKIP_OVSMPL_SPECIFIC_NODES)) */
 689:Generated_Source\PSoC4/CapSense_Structure.c **** 
 690:Generated_Source\PSoC4/CapSense_Structure.c ****     #if (0u != CapSense_ADC_EN)
 691:Generated_Source\PSoC4/CapSense_Structure.c ****         CapSense_AdcDsInitialize();
 692:Generated_Source\PSoC4/CapSense_Structure.c ****     #endif /* (0u != CapSense_ADC_EN) */
 693:Generated_Source\PSoC4/CapSense_Structure.c **** }
 694:Generated_Source\PSoC4/CapSense_Structure.c **** 
 695:Generated_Source\PSoC4/CapSense_Structure.c **** 
 696:Generated_Source\PSoC4/CapSense_Structure.c **** #if (0u != CapSense_ADC_EN)
 697:Generated_Source\PSoC4/CapSense_Structure.c ****     /*******************************************************************************
 698:Generated_Source\PSoC4/CapSense_Structure.c ****     * Function Name: CapSense_AdcDsInitialize
 699:Generated_Source\PSoC4/CapSense_Structure.c ****     ****************************************************************************//**
 700:Generated_Source\PSoC4/CapSense_Structure.c ****     *
 701:Generated_Source\PSoC4/CapSense_Structure.c ****     * \brief
 702:Generated_Source\PSoC4/CapSense_Structure.c ****     *   Configures the initial Adc datastructure members.
 703:Generated_Source\PSoC4/CapSense_Structure.c ****     *
 704:Generated_Source\PSoC4/CapSense_Structure.c ****     *******************************************************************************/
 705:Generated_Source\PSoC4/CapSense_Structure.c ****     void CapSense_AdcDsInitialize(void)
 706:Generated_Source\PSoC4/CapSense_Structure.c ****     {
 707:Generated_Source\PSoC4/CapSense_Structure.c ****         CapSense_dsRam.adcResolution = CapSense_ADC_RESOLUTION;
 708:Generated_Source\PSoC4/CapSense_Structure.c ****         CapSense_dsRam.adcIdac = (uint8)(CapSense_ADC_IDAC_DEFAULT);
 709:Generated_Source\PSoC4/CapSense_Structure.c ****         CapSense_dsRam.adcActiveCh = CapSense_AdcNO_CHANNEL;
 710:Generated_Source\PSoC4/CapSense_Structure.c ****     }
 711:Generated_Source\PSoC4/CapSense_Structure.c **** #endif /* (0u != CapSense_ADC_EN) */
 712:Generated_Source\PSoC4/CapSense_Structure.c **** 
 713:Generated_Source\PSoC4/CapSense_Structure.c **** 
 714:Generated_Source\PSoC4/CapSense_Structure.c **** /*******************************************************************************
 715:Generated_Source\PSoC4/CapSense_Structure.c **** * Function Name: DsParseParamId
ARM GAS  C:\Users\YUANFA~1\AppData\Local\Temp\cc9Xhnxa.s 			page 14


 716:Generated_Source\PSoC4/CapSense_Structure.c **** ****************************************************************************//**
 717:Generated_Source\PSoC4/CapSense_Structure.c **** *
 718:Generated_Source\PSoC4/CapSense_Structure.c **** * \brief
 719:Generated_Source\PSoC4/CapSense_Structure.c **** *   This function parses the parameter ID and checks its correctness.
 720:Generated_Source\PSoC4/CapSense_Structure.c **** *
 721:Generated_Source\PSoC4/CapSense_Structure.c **** * \details
 722:Generated_Source\PSoC4/CapSense_Structure.c **** *   This function checks the parameter CRC if the self-test is enabled,
 723:Generated_Source\PSoC4/CapSense_Structure.c **** *   validates the offset value and parameter type.
 724:Generated_Source\PSoC4/CapSense_Structure.c **** *
 725:Generated_Source\PSoC4/CapSense_Structure.c **** * \param paramId The parameter to parse.
 726:Generated_Source\PSoC4/CapSense_Structure.c **** * \param pData   The pointer to the structure that will hold parsed data.
 727:Generated_Source\PSoC4/CapSense_Structure.c **** *
 728:Generated_Source\PSoC4/CapSense_Structure.c **** * \return CYRET_SUCCESS     If the parameter is valid
 729:Generated_Source\PSoC4/CapSense_Structure.c **** *         CYRET_BAD_PARAM   If the parameter is invalid
 730:Generated_Source\PSoC4/CapSense_Structure.c **** *
 731:Generated_Source\PSoC4/CapSense_Structure.c **** *******************************************************************************/
 732:Generated_Source\PSoC4/CapSense_Structure.c **** static cystatus DsParseParamId(uint32 paramId, PARAM_ID_STRUCT *pData)
 733:Generated_Source\PSoC4/CapSense_Structure.c **** {
  27              		.loc 1 733 0
  28              		.cfi_startproc
  29              		@ args = 0, pretend = 0, frame = 16
  30              		@ frame_needed = 0, uses_anonymous_args = 0
  31              	.LVL0:
  32 0000 F0B5     		push	{r4, r5, r6, r7, lr}
  33              		.cfi_def_cfa_offset 20
  34              		.cfi_offset 4, -20
  35              		.cfi_offset 5, -16
  36              		.cfi_offset 6, -12
  37              		.cfi_offset 7, -8
  38              		.cfi_offset 14, -4
  39 0002 4746     		mov	r7, r8
  40 0004 80B4     		push	{r7}
  41              		.cfi_def_cfa_offset 24
  42              		.cfi_offset 8, -24
  43 0006 84B0     		sub	sp, sp, #16
  44              		.cfi_def_cfa_offset 40
  45 0008 0400     		movs	r4, r0
  46 000a 0E00     		movs	r6, r1
  47              	.LVL1:
 734:Generated_Source\PSoC4/CapSense_Structure.c ****     cystatus result = CYRET_SUCCESS;
 735:Generated_Source\PSoC4/CapSense_Structure.c **** 
 736:Generated_Source\PSoC4/CapSense_Structure.c ****     #if (0u != CapSense_SELF_TEST_EN)
 737:Generated_Source\PSoC4/CapSense_Structure.c ****         const uint8 crcTable[] =
  48              		.loc 1 737 0
  49 000c 1022     		movs	r2, #16
  50 000e 3449     		ldr	r1, .L22
  51              	.LVL2:
  52 0010 6846     		mov	r0, sp
  53              	.LVL3:
  54 0012 FFF7FEFF 		bl	memcpy
  55              	.LVL4:
 738:Generated_Source\PSoC4/CapSense_Structure.c ****         {
 739:Generated_Source\PSoC4/CapSense_Structure.c ****             0x00u, 0x09u, 0x0Bu, 0x02u, 0x0Fu, 0x06u, 0x04u, 0x0Du,
 740:Generated_Source\PSoC4/CapSense_Structure.c ****             0x07u, 0x0Eu, 0x0Cu, 0x05u, 0x08u, 0x01u, 0x03u, 0x0Au
 741:Generated_Source\PSoC4/CapSense_Structure.c ****         };
 742:Generated_Source\PSoC4/CapSense_Structure.c **** 
 743:Generated_Source\PSoC4/CapSense_Structure.c ****         uint32 i;
ARM GAS  C:\Users\YUANFA~1\AppData\Local\Temp\cc9Xhnxa.s 			page 15


 744:Generated_Source\PSoC4/CapSense_Structure.c ****         uint32 actualCrc = 0u;
 745:Generated_Source\PSoC4/CapSense_Structure.c ****         uint32 crcIndex;
 746:Generated_Source\PSoC4/CapSense_Structure.c ****     #endif /* #if (0u != CapSense_SELF_TEST_EN) */
 747:Generated_Source\PSoC4/CapSense_Structure.c **** 
 748:Generated_Source\PSoC4/CapSense_Structure.c ****     /* Extract parameter data */
 749:Generated_Source\PSoC4/CapSense_Structure.c ****     pData->offset     = LO16(paramId);
  56              		.loc 1 749 0
  57 0016 A3B2     		uxth	r3, r4
  58 0018 9C46     		mov	ip, r3
  59 001a 3380     		strh	r3, [r6]
 750:Generated_Source\PSoC4/CapSense_Structure.c ****     pData->affectsCrc = LO8((paramId & PARAM_UBIT_MASK)  >> PARAM_UBIT_OFFSET);
  60              		.loc 1 750 0
  61 001c E50D     		lsrs	r5, r4, #23
  62 001e 0123     		movs	r3, #1
  63 0020 1D40     		ands	r5, r3
  64 0022 F570     		strb	r5, [r6, #3]
 751:Generated_Source\PSoC4/CapSense_Structure.c ****     pData->widgetId   = LO8((paramId & PARAM_WDID_MASK)  >> PARAM_WDID_OFFSET);
  65              		.loc 1 751 0
  66 0024 220C     		lsrs	r2, r4, #16
  67 0026 7F27     		movs	r7, #127
  68 0028 1740     		ands	r7, r2
  69 002a B770     		strb	r7, [r6, #2]
 752:Generated_Source\PSoC4/CapSense_Structure.c ****     pData->type       = LO8((paramId & PARAM_TYPE_MASK)  >> PARAM_TYPE_OFFSET);
  70              		.loc 1 752 0
  71 002c A00F     		lsrs	r0, r4, #30
  72 002e F071     		strb	r0, [r6, #7]
 753:Generated_Source\PSoC4/CapSense_Structure.c ****     pData->flash      = LO8((paramId & PARAM_FBIT_MASK)  >> PARAM_FBIT_OFFSET);
  73              		.loc 1 753 0
  74 0030 210F     		lsrs	r1, r4, #28
  75 0032 1940     		ands	r1, r3
  76 0034 7171     		strb	r1, [r6, #5]
 754:Generated_Source\PSoC4/CapSense_Structure.c ****     pData->rw         = LO8((paramId & PARAM_RWBIT_MASK) >> PARAM_RWBIT_OFFSET);
  77              		.loc 1 754 0
  78 0036 620F     		lsrs	r2, r4, #29
  79 0038 1340     		ands	r3, r2
  80 003a 9846     		mov	r8, r3
  81 003c B371     		strb	r3, [r6, #6]
 755:Generated_Source\PSoC4/CapSense_Structure.c ****     pData->crc        = LO8((paramId & PARAM_CRC_MASK)   >> PARAM_CRC_OFFSET);
  82              		.loc 1 755 0
  83 003e 230E     		lsrs	r3, r4, #24
  84 0040 0F22     		movs	r2, #15
  85 0042 1340     		ands	r3, r2
  86 0044 3371     		strb	r3, [r6, #4]
  87              	.LVL5:
 744:Generated_Source\PSoC4/CapSense_Structure.c ****         uint32 crcIndex;
  88              		.loc 1 744 0
  89 0046 0026     		movs	r6, #0
  90              	.LVL6:
 756:Generated_Source\PSoC4/CapSense_Structure.c **** 
 757:Generated_Source\PSoC4/CapSense_Structure.c ****     /* Check parameter CRC if self-test is enabled */
 758:Generated_Source\PSoC4/CapSense_Structure.c ****     #if (0u != CapSense_SELF_TEST_EN)
 759:Generated_Source\PSoC4/CapSense_Structure.c **** 
 760:Generated_Source\PSoC4/CapSense_Structure.c ****         /* Calculate CRC for bits 0..24.
 761:Generated_Source\PSoC4/CapSense_Structure.c ****          * The CRC is calculated using nibbles (4-bits).
 762:Generated_Source\PSoC4/CapSense_Structure.c ****          * So for 0..24 bits there are in total 6 nibbles. */
 763:Generated_Source\PSoC4/CapSense_Structure.c ****         for (i = 6u; i > 0u; i--)
  91              		.loc 1 763 0
ARM GAS  C:\Users\YUANFA~1\AppData\Local\Temp\cc9Xhnxa.s 			page 16


  92 0048 093A     		subs	r2, r2, #9
  93 004a 06E0     		b	.L2
  94              	.LVL7:
  95              	.L3:
 764:Generated_Source\PSoC4/CapSense_Structure.c ****         {
 765:Generated_Source\PSoC4/CapSense_Structure.c ****             crcIndex = actualCrc ^ (paramId & 0x0Fu);
  96              		.loc 1 765 0 discriminator 3
  97 004c 0F23     		movs	r3, #15
  98 004e 2340     		ands	r3, r4
  99 0050 7340     		eors	r3, r6
 100              	.LVL8:
 766:Generated_Source\PSoC4/CapSense_Structure.c ****             actualCrc = crcTable[crcIndex];
 101              		.loc 1 766 0 discriminator 3
 102 0052 6E46     		mov	r6, sp
 103              	.LVL9:
 104 0054 F65C     		ldrb	r6, [r6, r3]
 105              	.LVL10:
 767:Generated_Source\PSoC4/CapSense_Structure.c ****             paramId >>= 4u;
 106              		.loc 1 767 0 discriminator 3
 107 0056 2409     		lsrs	r4, r4, #4
 108              	.LVL11:
 763:Generated_Source\PSoC4/CapSense_Structure.c ****         {
 109              		.loc 1 763 0 discriminator 3
 110 0058 013A     		subs	r2, r2, #1
 111              	.LVL12:
 112              	.L2:
 763:Generated_Source\PSoC4/CapSense_Structure.c ****         {
 113              		.loc 1 763 0 is_stmt 0 discriminator 1
 114 005a 002A     		cmp	r2, #0
 115 005c F6D1     		bne	.L3
 768:Generated_Source\PSoC4/CapSense_Structure.c ****         }
 769:Generated_Source\PSoC4/CapSense_Structure.c **** 
 770:Generated_Source\PSoC4/CapSense_Structure.c ****         /* Add bits 28..32 */
 771:Generated_Source\PSoC4/CapSense_Structure.c ****         crcIndex = actualCrc ^ ((paramId >> 4u) & 0x0Fu);
 116              		.loc 1 771 0 is_stmt 1
 117 005e 2309     		lsrs	r3, r4, #4
 118 0060 0F32     		adds	r2, r2, #15
 119              	.LVL13:
 120 0062 1340     		ands	r3, r2
 121 0064 7340     		eors	r3, r6
 122              	.LVL14:
 772:Generated_Source\PSoC4/CapSense_Structure.c ****         actualCrc = crcTable[crcIndex];
 123              		.loc 1 772 0
 124 0066 6E46     		mov	r6, sp
 125              	.LVL15:
 126 0068 F35C     		ldrb	r3, [r6, r3]
 127              	.LVL16:
 773:Generated_Source\PSoC4/CapSense_Structure.c **** 
 774:Generated_Source\PSoC4/CapSense_Structure.c ****         /* Add bits 24..28 (CRC) */
 775:Generated_Source\PSoC4/CapSense_Structure.c ****         crcIndex = actualCrc ^ (paramId & 0x0Fu);
 128              		.loc 1 775 0
 129 006a 1440     		ands	r4, r2
 130              	.LVL17:
 131 006c 5C40     		eors	r4, r3
 132              	.LVL18:
 776:Generated_Source\PSoC4/CapSense_Structure.c ****         actualCrc = crcTable[crcIndex];
 133              		.loc 1 776 0
ARM GAS  C:\Users\YUANFA~1\AppData\Local\Temp\cc9Xhnxa.s 			page 17


 134 006e 335D     		ldrb	r3, [r6, r4]
 135              	.LVL19:
 777:Generated_Source\PSoC4/CapSense_Structure.c **** 
 778:Generated_Source\PSoC4/CapSense_Structure.c ****         if (0u != actualCrc)
 136              		.loc 1 778 0
 137 0070 002B     		cmp	r3, #0
 138 0072 00D0     		beq	.L4
 779:Generated_Source\PSoC4/CapSense_Structure.c ****         {
 780:Generated_Source\PSoC4/CapSense_Structure.c ****             /* CRC mismatch */
 781:Generated_Source\PSoC4/CapSense_Structure.c ****             result = CYRET_BAD_PARAM;
 139              		.loc 1 781 0
 140 0074 0123     		movs	r3, #1
 141              	.LVL20:
 142              	.L4:
 782:Generated_Source\PSoC4/CapSense_Structure.c ****         }
 783:Generated_Source\PSoC4/CapSense_Structure.c **** 
 784:Generated_Source\PSoC4/CapSense_Structure.c ****         if ((CYRET_SUCCESS == result) &&
 143              		.loc 1 784 0
 144 0076 002B     		cmp	r3, #0
 145 0078 04D1     		bne	.L5
 146              		.loc 1 784 0 is_stmt 0 discriminator 1
 147 007a 002D     		cmp	r5, #0
 148 007c 02D0     		beq	.L5
 785:Generated_Source\PSoC4/CapSense_Structure.c ****             (0u != pData->affectsCrc) && (pData->widgetId >= CapSense_TOTAL_WIDGETS ))
 149              		.loc 1 785 0 is_stmt 1
 150 007e 002F     		cmp	r7, #0
 151 0080 00D0     		beq	.L5
 786:Generated_Source\PSoC4/CapSense_Structure.c ****         {
 787:Generated_Source\PSoC4/CapSense_Structure.c ****             /* Wrong widgetId for protected parameter */
 788:Generated_Source\PSoC4/CapSense_Structure.c ****             result = CYRET_BAD_PARAM;
 152              		.loc 1 788 0
 153 0082 0133     		adds	r3, r3, #1
 154              	.LVL21:
 155              	.L5:
 789:Generated_Source\PSoC4/CapSense_Structure.c ****         }
 790:Generated_Source\PSoC4/CapSense_Structure.c **** 
 791:Generated_Source\PSoC4/CapSense_Structure.c ****         /* Check offset value range */
 792:Generated_Source\PSoC4/CapSense_Structure.c ****         if (CYRET_SUCCESS == result)
 156              		.loc 1 792 0
 157 0084 002B     		cmp	r3, #0
 158 0086 10D1     		bne	.L6
 793:Generated_Source\PSoC4/CapSense_Structure.c ****         {
 794:Generated_Source\PSoC4/CapSense_Structure.c ****             if (0u == pData->flash)
 159              		.loc 1 794 0
 160 0088 0029     		cmp	r1, #0
 161 008a 03D1     		bne	.L7
 795:Generated_Source\PSoC4/CapSense_Structure.c ****             {
 796:Generated_Source\PSoC4/CapSense_Structure.c ****                 /* Check offset for RAM Data Structure range */
 797:Generated_Source\PSoC4/CapSense_Structure.c ****                 if (pData->offset >= sizeof(CapSense_dsRam))
 162              		.loc 1 797 0
 163 008c 154A     		ldr	r2, .L22+4
 164              	.LVL22:
 165 008e 9445     		cmp	ip, r2
 166 0090 08D8     		bhi	.L15
 167 0092 0AE0     		b	.L6
 168              	.LVL23:
 169              	.L7:
ARM GAS  C:\Users\YUANFA~1\AppData\Local\Temp\cc9Xhnxa.s 			page 18


 798:Generated_Source\PSoC4/CapSense_Structure.c ****                 {
 799:Generated_Source\PSoC4/CapSense_Structure.c ****                     result = CYRET_BAD_PARAM;
 800:Generated_Source\PSoC4/CapSense_Structure.c ****                 }
 801:Generated_Source\PSoC4/CapSense_Structure.c ****             }
 802:Generated_Source\PSoC4/CapSense_Structure.c ****             else
 803:Generated_Source\PSoC4/CapSense_Structure.c ****             {
 804:Generated_Source\PSoC4/CapSense_Structure.c ****                 /* Check offset for Flash Data Structure range */
 805:Generated_Source\PSoC4/CapSense_Structure.c ****                 if (pData->offset >= sizeof(CapSense_dsFlash))
 170              		.loc 1 805 0
 171 0094 6246     		mov	r2, ip
 172              	.LVL24:
 173 0096 372A     		cmp	r2, #55
 174 0098 00D9     		bls	.L8
 806:Generated_Source\PSoC4/CapSense_Structure.c ****                 {
 807:Generated_Source\PSoC4/CapSense_Structure.c ****                     result = CYRET_BAD_PARAM;
 175              		.loc 1 807 0
 176 009a 0123     		movs	r3, #1
 177              	.LVL25:
 178              	.L8:
 808:Generated_Source\PSoC4/CapSense_Structure.c ****                 }
 809:Generated_Source\PSoC4/CapSense_Structure.c **** 
 810:Generated_Source\PSoC4/CapSense_Structure.c ****                 /* Check if it is marked as Read Only */
 811:Generated_Source\PSoC4/CapSense_Structure.c ****                 if (0u != pData->rw)
 179              		.loc 1 811 0
 180 009c 4246     		mov	r2, r8
 181 009e 002A     		cmp	r2, #0
 182 00a0 02D1     		bne	.L17
 183 00a2 02E0     		b	.L6
 184              	.L15:
 799:Generated_Source\PSoC4/CapSense_Structure.c ****                 }
 185              		.loc 1 799 0
 186 00a4 0123     		movs	r3, #1
 187              	.LVL26:
 188 00a6 00E0     		b	.L6
 189              	.LVL27:
 190              	.L17:
 812:Generated_Source\PSoC4/CapSense_Structure.c ****                 {
 813:Generated_Source\PSoC4/CapSense_Structure.c ****                     result = CYRET_BAD_PARAM;
 191              		.loc 1 813 0
 192 00a8 0123     		movs	r3, #1
 193              	.LVL28:
 194              	.L6:
 814:Generated_Source\PSoC4/CapSense_Structure.c ****                 }
 815:Generated_Source\PSoC4/CapSense_Structure.c ****             }
 816:Generated_Source\PSoC4/CapSense_Structure.c ****         }
 817:Generated_Source\PSoC4/CapSense_Structure.c ****     #else /* #if (0u != CapSense_SELF_TEST_EN) */
 818:Generated_Source\PSoC4/CapSense_Structure.c ****         /* Check offset value range */
 819:Generated_Source\PSoC4/CapSense_Structure.c ****         if (0u == pData->flash)
 820:Generated_Source\PSoC4/CapSense_Structure.c ****         {
 821:Generated_Source\PSoC4/CapSense_Structure.c ****             /* Check offset for RAM Data Structure range */
 822:Generated_Source\PSoC4/CapSense_Structure.c ****             if (pData->offset >= sizeof(CapSense_dsRam))
 823:Generated_Source\PSoC4/CapSense_Structure.c ****             {
 824:Generated_Source\PSoC4/CapSense_Structure.c ****                 result = CYRET_BAD_PARAM;
 825:Generated_Source\PSoC4/CapSense_Structure.c ****             }
 826:Generated_Source\PSoC4/CapSense_Structure.c ****         }
 827:Generated_Source\PSoC4/CapSense_Structure.c ****         else
 828:Generated_Source\PSoC4/CapSense_Structure.c ****         {
ARM GAS  C:\Users\YUANFA~1\AppData\Local\Temp\cc9Xhnxa.s 			page 19


 829:Generated_Source\PSoC4/CapSense_Structure.c ****             /* Check offset for Flash Data Structure range */
 830:Generated_Source\PSoC4/CapSense_Structure.c ****             if (pData->offset >= sizeof(CapSense_dsFlash))
 831:Generated_Source\PSoC4/CapSense_Structure.c ****             {
 832:Generated_Source\PSoC4/CapSense_Structure.c ****                 result = CYRET_BAD_PARAM;
 833:Generated_Source\PSoC4/CapSense_Structure.c ****             }
 834:Generated_Source\PSoC4/CapSense_Structure.c **** 
 835:Generated_Source\PSoC4/CapSense_Structure.c ****             /* Check if it is marked as Read Only */
 836:Generated_Source\PSoC4/CapSense_Structure.c ****             if (0u != pData->rw)
 837:Generated_Source\PSoC4/CapSense_Structure.c ****             {
 838:Generated_Source\PSoC4/CapSense_Structure.c ****                 result = CYRET_BAD_PARAM;
 839:Generated_Source\PSoC4/CapSense_Structure.c ****             }
 840:Generated_Source\PSoC4/CapSense_Structure.c ****         }
 841:Generated_Source\PSoC4/CapSense_Structure.c ****     #endif /* #if (0u != CapSense_SELF_TEST_EN) */
 842:Generated_Source\PSoC4/CapSense_Structure.c **** 
 843:Generated_Source\PSoC4/CapSense_Structure.c ****     if (CYRET_SUCCESS == result)
 195              		.loc 1 843 0
 196 00aa 002B     		cmp	r3, #0
 197 00ac 13D1     		bne	.L9
 844:Generated_Source\PSoC4/CapSense_Structure.c ****     {
 845:Generated_Source\PSoC4/CapSense_Structure.c ****         /* Check parameter type, offset alignment */
 846:Generated_Source\PSoC4/CapSense_Structure.c ****         switch (pData->type)
 198              		.loc 1 846 0
 199 00ae 0228     		cmp	r0, #2
 200 00b0 04D0     		beq	.L10
 201 00b2 0328     		cmp	r0, #3
 202 00b4 06D0     		beq	.L11
 203 00b6 0128     		cmp	r0, #1
 204 00b8 08D1     		bne	.L21
 205 00ba 0CE0     		b	.L9
 206              	.L10:
 847:Generated_Source\PSoC4/CapSense_Structure.c ****         {
 848:Generated_Source\PSoC4/CapSense_Structure.c ****         case DS_PARAM_TYPE_UINT16:
 849:Generated_Source\PSoC4/CapSense_Structure.c ****             if (0u != (pData->offset & UINT16_ALIGN_MASK))
 207              		.loc 1 849 0
 208 00bc 6246     		mov	r2, ip
 209 00be D207     		lsls	r2, r2, #31
 210 00c0 06D4     		bmi	.L19
 211 00c2 08E0     		b	.L9
 212              	.L11:
 850:Generated_Source\PSoC4/CapSense_Structure.c ****             {
 851:Generated_Source\PSoC4/CapSense_Structure.c ****                 result = CYRET_BAD_PARAM;
 852:Generated_Source\PSoC4/CapSense_Structure.c ****             }
 853:Generated_Source\PSoC4/CapSense_Structure.c ****             break;
 854:Generated_Source\PSoC4/CapSense_Structure.c **** 
 855:Generated_Source\PSoC4/CapSense_Structure.c ****         case DS_PARAM_TYPE_UINT32:
 856:Generated_Source\PSoC4/CapSense_Structure.c ****             if (0u != (pData->offset & UINT32_ALIGN_MASK))
 213              		.loc 1 856 0
 214 00c4 6246     		mov	r2, ip
 215 00c6 9207     		lsls	r2, r2, #30
 216 00c8 04D1     		bne	.L20
 217 00ca 04E0     		b	.L9
 218              	.L21:
 857:Generated_Source\PSoC4/CapSense_Structure.c ****             {
 858:Generated_Source\PSoC4/CapSense_Structure.c ****                 result = CYRET_BAD_PARAM;
 859:Generated_Source\PSoC4/CapSense_Structure.c ****             }
 860:Generated_Source\PSoC4/CapSense_Structure.c ****             break;
 861:Generated_Source\PSoC4/CapSense_Structure.c **** 
ARM GAS  C:\Users\YUANFA~1\AppData\Local\Temp\cc9Xhnxa.s 			page 20


 862:Generated_Source\PSoC4/CapSense_Structure.c ****         case DS_PARAM_TYPE_UINT8:
 863:Generated_Source\PSoC4/CapSense_Structure.c ****             break;
 864:Generated_Source\PSoC4/CapSense_Structure.c **** 
 865:Generated_Source\PSoC4/CapSense_Structure.c ****         default:
 866:Generated_Source\PSoC4/CapSense_Structure.c ****             result = CYRET_BAD_PARAM;
 219              		.loc 1 866 0
 220 00cc 0123     		movs	r3, #1
 221              	.LVL29:
 222 00ce 02E0     		b	.L9
 223              	.LVL30:
 224              	.L19:
 851:Generated_Source\PSoC4/CapSense_Structure.c ****             }
 225              		.loc 1 851 0
 226 00d0 0123     		movs	r3, #1
 227              	.LVL31:
 228 00d2 00E0     		b	.L9
 229              	.LVL32:
 230              	.L20:
 858:Generated_Source\PSoC4/CapSense_Structure.c ****             }
 231              		.loc 1 858 0
 232 00d4 0123     		movs	r3, #1
 233              	.LVL33:
 234              	.L9:
 867:Generated_Source\PSoC4/CapSense_Structure.c ****             break;
 868:Generated_Source\PSoC4/CapSense_Structure.c ****         }
 869:Generated_Source\PSoC4/CapSense_Structure.c ****     }
 870:Generated_Source\PSoC4/CapSense_Structure.c **** 
 871:Generated_Source\PSoC4/CapSense_Structure.c ****     return result;
 872:Generated_Source\PSoC4/CapSense_Structure.c **** }
 235              		.loc 1 872 0
 236 00d6 1800     		movs	r0, r3
 237 00d8 04B0     		add	sp, sp, #16
 238              	.LVL34:
 239              		@ sp needed
 240              	.LVL35:
 241 00da 04BC     		pop	{r2}
 242 00dc 9046     		mov	r8, r2
 243 00de F0BD     		pop	{r4, r5, r6, r7, pc}
 244              	.L23:
 245              		.align	2
 246              	.L22:
 247 00e0 00000000 		.word	.LANCHOR0
 248 00e4 E3020000 		.word	739
 249              		.cfi_endproc
 250              	.LFE2:
 251              		.size	DsParseParamId, .-DsParseParamId
 252              		.section	.text.CapSense_DsInitialize,"ax",%progbits
 253              		.align	2
 254              		.global	CapSense_DsInitialize
 255              		.code	16
 256              		.thumb_func
 257              		.type	CapSense_DsInitialize, %function
 258              	CapSense_DsInitialize:
 259              	.LFB1:
 516:Generated_Source\PSoC4/CapSense_Structure.c ****     #if ((CapSense_ENABLE == CapSense_CSX_EN) || \
 260              		.loc 1 516 0
 261              		.cfi_startproc
ARM GAS  C:\Users\YUANFA~1\AppData\Local\Temp\cc9Xhnxa.s 			page 21


 262              		@ args = 0, pretend = 0, frame = 0
 263              		@ frame_needed = 0, uses_anonymous_args = 0
 264 0000 70B5     		push	{r4, r5, r6, lr}
 265              		.cfi_def_cfa_offset 16
 266              		.cfi_offset 4, -16
 267              		.cfi_offset 5, -12
 268              		.cfi_offset 6, -8
 269              		.cfi_offset 14, -4
 270              	.LVL36:
 537:Generated_Source\PSoC4/CapSense_Structure.c **** 
 271              		.loc 1 537 0
 272 0002 334C     		ldr	r4, .L29
 273 0004 B922     		movs	r2, #185
 274 0006 9200     		lsls	r2, r2, #2
 275 0008 0021     		movs	r1, #0
 276 000a 2000     		movs	r0, r4
 277 000c FFF7FEFF 		bl	memset
 278              	.LVL37:
 540:Generated_Source\PSoC4/CapSense_Structure.c ****     CapSense_dsRam.deviceId = CapSense_DEVICE_ID;
 279              		.loc 1 540 0
 280 0010 304B     		ldr	r3, .L29+4
 281 0012 2380     		strh	r3, [r4]
 541:Generated_Source\PSoC4/CapSense_Structure.c ****     CapSense_dsRam.hwClock = CapSense_HW_CLOCK;
 282              		.loc 1 541 0
 283 0014 9023     		movs	r3, #144
 284 0016 1B01     		lsls	r3, r3, #4
 285 0018 6380     		strh	r3, [r4, #2]
 542:Generated_Source\PSoC4/CapSense_Structure.c **** 
 286              		.loc 1 542 0
 287 001a 2F4B     		ldr	r3, .L29+8
 288 001c A380     		strh	r3, [r4, #4]
 545:Generated_Source\PSoC4/CapSense_Structure.c **** 
 289              		.loc 1 545 0
 290 001e 0A23     		movs	r3, #10
 291 0020 E383     		strh	r3, [r4, #30]
 547:Generated_Source\PSoC4/CapSense_Structure.c ****     #if (0u != CapSense_TOTAL_CSD_WIDGETS)
 292              		.loc 1 547 0
 293 0022 0322     		movs	r2, #3
 294 0024 2D4B     		ldr	r3, .L29+12
 295 0026 E254     		strb	r2, [r4, r3]
 558:Generated_Source\PSoC4/CapSense_Structure.c ****         CapSense_dsRam.scanCsxISC = CapSense_CSX_INACTIVE_SNS_CONNECTION;
 296              		.loc 1 558 0
 297 0028 0121     		movs	r1, #1
 298 002a 2023     		movs	r3, #32
 299 002c E154     		strb	r1, [r4, r3]
 572:Generated_Source\PSoC4/CapSense_Structure.c ****         CapSense_dsRam.selfTestConfig.fineInitTime = (uint8)CapSense_TST_FINE_INIT_TIME;
 300              		.loc 1 572 0
 301 002e 2C4B     		ldr	r3, .L29+16
 302 0030 6384     		strh	r3, [r4, #34]
 573:Generated_Source\PSoC4/CapSense_Structure.c ****         CapSense_dsRam.selfTestConfig.startupDelay = CapSense_TST_ANALOG_STARTUP_DELAY_US;
 303              		.loc 1 573 0
 304 0032 2C4B     		ldr	r3, .L29+20
 305 0034 0A22     		movs	r2, #10
 306 0036 E254     		strb	r2, [r4, r3]
 574:Generated_Source\PSoC4/CapSense_Structure.c **** 
 307              		.loc 1 574 0
 308 0038 1722     		movs	r2, #23
ARM GAS  C:\Users\YUANFA~1\AppData\Local\Temp\cc9Xhnxa.s 			page 22


 309 003a 2B4B     		ldr	r3, .L29+24
 310 003c E254     		strb	r2, [r4, r3]
 577:Generated_Source\PSoC4/CapSense_Structure.c ****         #endif
 311              		.loc 1 577 0
 312 003e 153A     		subs	r2, r2, #21
 313 0040 0233     		adds	r3, r3, #2
 314 0042 E254     		strb	r2, [r4, r3]
 582:Generated_Source\PSoC4/CapSense_Structure.c ****             CapSense_dsRam.selfTestConfig.snsCapSnsClkHz = CapSense_TST_SNS_CAP_SNS_CLK_HZ;
 315              		.loc 1 582 0
 316 0044 3E32     		adds	r2, r2, #62
 317 0046 183B     		subs	r3, r3, #24
 318 0048 E252     		strh	r2, [r4, r3]
 583:Generated_Source\PSoC4/CapSense_Structure.c ****             CapSense_dsRam.selfTestConfig.snsCapResolution = CapSense_TST_SNS_CAP_RESOLUTION;
 319              		.loc 1 583 0
 320 004a 284A     		ldr	r2, .L29+28
 321 004c 043B     		subs	r3, r3, #4
 322 004e E250     		str	r2, [r4, r3]
 584:Generated_Source\PSoC4/CapSense_Structure.c ****             CapSense_dsRam.selfTestConfig.snsCapVrefGain = CapSense_TST_SNS_CAP_VREF_GAIN ;
 323              		.loc 1 584 0
 324 0050 0C22     		movs	r2, #12
 325 0052 1433     		adds	r3, r3, #20
 326 0054 E254     		strb	r2, [r4, r3]
 585:Generated_Source\PSoC4/CapSense_Structure.c ****             CapSense_dsRam.selfTestConfig.snsCapVrefVoltage = CapSense_TST_SNS_CAP_VREF_MV;
 327              		.loc 1 585 0
 328 0056 1332     		adds	r2, r2, #19
 329 0058 254B     		ldr	r3, .L29+32
 330 005a E254     		strb	r2, [r4, r3]
 586:Generated_Source\PSoC4/CapSense_Structure.c ****             CapSense_dsRam.selfTestConfig.snsCapModClkDivider = CapSense_TST_MOD_CLK_DIVIDER ;
 331              		.loc 1 586 0
 332 005c 9623     		movs	r3, #150
 333 005e DB00     		lsls	r3, r3, #3
 334 0060 2448     		ldr	r0, .L29+36
 335 0062 2352     		strh	r3, [r4, r0]
 587:Generated_Source\PSoC4/CapSense_Structure.c ****             CapSense_dsRam.selfTestConfig.snsCapModClkKHz = CapSense_TST_MOD_CLK_KHZ ;
 336              		.loc 1 587 0
 337 0064 0238     		subs	r0, r0, #2
 338 0066 2152     		strh	r1, [r4, r0]
 588:Generated_Source\PSoC4/CapSense_Structure.c ****         #endif /* ((0u != CapSense_TST_SNS_CAP_EN) ||
 339              		.loc 1 588 0
 340 0068 2348     		ldr	r0, .L29+40
 341 006a 2449     		ldr	r1, .L29+44
 342 006c 6052     		strh	r0, [r4, r1]
 608:Generated_Source\PSoC4/CapSense_Structure.c ****             CapSense_dsRam.selfTestConfig.extCapVrefVoltage = CapSense_TST_EXT_CAP_VREF_MV;
 343              		.loc 1 608 0
 344 006e 2449     		ldr	r1, .L29+48
 345 0070 6254     		strb	r2, [r4, r1]
 609:Generated_Source\PSoC4/CapSense_Structure.c ****         #endif /* #if (0u != CapSense_TST_EXTERNAL_CAP_EN) */
 346              		.loc 1 609 0
 347 0072 244A     		ldr	r2, .L29+52
 348 0074 A352     		strh	r3, [r4, r2]
 613:Generated_Source\PSoC4/CapSense_Structure.c ****             CapSense_dsRam.selfTestConfig.vddaModClkDivider = CapSense_TST_VDDA_MOD_CLK_DIVIDER;
 349              		.loc 1 613 0
 350 0076 244B     		ldr	r3, .L29+56
 351 0078 0A22     		movs	r2, #10
 352 007a E254     		strb	r2, [r4, r3]
 614:Generated_Source\PSoC4/CapSense_Structure.c **** 
 353              		.loc 1 614 0
ARM GAS  C:\Users\YUANFA~1\AppData\Local\Temp\cc9Xhnxa.s 			page 23


 354 007c 023B     		subs	r3, r3, #2
 355 007e 0122     		movs	r2, #1
 356 0080 E254     		strb	r2, [r4, r3]
 616:Generated_Source\PSoC4/CapSense_Structure.c ****             CapSense_dsRam.selfTestConfig.vddaVrefVoltage = CapSense_TST_VDDA_VREF_MV;
 357              		.loc 1 616 0
 358 0082 1222     		movs	r2, #18
 359 0084 214B     		ldr	r3, .L29+60
 360 0086 E254     		strb	r2, [r4, r3]
 617:Generated_Source\PSoC4/CapSense_Structure.c ****         #endif /* #if (0u != CapSense_TST_VDDA_EN) */
 361              		.loc 1 617 0
 362 0088 214A     		ldr	r2, .L29+64
 363 008a 053B     		subs	r3, r3, #5
 364 008c E252     		strh	r2, [r4, r3]
 623:Generated_Source\PSoC4/CapSense_Structure.c **** 
 365              		.loc 1 623 0
 366 008e 2149     		ldr	r1, .L29+68
 367 0090 2434     		adds	r4, r4, #36
 368 0092 0B00     		movs	r3, r1
 369 0094 7833     		adds	r3, r3, #120
 370 0096 25CB     		ldmia	r3!, {r0, r2, r5}
 371 0098 25C4     		stmia	r4!, {r0, r2, r5}
 372 009a 25CB     		ldmia	r3!, {r0, r2, r5}
 373 009c 25C4     		stmia	r4!, {r0, r2, r5}
 374 009e 1B68     		ldr	r3, [r3]
 375 00a0 2360     		str	r3, [r4]
 376              	.LVL38:
 533:Generated_Source\PSoC4/CapSense_Structure.c ****     #endif
 377              		.loc 1 533 0
 378 00a2 0A00     		movs	r2, r1
 379 00a4 1032     		adds	r2, r2, #16
 640:Generated_Source\PSoC4/CapSense_Structure.c **** 
 380              		.loc 1 640 0
 381 00a6 4031     		adds	r1, r1, #64
 382 00a8 0C00     		movs	r4, r1
 642:Generated_Source\PSoC4/CapSense_Structure.c ****         {
 383              		.loc 1 642 0
 384 00aa 0123     		movs	r3, #1
 385 00ac 0CE0     		b	.L25
 386              	.LVL39:
 387              	.L28:
 644:Generated_Source\PSoC4/CapSense_Structure.c **** 
 388              		.loc 1 644 0
 389 00ae A168     		ldr	r1, [r4, #8]
 390              	.LVL40:
 646:Generated_Source\PSoC4/CapSense_Structure.c ****             {
 391              		.loc 1 646 0
 392 00b0 238B     		ldrh	r3, [r4, #24]
 393              	.LVL41:
 394 00b2 04E0     		b	.L26
 395              	.LVL42:
 396              	.L27:
 648:Generated_Source\PSoC4/CapSense_Structure.c ****                 ptrIdacInit++;
 397              		.loc 1 648 0
 398 00b4 1378     		ldrb	r3, [r2]
 399 00b6 CB72     		strb	r3, [r1, #11]
 649:Generated_Source\PSoC4/CapSense_Structure.c **** 
 400              		.loc 1 649 0
ARM GAS  C:\Users\YUANFA~1\AppData\Local\Temp\cc9Xhnxa.s 			page 24


 401 00b8 0132     		adds	r2, r2, #1
 402              	.LVL43:
 659:Generated_Source\PSoC4/CapSense_Structure.c ****             }
 403              		.loc 1 659 0
 404 00ba 0C31     		adds	r1, r1, #12
 405              	.LVL44:
 646:Generated_Source\PSoC4/CapSense_Structure.c ****             {
 406              		.loc 1 646 0
 407 00bc 0300     		movs	r3, r0
 408              	.LVL45:
 409              	.L26:
 646:Generated_Source\PSoC4/CapSense_Structure.c ****             {
 410              		.loc 1 646 0 is_stmt 0 discriminator 1
 411 00be 581E     		subs	r0, r3, #1
 412              	.LVL46:
 413 00c0 002B     		cmp	r3, #0
 414 00c2 F7D1     		bne	.L27
 662:Generated_Source\PSoC4/CapSense_Structure.c ****         }
 415              		.loc 1 662 0 is_stmt 1
 416 00c4 3834     		adds	r4, r4, #56
 417              	.LVL47:
 642:Generated_Source\PSoC4/CapSense_Structure.c ****         {
 418              		.loc 1 642 0
 419 00c6 2B00     		movs	r3, r5
 420              	.LVL48:
 421              	.L25:
 642:Generated_Source\PSoC4/CapSense_Structure.c ****         {
 422              		.loc 1 642 0 is_stmt 0 discriminator 1
 423 00c8 5D1E     		subs	r5, r3, #1
 424              	.LVL49:
 425 00ca 002B     		cmp	r3, #0
 426 00cc EFD1     		bne	.L28
 693:Generated_Source\PSoC4/CapSense_Structure.c **** 
 427              		.loc 1 693 0 is_stmt 1
 428              		@ sp needed
 429              	.LVL50:
 430              	.LVL51:
 431 00ce 70BD     		pop	{r4, r5, r6, pc}
 432              	.L30:
 433              		.align	2
 434              	.L29:
 435 00d0 00000000 		.word	CapSense_dsRam
 436 00d4 06BAFFFF 		.word	-17914
 437 00d8 B80B0000 		.word	3000
 438 00dc E3020000 		.word	739
 439 00e0 BE84FFFF 		.word	-31554
 440 00e4 8F020000 		.word	655
 441 00e8 8E020000 		.word	654
 442 00ec D8B80500 		.word	375000
 443 00f0 89020000 		.word	649
 444 00f4 7E020000 		.word	638
 445 00f8 C05D0000 		.word	24000
 446 00fc 7A020000 		.word	634
 447 0100 8D020000 		.word	653
 448 0104 82020000 		.word	642
 449 0108 86020000 		.word	646
 450 010c 85020000 		.word	645
ARM GAS  C:\Users\YUANFA~1\AppData\Local\Temp\cc9Xhnxa.s 			page 25


 451 0110 E5070000 		.word	2021
 452 0114 00000000 		.word	.LANCHOR0
 453              		.cfi_endproc
 454              	.LFE1:
 455              		.size	CapSense_DsInitialize, .-CapSense_DsInitialize
 456              		.section	.text.CapSense_GetParam,"ax",%progbits
 457              		.align	2
 458              		.global	CapSense_GetParam
 459              		.code	16
 460              		.thumb_func
 461              		.type	CapSense_GetParam, %function
 462              	CapSense_GetParam:
 463              	.LFB3:
 873:Generated_Source\PSoC4/CapSense_Structure.c **** 
 874:Generated_Source\PSoC4/CapSense_Structure.c **** /*******************************************************************************
 875:Generated_Source\PSoC4/CapSense_Structure.c **** * Function Name: CapSense_GetParam
 876:Generated_Source\PSoC4/CapSense_Structure.c **** ****************************************************************************//**
 877:Generated_Source\PSoC4/CapSense_Structure.c **** *
 878:Generated_Source\PSoC4/CapSense_Structure.c **** * \brief
 879:Generated_Source\PSoC4/CapSense_Structure.c **** *  Gets the specified parameter value from the \ref group_structures.
 880:Generated_Source\PSoC4/CapSense_Structure.c **** *
 881:Generated_Source\PSoC4/CapSense_Structure.c **** * \details
 882:Generated_Source\PSoC4/CapSense_Structure.c **** *  This function gets the value of the specified parameter by the paramId
 883:Generated_Source\PSoC4/CapSense_Structure.c **** *  argument. The paramId for each register is available in the
 884:Generated_Source\PSoC4/CapSense_Structure.c **** *  CapSense RegisterMap header file as
 885:Generated_Source\PSoC4/CapSense_Structure.c **** *  CapSense_<ParameterName>_PARAM_ID. The paramId is a special
 886:Generated_Source\PSoC4/CapSense_Structure.c **** *  enumerated value generated by the customizer. The format of paramId is as
 887:Generated_Source\PSoC4/CapSense_Structure.c **** *  follows:
 888:Generated_Source\PSoC4/CapSense_Structure.c **** *    1. [ byte 3 byte 2 byte 1 byte 0 ]
 889:Generated_Source\PSoC4/CapSense_Structure.c **** *    2. [ TTWFCCCC UIIIIIII MMMMMMMM LLLLLLLL ]
 890:Generated_Source\PSoC4/CapSense_Structure.c **** *    3. T - encodes the parameter type:
 891:Generated_Source\PSoC4/CapSense_Structure.c **** *      - 01b: uint8
 892:Generated_Source\PSoC4/CapSense_Structure.c **** *      - 10b: uint16
 893:Generated_Source\PSoC4/CapSense_Structure.c **** *      - 11b: uint32
 894:Generated_Source\PSoC4/CapSense_Structure.c **** *    4. W - indicates whether the parameter is writable:
 895:Generated_Source\PSoC4/CapSense_Structure.c **** *      - 0: ReadOnly
 896:Generated_Source\PSoC4/CapSense_Structure.c **** *      - 1: Read/Write
 897:Generated_Source\PSoC4/CapSense_Structure.c **** *    5. C - 4 bit CRC (X^3 + 1) of the whole paramId word, the C bits are
 898:Generated_Source\PSoC4/CapSense_Structure.c **** *       filled with 0s when the CRC is calculated.
 899:Generated_Source\PSoC4/CapSense_Structure.c **** *    6. U - indicates if the parameter affects the RAM Widget Object CRC.
 900:Generated_Source\PSoC4/CapSense_Structure.c **** *    7. I - specifies that the widgetId parameter belongs to
 901:Generated_Source\PSoC4/CapSense_Structure.c **** *    8. M,L - the parameter offset MSB and LSB accordingly in:
 902:Generated_Source\PSoC4/CapSense_Structure.c **** *      - Flash Data Structure if W bit is 0.
 903:Generated_Source\PSoC4/CapSense_Structure.c **** *      - RAM Data Structure if W bit is 1.
 904:Generated_Source\PSoC4/CapSense_Structure.c **** *
 905:Generated_Source\PSoC4/CapSense_Structure.c **** *  Refer to the \ref group_structures section for details of the data structure
 906:Generated_Source\PSoC4/CapSense_Structure.c **** *  organization and examples of its register access.
 907:Generated_Source\PSoC4/CapSense_Structure.c **** *
 908:Generated_Source\PSoC4/CapSense_Structure.c **** * \param paramId
 909:Generated_Source\PSoC4/CapSense_Structure.c **** *  Specifies the ID of parameter to get its value.
 910:Generated_Source\PSoC4/CapSense_Structure.c **** *  A macro for the parameter ID can be found in the CapSense RegisterMap header
 911:Generated_Source\PSoC4/CapSense_Structure.c **** *  file defined as CapSense_<ParameterName>_PARAM_ID.
 912:Generated_Source\PSoC4/CapSense_Structure.c **** *
 913:Generated_Source\PSoC4/CapSense_Structure.c **** * \param value
 914:Generated_Source\PSoC4/CapSense_Structure.c **** *  The pointer to a variable to be updated with the obtained value.
 915:Generated_Source\PSoC4/CapSense_Structure.c **** *
 916:Generated_Source\PSoC4/CapSense_Structure.c **** * \return
ARM GAS  C:\Users\YUANFA~1\AppData\Local\Temp\cc9Xhnxa.s 			page 26


 917:Generated_Source\PSoC4/CapSense_Structure.c **** *  Returns the status of the operation:
 918:Generated_Source\PSoC4/CapSense_Structure.c **** *    - CYRET_SUCCESS - The operation is successfully completed.
 919:Generated_Source\PSoC4/CapSense_Structure.c **** *    - CYRET_BAD_PARAM - The input parameter is invalid.
 920:Generated_Source\PSoC4/CapSense_Structure.c **** *
 921:Generated_Source\PSoC4/CapSense_Structure.c **** *******************************************************************************/
 922:Generated_Source\PSoC4/CapSense_Structure.c **** cystatus CapSense_GetParam(uint32 paramId, uint32 *value)
 923:Generated_Source\PSoC4/CapSense_Structure.c **** {
 464              		.loc 1 923 0
 465              		.cfi_startproc
 466              		@ args = 0, pretend = 0, frame = 8
 467              		@ frame_needed = 0, uses_anonymous_args = 0
 468              	.LVL52:
 469 0000 30B5     		push	{r4, r5, lr}
 470              		.cfi_def_cfa_offset 12
 471              		.cfi_offset 4, -12
 472              		.cfi_offset 5, -8
 473              		.cfi_offset 14, -4
 474 0002 83B0     		sub	sp, sp, #12
 475              		.cfi_def_cfa_offset 24
 476 0004 0D00     		movs	r5, r1
 924:Generated_Source\PSoC4/CapSense_Structure.c ****     PARAM_ID_STRUCT pData;
 925:Generated_Source\PSoC4/CapSense_Structure.c ****     cystatus result;
 926:Generated_Source\PSoC4/CapSense_Structure.c **** 
 927:Generated_Source\PSoC4/CapSense_Structure.c ****     union
 928:Generated_Source\PSoC4/CapSense_Structure.c ****     {
 929:Generated_Source\PSoC4/CapSense_Structure.c ****         volatile void   const * ptr;
 930:Generated_Source\PSoC4/CapSense_Structure.c ****         volatile uint8  const * ptrUint8;
 931:Generated_Source\PSoC4/CapSense_Structure.c ****         volatile uint16 const * ptrUint16;
 932:Generated_Source\PSoC4/CapSense_Structure.c ****         volatile uint32 const * ptrUint32;
 933:Generated_Source\PSoC4/CapSense_Structure.c ****     } ptrData;
 934:Generated_Source\PSoC4/CapSense_Structure.c **** 
 935:Generated_Source\PSoC4/CapSense_Structure.c ****     result = DsParseParamId(paramId, &pData);
 477              		.loc 1 935 0
 478 0006 6946     		mov	r1, sp
 479              	.LVL53:
 480 0008 FFF7FEFF 		bl	DsParseParamId
 481              	.LVL54:
 482 000c 041E     		subs	r4, r0, #0
 483              	.LVL55:
 936:Generated_Source\PSoC4/CapSense_Structure.c **** 
 937:Generated_Source\PSoC4/CapSense_Structure.c ****     /* Parse and validate paramId */
 938:Generated_Source\PSoC4/CapSense_Structure.c ****     if (CYRET_SUCCESS == result)
 484              		.loc 1 938 0
 485 000e 1FD1     		bne	.L32
 939:Generated_Source\PSoC4/CapSense_Structure.c ****     {
 940:Generated_Source\PSoC4/CapSense_Structure.c ****         /* Get base address of parameter */
 941:Generated_Source\PSoC4/CapSense_Structure.c ****         if (0u == pData.flash)
 486              		.loc 1 941 0
 487 0010 6B46     		mov	r3, sp
 488 0012 5B79     		ldrb	r3, [r3, #5]
 489 0014 002B     		cmp	r3, #0
 490 0016 01D1     		bne	.L33
 942:Generated_Source\PSoC4/CapSense_Structure.c ****         {
 943:Generated_Source\PSoC4/CapSense_Structure.c ****             ptrData.ptr = &CapSense_dsRam;
 491              		.loc 1 943 0
 492 0018 0F4A     		ldr	r2, .L38
 493              	.LVL56:
ARM GAS  C:\Users\YUANFA~1\AppData\Local\Temp\cc9Xhnxa.s 			page 27


 494 001a 02E0     		b	.L34
 495              	.L33:
 944:Generated_Source\PSoC4/CapSense_Structure.c ****         }
 945:Generated_Source\PSoC4/CapSense_Structure.c ****         else
 946:Generated_Source\PSoC4/CapSense_Structure.c ****         {
 947:Generated_Source\PSoC4/CapSense_Structure.c ****             ptrData.ptr = &CapSense_dsFlash;
 496              		.loc 1 947 0
 497 001c 0F4B     		ldr	r3, .L38+4
 498 001e 4033     		adds	r3, r3, #64
 499 0020 1A00     		movs	r2, r3
 500              	.L34:
 948:Generated_Source\PSoC4/CapSense_Structure.c ****         }
 949:Generated_Source\PSoC4/CapSense_Structure.c **** 
 950:Generated_Source\PSoC4/CapSense_Structure.c ****         /* Add offset to base address */
 951:Generated_Source\PSoC4/CapSense_Structure.c ****         ptrData.ptrUint8 += pData.offset;
 501              		.loc 1 951 0
 502 0022 6B46     		mov	r3, sp
 503 0024 1B88     		ldrh	r3, [r3]
 504              	.LVL57:
 505 0026 D318     		adds	r3, r2, r3
 952:Generated_Source\PSoC4/CapSense_Structure.c **** 
 953:Generated_Source\PSoC4/CapSense_Structure.c ****         /* Read data */
 954:Generated_Source\PSoC4/CapSense_Structure.c ****         if (DS_PARAM_TYPE_UINT8 == pData.type)
 506              		.loc 1 954 0
 507 0028 6A46     		mov	r2, sp
 508              	.LVL58:
 509 002a D279     		ldrb	r2, [r2, #7]
 510 002c 012A     		cmp	r2, #1
 511 002e 02D1     		bne	.L35
 955:Generated_Source\PSoC4/CapSense_Structure.c ****         {
 956:Generated_Source\PSoC4/CapSense_Structure.c ****             *value = (uint32) (*ptrData.ptrUint8);
 512              		.loc 1 956 0
 513 0030 1B78     		ldrb	r3, [r3]
 514 0032 2B60     		str	r3, [r5]
 515 0034 0CE0     		b	.L32
 516              	.L35:
 957:Generated_Source\PSoC4/CapSense_Structure.c ****         }
 958:Generated_Source\PSoC4/CapSense_Structure.c ****         else if (DS_PARAM_TYPE_UINT16 == pData.type)
 517              		.loc 1 958 0
 518 0036 022A     		cmp	r2, #2
 519 0038 02D1     		bne	.L36
 959:Generated_Source\PSoC4/CapSense_Structure.c ****         {
 960:Generated_Source\PSoC4/CapSense_Structure.c ****             *value = (uint32) (*ptrData.ptrUint16);
 520              		.loc 1 960 0
 521 003a 1B88     		ldrh	r3, [r3]
 522 003c 2B60     		str	r3, [r5]
 523 003e 07E0     		b	.L32
 524              	.L36:
 961:Generated_Source\PSoC4/CapSense_Structure.c ****         }
 962:Generated_Source\PSoC4/CapSense_Structure.c ****         else if (DS_PARAM_TYPE_UINT32 == pData.type)
 525              		.loc 1 962 0
 526 0040 032A     		cmp	r2, #3
 527 0042 02D1     		bne	.L37
 963:Generated_Source\PSoC4/CapSense_Structure.c ****         {
 964:Generated_Source\PSoC4/CapSense_Structure.c ****             *value = *ptrData.ptrUint32;
 528              		.loc 1 964 0
 529 0044 1B68     		ldr	r3, [r3]
ARM GAS  C:\Users\YUANFA~1\AppData\Local\Temp\cc9Xhnxa.s 			page 28


 530 0046 2B60     		str	r3, [r5]
 531 0048 02E0     		b	.L32
 532              	.L37:
 965:Generated_Source\PSoC4/CapSense_Structure.c ****         }
 966:Generated_Source\PSoC4/CapSense_Structure.c ****         else
 967:Generated_Source\PSoC4/CapSense_Structure.c ****         {
 968:Generated_Source\PSoC4/CapSense_Structure.c ****             /* Parameter comes here already validated. */
 969:Generated_Source\PSoC4/CapSense_Structure.c ****             CYASSERT(0u);
 533              		.loc 1 969 0 discriminator 1
 534 004a 0020     		movs	r0, #0
 535              	.LVL59:
 536 004c FFF7FEFF 		bl	CyHalt
 537              	.LVL60:
 538              	.L32:
 970:Generated_Source\PSoC4/CapSense_Structure.c ****         }
 971:Generated_Source\PSoC4/CapSense_Structure.c ****     }
 972:Generated_Source\PSoC4/CapSense_Structure.c **** 
 973:Generated_Source\PSoC4/CapSense_Structure.c ****     return result;
 974:Generated_Source\PSoC4/CapSense_Structure.c **** }
 539              		.loc 1 974 0
 540 0050 2000     		movs	r0, r4
 541 0052 03B0     		add	sp, sp, #12
 542              		@ sp needed
 543              	.LVL61:
 544              	.LVL62:
 545 0054 30BD     		pop	{r4, r5, pc}
 546              	.L39:
 547 0056 C046     		.align	2
 548              	.L38:
 549 0058 00000000 		.word	CapSense_dsRam
 550 005c 00000000 		.word	.LANCHOR0
 551              		.cfi_endproc
 552              	.LFE3:
 553              		.size	CapSense_GetParam, .-CapSense_GetParam
 554              		.section	.text.CapSense_SetParam,"ax",%progbits
 555              		.align	2
 556              		.global	CapSense_SetParam
 557              		.code	16
 558              		.thumb_func
 559              		.type	CapSense_SetParam, %function
 560              	CapSense_SetParam:
 561              	.LFB4:
 975:Generated_Source\PSoC4/CapSense_Structure.c **** 
 976:Generated_Source\PSoC4/CapSense_Structure.c **** 
 977:Generated_Source\PSoC4/CapSense_Structure.c **** /*******************************************************************************
 978:Generated_Source\PSoC4/CapSense_Structure.c **** * Function Name: CapSense_SetParam
 979:Generated_Source\PSoC4/CapSense_Structure.c **** ****************************************************************************//**
 980:Generated_Source\PSoC4/CapSense_Structure.c **** *
 981:Generated_Source\PSoC4/CapSense_Structure.c **** * \brief
 982:Generated_Source\PSoC4/CapSense_Structure.c **** *  Sets a new value for the specified parameter in the \ref group_structures.
 983:Generated_Source\PSoC4/CapSense_Structure.c **** *
 984:Generated_Source\PSoC4/CapSense_Structure.c **** * \details
 985:Generated_Source\PSoC4/CapSense_Structure.c **** *  This function sets the value of the specified parameter by the paramId
 986:Generated_Source\PSoC4/CapSense_Structure.c **** *  argument. The paramId for each register is available in the
 987:Generated_Source\PSoC4/CapSense_Structure.c **** *  CapSense RegisterMap header file as
 988:Generated_Source\PSoC4/CapSense_Structure.c **** *  CapSense_<ParameterName>_PARAM_ID. The paramId is a special
 989:Generated_Source\PSoC4/CapSense_Structure.c **** *  enumerated value generated by the customizer. The format of paramId is as
ARM GAS  C:\Users\YUANFA~1\AppData\Local\Temp\cc9Xhnxa.s 			page 29


 990:Generated_Source\PSoC4/CapSense_Structure.c **** *  follows:
 991:Generated_Source\PSoC4/CapSense_Structure.c **** *    1. [ byte 3 byte 2 byte 1 byte 0 ]
 992:Generated_Source\PSoC4/CapSense_Structure.c **** *    2. [ TTWFCCCC UIIIIIII MMMMMMMM LLLLLLLL ]
 993:Generated_Source\PSoC4/CapSense_Structure.c **** *    3. T - encodes the parameter type:
 994:Generated_Source\PSoC4/CapSense_Structure.c **** *      - 01b: uint8
 995:Generated_Source\PSoC4/CapSense_Structure.c **** *      - 10b: uint16
 996:Generated_Source\PSoC4/CapSense_Structure.c **** *      - 11b: uint32
 997:Generated_Source\PSoC4/CapSense_Structure.c **** *    4. W - indicates whether the parameter is writable:
 998:Generated_Source\PSoC4/CapSense_Structure.c **** *      - 0: ReadOnly
 999:Generated_Source\PSoC4/CapSense_Structure.c **** *      - 1: Read/Write
1000:Generated_Source\PSoC4/CapSense_Structure.c **** *    5. C - 4 bit CRC (X^3 + 1) of the whole paramId word, the C bits are
1001:Generated_Source\PSoC4/CapSense_Structure.c **** *       filled with 0s when the CRC is calculated.
1002:Generated_Source\PSoC4/CapSense_Structure.c **** *    6. U - indicates if the parameter affects the RAM Widget Object CRC.
1003:Generated_Source\PSoC4/CapSense_Structure.c **** *    7. I - specifies that the widgetId parameter belongs to
1004:Generated_Source\PSoC4/CapSense_Structure.c **** *    8. M,L - the parameter offset MSB and LSB accordingly in:
1005:Generated_Source\PSoC4/CapSense_Structure.c **** *      - Flash Data Structure if W bit is 0.
1006:Generated_Source\PSoC4/CapSense_Structure.c **** *      - RAM Data Structure if W bit is 1.
1007:Generated_Source\PSoC4/CapSense_Structure.c **** *
1008:Generated_Source\PSoC4/CapSense_Structure.c **** *  Refer to the \ref group_structures section for details of the data structure
1009:Generated_Source\PSoC4/CapSense_Structure.c **** *  organization and examples of its register access.
1010:Generated_Source\PSoC4/CapSense_Structure.c **** *
1011:Generated_Source\PSoC4/CapSense_Structure.c **** *  This function writes specified value into the desired register without
1012:Generated_Source\PSoC4/CapSense_Structure.c **** *  other registers update. It is application layer responsibility to keep all
1013:Generated_Source\PSoC4/CapSense_Structure.c **** *  the data structure registers aligned. Repeated call of
1014:Generated_Source\PSoC4/CapSense_Structure.c **** *  CapSense_Start() function helps aligning dependent register values.
1015:Generated_Source\PSoC4/CapSense_Structure.c **** *
1016:Generated_Source\PSoC4/CapSense_Structure.c **** * \param paramId
1017:Generated_Source\PSoC4/CapSense_Structure.c **** *  Specifies the ID of parameter to set its value.
1018:Generated_Source\PSoC4/CapSense_Structure.c **** *  A macro for the parameter ID can be found in the CapSense RegisterMap header
1019:Generated_Source\PSoC4/CapSense_Structure.c **** *  file defined as CapSense_<ParameterName>_PARAM_ID.
1020:Generated_Source\PSoC4/CapSense_Structure.c **** 
1021:Generated_Source\PSoC4/CapSense_Structure.c **** * \param value
1022:Generated_Source\PSoC4/CapSense_Structure.c **** *  Specifies the new parameter's value.
1023:Generated_Source\PSoC4/CapSense_Structure.c **** *
1024:Generated_Source\PSoC4/CapSense_Structure.c **** * \return
1025:Generated_Source\PSoC4/CapSense_Structure.c **** *  Returns the status of the operation:
1026:Generated_Source\PSoC4/CapSense_Structure.c **** *    - CYRET_SUCCESS - The operation is successfully completed.
1027:Generated_Source\PSoC4/CapSense_Structure.c **** *    - CYRET_BAD_PARAM - The input parameter is invalid.
1028:Generated_Source\PSoC4/CapSense_Structure.c **** *
1029:Generated_Source\PSoC4/CapSense_Structure.c **** *******************************************************************************/
1030:Generated_Source\PSoC4/CapSense_Structure.c **** cystatus CapSense_SetParam(uint32 paramId, uint32 value)
1031:Generated_Source\PSoC4/CapSense_Structure.c **** {
 562              		.loc 1 1031 0
 563              		.cfi_startproc
 564              		@ args = 0, pretend = 0, frame = 8
 565              		@ frame_needed = 0, uses_anonymous_args = 0
 566              	.LVL63:
 567 0000 70B5     		push	{r4, r5, r6, lr}
 568              		.cfi_def_cfa_offset 16
 569              		.cfi_offset 4, -16
 570              		.cfi_offset 5, -12
 571              		.cfi_offset 6, -8
 572              		.cfi_offset 14, -4
 573 0002 82B0     		sub	sp, sp, #8
 574              		.cfi_def_cfa_offset 24
 575 0004 0E00     		movs	r6, r1
1032:Generated_Source\PSoC4/CapSense_Structure.c ****     cystatus result;
ARM GAS  C:\Users\YUANFA~1\AppData\Local\Temp\cc9Xhnxa.s 			page 30


1033:Generated_Source\PSoC4/CapSense_Structure.c ****     PARAM_ID_STRUCT pData;
1034:Generated_Source\PSoC4/CapSense_Structure.c **** 
1035:Generated_Source\PSoC4/CapSense_Structure.c ****     union
1036:Generated_Source\PSoC4/CapSense_Structure.c ****     {
1037:Generated_Source\PSoC4/CapSense_Structure.c ****         volatile void   * ptr;
1038:Generated_Source\PSoC4/CapSense_Structure.c ****         volatile uint8  * ptrUint8;
1039:Generated_Source\PSoC4/CapSense_Structure.c ****         volatile uint16 * ptrUint16;
1040:Generated_Source\PSoC4/CapSense_Structure.c ****         volatile uint32 * ptrUint32;
1041:Generated_Source\PSoC4/CapSense_Structure.c ****     } ptrData;
1042:Generated_Source\PSoC4/CapSense_Structure.c **** 
1043:Generated_Source\PSoC4/CapSense_Structure.c ****     result = DsParseParamId(paramId, &pData);
 576              		.loc 1 1043 0
 577 0006 6946     		mov	r1, sp
 578              	.LVL64:
 579 0008 FFF7FEFF 		bl	DsParseParamId
 580              	.LVL65:
 581 000c 041E     		subs	r4, r0, #0
 582              	.LVL66:
1044:Generated_Source\PSoC4/CapSense_Structure.c **** 
1045:Generated_Source\PSoC4/CapSense_Structure.c ****     /* verify if parameter is writable */
1046:Generated_Source\PSoC4/CapSense_Structure.c ****     if (CYRET_SUCCESS == result)
 583              		.loc 1 1046 0
 584 000e 04D1     		bne	.L41
1047:Generated_Source\PSoC4/CapSense_Structure.c ****     {
1048:Generated_Source\PSoC4/CapSense_Structure.c ****         if (0u == pData.rw)
 585              		.loc 1 1048 0
 586 0010 6B46     		mov	r3, sp
 587 0012 9B79     		ldrb	r3, [r3, #6]
 588 0014 002B     		cmp	r3, #0
 589 0016 00D1     		bne	.L41
1049:Generated_Source\PSoC4/CapSense_Structure.c ****         {
1050:Generated_Source\PSoC4/CapSense_Structure.c ****             result = CYRET_BAD_PARAM;
 590              		.loc 1 1050 0
 591 0018 0134     		adds	r4, r4, #1
 592              	.L41:
 593              	.LVL67:
1051:Generated_Source\PSoC4/CapSense_Structure.c ****         }
1052:Generated_Source\PSoC4/CapSense_Structure.c ****     }
1053:Generated_Source\PSoC4/CapSense_Structure.c **** 
1054:Generated_Source\PSoC4/CapSense_Structure.c ****     /* Parse and validate paramId */
1055:Generated_Source\PSoC4/CapSense_Structure.c ****     if (CYRET_SUCCESS == result)
 594              		.loc 1 1055 0
 595 001a 002C     		cmp	r4, #0
 596 001c 27D1     		bne	.L42
1056:Generated_Source\PSoC4/CapSense_Structure.c ****     {
1057:Generated_Source\PSoC4/CapSense_Structure.c ****         /* Get base address of parameter */
1058:Generated_Source\PSoC4/CapSense_Structure.c ****         ptrData.ptr = &CapSense_dsRam;
1059:Generated_Source\PSoC4/CapSense_Structure.c **** 
1060:Generated_Source\PSoC4/CapSense_Structure.c ****         /* Add offset to base address */
1061:Generated_Source\PSoC4/CapSense_Structure.c ****         ptrData.ptrUint8 += pData.offset;
 597              		.loc 1 1061 0
 598 001e 6B46     		mov	r3, sp
 599 0020 1D88     		ldrh	r5, [r3]
 600 0022 144B     		ldr	r3, .L49
 601 0024 ED18     		adds	r5, r5, r3
1062:Generated_Source\PSoC4/CapSense_Structure.c **** 
1063:Generated_Source\PSoC4/CapSense_Structure.c ****         /* Write data */
ARM GAS  C:\Users\YUANFA~1\AppData\Local\Temp\cc9Xhnxa.s 			page 31


1064:Generated_Source\PSoC4/CapSense_Structure.c ****         if (DS_PARAM_TYPE_UINT8 == pData.type)
 602              		.loc 1 1064 0
 603 0026 6B46     		mov	r3, sp
 604 0028 DB79     		ldrb	r3, [r3, #7]
 605 002a 012B     		cmp	r3, #1
 606 002c 02D1     		bne	.L43
1065:Generated_Source\PSoC4/CapSense_Structure.c ****         {
1066:Generated_Source\PSoC4/CapSense_Structure.c ****             *ptrData.ptrUint8 = LO8(value);
 607              		.loc 1 1066 0
 608 002e F6B2     		uxtb	r6, r6
 609              	.LVL68:
 610 0030 2E70     		strb	r6, [r5]
 611 0032 0BE0     		b	.L44
 612              	.LVL69:
 613              	.L43:
1067:Generated_Source\PSoC4/CapSense_Structure.c ****         }
1068:Generated_Source\PSoC4/CapSense_Structure.c ****         else if (DS_PARAM_TYPE_UINT16 == pData.type)
 614              		.loc 1 1068 0
 615 0034 022B     		cmp	r3, #2
 616 0036 02D1     		bne	.L45
1069:Generated_Source\PSoC4/CapSense_Structure.c ****         {
1070:Generated_Source\PSoC4/CapSense_Structure.c ****             *ptrData.ptrUint16 = LO16(value);
 617              		.loc 1 1070 0
 618 0038 B6B2     		uxth	r6, r6
 619              	.LVL70:
 620 003a 2E80     		strh	r6, [r5]
 621 003c 06E0     		b	.L44
 622              	.LVL71:
 623              	.L45:
1071:Generated_Source\PSoC4/CapSense_Structure.c ****         }
1072:Generated_Source\PSoC4/CapSense_Structure.c ****         else if (DS_PARAM_TYPE_UINT32 == pData.type)
 624              		.loc 1 1072 0
 625 003e 032B     		cmp	r3, #3
 626 0040 01D1     		bne	.L46
1073:Generated_Source\PSoC4/CapSense_Structure.c ****         {
1074:Generated_Source\PSoC4/CapSense_Structure.c ****             *ptrData.ptrUint32 = value;
 627              		.loc 1 1074 0
 628 0042 2E60     		str	r6, [r5]
 629 0044 02E0     		b	.L44
 630              	.L46:
1075:Generated_Source\PSoC4/CapSense_Structure.c ****         }
1076:Generated_Source\PSoC4/CapSense_Structure.c ****         else
1077:Generated_Source\PSoC4/CapSense_Structure.c ****         {
1078:Generated_Source\PSoC4/CapSense_Structure.c ****             /* Parameter comes here already validated. */
1079:Generated_Source\PSoC4/CapSense_Structure.c ****             CYASSERT(0u);
 631              		.loc 1 1079 0 discriminator 1
 632 0046 0020     		movs	r0, #0
 633 0048 FFF7FEFF 		bl	CyHalt
 634              	.LVL72:
 635              	.L44:
1080:Generated_Source\PSoC4/CapSense_Structure.c ****         }
1081:Generated_Source\PSoC4/CapSense_Structure.c **** 
1082:Generated_Source\PSoC4/CapSense_Structure.c ****         #if (CapSense_ENABLE == (CapSense_TST_WDGT_CRC_EN || CapSense_TST_GLOBAL_CRC_EN))
1083:Generated_Source\PSoC4/CapSense_Structure.c ****             /* Update widget or global CRC if self-test is enabled and parameter affects it */
1084:Generated_Source\PSoC4/CapSense_Structure.c ****             if (0u != pData.affectsCrc)
 636              		.loc 1 1084 0
 637 004c 6B46     		mov	r3, sp
ARM GAS  C:\Users\YUANFA~1\AppData\Local\Temp\cc9Xhnxa.s 			page 32


 638 004e DB78     		ldrb	r3, [r3, #3]
 639 0050 002B     		cmp	r3, #0
 640 0052 0CD0     		beq	.L42
1085:Generated_Source\PSoC4/CapSense_Structure.c ****             {
1086:Generated_Source\PSoC4/CapSense_Structure.c ****                 if ((ptrData.ptrUint16 >= &CapSense_dsRam.csd0Config) &&
 641              		.loc 1 1086 0
 642 0054 084B     		ldr	r3, .L49+4
 643 0056 9D42     		cmp	r5, r3
 644 0058 05D3     		bcc	.L47
 645              		.loc 1 1086 0 is_stmt 0 discriminator 1
 646 005a 084B     		ldr	r3, .L49+8
 647 005c 9D42     		cmp	r5, r3
 648 005e 02D2     		bcs	.L47
1087:Generated_Source\PSoC4/CapSense_Structure.c ****                     (ptrData.ptrUint16 <  &CapSense_dsRam.glbCrc))
1088:Generated_Source\PSoC4/CapSense_Structure.c ****                 {
1089:Generated_Source\PSoC4/CapSense_Structure.c **** 
1090:Generated_Source\PSoC4/CapSense_Structure.c ****                     #if (CapSense_ENABLE == CapSense_TST_GLOBAL_CRC_EN)
1091:Generated_Source\PSoC4/CapSense_Structure.c ****                         CapSense_DsUpdateGlobalCrc();
 649              		.loc 1 1091 0 is_stmt 1
 650 0060 FFF7FEFF 		bl	CapSense_DsUpdateGlobalCrc
 651              	.LVL73:
 652 0064 03E0     		b	.L42
 653              	.L47:
1092:Generated_Source\PSoC4/CapSense_Structure.c ****                     #endif /* (CapSense_ENABLE == CapSense_TST_GLOBAL_CRC_EN) */
1093:Generated_Source\PSoC4/CapSense_Structure.c **** 
1094:Generated_Source\PSoC4/CapSense_Structure.c ****                 }
1095:Generated_Source\PSoC4/CapSense_Structure.c ****                 else
1096:Generated_Source\PSoC4/CapSense_Structure.c ****                 {
1097:Generated_Source\PSoC4/CapSense_Structure.c ****                     #if (CapSense_ENABLE == CapSense_TST_WDGT_CRC_EN)
1098:Generated_Source\PSoC4/CapSense_Structure.c ****                         CapSense_DsUpdateWidgetCrc((uint32)pData.widgetId);
 654              		.loc 1 1098 0
 655 0066 6B46     		mov	r3, sp
 656 0068 9878     		ldrb	r0, [r3, #2]
 657 006a FFF7FEFF 		bl	CapSense_DsUpdateWidgetCrc
 658              	.LVL74:
 659              	.L42:
1099:Generated_Source\PSoC4/CapSense_Structure.c ****                     #endif /* (CapSense_ENABLE == CapSense_TST_WDGT_CRC_EN) */
1100:Generated_Source\PSoC4/CapSense_Structure.c ****                 }
1101:Generated_Source\PSoC4/CapSense_Structure.c ****             }
1102:Generated_Source\PSoC4/CapSense_Structure.c ****         #endif /* (CapSense_ENABLE == (CapSense_TST_WDGT_CRC_EN || CapSense_TST_GLOBAL_CRC_EN)) */
1103:Generated_Source\PSoC4/CapSense_Structure.c ****     }
1104:Generated_Source\PSoC4/CapSense_Structure.c **** 
1105:Generated_Source\PSoC4/CapSense_Structure.c ****     return result;
1106:Generated_Source\PSoC4/CapSense_Structure.c **** }
 660              		.loc 1 1106 0
 661 006e 2000     		movs	r0, r4
 662 0070 02B0     		add	sp, sp, #8
 663              		@ sp needed
 664              	.LVL75:
 665 0072 70BD     		pop	{r4, r5, r6, pc}
 666              	.L50:
 667              		.align	2
 668              	.L49:
 669 0074 00000000 		.word	CapSense_dsRam
 670 0078 1E000000 		.word	CapSense_dsRam+30
 671 007c 22000000 		.word	CapSense_dsRam+34
 672              		.cfi_endproc
ARM GAS  C:\Users\YUANFA~1\AppData\Local\Temp\cc9Xhnxa.s 			page 33


 673              	.LFE4:
 674              		.size	CapSense_SetParam, .-CapSense_SetParam
 675              		.section	.text.CapSense_IsAnyWidgetActive,"ax",%progbits
 676              		.align	2
 677              		.global	CapSense_IsAnyWidgetActive
 678              		.code	16
 679              		.thumb_func
 680              		.type	CapSense_IsAnyWidgetActive, %function
 681              	CapSense_IsAnyWidgetActive:
 682              	.LFB5:
1107:Generated_Source\PSoC4/CapSense_Structure.c **** 
1108:Generated_Source\PSoC4/CapSense_Structure.c **** /*******************************************************************************
1109:Generated_Source\PSoC4/CapSense_Structure.c **** * Function Name: CapSense_IsAnyWidgetActive
1110:Generated_Source\PSoC4/CapSense_Structure.c **** ****************************************************************************//**
1111:Generated_Source\PSoC4/CapSense_Structure.c **** *
1112:Generated_Source\PSoC4/CapSense_Structure.c **** * \brief
1113:Generated_Source\PSoC4/CapSense_Structure.c **** *  Reports if any widget has detected a touch.
1114:Generated_Source\PSoC4/CapSense_Structure.c **** *
1115:Generated_Source\PSoC4/CapSense_Structure.c **** * \details
1116:Generated_Source\PSoC4/CapSense_Structure.c **** *  This function reports if any widget has detected a touch or not by extracting
1117:Generated_Source\PSoC4/CapSense_Structure.c **** *  information from the wdgtStatus registers
1118:Generated_Source\PSoC4/CapSense_Structure.c **** *  (CapSense_WDGT_STATUS<X>_VALUE). This function does not process a
1119:Generated_Source\PSoC4/CapSense_Structure.c **** *  widget but extracts processed results from the \ref group_structures.
1120:Generated_Source\PSoC4/CapSense_Structure.c **** *
1121:Generated_Source\PSoC4/CapSense_Structure.c **** * \return
1122:Generated_Source\PSoC4/CapSense_Structure.c **** *   Returns the touch detection status of all the widgets:
1123:Generated_Source\PSoC4/CapSense_Structure.c **** *     - Zero - No touch is detected in all the widgets or sensors.
1124:Generated_Source\PSoC4/CapSense_Structure.c **** *     - Non-zero - At least one widget or sensor detected a touch.
1125:Generated_Source\PSoC4/CapSense_Structure.c **** *
1126:Generated_Source\PSoC4/CapSense_Structure.c **** *******************************************************************************/
1127:Generated_Source\PSoC4/CapSense_Structure.c **** uint32 CapSense_IsAnyWidgetActive(void)
1128:Generated_Source\PSoC4/CapSense_Structure.c **** {
 683              		.loc 1 1128 0
 684              		.cfi_startproc
 685              		@ args = 0, pretend = 0, frame = 0
 686              		@ frame_needed = 0, uses_anonymous_args = 0
 687              		@ link register save eliminated.
 688              	.LVL76:
1129:Generated_Source\PSoC4/CapSense_Structure.c ****     uint32 result = 0Lu;
1130:Generated_Source\PSoC4/CapSense_Structure.c ****     uint32 wdWord;
1131:Generated_Source\PSoC4/CapSense_Structure.c **** 
1132:Generated_Source\PSoC4/CapSense_Structure.c ****     for (wdWord = CapSense_WDGT_STATUS_WORDS; wdWord-- > 0u;)
 689              		.loc 1 1132 0
 690 0000 0123     		movs	r3, #1
1129:Generated_Source\PSoC4/CapSense_Structure.c ****     uint32 result = 0Lu;
 691              		.loc 1 1129 0
 692 0002 0020     		movs	r0, #0
 693              		.loc 1 1132 0
 694 0004 05E0     		b	.L52
 695              	.LVL77:
 696              	.L53:
1133:Generated_Source\PSoC4/CapSense_Structure.c ****     {
1134:Generated_Source\PSoC4/CapSense_Structure.c ****         result |= CapSense_dsRam.wdgtStatus[wdWord];
 697              		.loc 1 1134 0
 698 0006 931D     		adds	r3, r2, #6
 699 0008 9B00     		lsls	r3, r3, #2
 700 000a 0449     		ldr	r1, .L54
ARM GAS  C:\Users\YUANFA~1\AppData\Local\Temp\cc9Xhnxa.s 			page 34


 701 000c 5B58     		ldr	r3, [r3, r1]
 702 000e 1843     		orrs	r0, r3
 703              	.LVL78:
1132:Generated_Source\PSoC4/CapSense_Structure.c ****     {
 704              		.loc 1 1132 0
 705 0010 1300     		movs	r3, r2
 706              	.LVL79:
 707              	.L52:
1132:Generated_Source\PSoC4/CapSense_Structure.c ****     {
 708              		.loc 1 1132 0 is_stmt 0 discriminator 1
 709 0012 5A1E     		subs	r2, r3, #1
 710              	.LVL80:
 711 0014 002B     		cmp	r3, #0
 712 0016 F6D1     		bne	.L53
1135:Generated_Source\PSoC4/CapSense_Structure.c ****     }
1136:Generated_Source\PSoC4/CapSense_Structure.c **** 
1137:Generated_Source\PSoC4/CapSense_Structure.c ****     return result;
1138:Generated_Source\PSoC4/CapSense_Structure.c **** }
 713              		.loc 1 1138 0 is_stmt 1
 714              		@ sp needed
 715 0018 7047     		bx	lr
 716              	.L55:
 717 001a C046     		.align	2
 718              	.L54:
 719 001c 00000000 		.word	CapSense_dsRam
 720              		.cfi_endproc
 721              	.LFE5:
 722              		.size	CapSense_IsAnyWidgetActive, .-CapSense_IsAnyWidgetActive
 723              		.section	.text.CapSense_IsWidgetActive,"ax",%progbits
 724              		.align	2
 725              		.global	CapSense_IsWidgetActive
 726              		.code	16
 727              		.thumb_func
 728              		.type	CapSense_IsWidgetActive, %function
 729              	CapSense_IsWidgetActive:
 730              	.LFB6:
1139:Generated_Source\PSoC4/CapSense_Structure.c **** 
1140:Generated_Source\PSoC4/CapSense_Structure.c **** 
1141:Generated_Source\PSoC4/CapSense_Structure.c **** /*******************************************************************************
1142:Generated_Source\PSoC4/CapSense_Structure.c **** * Function Name: CapSense_IsWidgetActive
1143:Generated_Source\PSoC4/CapSense_Structure.c **** ****************************************************************************//**
1144:Generated_Source\PSoC4/CapSense_Structure.c **** *
1145:Generated_Source\PSoC4/CapSense_Structure.c **** * \brief
1146:Generated_Source\PSoC4/CapSense_Structure.c **** *  Reports if the specified widget detects a touch on any of its sensors.
1147:Generated_Source\PSoC4/CapSense_Structure.c **** *
1148:Generated_Source\PSoC4/CapSense_Structure.c **** * \details
1149:Generated_Source\PSoC4/CapSense_Structure.c **** *  This function reports if the specified widget has detected a touch or not by
1150:Generated_Source\PSoC4/CapSense_Structure.c **** *  extracting information from the wdgtStatus registers
1151:Generated_Source\PSoC4/CapSense_Structure.c **** *  (CapSense_WDGT_STATUS<X>_VALUE). This function does not process the
1152:Generated_Source\PSoC4/CapSense_Structure.c **** *  widget but extracts processed results from the \ref group_structures.
1153:Generated_Source\PSoC4/CapSense_Structure.c **** *
1154:Generated_Source\PSoC4/CapSense_Structure.c **** * \param widgetId
1155:Generated_Source\PSoC4/CapSense_Structure.c **** *  Specifies the ID number of the widget to get its status.
1156:Generated_Source\PSoC4/CapSense_Structure.c **** *  A macro for the widget ID can be found in the CapSense Configuration header
1157:Generated_Source\PSoC4/CapSense_Structure.c **** *  file defined as CapSense_<WidgetName>_WDGT_ID.
1158:Generated_Source\PSoC4/CapSense_Structure.c **** *
1159:Generated_Source\PSoC4/CapSense_Structure.c **** * \return
ARM GAS  C:\Users\YUANFA~1\AppData\Local\Temp\cc9Xhnxa.s 			page 35


1160:Generated_Source\PSoC4/CapSense_Structure.c **** *  Returns the touch detection status of the specified widgets:
1161:Generated_Source\PSoC4/CapSense_Structure.c **** *    - Zero - No touch is detected in the specified widget or a wrong widgetId
1162:Generated_Source\PSoC4/CapSense_Structure.c **** *      is specified.
1163:Generated_Source\PSoC4/CapSense_Structure.c **** *    - Non-zero if at least one sensor of the specified widget is active, i.e.
1164:Generated_Source\PSoC4/CapSense_Structure.c **** *      a touch is detected.
1165:Generated_Source\PSoC4/CapSense_Structure.c **** *
1166:Generated_Source\PSoC4/CapSense_Structure.c **** *******************************************************************************/
1167:Generated_Source\PSoC4/CapSense_Structure.c **** uint32 CapSense_IsWidgetActive(uint32 widgetId)
1168:Generated_Source\PSoC4/CapSense_Structure.c **** {
 731              		.loc 1 1168 0
 732              		.cfi_startproc
 733              		@ args = 0, pretend = 0, frame = 0
 734              		@ frame_needed = 0, uses_anonymous_args = 0
 735              		@ link register save eliminated.
 736              	.LVL81:
1169:Generated_Source\PSoC4/CapSense_Structure.c ****     uint32 result = 0Lu;
1170:Generated_Source\PSoC4/CapSense_Structure.c **** 
1171:Generated_Source\PSoC4/CapSense_Structure.c ****     if (widgetId < CapSense_TOTAL_WIDGETS)
 737              		.loc 1 1171 0
 738 0000 0028     		cmp	r0, #0
 739 0002 0AD1     		bne	.L58
1172:Generated_Source\PSoC4/CapSense_Structure.c ****     {
1173:Generated_Source\PSoC4/CapSense_Structure.c ****         result = CapSense_GET_WIDGET_ACTIVE_STATUS(widgetId);
 740              		.loc 1 1173 0
 741 0004 1F23     		movs	r3, #31
 742 0006 0340     		ands	r3, r0
 743 0008 0122     		movs	r2, #1
 744 000a 9A40     		lsls	r2, r2, r3
 745 000c 4309     		lsrs	r3, r0, #5
 746 000e 0633     		adds	r3, r3, #6
 747 0010 9B00     		lsls	r3, r3, #2
 748 0012 0349     		ldr	r1, .L59
 749 0014 5858     		ldr	r0, [r3, r1]
 750              	.LVL82:
 751 0016 1040     		ands	r0, r2
 752              	.LVL83:
 753 0018 00E0     		b	.L57
 754              	.LVL84:
 755              	.L58:
1169:Generated_Source\PSoC4/CapSense_Structure.c ****     uint32 result = 0Lu;
 756              		.loc 1 1169 0
 757 001a 0020     		movs	r0, #0
 758              	.LVL85:
 759              	.L57:
1174:Generated_Source\PSoC4/CapSense_Structure.c ****     }
1175:Generated_Source\PSoC4/CapSense_Structure.c ****     return result;
1176:Generated_Source\PSoC4/CapSense_Structure.c **** }
 760              		.loc 1 1176 0
 761              		@ sp needed
 762 001c 7047     		bx	lr
 763              	.L60:
 764 001e C046     		.align	2
 765              	.L59:
 766 0020 00000000 		.word	CapSense_dsRam
 767              		.cfi_endproc
 768              	.LFE6:
 769              		.size	CapSense_IsWidgetActive, .-CapSense_IsWidgetActive
ARM GAS  C:\Users\YUANFA~1\AppData\Local\Temp\cc9Xhnxa.s 			page 36


 770              		.section	.text.CapSense_IsSensorActive,"ax",%progbits
 771              		.align	2
 772              		.global	CapSense_IsSensorActive
 773              		.code	16
 774              		.thumb_func
 775              		.type	CapSense_IsSensorActive, %function
 776              	CapSense_IsSensorActive:
 777              	.LFB7:
1177:Generated_Source\PSoC4/CapSense_Structure.c **** 
1178:Generated_Source\PSoC4/CapSense_Structure.c **** 
1179:Generated_Source\PSoC4/CapSense_Structure.c **** /*******************************************************************************
1180:Generated_Source\PSoC4/CapSense_Structure.c **** * Function Name: CapSense_IsSensorActive
1181:Generated_Source\PSoC4/CapSense_Structure.c **** ****************************************************************************//**
1182:Generated_Source\PSoC4/CapSense_Structure.c **** *
1183:Generated_Source\PSoC4/CapSense_Structure.c **** * \brief
1184:Generated_Source\PSoC4/CapSense_Structure.c **** *  Reports if the specified sensor in the widget detects a touch.
1185:Generated_Source\PSoC4/CapSense_Structure.c **** *
1186:Generated_Source\PSoC4/CapSense_Structure.c **** * \details
1187:Generated_Source\PSoC4/CapSense_Structure.c **** *  This function reports if the specified sensor in the widget has detected a
1188:Generated_Source\PSoC4/CapSense_Structure.c **** *  touch or not by extracting information from the wdgtStatus registers
1189:Generated_Source\PSoC4/CapSense_Structure.c **** *  (CapSense_WDGT_STATUS<X>_VALUE). This function does not process the
1190:Generated_Source\PSoC4/CapSense_Structure.c **** *  widget or sensor but extracts processed results from the \ref group_structures.
1191:Generated_Source\PSoC4/CapSense_Structure.c **** *
1192:Generated_Source\PSoC4/CapSense_Structure.c **** *  For proximity sensors, this function returns the proximity detection status. To
1193:Generated_Source\PSoC4/CapSense_Structure.c **** *  get the finger touch status of proximity sensors, use the
1194:Generated_Source\PSoC4/CapSense_Structure.c **** *  CapSense_IsProximitySensorActive() function.
1195:Generated_Source\PSoC4/CapSense_Structure.c **** *
1196:Generated_Source\PSoC4/CapSense_Structure.c **** * \param widgetId
1197:Generated_Source\PSoC4/CapSense_Structure.c **** *  Specifies the ID number of the widget.
1198:Generated_Source\PSoC4/CapSense_Structure.c **** *  A macro for the widget ID can be found in the CapSense Configuration header
1199:Generated_Source\PSoC4/CapSense_Structure.c **** *  file defined as CapSense_<WidgetName>_WDGT_ID.
1200:Generated_Source\PSoC4/CapSense_Structure.c **** 
1201:Generated_Source\PSoC4/CapSense_Structure.c **** * \param sensorId
1202:Generated_Source\PSoC4/CapSense_Structure.c **** *  Specifies the ID number of the sensor within the widget to get its touch
1203:Generated_Source\PSoC4/CapSense_Structure.c **** *  detection status.
1204:Generated_Source\PSoC4/CapSense_Structure.c **** *  A macro for the sensor ID within the specified widget can be found in the
1205:Generated_Source\PSoC4/CapSense_Structure.c **** *  CapSense Configuration header file defined as
1206:Generated_Source\PSoC4/CapSense_Structure.c **** *  CapSense_<WidgetName>_SNS<SensorNumber>_ID.
1207:Generated_Source\PSoC4/CapSense_Structure.c **** *
1208:Generated_Source\PSoC4/CapSense_Structure.c **** * \return
1209:Generated_Source\PSoC4/CapSense_Structure.c **** *  Returns the touch detection status of the specified sensor / widget:
1210:Generated_Source\PSoC4/CapSense_Structure.c **** *    - Zero if no touch is detected in the specified sensor / widget or a wrong
1211:Generated_Source\PSoC4/CapSense_Structure.c **** *      widget ID / sensor ID is specified.
1212:Generated_Source\PSoC4/CapSense_Structure.c **** *    - Non-zero if the specified sensor is active i.e. touch is detected. If the
1213:Generated_Source\PSoC4/CapSense_Structure.c **** *      specific sensor belongs to a proximity widget, the proximity detection
1214:Generated_Source\PSoC4/CapSense_Structure.c **** *      status is returned.
1215:Generated_Source\PSoC4/CapSense_Structure.c **** *
1216:Generated_Source\PSoC4/CapSense_Structure.c **** *******************************************************************************/
1217:Generated_Source\PSoC4/CapSense_Structure.c **** uint32 CapSense_IsSensorActive(uint32 widgetId, uint32 sensorId)
1218:Generated_Source\PSoC4/CapSense_Structure.c **** {
 778              		.loc 1 1218 0
 779              		.cfi_startproc
 780              		@ args = 0, pretend = 0, frame = 0
 781              		@ frame_needed = 0, uses_anonymous_args = 0
 782              		@ link register save eliminated.
 783              	.LVL86:
1219:Generated_Source\PSoC4/CapSense_Structure.c ****     uint32 result = 0Lu;
ARM GAS  C:\Users\YUANFA~1\AppData\Local\Temp\cc9Xhnxa.s 			page 37


1220:Generated_Source\PSoC4/CapSense_Structure.c **** 
1221:Generated_Source\PSoC4/CapSense_Structure.c ****     if ((widgetId < CapSense_TOTAL_WIDGETS) &&
 784              		.loc 1 1221 0
 785 0000 0028     		cmp	r0, #0
 786 0002 0FD1     		bne	.L63
1222:Generated_Source\PSoC4/CapSense_Structure.c ****         (sensorId < CapSense_GET_SENSOR_COUNT(widgetId)))
 787              		.loc 1 1222 0 discriminator 1
 788 0004 C200     		lsls	r2, r0, #3
 789 0006 121A     		subs	r2, r2, r0
 790 0008 D300     		lsls	r3, r2, #3
 791 000a 084A     		ldr	r2, .L65
 792 000c D318     		adds	r3, r2, r3
 793 000e 5833     		adds	r3, r3, #88
 794 0010 1B88     		ldrh	r3, [r3]
1221:Generated_Source\PSoC4/CapSense_Structure.c ****         (sensorId < CapSense_GET_SENSOR_COUNT(widgetId)))
 795              		.loc 1 1221 0 discriminator 1
 796 0012 8B42     		cmp	r3, r1
 797 0014 08D9     		bls	.L64
1223:Generated_Source\PSoC4/CapSense_Structure.c ****     {
1224:Generated_Source\PSoC4/CapSense_Structure.c ****         #if (CapSense_ENABLE == CapSense_PROXIMITY_WIDGET_EN)
1225:Generated_Source\PSoC4/CapSense_Structure.c ****             if (CapSense_WD_PROXIMITY_E ==
1226:Generated_Source\PSoC4/CapSense_Structure.c ****                 (CapSense_WD_TYPE_ENUM)CapSense_dsFlash.wdgtArray[widgetId].wdgtType)
1227:Generated_Source\PSoC4/CapSense_Structure.c ****             {
1228:Generated_Source\PSoC4/CapSense_Structure.c ****                 sensorId = CapSense_PROX_STS_OFFSET(sensorId);
1229:Generated_Source\PSoC4/CapSense_Structure.c ****             }
1230:Generated_Source\PSoC4/CapSense_Structure.c ****         #endif /* (CapSense_ENABLE != CapSense_PROXIMITY_WIDGET_EN) */
1231:Generated_Source\PSoC4/CapSense_Structure.c ****         result = CapSense_dsRam.snsStatus[widgetId] & (1Lu << sensorId);
 798              		.loc 1 1231 0
 799 0016 064B     		ldr	r3, .L65+4
 800 0018 1818     		adds	r0, r3, r0
 801              	.LVL87:
 802 001a 037F     		ldrb	r3, [r0, #28]
 803 001c 0120     		movs	r0, #1
 804 001e 8840     		lsls	r0, r0, r1
 805 0020 1840     		ands	r0, r3
 806              	.LVL88:
 807 0022 02E0     		b	.L62
 808              	.LVL89:
 809              	.L63:
1219:Generated_Source\PSoC4/CapSense_Structure.c **** 
 810              		.loc 1 1219 0
 811 0024 0020     		movs	r0, #0
 812              	.LVL90:
 813 0026 00E0     		b	.L62
 814              	.LVL91:
 815              	.L64:
 816 0028 0020     		movs	r0, #0
 817              	.LVL92:
 818              	.L62:
1232:Generated_Source\PSoC4/CapSense_Structure.c ****     }
1233:Generated_Source\PSoC4/CapSense_Structure.c **** 
1234:Generated_Source\PSoC4/CapSense_Structure.c ****     return result;
1235:Generated_Source\PSoC4/CapSense_Structure.c **** }
 819              		.loc 1 1235 0
 820              		@ sp needed
 821 002a 7047     		bx	lr
 822              	.L66:
ARM GAS  C:\Users\YUANFA~1\AppData\Local\Temp\cc9Xhnxa.s 			page 38


 823              		.align	2
 824              	.L65:
 825 002c 00000000 		.word	.LANCHOR0
 826 0030 00000000 		.word	CapSense_dsRam
 827              		.cfi_endproc
 828              	.LFE7:
 829              		.size	CapSense_IsSensorActive, .-CapSense_IsSensorActive
 830              		.section	.text.CapSense_GetXYCoordinates,"ax",%progbits
 831              		.align	2
 832              		.global	CapSense_GetXYCoordinates
 833              		.code	16
 834              		.thumb_func
 835              		.type	CapSense_GetXYCoordinates, %function
 836              	CapSense_GetXYCoordinates:
 837              	.LFB8:
1236:Generated_Source\PSoC4/CapSense_Structure.c **** 
1237:Generated_Source\PSoC4/CapSense_Structure.c **** #if (0u != CapSense_MATRIX_WIDGET_EN)
1238:Generated_Source\PSoC4/CapSense_Structure.c **** /*******************************************************************************
1239:Generated_Source\PSoC4/CapSense_Structure.c **** * Function Name: CapSense_IsMatrixButtonsActive
1240:Generated_Source\PSoC4/CapSense_Structure.c **** ****************************************************************************//**
1241:Generated_Source\PSoC4/CapSense_Structure.c **** *
1242:Generated_Source\PSoC4/CapSense_Structure.c **** * \brief
1243:Generated_Source\PSoC4/CapSense_Structure.c **** *  Reports the status of the specified matrix button widget.
1244:Generated_Source\PSoC4/CapSense_Structure.c **** *
1245:Generated_Source\PSoC4/CapSense_Structure.c **** * \details
1246:Generated_Source\PSoC4/CapSense_Structure.c **** *  This function reports if the specified matrix widget has detected a touch or
1247:Generated_Source\PSoC4/CapSense_Structure.c **** *  not by extracting information from the wdgtStatus registers
1248:Generated_Source\PSoC4/CapSense_Structure.c **** *  (CapSense_WDGT_STATUS<X>_VALUE for the CSD widgets and
1249:Generated_Source\PSoC4/CapSense_Structure.c **** *  CapSense_SNS_STATUS<WidgetId>_VALUE for CSX widget). In addition, the
1250:Generated_Source\PSoC4/CapSense_Structure.c **** *  function provides details of the active sensor including active rows/columns
1251:Generated_Source\PSoC4/CapSense_Structure.c **** *  for the CSD widgets. This function is used only with the matrix button
1252:Generated_Source\PSoC4/CapSense_Structure.c **** *  widgets. This function does not process the widget but extracts
1253:Generated_Source\PSoC4/CapSense_Structure.c **** *  processed results from the \ref group_structures.
1254:Generated_Source\PSoC4/CapSense_Structure.c **** *
1255:Generated_Source\PSoC4/CapSense_Structure.c **** * \param widgetId
1256:Generated_Source\PSoC4/CapSense_Structure.c **** *  Specifies the ID number of the matrix button widget to check the status of its
1257:Generated_Source\PSoC4/CapSense_Structure.c **** *  sensors.
1258:Generated_Source\PSoC4/CapSense_Structure.c **** *  A macro for the widget ID can be found in the CapSense Configuration header file
1259:Generated_Source\PSoC4/CapSense_Structure.c **** *  defined as CapSense_<WidgetName>_WDGT_ID
1260:Generated_Source\PSoC4/CapSense_Structure.c **** *
1261:Generated_Source\PSoC4/CapSense_Structure.c **** * \return
1262:Generated_Source\PSoC4/CapSense_Structure.c **** *  Returns the touch detection status of the sensors in the specified matrix
1263:Generated_Source\PSoC4/CapSense_Structure.c **** *  buttons widget. Zero indicates that no touch is detected in the specified
1264:Generated_Source\PSoC4/CapSense_Structure.c **** *  widget or a wrong widgetId is specified.
1265:Generated_Source\PSoC4/CapSense_Structure.c **** *    1. For the matrix buttons widgets with the CSD sensing mode:
1266:Generated_Source\PSoC4/CapSense_Structure.c **** *      - Bit [31] if set, indicates that one or more sensors in the widget
1267:Generated_Source\PSoC4/CapSense_Structure.c **** *        detected a touch.
1268:Generated_Source\PSoC4/CapSense_Structure.c **** *      - Bits [30..24] are reserved
1269:Generated_Source\PSoC4/CapSense_Structure.c **** *      - Bits [23..16] indicate the logical sensor number of the sensor that
1270:Generated_Source\PSoC4/CapSense_Structure.c **** *        detected a touch. If more than one sensor detected a touch for the CSD
1271:Generated_Source\PSoC4/CapSense_Structure.c **** *        widget, no status is reported because more than one touch is invalid for the
1272:Generated_Source\PSoC4/CapSense_Structure.c **** *        CSD matrix buttons widgets.
1273:Generated_Source\PSoC4/CapSense_Structure.c **** *      - Bits [15..8] indicate the active row number.
1274:Generated_Source\PSoC4/CapSense_Structure.c **** *      - Bits [7..0] indicate the active column number.
1275:Generated_Source\PSoC4/CapSense_Structure.c **** *    2. For the matrix buttons widgets with the CSX widgets, each bit (31..0)
1276:Generated_Source\PSoC4/CapSense_Structure.c **** *      corresponds to the TX/RX intersection.
1277:Generated_Source\PSoC4/CapSense_Structure.c **** *
ARM GAS  C:\Users\YUANFA~1\AppData\Local\Temp\cc9Xhnxa.s 			page 39


1278:Generated_Source\PSoC4/CapSense_Structure.c **** *******************************************************************************/
1279:Generated_Source\PSoC4/CapSense_Structure.c **** uint32 CapSense_IsMatrixButtonsActive(uint32 widgetId)
1280:Generated_Source\PSoC4/CapSense_Structure.c **** {
1281:Generated_Source\PSoC4/CapSense_Structure.c ****     uint32 result = 0Lu;
1282:Generated_Source\PSoC4/CapSense_Structure.c ****     cystatus state = CYRET_SUCCESS;
1283:Generated_Source\PSoC4/CapSense_Structure.c ****     CapSense_FLASH_WD_STRUCT const *ptrFlashWdgt = 0u;
1284:Generated_Source\PSoC4/CapSense_Structure.c **** 
1285:Generated_Source\PSoC4/CapSense_Structure.c ****     #if (0u != CapSense_CSD_MATRIX_WIDGET_EN)
1286:Generated_Source\PSoC4/CapSense_Structure.c ****         CapSense_RAM_WD_CSD_MATRIX_STRUCT *wdCsdMatrix;
1287:Generated_Source\PSoC4/CapSense_Structure.c ****     #endif
1288:Generated_Source\PSoC4/CapSense_Structure.c **** 
1289:Generated_Source\PSoC4/CapSense_Structure.c ****     if (widgetId >= CapSense_TOTAL_WIDGETS)
1290:Generated_Source\PSoC4/CapSense_Structure.c ****     {
1291:Generated_Source\PSoC4/CapSense_Structure.c ****         state = CYRET_BAD_PARAM;
1292:Generated_Source\PSoC4/CapSense_Structure.c ****     }
1293:Generated_Source\PSoC4/CapSense_Structure.c ****     else
1294:Generated_Source\PSoC4/CapSense_Structure.c ****     {
1295:Generated_Source\PSoC4/CapSense_Structure.c ****         ptrFlashWdgt = &CapSense_dsFlash.wdgtArray[widgetId];
1296:Generated_Source\PSoC4/CapSense_Structure.c **** 
1297:Generated_Source\PSoC4/CapSense_Structure.c ****         if ((CapSense_WD_TYPE_ENUM)ptrFlashWdgt->wdgtType != CapSense_WD_MATRIX_BUTTON_E)
1298:Generated_Source\PSoC4/CapSense_Structure.c ****         {
1299:Generated_Source\PSoC4/CapSense_Structure.c ****             state = CYRET_BAD_PARAM;
1300:Generated_Source\PSoC4/CapSense_Structure.c ****         }
1301:Generated_Source\PSoC4/CapSense_Structure.c ****         else if (0u == CapSense_GET_WIDGET_ACTIVE_STATUS(widgetId))
1302:Generated_Source\PSoC4/CapSense_Structure.c ****         {
1303:Generated_Source\PSoC4/CapSense_Structure.c ****             state = CYRET_BAD_PARAM;
1304:Generated_Source\PSoC4/CapSense_Structure.c ****         }
1305:Generated_Source\PSoC4/CapSense_Structure.c ****         else
1306:Generated_Source\PSoC4/CapSense_Structure.c ****         {
1307:Generated_Source\PSoC4/CapSense_Structure.c ****             /* input parameters are OK */
1308:Generated_Source\PSoC4/CapSense_Structure.c ****         }
1309:Generated_Source\PSoC4/CapSense_Structure.c ****     }
1310:Generated_Source\PSoC4/CapSense_Structure.c **** 
1311:Generated_Source\PSoC4/CapSense_Structure.c ****     if (CYRET_SUCCESS == state)
1312:Generated_Source\PSoC4/CapSense_Structure.c ****     {
1313:Generated_Source\PSoC4/CapSense_Structure.c ****         switch(CapSense_GET_SENSE_METHOD(ptrFlashWdgt))
1314:Generated_Source\PSoC4/CapSense_Structure.c ****         {
1315:Generated_Source\PSoC4/CapSense_Structure.c ****         #if (0u != CapSense_CSD_MATRIX_WIDGET_EN)
1316:Generated_Source\PSoC4/CapSense_Structure.c ****             case CapSense_SENSE_METHOD_CSD_E:
1317:Generated_Source\PSoC4/CapSense_Structure.c ****                 wdCsdMatrix = ptrFlashWdgt->ptr2WdgtRam;
1318:Generated_Source\PSoC4/CapSense_Structure.c **** 
1319:Generated_Source\PSoC4/CapSense_Structure.c ****                 result = CapSense_MATRIX_BUTTONS_TOUCHED |
1320:Generated_Source\PSoC4/CapSense_Structure.c ****                          ((uint32)wdCsdMatrix->posSnsId << 16u)  |
1321:Generated_Source\PSoC4/CapSense_Structure.c ****                          ((uint32)wdCsdMatrix->posRow   << 8u)   |
1322:Generated_Source\PSoC4/CapSense_Structure.c ****                          (uint32)wdCsdMatrix->posCol;
1323:Generated_Source\PSoC4/CapSense_Structure.c ****                 break;
1324:Generated_Source\PSoC4/CapSense_Structure.c ****         #endif /* #if (0u != CapSense_CSD_MATRIX_WIDGET_EN) */
1325:Generated_Source\PSoC4/CapSense_Structure.c **** 
1326:Generated_Source\PSoC4/CapSense_Structure.c ****         #if (0u != CapSense_CSX_MATRIX_WIDGET_EN)
1327:Generated_Source\PSoC4/CapSense_Structure.c ****             case CapSense_SENSE_METHOD_CSX_E:
1328:Generated_Source\PSoC4/CapSense_Structure.c ****                 result = CapSense_dsRam.snsStatus[widgetId];
1329:Generated_Source\PSoC4/CapSense_Structure.c ****                 break;
1330:Generated_Source\PSoC4/CapSense_Structure.c ****         #endif /* #if (0u != CapSense_CSX_MATRIX_WIDGET_EN) */
1331:Generated_Source\PSoC4/CapSense_Structure.c **** 
1332:Generated_Source\PSoC4/CapSense_Structure.c ****         default:
1333:Generated_Source\PSoC4/CapSense_Structure.c ****             CYASSERT(0u);
1334:Generated_Source\PSoC4/CapSense_Structure.c ****             break;
ARM GAS  C:\Users\YUANFA~1\AppData\Local\Temp\cc9Xhnxa.s 			page 40


1335:Generated_Source\PSoC4/CapSense_Structure.c ****         }
1336:Generated_Source\PSoC4/CapSense_Structure.c ****     }
1337:Generated_Source\PSoC4/CapSense_Structure.c **** 
1338:Generated_Source\PSoC4/CapSense_Structure.c ****     return result;
1339:Generated_Source\PSoC4/CapSense_Structure.c **** }
1340:Generated_Source\PSoC4/CapSense_Structure.c **** #endif /* #if (0u != CapSense_MATRIX_WIDGET_EN) */
1341:Generated_Source\PSoC4/CapSense_Structure.c **** 
1342:Generated_Source\PSoC4/CapSense_Structure.c **** #if (0u != CapSense_PROXIMITY_WIDGET_EN)
1343:Generated_Source\PSoC4/CapSense_Structure.c **** /*******************************************************************************
1344:Generated_Source\PSoC4/CapSense_Structure.c **** * Function Name: CapSense_IsProximitySensorActive
1345:Generated_Source\PSoC4/CapSense_Structure.c **** ****************************************************************************//**
1346:Generated_Source\PSoC4/CapSense_Structure.c **** *
1347:Generated_Source\PSoC4/CapSense_Structure.c **** * \brief
1348:Generated_Source\PSoC4/CapSense_Structure.c **** *  Reports the finger detection status of the specified proximity widget/sensor.
1349:Generated_Source\PSoC4/CapSense_Structure.c **** *
1350:Generated_Source\PSoC4/CapSense_Structure.c **** * \details
1351:Generated_Source\PSoC4/CapSense_Structure.c **** *  This function reports if the specified proximity sensor has detected a touch
1352:Generated_Source\PSoC4/CapSense_Structure.c **** *  or not by extracting information from the wdgtStatus registers
1353:Generated_Source\PSoC4/CapSense_Structure.c **** *  (CapSense_SNS_STATUS<WidgetId>_VALUE). This function is used
1354:Generated_Source\PSoC4/CapSense_Structure.c **** *  only with proximity sensor widgets. This function does not process the
1355:Generated_Source\PSoC4/CapSense_Structure.c **** *  widget but extracts processed results from the \ref group_structures.
1356:Generated_Source\PSoC4/CapSense_Structure.c **** *
1357:Generated_Source\PSoC4/CapSense_Structure.c **** * \param widgetId
1358:Generated_Source\PSoC4/CapSense_Structure.c **** *  Specifies the ID number of the proximity widget.
1359:Generated_Source\PSoC4/CapSense_Structure.c **** *  A macro for the widget ID can be found in the CapSense Configuration header
1360:Generated_Source\PSoC4/CapSense_Structure.c **** *  file defined as CapSense_<WidgetName>_WDGT_ID
1361:Generated_Source\PSoC4/CapSense_Structure.c **** *
1362:Generated_Source\PSoC4/CapSense_Structure.c **** * \param proxId
1363:Generated_Source\PSoC4/CapSense_Structure.c **** *  Specifies the ID number of the proximity sensor within the proximity widget to
1364:Generated_Source\PSoC4/CapSense_Structure.c **** *  get its touch detection status.
1365:Generated_Source\PSoC4/CapSense_Structure.c **** *  A macro for the proximity ID within a specified widget can be found in the
1366:Generated_Source\PSoC4/CapSense_Structure.c **** *  CapSense Configuration header file defined as
1367:Generated_Source\PSoC4/CapSense_Structure.c **** *  CapSense_<WidgetName>_SNS<SensorNumber>_ID
1368:Generated_Source\PSoC4/CapSense_Structure.c **** *
1369:Generated_Source\PSoC4/CapSense_Structure.c **** * \return
1370:Generated_Source\PSoC4/CapSense_Structure.c **** *  Returns the status of the specified sensor of the proximity widget. Zero
1371:Generated_Source\PSoC4/CapSense_Structure.c **** *  indicates that no touch is detected in the specified sensor / widget or a
1372:Generated_Source\PSoC4/CapSense_Structure.c **** *  wrong widgetId / proxId is specified.
1373:Generated_Source\PSoC4/CapSense_Structure.c **** *    - Bits [31..2] are reserved.
1374:Generated_Source\PSoC4/CapSense_Structure.c **** *    - Bit [1] indicates that a touch is detected.
1375:Generated_Source\PSoC4/CapSense_Structure.c **** *    - Bit [0] indicates that a proximity is detected.
1376:Generated_Source\PSoC4/CapSense_Structure.c **** *
1377:Generated_Source\PSoC4/CapSense_Structure.c **** *******************************************************************************/
1378:Generated_Source\PSoC4/CapSense_Structure.c **** uint32 CapSense_IsProximitySensorActive(uint32 widgetId, uint32 proxId)
1379:Generated_Source\PSoC4/CapSense_Structure.c **** {
1380:Generated_Source\PSoC4/CapSense_Structure.c ****     uint32 result = 0Lu;
1381:Generated_Source\PSoC4/CapSense_Structure.c **** 
1382:Generated_Source\PSoC4/CapSense_Structure.c ****     if ((widgetId < CapSense_TOTAL_WIDGETS) && (proxId < CapSense_GET_SENSOR_COUNT(widgetId)) &&
1383:Generated_Source\PSoC4/CapSense_Structure.c ****         (CapSense_WD_PROXIMITY_E ==
1384:Generated_Source\PSoC4/CapSense_Structure.c ****             (CapSense_WD_TYPE_ENUM)CapSense_dsFlash.wdgtArray[widgetId].wdgtType))
1385:Generated_Source\PSoC4/CapSense_Structure.c ****     {
1386:Generated_Source\PSoC4/CapSense_Structure.c ****         result = CapSense_dsRam.snsStatus[widgetId];
1387:Generated_Source\PSoC4/CapSense_Structure.c ****         result >>= CapSense_PROX_STS_OFFSET(proxId);
1388:Generated_Source\PSoC4/CapSense_Structure.c ****         result &=  CapSense_PROX_STS_MASK;
1389:Generated_Source\PSoC4/CapSense_Structure.c ****     }
1390:Generated_Source\PSoC4/CapSense_Structure.c **** 
1391:Generated_Source\PSoC4/CapSense_Structure.c ****     return result;
ARM GAS  C:\Users\YUANFA~1\AppData\Local\Temp\cc9Xhnxa.s 			page 41


1392:Generated_Source\PSoC4/CapSense_Structure.c **** }
1393:Generated_Source\PSoC4/CapSense_Structure.c **** #endif /* #if (0u != CapSense_PROXIMITY_WIDGET_EN) */
1394:Generated_Source\PSoC4/CapSense_Structure.c **** 
1395:Generated_Source\PSoC4/CapSense_Structure.c **** 
1396:Generated_Source\PSoC4/CapSense_Structure.c **** #if (0u != CapSense_SLIDER_WIDGET_EN)
1397:Generated_Source\PSoC4/CapSense_Structure.c **** /*******************************************************************************
1398:Generated_Source\PSoC4/CapSense_Structure.c **** * Function Name: CapSense_GetCentroidPos
1399:Generated_Source\PSoC4/CapSense_Structure.c **** ****************************************************************************//**
1400:Generated_Source\PSoC4/CapSense_Structure.c **** *
1401:Generated_Source\PSoC4/CapSense_Structure.c **** * \brief
1402:Generated_Source\PSoC4/CapSense_Structure.c **** *  Reports the centroid position for the specified slider widget.
1403:Generated_Source\PSoC4/CapSense_Structure.c **** *
1404:Generated_Source\PSoC4/CapSense_Structure.c **** * \details
1405:Generated_Source\PSoC4/CapSense_Structure.c **** *  This function reports the centroid value of a specified radial or linear
1406:Generated_Source\PSoC4/CapSense_Structure.c **** *  slider widget by extracting information from the wdgtStatus registers
1407:Generated_Source\PSoC4/CapSense_Structure.c **** *  (CapSense_<WidgetName>_POSITION<X>_VALUE). This function is
1408:Generated_Source\PSoC4/CapSense_Structure.c **** *  used only with radial or linear slider widgets. This function does not
1409:Generated_Source\PSoC4/CapSense_Structure.c **** *  process the widget but extracts processed results from the \ref group_structures.
1410:Generated_Source\PSoC4/CapSense_Structure.c **** *
1411:Generated_Source\PSoC4/CapSense_Structure.c **** * \param widgetId
1412:Generated_Source\PSoC4/CapSense_Structure.c **** *  Specifies the ID number of a slider widget to get the centroid of the
1413:Generated_Source\PSoC4/CapSense_Structure.c **** *  detected touch.
1414:Generated_Source\PSoC4/CapSense_Structure.c **** *  A macro for the widget ID can be found in the
1415:Generated_Source\PSoC4/CapSense_Structure.c **** *  CapSense Configuration header file defined as
1416:Generated_Source\PSoC4/CapSense_Structure.c **** *  CapSense_<WidgetName>_WDGT_ID
1417:Generated_Source\PSoC4/CapSense_Structure.c **** *
1418:Generated_Source\PSoC4/CapSense_Structure.c **** * \return
1419:Generated_Source\PSoC4/CapSense_Structure.c **** *  Returns the centroid position of a specified slider widget:
1420:Generated_Source\PSoC4/CapSense_Structure.c **** *    - The centroid position if a touch is detected.
1421:Generated_Source\PSoC4/CapSense_Structure.c **** *    - CapSense_SLIDER_NO_TOUCH - No touch is detected or a wrong
1422:Generated_Source\PSoC4/CapSense_Structure.c **** *      widgetId is specified.
1423:Generated_Source\PSoC4/CapSense_Structure.c **** *
1424:Generated_Source\PSoC4/CapSense_Structure.c **** *******************************************************************************/
1425:Generated_Source\PSoC4/CapSense_Structure.c **** uint32 CapSense_GetCentroidPos(uint32 widgetId)
1426:Generated_Source\PSoC4/CapSense_Structure.c **** {
1427:Generated_Source\PSoC4/CapSense_Structure.c ****     uint32 result = CapSense_SLIDER_NO_TOUCH;
1428:Generated_Source\PSoC4/CapSense_Structure.c ****     CapSense_RAM_WD_SLIDER_STRUCT *wdSlider;
1429:Generated_Source\PSoC4/CapSense_Structure.c **** 
1430:Generated_Source\PSoC4/CapSense_Structure.c ****     if ((widgetId < CapSense_TOTAL_WIDGETS) &&
1431:Generated_Source\PSoC4/CapSense_Structure.c ****         ((CapSense_WD_LINEAR_SLIDER_E ==
1432:Generated_Source\PSoC4/CapSense_Structure.c ****             (CapSense_WD_TYPE_ENUM)CapSense_dsFlash.wdgtArray[widgetId].wdgtType) ||
1433:Generated_Source\PSoC4/CapSense_Structure.c ****          (CapSense_WD_RADIAL_SLIDER_E ==
1434:Generated_Source\PSoC4/CapSense_Structure.c ****             (CapSense_WD_TYPE_ENUM)CapSense_dsFlash.wdgtArray[widgetId].wdgtType)))
1435:Generated_Source\PSoC4/CapSense_Structure.c ****     {
1436:Generated_Source\PSoC4/CapSense_Structure.c ****         wdSlider = CapSense_dsFlash.wdgtArray[widgetId].ptr2WdgtRam;
1437:Generated_Source\PSoC4/CapSense_Structure.c ****         result = (uint32)wdSlider->position[0u];
1438:Generated_Source\PSoC4/CapSense_Structure.c ****     }
1439:Generated_Source\PSoC4/CapSense_Structure.c **** 
1440:Generated_Source\PSoC4/CapSense_Structure.c ****     return result;
1441:Generated_Source\PSoC4/CapSense_Structure.c **** }
1442:Generated_Source\PSoC4/CapSense_Structure.c **** #endif /* #if (0u != CapSense_SLIDER_WIDGET_EN) */
1443:Generated_Source\PSoC4/CapSense_Structure.c **** 
1444:Generated_Source\PSoC4/CapSense_Structure.c **** 
1445:Generated_Source\PSoC4/CapSense_Structure.c **** #if (0u != CapSense_TOUCHPAD_WIDGET_EN)
1446:Generated_Source\PSoC4/CapSense_Structure.c **** /*******************************************************************************
1447:Generated_Source\PSoC4/CapSense_Structure.c **** * Function Name: CapSense_GetXYCoordinates
1448:Generated_Source\PSoC4/CapSense_Structure.c **** ****************************************************************************//**
ARM GAS  C:\Users\YUANFA~1\AppData\Local\Temp\cc9Xhnxa.s 			page 42


1449:Generated_Source\PSoC4/CapSense_Structure.c **** *
1450:Generated_Source\PSoC4/CapSense_Structure.c **** * \brief
1451:Generated_Source\PSoC4/CapSense_Structure.c **** *  Reports the X/Y position detected for the specified touchpad widget.
1452:Generated_Source\PSoC4/CapSense_Structure.c **** *
1453:Generated_Source\PSoC4/CapSense_Structure.c **** * \details
1454:Generated_Source\PSoC4/CapSense_Structure.c **** *  This function reports a touch position (X and Y coordinates) value of a
1455:Generated_Source\PSoC4/CapSense_Structure.c **** *  specified touchpad widget by extracting information from the wdgtStatus
1456:Generated_Source\PSoC4/CapSense_Structure.c **** *  registers (CapSense_<WidgetName>_POS_Y_VALUE). This function should
1457:Generated_Source\PSoC4/CapSense_Structure.c **** *  be used only with the touchpad widgets. This function does not process the
1458:Generated_Source\PSoC4/CapSense_Structure.c **** *  widget but extracts processed results from the \ref group_structures.
1459:Generated_Source\PSoC4/CapSense_Structure.c **** *
1460:Generated_Source\PSoC4/CapSense_Structure.c **** * \param widgetId
1461:Generated_Source\PSoC4/CapSense_Structure.c **** *  Specifies the ID number of a touchpad widget to get the X/Y position of a
1462:Generated_Source\PSoC4/CapSense_Structure.c **** *  detected touch.
1463:Generated_Source\PSoC4/CapSense_Structure.c **** *  A macro for the widget ID can be found in the
1464:Generated_Source\PSoC4/CapSense_Structure.c **** *  CapSense Configuration header file defined as
1465:Generated_Source\PSoC4/CapSense_Structure.c **** *  CapSense_<WidgetName>_WDGT_ID.
1466:Generated_Source\PSoC4/CapSense_Structure.c **** *
1467:Generated_Source\PSoC4/CapSense_Structure.c **** * \return
1468:Generated_Source\PSoC4/CapSense_Structure.c **** *  Returns the touch position of a specified touchpad widget:
1469:Generated_Source\PSoC4/CapSense_Structure.c **** *    1. If a touch is detected:
1470:Generated_Source\PSoC4/CapSense_Structure.c **** *      - Bits [31..16] indicate the Y coordinate.
1471:Generated_Source\PSoC4/CapSense_Structure.c **** *      - Bits [15..0] indicate the X coordinate.
1472:Generated_Source\PSoC4/CapSense_Structure.c **** *    2. If no touch is detected or a wrong widgetId is specified:
1473:Generated_Source\PSoC4/CapSense_Structure.c **** *      - CapSense_TOUCHPAD_NO_TOUCH.
1474:Generated_Source\PSoC4/CapSense_Structure.c **** *
1475:Generated_Source\PSoC4/CapSense_Structure.c **** *******************************************************************************/
1476:Generated_Source\PSoC4/CapSense_Structure.c **** uint32 CapSense_GetXYCoordinates(uint32 widgetId)
1477:Generated_Source\PSoC4/CapSense_Structure.c **** {
 838              		.loc 1 1477 0
 839              		.cfi_startproc
 840              		@ args = 0, pretend = 0, frame = 0
 841              		@ frame_needed = 0, uses_anonymous_args = 0
 842              	.LVL93:
 843 0000 10B5     		push	{r4, lr}
 844              		.cfi_def_cfa_offset 8
 845              		.cfi_offset 4, -8
 846              		.cfi_offset 14, -4
 847              	.LVL94:
1478:Generated_Source\PSoC4/CapSense_Structure.c ****     CapSense_FLASH_WD_STRUCT const *ptrFlashWdgt = NULL;
1479:Generated_Source\PSoC4/CapSense_Structure.c **** 
1480:Generated_Source\PSoC4/CapSense_Structure.c ****     #if (0u != CapSense_CSD_TOUCHPAD_WIDGET_EN)
1481:Generated_Source\PSoC4/CapSense_Structure.c ****         CapSense_RAM_WD_CSD_TOUCHPAD_STRUCT *wdCsdTouchpad;
1482:Generated_Source\PSoC4/CapSense_Structure.c ****     #endif /* #if (0u != CapSense_CSD_TOUCHPAD_WIDGET_EN) */
1483:Generated_Source\PSoC4/CapSense_Structure.c **** 
1484:Generated_Source\PSoC4/CapSense_Structure.c ****     #if (0u != CapSense_CSX_TOUCHPAD_WIDGET_EN)
1485:Generated_Source\PSoC4/CapSense_Structure.c ****         CapSense_RAM_WD_CSX_TOUCHPAD_STRUCT *wdCsxTouchpad;
1486:Generated_Source\PSoC4/CapSense_Structure.c ****     #endif /* #if (0u != CapSense_CSX_TOUCHPAD_WIDGET_EN) */
1487:Generated_Source\PSoC4/CapSense_Structure.c **** 
1488:Generated_Source\PSoC4/CapSense_Structure.c ****     cystatus state = CYRET_SUCCESS;
1489:Generated_Source\PSoC4/CapSense_Structure.c ****     uint32 result = CapSense_TOUCHPAD_NO_TOUCH;
1490:Generated_Source\PSoC4/CapSense_Structure.c **** 
1491:Generated_Source\PSoC4/CapSense_Structure.c ****     if (widgetId >= CapSense_TOTAL_WIDGETS)
 848              		.loc 1 1491 0
 849 0002 0028     		cmp	r0, #0
 850 0004 0BD1     		bne	.L70
1492:Generated_Source\PSoC4/CapSense_Structure.c ****     {
ARM GAS  C:\Users\YUANFA~1\AppData\Local\Temp\cc9Xhnxa.s 			page 43


1493:Generated_Source\PSoC4/CapSense_Structure.c ****         state = CYRET_BAD_PARAM;
1494:Generated_Source\PSoC4/CapSense_Structure.c ****     }
1495:Generated_Source\PSoC4/CapSense_Structure.c ****     else
1496:Generated_Source\PSoC4/CapSense_Structure.c ****     {
1497:Generated_Source\PSoC4/CapSense_Structure.c ****         ptrFlashWdgt = &CapSense_dsFlash.wdgtArray[widgetId];
 851              		.loc 1 1497 0
 852 0006 0D4B     		ldr	r3, .L73
 853 0008 4033     		adds	r3, r3, #64
 854 000a 1900     		movs	r1, r3
 855 000c C300     		lsls	r3, r0, #3
 856 000e 1C1A     		subs	r4, r3, r0
 857 0010 E200     		lsls	r2, r4, #3
 858 0012 8A18     		adds	r2, r1, r2
 859              	.LVL95:
1498:Generated_Source\PSoC4/CapSense_Structure.c **** 
1499:Generated_Source\PSoC4/CapSense_Structure.c ****         if ((CapSense_WD_TYPE_ENUM)ptrFlashWdgt->wdgtType != CapSense_WD_TOUCHPAD_E)
 860              		.loc 1 1499 0
 861 0014 937E     		ldrb	r3, [r2, #26]
 862 0016 052B     		cmp	r3, #5
 863 0018 04D1     		bne	.L71
1488:Generated_Source\PSoC4/CapSense_Structure.c ****     uint32 result = CapSense_TOUCHPAD_NO_TOUCH;
 864              		.loc 1 1488 0
 865 001a 0023     		movs	r3, #0
 866 001c 03E0     		b	.L68
 867              	.LVL96:
 868              	.L70:
1493:Generated_Source\PSoC4/CapSense_Structure.c ****     }
 869              		.loc 1 1493 0
 870 001e 0123     		movs	r3, #1
1478:Generated_Source\PSoC4/CapSense_Structure.c **** 
 871              		.loc 1 1478 0
 872 0020 0022     		movs	r2, #0
 873 0022 00E0     		b	.L68
 874              	.LVL97:
 875              	.L71:
1500:Generated_Source\PSoC4/CapSense_Structure.c ****         {
1501:Generated_Source\PSoC4/CapSense_Structure.c ****             state = CYRET_BAD_PARAM;
 876              		.loc 1 1501 0
 877 0024 0123     		movs	r3, #1
 878              	.LVL98:
 879              	.L68:
1502:Generated_Source\PSoC4/CapSense_Structure.c ****         }
1503:Generated_Source\PSoC4/CapSense_Structure.c ****     }
1504:Generated_Source\PSoC4/CapSense_Structure.c **** 
1505:Generated_Source\PSoC4/CapSense_Structure.c ****     if (CYRET_SUCCESS == state)
 880              		.loc 1 1505 0
 881 0026 002B     		cmp	r3, #0
 882 0028 05D1     		bne	.L72
1506:Generated_Source\PSoC4/CapSense_Structure.c ****     {
1507:Generated_Source\PSoC4/CapSense_Structure.c ****         switch(CapSense_GET_SENSE_METHOD(ptrFlashWdgt))
1508:Generated_Source\PSoC4/CapSense_Structure.c ****         {
1509:Generated_Source\PSoC4/CapSense_Structure.c ****         #if (0u != CapSense_CSD_TOUCHPAD_WIDGET_EN)
1510:Generated_Source\PSoC4/CapSense_Structure.c ****             case CapSense_SENSE_METHOD_CSD_E:
1511:Generated_Source\PSoC4/CapSense_Structure.c ****                 wdCsdTouchpad = ptrFlashWdgt->ptr2WdgtRam;
1512:Generated_Source\PSoC4/CapSense_Structure.c ****                 #if (CapSense_ENABLE == CapSense_CENTROID_5X5_CSD_EN)
1513:Generated_Source\PSoC4/CapSense_Structure.c ****                     #if (CapSense_ENABLE == CapSense_CENTROID_3X3_CSD_EN)
1514:Generated_Source\PSoC4/CapSense_Structure.c ****                         if (0 != (ptrFlashWdgt->staticConfig & CapSense_CENTROID_5X5_MASK))
ARM GAS  C:\Users\YUANFA~1\AppData\Local\Temp\cc9Xhnxa.s 			page 44


1515:Generated_Source\PSoC4/CapSense_Structure.c ****                         {
1516:Generated_Source\PSoC4/CapSense_Structure.c ****                     #endif
1517:Generated_Source\PSoC4/CapSense_Structure.c ****                         result = ((uint32)wdCsdTouchpad->position.pos[0u].x) |
1518:Generated_Source\PSoC4/CapSense_Structure.c ****                                  ((uint32)wdCsdTouchpad->position.pos[0u].y << 16u);
1519:Generated_Source\PSoC4/CapSense_Structure.c ****                     #if (CapSense_ENABLE == CapSense_CENTROID_3X3_CSD_EN)
1520:Generated_Source\PSoC4/CapSense_Structure.c ****                         }
1521:Generated_Source\PSoC4/CapSense_Structure.c ****                     #endif
1522:Generated_Source\PSoC4/CapSense_Structure.c ****                 #endif
1523:Generated_Source\PSoC4/CapSense_Structure.c **** 
1524:Generated_Source\PSoC4/CapSense_Structure.c ****                 #if (CapSense_ENABLE == CapSense_CENTROID_3X3_CSD_EN)
1525:Generated_Source\PSoC4/CapSense_Structure.c ****                     #if (CapSense_ENABLE == CapSense_CENTROID_5X5_CSD_EN)
1526:Generated_Source\PSoC4/CapSense_Structure.c ****                         if (0 != (ptrFlashWdgt->staticConfig & CapSense_CENTROID_3X3_MASK))
1527:Generated_Source\PSoC4/CapSense_Structure.c ****                         {
1528:Generated_Source\PSoC4/CapSense_Structure.c ****                     #endif
1529:Generated_Source\PSoC4/CapSense_Structure.c ****                         result = ((uint32)wdCsdTouchpad->posX) |
1530:Generated_Source\PSoC4/CapSense_Structure.c ****                                  ((uint32)wdCsdTouchpad->posY << 16u);
1531:Generated_Source\PSoC4/CapSense_Structure.c ****                     #if (CapSense_ENABLE == CapSense_CENTROID_5X5_CSD_EN)
1532:Generated_Source\PSoC4/CapSense_Structure.c ****                         }
1533:Generated_Source\PSoC4/CapSense_Structure.c ****                     #endif
1534:Generated_Source\PSoC4/CapSense_Structure.c ****                 #endif
1535:Generated_Source\PSoC4/CapSense_Structure.c **** 
1536:Generated_Source\PSoC4/CapSense_Structure.c ****                 break;
1537:Generated_Source\PSoC4/CapSense_Structure.c ****         #endif /* #if (0u != CapSense_CSD_TOUCHPAD_WIDGET_EN) */
1538:Generated_Source\PSoC4/CapSense_Structure.c **** 
1539:Generated_Source\PSoC4/CapSense_Structure.c ****         #if (0u != CapSense_CSX_TOUCHPAD_WIDGET_EN)
1540:Generated_Source\PSoC4/CapSense_Structure.c ****             case CapSense_SENSE_METHOD_CSX_E:
1541:Generated_Source\PSoC4/CapSense_Structure.c ****                 wdCsxTouchpad = ptrFlashWdgt->ptr2WdgtRam;
 883              		.loc 1 1541 0
 884 002a 5368     		ldr	r3, [r2, #4]
 885              	.LVL99:
1542:Generated_Source\PSoC4/CapSense_Structure.c **** 
1543:Generated_Source\PSoC4/CapSense_Structure.c ****                 result = ((uint32)wdCsxTouchpad->touch[0u].x) |
 886              		.loc 1 1543 0
 887 002c 9A8A     		ldrh	r2, [r3, #20]
 888              	.LVL100:
1544:Generated_Source\PSoC4/CapSense_Structure.c ****                          ((uint32)wdCsxTouchpad->touch[0u].y << 16u);
 889              		.loc 1 1544 0
 890 002e D88A     		ldrh	r0, [r3, #22]
 891              	.LVL101:
 892 0030 0004     		lsls	r0, r0, #16
1543:Generated_Source\PSoC4/CapSense_Structure.c ****                          ((uint32)wdCsxTouchpad->touch[0u].y << 16u);
 893              		.loc 1 1543 0
 894 0032 1043     		orrs	r0, r2
 895              	.LVL102:
1545:Generated_Source\PSoC4/CapSense_Structure.c ****                 break;
 896              		.loc 1 1545 0
 897 0034 01E0     		b	.L69
 898              	.LVL103:
 899              	.L72:
1489:Generated_Source\PSoC4/CapSense_Structure.c **** 
 900              		.loc 1 1489 0
 901 0036 0120     		movs	r0, #1
 902              	.LVL104:
 903 0038 4042     		rsbs	r0, r0, #0
 904              	.LVL105:
 905              	.L69:
1546:Generated_Source\PSoC4/CapSense_Structure.c ****         #endif /* #if (0u != CapSense_CSX_TOUCHPAD_WIDGET_EN) */
ARM GAS  C:\Users\YUANFA~1\AppData\Local\Temp\cc9Xhnxa.s 			page 45


1547:Generated_Source\PSoC4/CapSense_Structure.c **** 
1548:Generated_Source\PSoC4/CapSense_Structure.c ****         default:
1549:Generated_Source\PSoC4/CapSense_Structure.c ****             CYASSERT(0u);
1550:Generated_Source\PSoC4/CapSense_Structure.c ****             break;
1551:Generated_Source\PSoC4/CapSense_Structure.c ****         }
1552:Generated_Source\PSoC4/CapSense_Structure.c ****     }
1553:Generated_Source\PSoC4/CapSense_Structure.c **** 
1554:Generated_Source\PSoC4/CapSense_Structure.c ****     return result;
1555:Generated_Source\PSoC4/CapSense_Structure.c **** }
 906              		.loc 1 1555 0
 907              		@ sp needed
 908 003a 10BD     		pop	{r4, pc}
 909              	.L74:
 910              		.align	2
 911              	.L73:
 912 003c 00000000 		.word	.LANCHOR0
 913              		.cfi_endproc
 914              	.LFE8:
 915              		.size	CapSense_GetXYCoordinates, .-CapSense_GetXYCoordinates
 916              		.global	CapSense_extCapMap
 917              		.global	CapSense_ramIdacInit
 918              		.global	CapSense_ramWidgetInit
 919              		.global	CapSense_ioList
 920              		.global	CapSense_dsFlash
 921              		.comm	CapSense_dsRam,740,4
 922              		.section	.rodata
 923              		.align	2
 924              		.set	.LANCHOR0,. + 0
 925              	.LC0:
 926 0000 00       		.byte	0
 927 0001 09       		.byte	9
 928 0002 0B       		.byte	11
 929 0003 02       		.byte	2
 930 0004 0F       		.byte	15
 931 0005 06       		.byte	6
 932 0006 04       		.byte	4
 933 0007 0D       		.byte	13
 934 0008 07       		.byte	7
 935 0009 0E       		.byte	14
 936 000a 0C       		.byte	12
 937 000b 05       		.byte	5
 938 000c 08       		.byte	8
 939 000d 01       		.byte	1
 940 000e 03       		.byte	3
 941 000f 0A       		.byte	10
 942              		.type	CapSense_ramIdacInit, %object
 943              		.size	CapSense_ramIdacInit, 45
 944              	CapSense_ramIdacInit:
 945 0010 20       		.byte	32
 946 0011 20       		.byte	32
 947 0012 20       		.byte	32
 948 0013 20       		.byte	32
 949 0014 20       		.byte	32
 950 0015 20       		.byte	32
 951 0016 20       		.byte	32
 952 0017 20       		.byte	32
 953 0018 20       		.byte	32
ARM GAS  C:\Users\YUANFA~1\AppData\Local\Temp\cc9Xhnxa.s 			page 46


 954 0019 20       		.byte	32
 955 001a 20       		.byte	32
 956 001b 20       		.byte	32
 957 001c 20       		.byte	32
 958 001d 20       		.byte	32
 959 001e 20       		.byte	32
 960 001f 20       		.byte	32
 961 0020 20       		.byte	32
 962 0021 20       		.byte	32
 963 0022 20       		.byte	32
 964 0023 20       		.byte	32
 965 0024 20       		.byte	32
 966 0025 20       		.byte	32
 967 0026 20       		.byte	32
 968 0027 20       		.byte	32
 969 0028 20       		.byte	32
 970 0029 20       		.byte	32
 971 002a 20       		.byte	32
 972 002b 20       		.byte	32
 973 002c 20       		.byte	32
 974 002d 20       		.byte	32
 975 002e 20       		.byte	32
 976 002f 20       		.byte	32
 977 0030 20       		.byte	32
 978 0031 20       		.byte	32
 979 0032 20       		.byte	32
 980 0033 20       		.byte	32
 981 0034 20       		.byte	32
 982 0035 20       		.byte	32
 983 0036 20       		.byte	32
 984 0037 20       		.byte	32
 985 0038 20       		.byte	32
 986 0039 20       		.byte	32
 987 003a 20       		.byte	32
 988 003b 20       		.byte	32
 989 003c 20       		.byte	32
 990 003d 000000   		.space	3
 991              		.type	CapSense_dsFlash, %object
 992              		.size	CapSense_dsFlash, 56
 993              	CapSense_dsFlash:
 994 0040 00000000 		.word	CapSense_ioList
 995 0044 24000000 		.word	CapSense_dsRam+36
 996 0048 40000000 		.word	CapSense_dsRam+64
 997 004c 00000000 		.word	0
 998 0050 00000000 		.word	0
 999 0054 01280000 		.word	10241
 1000 0058 2D00     		.short	45
 1001 005a 05       		.byte	5
 1002 005b 0F       		.byte	15
 1003 005c 03       		.byte	3
 1004 005d 00       		.space	1
 1005 005e 6400     		.short	100
 1006 0060 6400     		.short	100
 1007 0062 0000     		.space	2
 1008 0064 24070000 		.word	1828
 1009 0068 00320000 		.word	12800
 1010 006c 94020000 		.word	CapSense_dsRam+660
ARM GAS  C:\Users\YUANFA~1\AppData\Local\Temp\cc9Xhnxa.s 			page 47


 1011 0070 00000000 		.word	CapSense_csxTouchpadData_Touchpad0
 1012 0074 80       		.byte	-128
 1013 0075 000000   		.space	3
 1014              		.type	CapSense_ramWidgetInit, %object
 1015              		.size	CapSense_ramWidgetInit, 28
 1016              	CapSense_ramWidgetInit:
 1017 0078 7201     		.short	370
 1018 007a 6400     		.short	100
 1019 007c 6400     		.short	100
 1020 007e 28       		.byte	40
 1021 007f 28       		.byte	40
 1022 0080 0A       		.byte	10
 1023 0081 03       		.byte	3
 1024 0082 1E       		.byte	30
 1025 0083 02       		.byte	2
 1026 0084 5000     		.short	80
 1027 0086 00       		.byte	0
 1028 0087 00       		.space	1
 1029 0088 C4090000 		.word	2500
 1030 008c FFFF     		.short	-1
 1031 008e FFFF     		.short	-1
 1032 0090 FF       		.byte	-1
 1033 0091 28       		.byte	40
 1034 0092 0000     		.space	2
 1035              		.type	CapSense_extCapMap, %object
 1036              		.size	CapSense_extCapMap, 2
 1037              	CapSense_extCapMap:
 1038 0094 02       		.byte	2
 1039 0095 03       		.byte	3
 1040 0096 0000     		.space	2
 1041              		.type	CapSense_ioList, %object
 1042              		.size	CapSense_ioList, 576
 1043              	CapSense_ioList:
 1044 0098 00020240 		.word	1073873408
 1045 009c 08020440 		.word	1074004488
 1046 00a0 18020440 		.word	1074004504
 1047 00a4 00020440 		.word	1074004480
 1048 00a8 04020440 		.word	1074004484
 1049 00ac 000F0000 		.word	3840
 1050 00b0 04000000 		.word	4
 1051 00b4 08       		.byte	8
 1052 00b5 02       		.byte	2
 1053 00b6 06       		.byte	6
 1054 00b7 00       		.space	1
 1055 00b8 00020240 		.word	1073873408
 1056 00bc 08020440 		.word	1074004488
 1057 00c0 18020440 		.word	1074004504
 1058 00c4 00020440 		.word	1074004480
 1059 00c8 04020440 		.word	1074004484
 1060 00cc F0000000 		.word	240
 1061 00d0 02000000 		.word	2
 1062 00d4 04       		.byte	4
 1063 00d5 01       		.byte	1
 1064 00d6 03       		.byte	3
 1065 00d7 00       		.space	1
 1066 00d8 00020240 		.word	1073873408
 1067 00dc 08020440 		.word	1074004488
ARM GAS  C:\Users\YUANFA~1\AppData\Local\Temp\cc9Xhnxa.s 			page 48


 1068 00e0 18020440 		.word	1074004504
 1069 00e4 00020440 		.word	1074004480
 1070 00e8 04020440 		.word	1074004484
 1071 00ec 0F000000 		.word	15
 1072 00f0 01000000 		.word	1
 1073 00f4 00       		.byte	0
 1074 00f5 00       		.byte	0
 1075 00f6 00       		.byte	0
 1076 00f7 00       		.space	1
 1077 00f8 00010240 		.word	1073873152
 1078 00fc 08010440 		.word	1074004232
 1079 0100 18010440 		.word	1074004248
 1080 0104 00010440 		.word	1074004224
 1081 0108 04010440 		.word	1074004228
 1082 010c 0000000F 		.word	251658240
 1083 0110 40000000 		.word	64
 1084 0114 18       		.byte	24
 1085 0115 06       		.byte	6
 1086 0116 12       		.byte	18
 1087 0117 00       		.space	1
 1088 0118 00010240 		.word	1073873152
 1089 011c 08010440 		.word	1074004232
 1090 0120 18010440 		.word	1074004248
 1091 0124 00010440 		.word	1074004224
 1092 0128 04010440 		.word	1074004228
 1093 012c 0000F000 		.word	15728640
 1094 0130 20000000 		.word	32
 1095 0134 14       		.byte	20
 1096 0135 05       		.byte	5
 1097 0136 0F       		.byte	15
 1098 0137 00       		.space	1
 1099 0138 00010240 		.word	1073873152
 1100 013c 08010440 		.word	1074004232
 1101 0140 18010440 		.word	1074004248
 1102 0144 00010440 		.word	1074004224
 1103 0148 04010440 		.word	1074004228
 1104 014c 00000F00 		.word	983040
 1105 0150 10000000 		.word	16
 1106 0154 10       		.byte	16
 1107 0155 04       		.byte	4
 1108 0156 0C       		.byte	12
 1109 0157 00       		.space	1
 1110 0158 00010240 		.word	1073873152
 1111 015c 08010440 		.word	1074004232
 1112 0160 18010440 		.word	1074004248
 1113 0164 00010440 		.word	1074004224
 1114 0168 04010440 		.word	1074004228
 1115 016c 000F0000 		.word	3840
 1116 0170 04000000 		.word	4
 1117 0174 08       		.byte	8
 1118 0175 02       		.byte	2
 1119 0176 06       		.byte	6
 1120 0177 00       		.space	1
 1121 0178 00010240 		.word	1073873152
 1122 017c 08010440 		.word	1074004232
 1123 0180 18010440 		.word	1074004248
 1124 0184 00010440 		.word	1074004224
ARM GAS  C:\Users\YUANFA~1\AppData\Local\Temp\cc9Xhnxa.s 			page 49


 1125 0188 04010440 		.word	1074004228
 1126 018c F0000000 		.word	240
 1127 0190 02000000 		.word	2
 1128 0194 04       		.byte	4
 1129 0195 01       		.byte	1
 1130 0196 03       		.byte	3
 1131 0197 00       		.space	1
 1132 0198 00010240 		.word	1073873152
 1133 019c 08010440 		.word	1074004232
 1134 01a0 18010440 		.word	1074004248
 1135 01a4 00010440 		.word	1074004224
 1136 01a8 04010440 		.word	1074004228
 1137 01ac 0F000000 		.word	15
 1138 01b0 01000000 		.word	1
 1139 01b4 00       		.byte	0
 1140 01b5 00       		.byte	0
 1141 01b6 00       		.byte	0
 1142 01b7 00       		.space	1
 1143 01b8 00040240 		.word	1073873920
 1144 01bc 08040440 		.word	1074005000
 1145 01c0 18040440 		.word	1074005016
 1146 01c4 00040440 		.word	1074004992
 1147 01c8 04040440 		.word	1074004996
 1148 01cc 00000F00 		.word	983040
 1149 01d0 10000000 		.word	16
 1150 01d4 10       		.byte	16
 1151 01d5 04       		.byte	4
 1152 01d6 0C       		.byte	12
 1153 01d7 00       		.space	1
 1154 01d8 00040240 		.word	1073873920
 1155 01dc 08040440 		.word	1074005000
 1156 01e0 18040440 		.word	1074005016
 1157 01e4 00040440 		.word	1074004992
 1158 01e8 04040440 		.word	1074004996
 1159 01ec 0000F000 		.word	15728640
 1160 01f0 20000000 		.word	32
 1161 01f4 14       		.byte	20
 1162 01f5 05       		.byte	5
 1163 01f6 0F       		.byte	15
 1164 01f7 00       		.space	1
 1165 01f8 00040240 		.word	1073873920
 1166 01fc 08040440 		.word	1074005000
 1167 0200 18040440 		.word	1074005016
 1168 0204 00040440 		.word	1074004992
 1169 0208 04040440 		.word	1074004996
 1170 020c 0000000F 		.word	251658240
 1171 0210 40000000 		.word	64
 1172 0214 18       		.byte	24
 1173 0215 06       		.byte	6
 1174 0216 12       		.byte	18
 1175 0217 00       		.space	1
 1176 0218 00040240 		.word	1073873920
 1177 021c 08040440 		.word	1074005000
 1178 0220 18040440 		.word	1074005016
 1179 0224 00040440 		.word	1074004992
 1180 0228 04040440 		.word	1074004996
 1181 022c 000000F0 		.word	-268435456
ARM GAS  C:\Users\YUANFA~1\AppData\Local\Temp\cc9Xhnxa.s 			page 50


 1182 0230 80000000 		.word	128
 1183 0234 1C       		.byte	28
 1184 0235 07       		.byte	7
 1185 0236 15       		.byte	21
 1186 0237 00       		.space	1
 1187 0238 00050240 		.word	1073874176
 1188 023c 08050440 		.word	1074005256
 1189 0240 18050440 		.word	1074005272
 1190 0244 00050440 		.word	1074005248
 1191 0248 04050440 		.word	1074005252
 1192 024c 0000000F 		.word	251658240
 1193 0250 40000000 		.word	64
 1194 0254 18       		.byte	24
 1195 0255 06       		.byte	6
 1196 0256 12       		.byte	18
 1197 0257 00       		.space	1
 1198 0258 00050240 		.word	1073874176
 1199 025c 08050440 		.word	1074005256
 1200 0260 18050440 		.word	1074005272
 1201 0264 00050440 		.word	1074005248
 1202 0268 04050440 		.word	1074005252
 1203 026c 000000F0 		.word	-268435456
 1204 0270 80000000 		.word	128
 1205 0274 1C       		.byte	28
 1206 0275 07       		.byte	7
 1207 0276 15       		.byte	21
 1208 0277 00       		.space	1
 1209 0278 00020240 		.word	1073873408
 1210 027c 08020440 		.word	1074004488
 1211 0280 18020440 		.word	1074004504
 1212 0284 00020440 		.word	1074004480
 1213 0288 04020440 		.word	1074004484
 1214 028c 0000F000 		.word	15728640
 1215 0290 20000000 		.word	32
 1216 0294 14       		.byte	20
 1217 0295 05       		.byte	5
 1218 0296 0F       		.byte	15
 1219 0297 00       		.space	1
 1220 0298 00020240 		.word	1073873408
 1221 029c 08020440 		.word	1074004488
 1222 02a0 18020440 		.word	1074004504
 1223 02a4 00020440 		.word	1074004480
 1224 02a8 04020440 		.word	1074004484
 1225 02ac 0000000F 		.word	251658240
 1226 02b0 40000000 		.word	64
 1227 02b4 18       		.byte	24
 1228 02b5 06       		.byte	6
 1229 02b6 12       		.byte	18
 1230 02b7 00       		.space	1
 1231 02b8 00020240 		.word	1073873408
 1232 02bc 08020440 		.word	1074004488
 1233 02c0 18020440 		.word	1074004504
 1234 02c4 00020440 		.word	1074004480
 1235 02c8 04020440 		.word	1074004484
 1236 02cc 000000F0 		.word	-268435456
 1237 02d0 80000000 		.word	128
 1238 02d4 1C       		.byte	28
ARM GAS  C:\Users\YUANFA~1\AppData\Local\Temp\cc9Xhnxa.s 			page 51


 1239 02d5 07       		.byte	7
 1240 02d6 15       		.byte	21
 1241 02d7 00       		.space	1
 1242              		.bss
 1243              		.align	2
 1244              		.type	CapSense_csxTouchpadData_Touchpad0, %object
 1245              		.size	CapSense_csxTouchpadData_Touchpad0, 62
 1246              	CapSense_csxTouchpadData_Touchpad0:
 1247 0000 00000000 		.space	62
 1247      00000000 
 1247      00000000 
 1247      00000000 
 1247      00000000 
 1248              		.text
 1249              	.Letext0:
 1250              		.file 2 "Generated_Source\\PSoC4/cytypes.h"
 1251              		.file 3 "Generated_Source\\PSoC4\\CapSense_Configuration.h"
 1252              		.file 4 "Generated_Source\\PSoC4\\CapSense_Structure.h"
 1253              		.file 5 "Generated_Source\\PSoC4\\CyLib.h"
 1254              		.file 6 "Generated_Source\\PSoC4\\CapSense_SelfTest.h"
 1255              		.section	.debug_info,"",%progbits
 1256              	.Ldebug_info0:
 1257 0000 550F0000 		.4byte	0xf55
 1258 0004 0400     		.2byte	0x4
 1259 0006 00000000 		.4byte	.Ldebug_abbrev0
 1260 000a 04       		.byte	0x4
 1261 000b 01       		.uleb128 0x1
 1262 000c 2E020000 		.4byte	.LASF196
 1263 0010 0C       		.byte	0xc
 1264 0011 53010000 		.4byte	.LASF197
 1265 0015 AE040000 		.4byte	.LASF198
 1266 0019 00000000 		.4byte	.Ldebug_ranges0+0
 1267 001d 00000000 		.4byte	0
 1268 0021 00000000 		.4byte	.Ldebug_line0
 1269 0025 02       		.uleb128 0x2
 1270 0026 01       		.byte	0x1
 1271 0027 06       		.byte	0x6
 1272 0028 440B0000 		.4byte	.LASF0
 1273 002c 02       		.uleb128 0x2
 1274 002d 01       		.byte	0x1
 1275 002e 08       		.byte	0x8
 1276 002f 550A0000 		.4byte	.LASF1
 1277 0033 02       		.uleb128 0x2
 1278 0034 02       		.byte	0x2
 1279 0035 05       		.byte	0x5
 1280 0036 64080000 		.4byte	.LASF2
 1281 003a 02       		.uleb128 0x2
 1282 003b 02       		.byte	0x2
 1283 003c 07       		.byte	0x7
 1284 003d 550B0000 		.4byte	.LASF3
 1285 0041 02       		.uleb128 0x2
 1286 0042 04       		.byte	0x4
 1287 0043 05       		.byte	0x5
 1288 0044 82080000 		.4byte	.LASF4
 1289 0048 02       		.uleb128 0x2
 1290 0049 04       		.byte	0x4
 1291 004a 07       		.byte	0x7
ARM GAS  C:\Users\YUANFA~1\AppData\Local\Temp\cc9Xhnxa.s 			page 52


 1292 004b E2090000 		.4byte	.LASF5
 1293 004f 02       		.uleb128 0x2
 1294 0050 08       		.byte	0x8
 1295 0051 05       		.byte	0x5
 1296 0052 B3050000 		.4byte	.LASF6
 1297 0056 02       		.uleb128 0x2
 1298 0057 08       		.byte	0x8
 1299 0058 07       		.byte	0x7
 1300 0059 CF020000 		.4byte	.LASF7
 1301 005d 03       		.uleb128 0x3
 1302 005e 04       		.byte	0x4
 1303 005f 05       		.byte	0x5
 1304 0060 696E7400 		.ascii	"int\000"
 1305 0064 02       		.uleb128 0x2
 1306 0065 04       		.byte	0x4
 1307 0066 07       		.byte	0x7
 1308 0067 B1000000 		.4byte	.LASF8
 1309 006b 04       		.uleb128 0x4
 1310 006c 9E0B0000 		.4byte	.LASF9
 1311 0070 02       		.byte	0x2
 1312 0071 FB01     		.2byte	0x1fb
 1313 0073 2C000000 		.4byte	0x2c
 1314 0077 04       		.uleb128 0x4
 1315 0078 1D050000 		.4byte	.LASF10
 1316 007c 02       		.byte	0x2
 1317 007d FC01     		.2byte	0x1fc
 1318 007f 3A000000 		.4byte	0x3a
 1319 0083 04       		.uleb128 0x4
 1320 0084 CD060000 		.4byte	.LASF11
 1321 0088 02       		.byte	0x2
 1322 0089 FD01     		.2byte	0x1fd
 1323 008b 48000000 		.4byte	0x48
 1324 008f 02       		.uleb128 0x2
 1325 0090 04       		.byte	0x4
 1326 0091 04       		.byte	0x4
 1327 0092 22020000 		.4byte	.LASF12
 1328 0096 02       		.uleb128 0x2
 1329 0097 08       		.byte	0x8
 1330 0098 04       		.byte	0x4
 1331 0099 A40B0000 		.4byte	.LASF13
 1332 009d 02       		.uleb128 0x2
 1333 009e 01       		.byte	0x1
 1334 009f 08       		.byte	0x8
 1335 00a0 A9040000 		.4byte	.LASF14
 1336 00a4 04       		.uleb128 0x4
 1337 00a5 470A0000 		.4byte	.LASF15
 1338 00a9 02       		.byte	0x2
 1339 00aa 9D02     		.2byte	0x29d
 1340 00ac 48000000 		.4byte	0x48
 1341 00b0 05       		.uleb128 0x5
 1342 00b1 6B000000 		.4byte	0x6b
 1343 00b5 05       		.uleb128 0x5
 1344 00b6 77000000 		.4byte	0x77
 1345 00ba 04       		.uleb128 0x4
 1346 00bb C6070000 		.4byte	.LASF16
 1347 00bf 02       		.byte	0x2
 1348 00c0 A702     		.2byte	0x2a7
ARM GAS  C:\Users\YUANFA~1\AppData\Local\Temp\cc9Xhnxa.s 			page 53


 1349 00c2 C6000000 		.4byte	0xc6
 1350 00c6 05       		.uleb128 0x5
 1351 00c7 83000000 		.4byte	0x83
 1352 00cb 02       		.uleb128 0x2
 1353 00cc 08       		.byte	0x8
 1354 00cd 04       		.byte	0x4
 1355 00ce 78070000 		.4byte	.LASF17
 1356 00d2 02       		.uleb128 0x2
 1357 00d3 04       		.byte	0x4
 1358 00d4 07       		.byte	0x7
 1359 00d5 D1090000 		.4byte	.LASF18
 1360 00d9 06       		.uleb128 0x6
 1361 00da 04       		.byte	0x4
 1362 00db 04       		.uleb128 0x4
 1363 00dc BF0A0000 		.4byte	.LASF19
 1364 00e0 03       		.byte	0x3
 1365 00e1 8D01     		.2byte	0x18d
 1366 00e3 77000000 		.4byte	0x77
 1367 00e7 04       		.uleb128 0x4
 1368 00e8 64050000 		.4byte	.LASF20
 1369 00ec 03       		.byte	0x3
 1370 00ed 9101     		.2byte	0x191
 1371 00ef 6B000000 		.4byte	0x6b
 1372 00f3 07       		.uleb128 0x7
 1373 00f4 01       		.byte	0x1
 1374 00f5 2C000000 		.4byte	0x2c
 1375 00f9 04       		.byte	0x4
 1376 00fa 61       		.byte	0x61
 1377 00fb 2A010000 		.4byte	0x12a
 1378 00ff 08       		.uleb128 0x8
 1379 0100 17090000 		.4byte	.LASF21
 1380 0104 01       		.byte	0x1
 1381 0105 08       		.uleb128 0x8
 1382 0106 E9060000 		.4byte	.LASF22
 1383 010a 02       		.byte	0x2
 1384 010b 08       		.uleb128 0x8
 1385 010c 03040000 		.4byte	.LASF23
 1386 0110 03       		.byte	0x3
 1387 0111 08       		.uleb128 0x8
 1388 0112 E6020000 		.4byte	.LASF24
 1389 0116 04       		.byte	0x4
 1390 0117 08       		.uleb128 0x8
 1391 0118 8A010000 		.4byte	.LASF25
 1392 011c 05       		.byte	0x5
 1393 011d 08       		.uleb128 0x8
 1394 011e 0E000000 		.4byte	.LASF26
 1395 0122 06       		.byte	0x6
 1396 0123 08       		.uleb128 0x8
 1397 0124 1D080000 		.4byte	.LASF27
 1398 0128 07       		.byte	0x7
 1399 0129 00       		.byte	0
 1400 012a 09       		.uleb128 0x9
 1401 012b AE060000 		.4byte	.LASF28
 1402 012f 04       		.byte	0x4
 1403 0130 69       		.byte	0x69
 1404 0131 F3000000 		.4byte	0xf3
 1405 0135 07       		.uleb128 0x7
ARM GAS  C:\Users\YUANFA~1\AppData\Local\Temp\cc9Xhnxa.s 			page 54


 1406 0136 01       		.byte	0x1
 1407 0137 2C000000 		.4byte	0x2c
 1408 013b 04       		.byte	0x4
 1409 013c 70       		.byte	0x70
 1410 013d 60010000 		.4byte	0x160
 1411 0141 08       		.uleb128 0x8
 1412 0142 81000000 		.4byte	.LASF29
 1413 0146 00       		.byte	0
 1414 0147 08       		.uleb128 0x8
 1415 0148 B5090000 		.4byte	.LASF30
 1416 014c 01       		.byte	0x1
 1417 014d 08       		.uleb128 0x8
 1418 014e CD080000 		.4byte	.LASF31
 1419 0152 02       		.byte	0x2
 1420 0153 08       		.uleb128 0x8
 1421 0154 D70A0000 		.4byte	.LASF32
 1422 0158 03       		.byte	0x3
 1423 0159 08       		.uleb128 0x8
 1424 015a 5C070000 		.4byte	.LASF33
 1425 015e 04       		.byte	0x4
 1426 015f 00       		.byte	0
 1427 0160 0A       		.uleb128 0xa
 1428 0161 06       		.byte	0x6
 1429 0162 04       		.byte	0x4
 1430 0163 F1       		.byte	0xf1
 1431 0164 94010000 		.4byte	0x194
 1432 0168 0B       		.uleb128 0xb
 1433 0169 7800     		.ascii	"x\000"
 1434 016b 04       		.byte	0x4
 1435 016c F6       		.byte	0xf6
 1436 016d 77000000 		.4byte	0x77
 1437 0171 00       		.byte	0
 1438 0172 0B       		.uleb128 0xb
 1439 0173 7900     		.ascii	"y\000"
 1440 0175 04       		.byte	0x4
 1441 0176 FB       		.byte	0xfb
 1442 0177 77000000 		.4byte	0x77
 1443 017b 02       		.byte	0x2
 1444 017c 0C       		.uleb128 0xc
 1445 017d 7A00     		.ascii	"z\000"
 1446 017f 04       		.byte	0x4
 1447 0180 0001     		.2byte	0x100
 1448 0182 6B000000 		.4byte	0x6b
 1449 0186 04       		.byte	0x4
 1450 0187 0C       		.uleb128 0xc
 1451 0188 696400   		.ascii	"id\000"
 1452 018b 04       		.byte	0x4
 1453 018c 0501     		.2byte	0x105
 1454 018e 6B000000 		.4byte	0x6b
 1455 0192 05       		.byte	0x5
 1456 0193 00       		.byte	0
 1457 0194 04       		.uleb128 0x4
 1458 0195 A4030000 		.4byte	.LASF34
 1459 0199 04       		.byte	0x4
 1460 019a 0601     		.2byte	0x106
 1461 019c 60010000 		.4byte	0x160
 1462 01a0 0D       		.uleb128 0xd
ARM GAS  C:\Users\YUANFA~1\AppData\Local\Temp\cc9Xhnxa.s 			page 55


 1463 01a1 1C       		.byte	0x1c
 1464 01a2 04       		.byte	0x4
 1465 01a3 0B01     		.2byte	0x10b
 1466 01a5 53020000 		.4byte	0x253
 1467 01a9 0C       		.uleb128 0xc
 1468 01aa 63726300 		.ascii	"crc\000"
 1469 01ae 04       		.byte	0x4
 1470 01af 1001     		.2byte	0x110
 1471 01b1 77000000 		.4byte	0x77
 1472 01b5 00       		.byte	0
 1473 01b6 0E       		.uleb128 0xe
 1474 01b7 49050000 		.4byte	.LASF35
 1475 01bb 04       		.byte	0x4
 1476 01bc 1501     		.2byte	0x115
 1477 01be 77000000 		.4byte	0x77
 1478 01c2 02       		.byte	0x2
 1479 01c3 0E       		.uleb128 0xe
 1480 01c4 360A0000 		.4byte	.LASF36
 1481 01c8 04       		.byte	0x4
 1482 01c9 1A01     		.2byte	0x11a
 1483 01cb DB000000 		.4byte	0xdb
 1484 01cf 04       		.byte	0x4
 1485 01d0 0E       		.uleb128 0xe
 1486 01d1 A1040000 		.4byte	.LASF37
 1487 01d5 04       		.byte	0x4
 1488 01d6 1F01     		.2byte	0x11f
 1489 01d8 6B000000 		.4byte	0x6b
 1490 01dc 06       		.byte	0x6
 1491 01dd 0E       		.uleb128 0xe
 1492 01de 72060000 		.4byte	.LASF38
 1493 01e2 04       		.byte	0x4
 1494 01e3 2401     		.2byte	0x124
 1495 01e5 6B000000 		.4byte	0x6b
 1496 01e9 07       		.byte	0x7
 1497 01ea 0E       		.uleb128 0xe
 1498 01eb F8030000 		.4byte	.LASF39
 1499 01ef 04       		.byte	0x4
 1500 01f0 2A01     		.2byte	0x12a
 1501 01f2 6B000000 		.4byte	0x6b
 1502 01f6 08       		.byte	0x8
 1503 01f7 0E       		.uleb128 0xe
 1504 01f8 DA050000 		.4byte	.LASF40
 1505 01fc 04       		.byte	0x4
 1506 01fd 3001     		.2byte	0x130
 1507 01ff 6B000000 		.4byte	0x6b
 1508 0203 09       		.byte	0x9
 1509 0204 0E       		.uleb128 0xe
 1510 0205 4B040000 		.4byte	.LASF41
 1511 0209 04       		.byte	0x4
 1512 020a 3701     		.2byte	0x137
 1513 020c E7000000 		.4byte	0xe7
 1514 0210 0A       		.byte	0xa
 1515 0211 0E       		.uleb128 0xe
 1516 0212 08020000 		.4byte	.LASF42
 1517 0216 04       		.byte	0x4
 1518 0217 3C01     		.2byte	0x13c
 1519 0219 6B000000 		.4byte	0x6b
ARM GAS  C:\Users\YUANFA~1\AppData\Local\Temp\cc9Xhnxa.s 			page 56


 1520 021d 0B       		.byte	0xb
 1521 021e 0E       		.uleb128 0xe
 1522 021f 1C0B0000 		.4byte	.LASF43
 1523 0223 04       		.byte	0x4
 1524 0224 4401     		.2byte	0x144
 1525 0226 77000000 		.4byte	0x77
 1526 022a 0C       		.byte	0xc
 1527 022b 0E       		.uleb128 0xe
 1528 022c 37080000 		.4byte	.LASF44
 1529 0230 04       		.byte	0x4
 1530 0231 4901     		.2byte	0x149
 1531 0233 6B000000 		.4byte	0x6b
 1532 0237 0E       		.byte	0xe
 1533 0238 0E       		.uleb128 0xe
 1534 0239 2A060000 		.4byte	.LASF45
 1535 023d 04       		.byte	0x4
 1536 023e 5201     		.2byte	0x152
 1537 0240 83000000 		.4byte	0x83
 1538 0244 10       		.byte	0x10
 1539 0245 0E       		.uleb128 0xe
 1540 0246 86060000 		.4byte	.LASF46
 1541 024a 04       		.byte	0x4
 1542 024b 5701     		.2byte	0x157
 1543 024d 53020000 		.4byte	0x253
 1544 0251 14       		.byte	0x14
 1545 0252 00       		.byte	0
 1546 0253 0F       		.uleb128 0xf
 1547 0254 94010000 		.4byte	0x194
 1548 0258 63020000 		.4byte	0x263
 1549 025c 10       		.uleb128 0x10
 1550 025d D2000000 		.4byte	0xd2
 1551 0261 00       		.byte	0
 1552 0262 00       		.byte	0
 1553 0263 04       		.uleb128 0x4
 1554 0264 85090000 		.4byte	.LASF47
 1555 0268 04       		.byte	0x4
 1556 0269 5801     		.2byte	0x158
 1557 026b A0010000 		.4byte	0x1a0
 1558 026f 0D       		.uleb128 0xd
 1559 0270 1C       		.byte	0x1c
 1560 0271 04       		.byte	0x4
 1561 0272 5E01     		.2byte	0x15e
 1562 0274 86020000 		.4byte	0x286
 1563 0278 0E       		.uleb128 0xe
 1564 0279 02030000 		.4byte	.LASF48
 1565 027d 04       		.byte	0x4
 1566 027e 6301     		.2byte	0x163
 1567 0280 63020000 		.4byte	0x263
 1568 0284 00       		.byte	0
 1569 0285 00       		.byte	0
 1570 0286 04       		.uleb128 0x4
 1571 0287 A1010000 		.4byte	.LASF49
 1572 028b 04       		.byte	0x4
 1573 028c 6401     		.2byte	0x164
 1574 028e 6F020000 		.4byte	0x26f
 1575 0292 0D       		.uleb128 0xd
 1576 0293 0C       		.byte	0xc
ARM GAS  C:\Users\YUANFA~1\AppData\Local\Temp\cc9Xhnxa.s 			page 57


 1577 0294 04       		.byte	0x4
 1578 0295 6A01     		.2byte	0x16a
 1579 0297 F7020000 		.4byte	0x2f7
 1580 029b 0C       		.uleb128 0xc
 1581 029c 72617700 		.ascii	"raw\000"
 1582 02a0 04       		.byte	0x4
 1583 02a1 6F01     		.2byte	0x16f
 1584 02a3 F7020000 		.4byte	0x2f7
 1585 02a7 00       		.byte	0
 1586 02a8 0E       		.uleb128 0xe
 1587 02a9 500B0000 		.4byte	.LASF50
 1588 02ad 04       		.byte	0x4
 1589 02ae 7401     		.2byte	0x174
 1590 02b0 F7020000 		.4byte	0x2f7
 1591 02b4 02       		.byte	0x2
 1592 02b5 0E       		.uleb128 0xe
 1593 02b6 020B0000 		.4byte	.LASF51
 1594 02ba 04       		.byte	0x4
 1595 02bb 7901     		.2byte	0x179
 1596 02bd F7020000 		.4byte	0x2f7
 1597 02c1 04       		.byte	0x4
 1598 02c2 0E       		.uleb128 0xe
 1599 02c3 3F0A0000 		.4byte	.LASF52
 1600 02c7 04       		.byte	0x4
 1601 02c8 7F01     		.2byte	0x17f
 1602 02ca 07030000 		.4byte	0x307
 1603 02ce 06       		.byte	0x6
 1604 02cf 0E       		.uleb128 0xe
 1605 02d0 AC080000 		.4byte	.LASF53
 1606 02d4 04       		.byte	0x4
 1607 02d5 8401     		.2byte	0x184
 1608 02d7 DB000000 		.4byte	0xdb
 1609 02db 08       		.byte	0x8
 1610 02dc 0E       		.uleb128 0xe
 1611 02dd AB0B0000 		.4byte	.LASF54
 1612 02e1 04       		.byte	0x4
 1613 02e2 8901     		.2byte	0x189
 1614 02e4 17030000 		.4byte	0x317
 1615 02e8 0A       		.byte	0xa
 1616 02e9 0E       		.uleb128 0xe
 1617 02ea 89050000 		.4byte	.LASF55
 1618 02ee 04       		.byte	0x4
 1619 02ef 8E01     		.2byte	0x18e
 1620 02f1 07030000 		.4byte	0x307
 1621 02f5 0B       		.byte	0xb
 1622 02f6 00       		.byte	0
 1623 02f7 0F       		.uleb128 0xf
 1624 02f8 77000000 		.4byte	0x77
 1625 02fc 07030000 		.4byte	0x307
 1626 0300 10       		.uleb128 0x10
 1627 0301 D2000000 		.4byte	0xd2
 1628 0305 00       		.byte	0
 1629 0306 00       		.byte	0
 1630 0307 0F       		.uleb128 0xf
 1631 0308 6B000000 		.4byte	0x6b
 1632 030c 17030000 		.4byte	0x317
 1633 0310 10       		.uleb128 0x10
ARM GAS  C:\Users\YUANFA~1\AppData\Local\Temp\cc9Xhnxa.s 			page 58


 1634 0311 D2000000 		.4byte	0xd2
 1635 0315 00       		.byte	0
 1636 0316 00       		.byte	0
 1637 0317 0F       		.uleb128 0xf
 1638 0318 E7000000 		.4byte	0xe7
 1639 031c 27030000 		.4byte	0x327
 1640 0320 10       		.uleb128 0x10
 1641 0321 D2000000 		.4byte	0xd2
 1642 0325 00       		.byte	0
 1643 0326 00       		.byte	0
 1644 0327 04       		.uleb128 0x4
 1645 0328 C7030000 		.4byte	.LASF56
 1646 032c 04       		.byte	0x4
 1647 032d 8F01     		.2byte	0x18f
 1648 032f 92020000 		.4byte	0x292
 1649 0333 11       		.uleb128 0x11
 1650 0334 1C02     		.2byte	0x21c
 1651 0336 04       		.byte	0x4
 1652 0337 9501     		.2byte	0x195
 1653 0339 4B030000 		.4byte	0x34b
 1654 033d 0E       		.uleb128 0xe
 1655 033e 02030000 		.4byte	.LASF48
 1656 0342 04       		.byte	0x4
 1657 0343 9A01     		.2byte	0x19a
 1658 0345 4B030000 		.4byte	0x34b
 1659 0349 00       		.byte	0
 1660 034a 00       		.byte	0
 1661 034b 0F       		.uleb128 0xf
 1662 034c 27030000 		.4byte	0x327
 1663 0350 5B030000 		.4byte	0x35b
 1664 0354 10       		.uleb128 0x10
 1665 0355 D2000000 		.4byte	0xd2
 1666 0359 2C       		.byte	0x2c
 1667 035a 00       		.byte	0
 1668 035b 04       		.uleb128 0x4
 1669 035c E70B0000 		.4byte	.LASF57
 1670 0360 04       		.byte	0x4
 1671 0361 9B01     		.2byte	0x19b
 1672 0363 33030000 		.4byte	0x333
 1673 0367 0D       		.uleb128 0xd
 1674 0368 18       		.byte	0x18
 1675 0369 04       		.byte	0x4
 1676 036a A101     		.2byte	0x1a1
 1677 036c 0D040000 		.4byte	0x40d
 1678 0370 0E       		.uleb128 0xe
 1679 0371 66040000 		.4byte	.LASF58
 1680 0375 04       		.byte	0x4
 1681 0376 A601     		.2byte	0x1a6
 1682 0378 83000000 		.4byte	0x83
 1683 037c 00       		.byte	0
 1684 037d 0E       		.uleb128 0xe
 1685 037e 58090000 		.4byte	.LASF59
 1686 0382 04       		.byte	0x4
 1687 0383 AB01     		.2byte	0x1ab
 1688 0385 0D040000 		.4byte	0x40d
 1689 0389 04       		.byte	0x4
 1690 038a 0E       		.uleb128 0xe
ARM GAS  C:\Users\YUANFA~1\AppData\Local\Temp\cc9Xhnxa.s 			page 59


 1691 038b A9090000 		.4byte	.LASF60
 1692 038f 04       		.byte	0x4
 1693 0390 B001     		.2byte	0x1b0
 1694 0392 77000000 		.4byte	0x77
 1695 0396 08       		.byte	0x8
 1696 0397 0E       		.uleb128 0xe
 1697 0398 12050000 		.4byte	.LASF61
 1698 039c 04       		.byte	0x4
 1699 039d B501     		.2byte	0x1b5
 1700 039f 77000000 		.4byte	0x77
 1701 03a3 0A       		.byte	0xa
 1702 03a4 0E       		.uleb128 0xe
 1703 03a5 060A0000 		.4byte	.LASF62
 1704 03a9 04       		.byte	0x4
 1705 03aa BB01     		.2byte	0x1bb
 1706 03ac 77000000 		.4byte	0x77
 1707 03b0 0C       		.byte	0xc
 1708 03b1 0E       		.uleb128 0xe
 1709 03b2 70090000 		.4byte	.LASF63
 1710 03b6 04       		.byte	0x4
 1711 03b7 C101     		.2byte	0x1c1
 1712 03b9 6B000000 		.4byte	0x6b
 1713 03bd 0E       		.byte	0xe
 1714 03be 0E       		.uleb128 0xe
 1715 03bf 36090000 		.4byte	.LASF64
 1716 03c3 04       		.byte	0x4
 1717 03c4 C601     		.2byte	0x1c6
 1718 03c6 6B000000 		.4byte	0x6b
 1719 03ca 0F       		.byte	0xf
 1720 03cb 0E       		.uleb128 0xe
 1721 03cc 24050000 		.4byte	.LASF65
 1722 03d0 04       		.byte	0x4
 1723 03d1 CB01     		.2byte	0x1cb
 1724 03d3 6B000000 		.4byte	0x6b
 1725 03d7 10       		.byte	0x10
 1726 03d8 0E       		.uleb128 0xe
 1727 03d9 7C030000 		.4byte	.LASF66
 1728 03dd 04       		.byte	0x4
 1729 03de D001     		.2byte	0x1d0
 1730 03e0 6B000000 		.4byte	0x6b
 1731 03e4 11       		.byte	0x11
 1732 03e5 0E       		.uleb128 0xe
 1733 03e6 65060000 		.4byte	.LASF67
 1734 03ea 04       		.byte	0x4
 1735 03eb D501     		.2byte	0x1d5
 1736 03ed 6B000000 		.4byte	0x6b
 1737 03f1 12       		.byte	0x12
 1738 03f2 0E       		.uleb128 0xe
 1739 03f3 08020000 		.4byte	.LASF42
 1740 03f7 04       		.byte	0x4
 1741 03f8 DA01     		.2byte	0x1da
 1742 03fa 6B000000 		.4byte	0x6b
 1743 03fe 13       		.byte	0x13
 1744 03ff 0E       		.uleb128 0xe
 1745 0400 1C0B0000 		.4byte	.LASF43
 1746 0404 04       		.byte	0x4
 1747 0405 DF01     		.2byte	0x1df
ARM GAS  C:\Users\YUANFA~1\AppData\Local\Temp\cc9Xhnxa.s 			page 60


 1748 0407 77000000 		.4byte	0x77
 1749 040b 14       		.byte	0x14
 1750 040c 00       		.byte	0
 1751 040d 0F       		.uleb128 0xf
 1752 040e 77000000 		.4byte	0x77
 1753 0412 1D040000 		.4byte	0x41d
 1754 0416 10       		.uleb128 0x10
 1755 0417 D2000000 		.4byte	0xd2
 1756 041b 01       		.byte	0x1
 1757 041c 00       		.byte	0
 1758 041d 04       		.uleb128 0x4
 1759 041e F4040000 		.4byte	.LASF68
 1760 0422 04       		.byte	0x4
 1761 0423 E001     		.2byte	0x1e0
 1762 0425 67030000 		.4byte	0x367
 1763 0429 0D       		.uleb128 0xd
 1764 042a 48       		.byte	0x48
 1765 042b 04       		.byte	0x4
 1766 042c E601     		.2byte	0x1e6
 1767 042e 40040000 		.4byte	0x440
 1768 0432 0E       		.uleb128 0xe
 1769 0433 02030000 		.4byte	.LASF48
 1770 0437 04       		.byte	0x4
 1771 0438 EB01     		.2byte	0x1eb
 1772 043a 40040000 		.4byte	0x440
 1773 043e 00       		.byte	0
 1774 043f 00       		.byte	0
 1775 0440 0F       		.uleb128 0xf
 1776 0441 83000000 		.4byte	0x83
 1777 0445 50040000 		.4byte	0x450
 1778 0449 10       		.uleb128 0x10
 1779 044a D2000000 		.4byte	0xd2
 1780 044e 11       		.byte	0x11
 1781 044f 00       		.byte	0
 1782 0450 04       		.uleb128 0x4
 1783 0451 04010000 		.4byte	.LASF69
 1784 0455 04       		.byte	0x4
 1785 0456 EC01     		.2byte	0x1ec
 1786 0458 29040000 		.4byte	0x429
 1787 045c 0D       		.uleb128 0xd
 1788 045d 20       		.byte	0x20
 1789 045e 04       		.byte	0x4
 1790 045f F101     		.2byte	0x1f1
 1791 0461 6A050000 		.4byte	0x56a
 1792 0465 0E       		.uleb128 0xe
 1793 0466 040C0000 		.4byte	.LASF70
 1794 046a 04       		.byte	0x4
 1795 046b F601     		.2byte	0x1f6
 1796 046d 83000000 		.4byte	0x83
 1797 0471 00       		.byte	0
 1798 0472 0E       		.uleb128 0xe
 1799 0473 3F010000 		.4byte	.LASF71
 1800 0477 04       		.byte	0x4
 1801 0478 FB01     		.2byte	0x1fb
 1802 047a 77000000 		.4byte	0x77
 1803 047e 04       		.byte	0x4
 1804 047f 0E       		.uleb128 0xe
ARM GAS  C:\Users\YUANFA~1\AppData\Local\Temp\cc9Xhnxa.s 			page 61


 1805 0480 01090000 		.4byte	.LASF72
 1806 0484 04       		.byte	0x4
 1807 0485 0002     		.2byte	0x200
 1808 0487 77000000 		.4byte	0x77
 1809 048b 06       		.byte	0x6
 1810 048c 0E       		.uleb128 0xe
 1811 048d 44090000 		.4byte	.LASF73
 1812 0491 04       		.byte	0x4
 1813 0492 0502     		.2byte	0x205
 1814 0494 77000000 		.4byte	0x77
 1815 0498 08       		.byte	0x8
 1816 0499 0E       		.uleb128 0xe
 1817 049a 230B0000 		.4byte	.LASF74
 1818 049e 04       		.byte	0x4
 1819 049f 0A02     		.2byte	0x20a
 1820 04a1 77000000 		.4byte	0x77
 1821 04a5 0A       		.byte	0xa
 1822 04a6 0E       		.uleb128 0xe
 1823 04a7 DF070000 		.4byte	.LASF75
 1824 04ab 04       		.byte	0x4
 1825 04ac 0F02     		.2byte	0x20f
 1826 04ae 77000000 		.4byte	0x77
 1827 04b2 0C       		.byte	0xc
 1828 04b3 0E       		.uleb128 0xe
 1829 04b4 F4090000 		.4byte	.LASF76
 1830 04b8 04       		.byte	0x4
 1831 04b9 1402     		.2byte	0x214
 1832 04bb 77000000 		.4byte	0x77
 1833 04bf 0E       		.byte	0xe
 1834 04c0 0E       		.uleb128 0xe
 1835 04c1 35030000 		.4byte	.LASF77
 1836 04c5 04       		.byte	0x4
 1837 04c6 1902     		.2byte	0x219
 1838 04c8 6B000000 		.4byte	0x6b
 1839 04cc 10       		.byte	0x10
 1840 04cd 0E       		.uleb128 0xe
 1841 04ce 40070000 		.4byte	.LASF78
 1842 04d2 04       		.byte	0x4
 1843 04d3 1E02     		.2byte	0x21e
 1844 04d5 6B000000 		.4byte	0x6b
 1845 04d9 11       		.byte	0x11
 1846 04da 0E       		.uleb128 0xe
 1847 04db 4D070000 		.4byte	.LASF79
 1848 04df 04       		.byte	0x4
 1849 04e0 2302     		.2byte	0x223
 1850 04e2 6B000000 		.4byte	0x6b
 1851 04e6 12       		.byte	0x12
 1852 04e7 0E       		.uleb128 0xe
 1853 04e8 56040000 		.4byte	.LASF80
 1854 04ec 04       		.byte	0x4
 1855 04ed 2802     		.2byte	0x228
 1856 04ef 6B000000 		.4byte	0x6b
 1857 04f3 13       		.byte	0x13
 1858 04f4 0E       		.uleb128 0xe
 1859 04f5 90040000 		.4byte	.LASF81
 1860 04f9 04       		.byte	0x4
 1861 04fa 2D02     		.2byte	0x22d
ARM GAS  C:\Users\YUANFA~1\AppData\Local\Temp\cc9Xhnxa.s 			page 62


 1862 04fc 6B000000 		.4byte	0x6b
 1863 0500 14       		.byte	0x14
 1864 0501 0E       		.uleb128 0xe
 1865 0502 81040000 		.4byte	.LASF82
 1866 0506 04       		.byte	0x4
 1867 0507 3202     		.2byte	0x232
 1868 0509 6B000000 		.4byte	0x6b
 1869 050d 15       		.byte	0x15
 1870 050e 0E       		.uleb128 0xe
 1871 050f C9050000 		.4byte	.LASF83
 1872 0513 04       		.byte	0x4
 1873 0514 3702     		.2byte	0x237
 1874 0516 6B000000 		.4byte	0x6b
 1875 051a 16       		.byte	0x16
 1876 051b 0E       		.uleb128 0xe
 1877 051c 1F010000 		.4byte	.LASF84
 1878 0520 04       		.byte	0x4
 1879 0521 3C02     		.2byte	0x23c
 1880 0523 6B000000 		.4byte	0x6b
 1881 0527 17       		.byte	0x17
 1882 0528 0E       		.uleb128 0xe
 1883 0529 EF010000 		.4byte	.LASF85
 1884 052d 04       		.byte	0x4
 1885 052e 4102     		.2byte	0x241
 1886 0530 6B000000 		.4byte	0x6b
 1887 0534 18       		.byte	0x18
 1888 0535 0E       		.uleb128 0xe
 1889 0536 350B0000 		.4byte	.LASF86
 1890 053a 04       		.byte	0x4
 1891 053b 4602     		.2byte	0x246
 1892 053d 6B000000 		.4byte	0x6b
 1893 0541 19       		.byte	0x19
 1894 0542 0E       		.uleb128 0xe
 1895 0543 47030000 		.4byte	.LASF87
 1896 0547 04       		.byte	0x4
 1897 0548 4B02     		.2byte	0x24b
 1898 054a 6B000000 		.4byte	0x6b
 1899 054e 1A       		.byte	0x1a
 1900 054f 0E       		.uleb128 0xe
 1901 0550 33070000 		.4byte	.LASF88
 1902 0554 04       		.byte	0x4
 1903 0555 5002     		.2byte	0x250
 1904 0557 6B000000 		.4byte	0x6b
 1905 055b 1B       		.byte	0x1b
 1906 055c 0E       		.uleb128 0xe
 1907 055d 30010000 		.4byte	.LASF89
 1908 0561 04       		.byte	0x4
 1909 0562 5502     		.2byte	0x255
 1910 0564 6B000000 		.4byte	0x6b
 1911 0568 1C       		.byte	0x1c
 1912 0569 00       		.byte	0
 1913 056a 04       		.uleb128 0x4
 1914 056b 8F070000 		.4byte	.LASF90
 1915 056f 04       		.byte	0x4
 1916 0570 5602     		.2byte	0x256
 1917 0572 5C040000 		.4byte	0x45c
 1918 0576 11       		.uleb128 0x11
ARM GAS  C:\Users\YUANFA~1\AppData\Local\Temp\cc9Xhnxa.s 			page 63


 1919 0577 E402     		.2byte	0x2e4
 1920 0579 04       		.byte	0x4
 1921 057a 5C02     		.2byte	0x25c
 1922 057c C2060000 		.4byte	0x6c2
 1923 0580 0E       		.uleb128 0xe
 1924 0581 EF070000 		.4byte	.LASF91
 1925 0585 04       		.byte	0x4
 1926 0586 6302     		.2byte	0x263
 1927 0588 77000000 		.4byte	0x77
 1928 058c 00       		.byte	0
 1929 058d 0E       		.uleb128 0xe
 1930 058e C90B0000 		.4byte	.LASF92
 1931 0592 04       		.byte	0x4
 1932 0593 6802     		.2byte	0x268
 1933 0595 77000000 		.4byte	0x77
 1934 0599 02       		.byte	0x2
 1935 059a 0E       		.uleb128 0xe
 1936 059b CA000000 		.4byte	.LASF93
 1937 059f 04       		.byte	0x4
 1938 05a0 6D02     		.2byte	0x26d
 1939 05a2 77000000 		.4byte	0x77
 1940 05a6 04       		.byte	0x4
 1941 05a7 0E       		.uleb128 0xe
 1942 05a8 C4080000 		.4byte	.LASF94
 1943 05ac 04       		.byte	0x4
 1944 05ad 7302     		.2byte	0x273
 1945 05af 77000000 		.4byte	0x77
 1946 05b3 06       		.byte	0x6
 1947 05b4 0E       		.uleb128 0xe
 1948 05b5 BE000000 		.4byte	.LASF95
 1949 05b9 04       		.byte	0x4
 1950 05ba 7802     		.2byte	0x278
 1951 05bc 77000000 		.4byte	0x77
 1952 05c0 08       		.byte	0x8
 1953 05c1 0E       		.uleb128 0xe
 1954 05c2 54050000 		.4byte	.LASF96
 1955 05c6 04       		.byte	0x4
 1956 05c7 7D02     		.2byte	0x27d
 1957 05c9 C6000000 		.4byte	0xc6
 1958 05cd 0C       		.byte	0xc
 1959 05ce 0E       		.uleb128 0xe
 1960 05cf 8B080000 		.4byte	.LASF97
 1961 05d3 04       		.byte	0x4
 1962 05d4 8302     		.2byte	0x283
 1963 05d6 C2060000 		.4byte	0x6c2
 1964 05da 10       		.byte	0x10
 1965 05db 0E       		.uleb128 0xe
 1966 05dc 16020000 		.4byte	.LASF98
 1967 05e0 04       		.byte	0x4
 1968 05e1 8902     		.2byte	0x289
 1969 05e3 C2060000 		.4byte	0x6c2
 1970 05e7 14       		.byte	0x14
 1971 05e8 0E       		.uleb128 0xe
 1972 05e9 7A090000 		.4byte	.LASF99
 1973 05ed 04       		.byte	0x4
 1974 05ee 9002     		.2byte	0x290
 1975 05f0 C2060000 		.4byte	0x6c2
ARM GAS  C:\Users\YUANFA~1\AppData\Local\Temp\cc9Xhnxa.s 			page 64


 1976 05f4 18       		.byte	0x18
 1977 05f5 0E       		.uleb128 0xe
 1978 05f6 13080000 		.4byte	.LASF100
 1979 05fa 04       		.byte	0x4
 1980 05fb A002     		.2byte	0x2a0
 1981 05fd 07030000 		.4byte	0x307
 1982 0601 1C       		.byte	0x1c
 1983 0602 0E       		.uleb128 0xe
 1984 0603 7B060000 		.4byte	.LASF101
 1985 0607 04       		.byte	0x4
 1986 0608 A602     		.2byte	0x2a6
 1987 060a 77000000 		.4byte	0x77
 1988 060e 1E       		.byte	0x1e
 1989 060f 0E       		.uleb128 0xe
 1990 0610 9A0A0000 		.4byte	.LASF102
 1991 0614 04       		.byte	0x4
 1992 0615 AB02     		.2byte	0x2ab
 1993 0617 6B000000 		.4byte	0x6b
 1994 061b 20       		.byte	0x20
 1995 061c 0E       		.uleb128 0xe
 1996 061d 970B0000 		.4byte	.LASF103
 1997 0621 04       		.byte	0x4
 1998 0622 B002     		.2byte	0x2b0
 1999 0624 77000000 		.4byte	0x77
 2000 0628 22       		.byte	0x22
 2001 0629 0E       		.uleb128 0xe
 2002 062a FE050000 		.4byte	.LASF104
 2003 062e 04       		.byte	0x4
 2004 062f B502     		.2byte	0x2b5
 2005 0631 86020000 		.4byte	0x286
 2006 0635 24       		.byte	0x24
 2007 0636 0E       		.uleb128 0xe
 2008 0637 C0020000 		.4byte	.LASF105
 2009 063b 04       		.byte	0x4
 2010 063c BA02     		.2byte	0x2ba
 2011 063e 5B030000 		.4byte	0x35b
 2012 0642 40       		.byte	0x40
 2013 0643 12       		.uleb128 0x12
 2014 0644 05070000 		.4byte	.LASF106
 2015 0648 04       		.byte	0x4
 2016 0649 BF02     		.2byte	0x2bf
 2017 064b 1D040000 		.4byte	0x41d
 2018 064f 5C02     		.2byte	0x25c
 2019 0651 12       		.uleb128 0x12
 2020 0652 0E070000 		.4byte	.LASF107
 2021 0656 04       		.byte	0x4
 2022 0657 C402     		.2byte	0x2c4
 2023 0659 6A050000 		.4byte	0x56a
 2024 065d 7402     		.2byte	0x274
 2025 065f 12       		.uleb128 0x12
 2026 0660 F2030000 		.4byte	.LASF108
 2027 0664 04       		.byte	0x4
 2028 0665 C902     		.2byte	0x2c9
 2029 0667 50040000 		.4byte	0x450
 2030 066b 9402     		.2byte	0x294
 2031 066d 12       		.uleb128 0x12
 2032 066e 68000000 		.4byte	.LASF109
ARM GAS  C:\Users\YUANFA~1\AppData\Local\Temp\cc9Xhnxa.s 			page 65


 2033 0672 04       		.byte	0x4
 2034 0673 CE02     		.2byte	0x2ce
 2035 0675 6B000000 		.4byte	0x6b
 2036 0679 DC02     		.2byte	0x2dc
 2037 067b 12       		.uleb128 0x12
 2038 067c 25030000 		.4byte	.LASF110
 2039 0680 04       		.byte	0x4
 2040 0681 D302     		.2byte	0x2d3
 2041 0683 6B000000 		.4byte	0x6b
 2042 0687 DD02     		.2byte	0x2dd
 2043 0689 12       		.uleb128 0x12
 2044 068a CC070000 		.4byte	.LASF111
 2045 068e 04       		.byte	0x4
 2046 068f D802     		.2byte	0x2d8
 2047 0691 77000000 		.4byte	0x77
 2048 0695 DE02     		.2byte	0x2de
 2049 0697 12       		.uleb128 0x12
 2050 0698 33060000 		.4byte	.LASF112
 2051 069c 04       		.byte	0x4
 2052 069d DD02     		.2byte	0x2dd
 2053 069f F7020000 		.4byte	0x2f7
 2054 06a3 E002     		.2byte	0x2e0
 2055 06a5 12       		.uleb128 0x12
 2056 06a6 84070000 		.4byte	.LASF113
 2057 06aa 04       		.byte	0x4
 2058 06ab E202     		.2byte	0x2e2
 2059 06ad 6B000000 		.4byte	0x6b
 2060 06b1 E202     		.2byte	0x2e2
 2061 06b3 12       		.uleb128 0x12
 2062 06b4 A40A0000 		.4byte	.LASF114
 2063 06b8 04       		.byte	0x4
 2064 06b9 E702     		.2byte	0x2e7
 2065 06bb 6B000000 		.4byte	0x6b
 2066 06bf E302     		.2byte	0x2e3
 2067 06c1 00       		.byte	0
 2068 06c2 0F       		.uleb128 0xf
 2069 06c3 83000000 		.4byte	0x83
 2070 06c7 D2060000 		.4byte	0x6d2
 2071 06cb 10       		.uleb128 0x10
 2072 06cc D2000000 		.4byte	0xd2
 2073 06d0 00       		.byte	0
 2074 06d1 00       		.byte	0
 2075 06d2 04       		.uleb128 0x4
 2076 06d3 6E080000 		.4byte	.LASF115
 2077 06d7 04       		.byte	0x4
 2078 06d8 E802     		.2byte	0x2e8
 2079 06da 76050000 		.4byte	0x576
 2080 06de 0D       		.uleb128 0xd
 2081 06df 20       		.byte	0x20
 2082 06e0 04       		.byte	0x4
 2083 06e1 EE02     		.2byte	0x2ee
 2084 06e3 6A070000 		.4byte	0x76a
 2085 06e7 0E       		.uleb128 0xe
 2086 06e8 C4060000 		.4byte	.LASF116
 2087 06ec 04       		.byte	0x4
 2088 06ed F302     		.2byte	0x2f3
 2089 06ef 6A070000 		.4byte	0x76a
ARM GAS  C:\Users\YUANFA~1\AppData\Local\Temp\cc9Xhnxa.s 			page 66


 2090 06f3 00       		.byte	0
 2091 06f4 0E       		.uleb128 0xe
 2092 06f5 AD050000 		.4byte	.LASF117
 2093 06f9 04       		.byte	0x4
 2094 06fa F802     		.2byte	0x2f8
 2095 06fc 6A070000 		.4byte	0x76a
 2096 0700 04       		.byte	0x4
 2097 0701 0E       		.uleb128 0xe
 2098 0702 D2000000 		.4byte	.LASF118
 2099 0706 04       		.byte	0x4
 2100 0707 FD02     		.2byte	0x2fd
 2101 0709 6A070000 		.4byte	0x76a
 2102 070d 08       		.byte	0x8
 2103 070e 0E       		.uleb128 0xe
 2104 070f DF030000 		.4byte	.LASF119
 2105 0713 04       		.byte	0x4
 2106 0714 0203     		.2byte	0x302
 2107 0716 6A070000 		.4byte	0x76a
 2108 071a 0C       		.byte	0xc
 2109 071b 0E       		.uleb128 0xe
 2110 071c E9080000 		.4byte	.LASF120
 2111 0720 04       		.byte	0x4
 2112 0721 0703     		.2byte	0x307
 2113 0723 6A070000 		.4byte	0x76a
 2114 0727 10       		.byte	0x10
 2115 0728 0E       		.uleb128 0xe
 2116 0729 120B0000 		.4byte	.LASF121
 2117 072d 04       		.byte	0x4
 2118 072e 0C03     		.2byte	0x30c
 2119 0730 83000000 		.4byte	0x83
 2120 0734 14       		.byte	0x14
 2121 0735 0E       		.uleb128 0xe
 2122 0736 E4060000 		.4byte	.LASF122
 2123 073a 04       		.byte	0x4
 2124 073b 1103     		.2byte	0x311
 2125 073d 83000000 		.4byte	0x83
 2126 0741 18       		.byte	0x18
 2127 0742 0E       		.uleb128 0xe
 2128 0743 7F010000 		.4byte	.LASF123
 2129 0747 04       		.byte	0x4
 2130 0748 1603     		.2byte	0x316
 2131 074a 6B000000 		.4byte	0x6b
 2132 074e 1C       		.byte	0x1c
 2133 074f 0E       		.uleb128 0xe
 2134 0750 DA090000 		.4byte	.LASF124
 2135 0754 04       		.byte	0x4
 2136 0755 1B03     		.2byte	0x31b
 2137 0757 6B000000 		.4byte	0x6b
 2138 075b 1D       		.byte	0x1d
 2139 075c 0E       		.uleb128 0xe
 2140 075d 28020000 		.4byte	.LASF125
 2141 0761 04       		.byte	0x4
 2142 0762 2003     		.2byte	0x320
 2143 0764 6B000000 		.4byte	0x6b
 2144 0768 1E       		.byte	0x1e
 2145 0769 00       		.byte	0
 2146 076a 13       		.uleb128 0x13
ARM GAS  C:\Users\YUANFA~1\AppData\Local\Temp\cc9Xhnxa.s 			page 67


 2147 076b 04       		.byte	0x4
 2148 076c BA000000 		.4byte	0xba
 2149 0770 04       		.uleb128 0x4
 2150 0771 0C030000 		.4byte	.LASF126
 2151 0775 04       		.byte	0x4
 2152 0776 2103     		.2byte	0x321
 2153 0778 DE060000 		.4byte	0x6de
 2154 077c 0D       		.uleb128 0xd
 2155 077d 0C       		.byte	0xc
 2156 077e 04       		.byte	0x4
 2157 077f 5303     		.2byte	0x353
 2158 0781 DA070000 		.4byte	0x7da
 2159 0785 0C       		.uleb128 0xc
 2160 0786 7800     		.ascii	"x\000"
 2161 0788 04       		.byte	0x4
 2162 0789 5903     		.2byte	0x359
 2163 078b 77000000 		.4byte	0x77
 2164 078f 00       		.byte	0
 2165 0790 0C       		.uleb128 0xc
 2166 0791 7900     		.ascii	"y\000"
 2167 0793 04       		.byte	0x4
 2168 0794 5F03     		.2byte	0x35f
 2169 0796 77000000 		.4byte	0x77
 2170 079a 02       		.byte	0x2
 2171 079b 0E       		.uleb128 0xe
 2172 079c 5B050000 		.4byte	.LASF127
 2173 07a0 04       		.byte	0x4
 2174 07a1 6403     		.2byte	0x364
 2175 07a3 77000000 		.4byte	0x77
 2176 07a7 04       		.byte	0x4
 2177 07a8 0C       		.uleb128 0xc
 2178 07a9 61676500 		.ascii	"age\000"
 2179 07ad 04       		.byte	0x4
 2180 07ae 6A03     		.2byte	0x36a
 2181 07b0 77000000 		.4byte	0x77
 2182 07b4 06       		.byte	0x6
 2183 07b5 0C       		.uleb128 0xc
 2184 07b6 7A00     		.ascii	"z\000"
 2185 07b8 04       		.byte	0x4
 2186 07b9 6F03     		.2byte	0x36f
 2187 07bb 6B000000 		.4byte	0x6b
 2188 07bf 08       		.byte	0x8
 2189 07c0 0C       		.uleb128 0xc
 2190 07c1 696400   		.ascii	"id\000"
 2191 07c4 04       		.byte	0x4
 2192 07c5 7503     		.2byte	0x375
 2193 07c7 6B000000 		.4byte	0x6b
 2194 07cb 09       		.byte	0x9
 2195 07cc 0E       		.uleb128 0xe
 2196 07cd E5050000 		.4byte	.LASF128
 2197 07d1 04       		.byte	0x4
 2198 07d2 7D03     		.2byte	0x37d
 2199 07d4 6B000000 		.4byte	0x6b
 2200 07d8 0A       		.byte	0xa
 2201 07d9 00       		.byte	0
 2202 07da 04       		.uleb128 0x4
 2203 07db 43060000 		.4byte	.LASF129
ARM GAS  C:\Users\YUANFA~1\AppData\Local\Temp\cc9Xhnxa.s 			page 68


 2204 07df 04       		.byte	0x4
 2205 07e0 7E03     		.2byte	0x37e
 2206 07e2 7C070000 		.4byte	0x77c
 2207 07e6 0D       		.uleb128 0xd
 2208 07e7 3E       		.byte	0x3e
 2209 07e8 04       		.byte	0x4
 2210 07e9 8303     		.2byte	0x383
 2211 07eb 0A080000 		.4byte	0x80a
 2212 07ef 0E       		.uleb128 0xe
 2213 07f0 86060000 		.4byte	.LASF46
 2214 07f4 04       		.byte	0x4
 2215 07f5 8903     		.2byte	0x389
 2216 07f7 0A080000 		.4byte	0x80a
 2217 07fb 00       		.byte	0
 2218 07fc 0E       		.uleb128 0xe
 2219 07fd EE050000 		.4byte	.LASF130
 2220 0801 04       		.byte	0x4
 2221 0802 8E03     		.2byte	0x38e
 2222 0804 6B000000 		.4byte	0x6b
 2223 0808 3C       		.byte	0x3c
 2224 0809 00       		.byte	0
 2225 080a 0F       		.uleb128 0xf
 2226 080b DA070000 		.4byte	0x7da
 2227 080f 1A080000 		.4byte	0x81a
 2228 0813 10       		.uleb128 0x10
 2229 0814 D2000000 		.4byte	0xd2
 2230 0818 04       		.byte	0x4
 2231 0819 00       		.byte	0
 2232 081a 04       		.uleb128 0x4
 2233 081b 8C060000 		.4byte	.LASF131
 2234 081f 04       		.byte	0x4
 2235 0820 8F03     		.2byte	0x38f
 2236 0822 E6070000 		.4byte	0x7e6
 2237 0826 0D       		.uleb128 0xd
 2238 0827 38       		.byte	0x38
 2239 0828 04       		.byte	0x4
 2240 0829 9503     		.2byte	0x395
 2241 082b 0D090000 		.4byte	0x90d
 2242 082f 0E       		.uleb128 0xe
 2243 0830 8A0B0000 		.4byte	.LASF132
 2244 0834 04       		.byte	0x4
 2245 0835 9E03     		.2byte	0x39e
 2246 0837 0D090000 		.4byte	0x90d
 2247 083b 00       		.byte	0
 2248 083c 0E       		.uleb128 0xe
 2249 083d B30A0000 		.4byte	.LASF133
 2250 0841 04       		.byte	0x4
 2251 0842 A503     		.2byte	0x3a5
 2252 0844 D9000000 		.4byte	0xd9
 2253 0848 04       		.byte	0x4
 2254 0849 0E       		.uleb128 0xe
 2255 084a F8070000 		.4byte	.LASF134
 2256 084e 04       		.byte	0x4
 2257 084f AB03     		.2byte	0x3ab
 2258 0851 14090000 		.4byte	0x914
 2259 0855 08       		.byte	0x8
 2260 0856 0E       		.uleb128 0xe
ARM GAS  C:\Users\YUANFA~1\AppData\Local\Temp\cc9Xhnxa.s 			page 69


 2261 0857 D4060000 		.4byte	.LASF135
 2262 085b 04       		.byte	0x4
 2263 085c B103     		.2byte	0x3b1
 2264 085e D9000000 		.4byte	0xd9
 2265 0862 0C       		.byte	0xc
 2266 0863 0E       		.uleb128 0xe
 2267 0864 120A0000 		.4byte	.LASF136
 2268 0868 04       		.byte	0x4
 2269 0869 B803     		.2byte	0x3b8
 2270 086b 1A090000 		.4byte	0x91a
 2271 086f 10       		.byte	0x10
 2272 0870 0E       		.uleb128 0xe
 2273 0871 760A0000 		.4byte	.LASF137
 2274 0875 04       		.byte	0x4
 2275 0876 BD03     		.2byte	0x3bd
 2276 0878 83000000 		.4byte	0x83
 2277 087c 14       		.byte	0x14
 2278 087d 0E       		.uleb128 0xe
 2279 087e 75040000 		.4byte	.LASF138
 2280 0882 04       		.byte	0x4
 2281 0883 C403     		.2byte	0x3c4
 2282 0885 77000000 		.4byte	0x77
 2283 0889 18       		.byte	0x18
 2284 088a 0E       		.uleb128 0xe
 2285 088b 6D030000 		.4byte	.LASF139
 2286 088f 04       		.byte	0x4
 2287 0890 CB03     		.2byte	0x3cb
 2288 0892 6B000000 		.4byte	0x6b
 2289 0896 1A       		.byte	0x1a
 2290 0897 0E       		.uleb128 0xe
 2291 0898 C1050000 		.4byte	.LASF140
 2292 089c 04       		.byte	0x4
 2293 089d D503     		.2byte	0x3d5
 2294 089f 6B000000 		.4byte	0x6b
 2295 08a3 1B       		.byte	0x1b
 2296 08a4 0E       		.uleb128 0xe
 2297 08a5 F40A0000 		.4byte	.LASF141
 2298 08a9 04       		.byte	0x4
 2299 08aa DD03     		.2byte	0x3dd
 2300 08ac 6B000000 		.4byte	0x6b
 2301 08b0 1C       		.byte	0x1c
 2302 08b1 0E       		.uleb128 0xe
 2303 08b2 58080000 		.4byte	.LASF142
 2304 08b6 04       		.byte	0x4
 2305 08b7 E203     		.2byte	0x3e2
 2306 08b9 77000000 		.4byte	0x77
 2307 08bd 1E       		.byte	0x1e
 2308 08be 0E       		.uleb128 0xe
 2309 08bf D20B0000 		.4byte	.LASF143
 2310 08c3 04       		.byte	0x4
 2311 08c4 E703     		.2byte	0x3e7
 2312 08c6 77000000 		.4byte	0x77
 2313 08ca 20       		.byte	0x20
 2314 08cb 0E       		.uleb128 0xe
 2315 08cc 220A0000 		.4byte	.LASF144
 2316 08d0 04       		.byte	0x4
 2317 08d1 F003     		.2byte	0x3f0
ARM GAS  C:\Users\YUANFA~1\AppData\Local\Temp\cc9Xhnxa.s 			page 70


 2318 08d3 83000000 		.4byte	0x83
 2319 08d7 24       		.byte	0x24
 2320 08d8 0E       		.uleb128 0xe
 2321 08d9 44080000 		.4byte	.LASF145
 2322 08dd 04       		.byte	0x4
 2323 08de F903     		.2byte	0x3f9
 2324 08e0 83000000 		.4byte	0x83
 2325 08e4 28       		.byte	0x28
 2326 08e5 0E       		.uleb128 0xe
 2327 08e6 1D060000 		.4byte	.LASF146
 2328 08ea 04       		.byte	0x4
 2329 08eb FE03     		.2byte	0x3fe
 2330 08ed 20090000 		.4byte	0x920
 2331 08f1 2C       		.byte	0x2c
 2332 08f2 0E       		.uleb128 0xe
 2333 08f3 B90B0000 		.4byte	.LASF147
 2334 08f7 04       		.byte	0x4
 2335 08f8 0304     		.2byte	0x403
 2336 08fa 26090000 		.4byte	0x926
 2337 08fe 30       		.byte	0x30
 2338 08ff 0E       		.uleb128 0xe
 2339 0900 BD010000 		.4byte	.LASF148
 2340 0904 04       		.byte	0x4
 2341 0905 0804     		.2byte	0x408
 2342 0907 6B000000 		.4byte	0x6b
 2343 090b 34       		.byte	0x34
 2344 090c 00       		.byte	0
 2345 090d 13       		.uleb128 0x13
 2346 090e 04       		.byte	0x4
 2347 090f 13090000 		.4byte	0x913
 2348 0913 14       		.uleb128 0x14
 2349 0914 13       		.uleb128 0x13
 2350 0915 04       		.byte	0x4
 2351 0916 27030000 		.4byte	0x327
 2352 091a 13       		.uleb128 0x13
 2353 091b 04       		.byte	0x4
 2354 091c 6B000000 		.4byte	0x6b
 2355 0920 13       		.uleb128 0x13
 2356 0921 04       		.byte	0x4
 2357 0922 83000000 		.4byte	0x83
 2358 0926 13       		.uleb128 0x13
 2359 0927 04       		.byte	0x4
 2360 0928 1A080000 		.4byte	0x81a
 2361 092c 04       		.uleb128 0x4
 2362 092d 1F040000 		.4byte	.LASF149
 2363 0931 04       		.byte	0x4
 2364 0932 0904     		.2byte	0x409
 2365 0934 26080000 		.4byte	0x826
 2366 0938 0D       		.uleb128 0xd
 2367 0939 38       		.byte	0x38
 2368 093a 04       		.byte	0x4
 2369 093b 0F04     		.2byte	0x40f
 2370 093d 4F090000 		.4byte	0x94f
 2371 0941 0E       		.uleb128 0xe
 2372 0942 130C0000 		.4byte	.LASF150
 2373 0946 04       		.byte	0x4
 2374 0947 1404     		.2byte	0x414
ARM GAS  C:\Users\YUANFA~1\AppData\Local\Temp\cc9Xhnxa.s 			page 71


 2375 0949 4F090000 		.4byte	0x94f
 2376 094d 00       		.byte	0
 2377 094e 00       		.byte	0
 2378 094f 0F       		.uleb128 0xf
 2379 0950 2C090000 		.4byte	0x92c
 2380 0954 5F090000 		.4byte	0x95f
 2381 0958 10       		.uleb128 0x10
 2382 0959 D2000000 		.4byte	0xd2
 2383 095d 00       		.byte	0
 2384 095e 00       		.byte	0
 2385 095f 04       		.uleb128 0x4
 2386 0960 07060000 		.4byte	.LASF151
 2387 0964 04       		.byte	0x4
 2388 0965 1504     		.2byte	0x415
 2389 0967 38090000 		.4byte	0x938
 2390 096b 0D       		.uleb128 0xd
 2391 096c 08       		.byte	0x8
 2392 096d 01       		.byte	0x1
 2393 096e D301     		.2byte	0x1d3
 2394 0970 CF090000 		.4byte	0x9cf
 2395 0974 0E       		.uleb128 0xe
 2396 0975 E5030000 		.4byte	.LASF152
 2397 0979 01       		.byte	0x1
 2398 097a D501     		.2byte	0x1d5
 2399 097c 77000000 		.4byte	0x77
 2400 0980 00       		.byte	0
 2401 0981 0E       		.uleb128 0xe
 2402 0982 DE0B0000 		.4byte	.LASF153
 2403 0986 01       		.byte	0x1
 2404 0987 D601     		.2byte	0x1d6
 2405 0989 6B000000 		.4byte	0x6b
 2406 098d 02       		.byte	0x2
 2407 098e 0E       		.uleb128 0xe
 2408 098f 680B0000 		.4byte	.LASF154
 2409 0993 01       		.byte	0x1
 2410 0994 D701     		.2byte	0x1d7
 2411 0996 6B000000 		.4byte	0x6b
 2412 099a 03       		.byte	0x3
 2413 099b 0C       		.uleb128 0xc
 2414 099c 63726300 		.ascii	"crc\000"
 2415 09a0 01       		.byte	0x1
 2416 09a1 D801     		.2byte	0x1d8
 2417 09a3 6B000000 		.4byte	0x6b
 2418 09a7 04       		.byte	0x4
 2419 09a8 0E       		.uleb128 0xe
 2420 09a9 630A0000 		.4byte	.LASF155
 2421 09ad 01       		.byte	0x1
 2422 09ae D901     		.2byte	0x1d9
 2423 09b0 6B000000 		.4byte	0x6b
 2424 09b4 05       		.byte	0x5
 2425 09b5 0C       		.uleb128 0xc
 2426 09b6 727700   		.ascii	"rw\000"
 2427 09b9 01       		.byte	0x1
 2428 09ba DA01     		.2byte	0x1da
 2429 09bc 6B000000 		.4byte	0x6b
 2430 09c0 06       		.byte	0x6
 2431 09c1 0E       		.uleb128 0xe
ARM GAS  C:\Users\YUANFA~1\AppData\Local\Temp\cc9Xhnxa.s 			page 72


 2432 09c2 500A0000 		.4byte	.LASF156
 2433 09c6 01       		.byte	0x1
 2434 09c7 DB01     		.2byte	0x1db
 2435 09c9 6B000000 		.4byte	0x6b
 2436 09cd 07       		.byte	0x7
 2437 09ce 00       		.byte	0
 2438 09cf 04       		.uleb128 0x4
 2439 09d0 03080000 		.4byte	.LASF157
 2440 09d4 01       		.byte	0x1
 2441 09d5 DC01     		.2byte	0x1dc
 2442 09d7 6B090000 		.4byte	0x96b
 2443 09db 15       		.uleb128 0x15
 2444 09dc F5000000 		.4byte	.LASF199
 2445 09e0 01       		.byte	0x1
 2446 09e1 DC02     		.2byte	0x2dc
 2447 09e3 A4000000 		.4byte	0xa4
 2448 09e7 00000000 		.4byte	.LFB2
 2449 09eb E8000000 		.4byte	.LFE2-.LFB2
 2450 09ef 01       		.uleb128 0x1
 2451 09f0 9C       		.byte	0x9c
 2452 09f1 810A0000 		.4byte	0xa81
 2453 09f5 16       		.uleb128 0x16
 2454 09f6 60000000 		.4byte	.LASF158
 2455 09fa 01       		.byte	0x1
 2456 09fb DC02     		.2byte	0x2dc
 2457 09fd 83000000 		.4byte	0x83
 2458 0a01 00000000 		.4byte	.LLST0
 2459 0a05 16       		.uleb128 0x16
 2460 0a06 EC030000 		.4byte	.LASF159
 2461 0a0a 01       		.byte	0x1
 2462 0a0b DC02     		.2byte	0x2dc
 2463 0a0d 810A0000 		.4byte	0xa81
 2464 0a11 1E000000 		.4byte	.LLST1
 2465 0a15 17       		.uleb128 0x17
 2466 0a16 C8020000 		.4byte	.LASF160
 2467 0a1a 01       		.byte	0x1
 2468 0a1b DE02     		.2byte	0x2de
 2469 0a1d A4000000 		.4byte	0xa4
 2470 0a21 4A000000 		.4byte	.LLST2
 2471 0a25 18       		.uleb128 0x18
 2472 0a26 B1080000 		.4byte	.LASF161
 2473 0a2a 01       		.byte	0x1
 2474 0a2b E102     		.2byte	0x2e1
 2475 0a2d 9C0A0000 		.4byte	0xa9c
 2476 0a31 02       		.uleb128 0x2
 2477 0a32 91       		.byte	0x91
 2478 0a33 58       		.sleb128 -40
 2479 0a34 19       		.uleb128 0x19
 2480 0a35 6900     		.ascii	"i\000"
 2481 0a37 01       		.byte	0x1
 2482 0a38 E702     		.2byte	0x2e7
 2483 0a3a 83000000 		.4byte	0x83
 2484 0a3e 8A000000 		.4byte	.LLST3
 2485 0a42 17       		.uleb128 0x17
 2486 0a43 BA080000 		.4byte	.LASF162
 2487 0a47 01       		.byte	0x1
 2488 0a48 E802     		.2byte	0x2e8
ARM GAS  C:\Users\YUANFA~1\AppData\Local\Temp\cc9Xhnxa.s 			page 73


 2489 0a4a 83000000 		.4byte	0x83
 2490 0a4e C3000000 		.4byte	.LLST4
 2491 0a52 17       		.uleb128 0x17
 2492 0a53 31050000 		.4byte	.LASF163
 2493 0a57 01       		.byte	0x1
 2494 0a58 E902     		.2byte	0x2e9
 2495 0a5a 83000000 		.4byte	0x83
 2496 0a5e 32010000 		.4byte	.LLST5
 2497 0a62 1A       		.uleb128 0x1a
 2498 0a63 16000000 		.4byte	.LVL4
 2499 0a67 250F0000 		.4byte	0xf25
 2500 0a6b 1B       		.uleb128 0x1b
 2501 0a6c 01       		.uleb128 0x1
 2502 0a6d 50       		.byte	0x50
 2503 0a6e 02       		.uleb128 0x2
 2504 0a6f 7D       		.byte	0x7d
 2505 0a70 00       		.sleb128 0
 2506 0a71 1B       		.uleb128 0x1b
 2507 0a72 01       		.uleb128 0x1
 2508 0a73 51       		.byte	0x51
 2509 0a74 05       		.uleb128 0x5
 2510 0a75 03       		.byte	0x3
 2511 0a76 00000000 		.4byte	.LANCHOR0
 2512 0a7a 1B       		.uleb128 0x1b
 2513 0a7b 01       		.uleb128 0x1
 2514 0a7c 52       		.byte	0x52
 2515 0a7d 01       		.uleb128 0x1
 2516 0a7e 40       		.byte	0x40
 2517 0a7f 00       		.byte	0
 2518 0a80 00       		.byte	0
 2519 0a81 13       		.uleb128 0x13
 2520 0a82 04       		.byte	0x4
 2521 0a83 CF090000 		.4byte	0x9cf
 2522 0a87 0F       		.uleb128 0xf
 2523 0a88 970A0000 		.4byte	0xa97
 2524 0a8c 970A0000 		.4byte	0xa97
 2525 0a90 10       		.uleb128 0x10
 2526 0a91 D2000000 		.4byte	0xd2
 2527 0a95 0F       		.byte	0xf
 2528 0a96 00       		.byte	0
 2529 0a97 1C       		.uleb128 0x1c
 2530 0a98 6B000000 		.4byte	0x6b
 2531 0a9c 1C       		.uleb128 0x1c
 2532 0a9d 870A0000 		.4byte	0xa87
 2533 0aa1 1D       		.uleb128 0x1d
 2534 0aa2 96080000 		.4byte	.LASF200
 2535 0aa6 01       		.byte	0x1
 2536 0aa7 0302     		.2byte	0x203
 2537 0aa9 00000000 		.4byte	.LFB1
 2538 0aad 18010000 		.4byte	.LFE1-.LFB1
 2539 0ab1 01       		.uleb128 0x1
 2540 0ab2 9C       		.byte	0x9c
 2541 0ab3 240B0000 		.4byte	0xb24
 2542 0ab7 17       		.uleb128 0x17
 2543 0ab8 11090000 		.4byte	.LASF164
 2544 0abc 01       		.byte	0x1
 2545 0abd 0902     		.2byte	0x209
ARM GAS  C:\Users\YUANFA~1\AppData\Local\Temp\cc9Xhnxa.s 			page 74


 2546 0abf 83000000 		.4byte	0x83
 2547 0ac3 5B010000 		.4byte	.LLST6
 2548 0ac7 17       		.uleb128 0x17
 2549 0ac8 26000000 		.4byte	.LASF165
 2550 0acc 01       		.byte	0x1
 2551 0acd 0A02     		.2byte	0x20a
 2552 0acf 83000000 		.4byte	0x83
 2553 0ad3 8F010000 		.4byte	.LLST7
 2554 0ad7 17       		.uleb128 0x17
 2555 0ad8 2C090000 		.4byte	.LASF166
 2556 0adc 01       		.byte	0x1
 2557 0add 0B02     		.2byte	0x20b
 2558 0adf 14090000 		.4byte	0x914
 2559 0ae3 D1010000 		.4byte	.LLST8
 2560 0ae7 17       		.uleb128 0x17
 2561 0ae8 690A0000 		.4byte	.LASF167
 2562 0aec 01       		.byte	0x1
 2563 0aed 0C02     		.2byte	0x20c
 2564 0aef 240B0000 		.4byte	0xb24
 2565 0af3 E4010000 		.4byte	.LLST9
 2566 0af7 17       		.uleb128 0x17
 2567 0af8 27070000 		.4byte	.LASF168
 2568 0afc 01       		.byte	0x1
 2569 0afd 1502     		.2byte	0x215
 2570 0aff 2F0B0000 		.4byte	0xb2f
 2571 0b03 07020000 		.4byte	.LLST10
 2572 0b07 1A       		.uleb128 0x1a
 2573 0b08 10000000 		.4byte	.LVL37
 2574 0b0c 2E0F0000 		.4byte	0xf2e
 2575 0b10 1B       		.uleb128 0x1b
 2576 0b11 01       		.uleb128 0x1
 2577 0b12 50       		.byte	0x50
 2578 0b13 02       		.uleb128 0x2
 2579 0b14 74       		.byte	0x74
 2580 0b15 00       		.sleb128 0
 2581 0b16 1B       		.uleb128 0x1b
 2582 0b17 01       		.uleb128 0x1
 2583 0b18 51       		.byte	0x51
 2584 0b19 01       		.uleb128 0x1
 2585 0b1a 30       		.byte	0x30
 2586 0b1b 1B       		.uleb128 0x1b
 2587 0b1c 01       		.uleb128 0x1
 2588 0b1d 52       		.byte	0x52
 2589 0b1e 03       		.uleb128 0x3
 2590 0b1f 0A       		.byte	0xa
 2591 0b20 E402     		.2byte	0x2e4
 2592 0b22 00       		.byte	0
 2593 0b23 00       		.byte	0
 2594 0b24 13       		.uleb128 0x13
 2595 0b25 04       		.byte	0x4
 2596 0b26 2A0B0000 		.4byte	0xb2a
 2597 0b2a 1C       		.uleb128 0x1c
 2598 0b2b 2C090000 		.4byte	0x92c
 2599 0b2f 13       		.uleb128 0x13
 2600 0b30 04       		.byte	0x4
 2601 0b31 970A0000 		.4byte	0xa97
 2602 0b35 1E       		.uleb128 0x1e
ARM GAS  C:\Users\YUANFA~1\AppData\Local\Temp\cc9Xhnxa.s 			page 75


 2603 0b36 54030000 		.4byte	.LASF174
 2604 0b3a 01       		.byte	0x1
 2605 0b3b 9A03     		.2byte	0x39a
 2606 0b3d A4000000 		.4byte	0xa4
 2607 0b41 00000000 		.4byte	.LFB3
 2608 0b45 60000000 		.4byte	.LFE3-.LFB3
 2609 0b49 01       		.uleb128 0x1
 2610 0b4a 9C       		.byte	0x9c
 2611 0b4b 030C0000 		.4byte	0xc03
 2612 0b4f 16       		.uleb128 0x16
 2613 0b50 60000000 		.4byte	.LASF158
 2614 0b54 01       		.byte	0x1
 2615 0b55 9A03     		.2byte	0x39a
 2616 0b57 83000000 		.4byte	0x83
 2617 0b5b 2A020000 		.4byte	.LLST11
 2618 0b5f 16       		.uleb128 0x16
 2619 0b60 76030000 		.4byte	.LASF169
 2620 0b64 01       		.byte	0x1
 2621 0b65 9A03     		.2byte	0x39a
 2622 0b67 20090000 		.4byte	0x920
 2623 0b6b 4B020000 		.4byte	.LLST12
 2624 0b6f 18       		.uleb128 0x18
 2625 0b70 EC030000 		.4byte	.LASF159
 2626 0b74 01       		.byte	0x1
 2627 0b75 9C03     		.2byte	0x39c
 2628 0b77 CF090000 		.4byte	0x9cf
 2629 0b7b 02       		.uleb128 0x2
 2630 0b7c 91       		.byte	0x91
 2631 0b7d 68       		.sleb128 -24
 2632 0b7e 17       		.uleb128 0x17
 2633 0b7f C8020000 		.4byte	.LASF160
 2634 0b83 01       		.byte	0x1
 2635 0b84 9D03     		.2byte	0x39d
 2636 0b86 A4000000 		.4byte	0xa4
 2637 0b8a 77020000 		.4byte	.LLST13
 2638 0b8e 1F       		.uleb128 0x1f
 2639 0b8f 04       		.byte	0x4
 2640 0b90 01       		.byte	0x1
 2641 0b91 9F03     		.2byte	0x39f
 2642 0b93 C80B0000 		.4byte	0xbc8
 2643 0b97 20       		.uleb128 0x20
 2644 0b98 70747200 		.ascii	"ptr\000"
 2645 0b9c 01       		.byte	0x1
 2646 0b9d A103     		.2byte	0x3a1
 2647 0b9f 030C0000 		.4byte	0xc03
 2648 0ba3 21       		.uleb128 0x21
 2649 0ba4 78000000 		.4byte	.LASF170
 2650 0ba8 01       		.byte	0x1
 2651 0ba9 A203     		.2byte	0x3a2
 2652 0bab 0F0C0000 		.4byte	0xc0f
 2653 0baf 21       		.uleb128 0x21
 2654 0bb0 7F050000 		.4byte	.LASF171
 2655 0bb4 01       		.byte	0x1
 2656 0bb5 A303     		.2byte	0x3a3
 2657 0bb7 1A0C0000 		.4byte	0xc1a
 2658 0bbb 21       		.uleb128 0x21
 2659 0bbc 1D070000 		.4byte	.LASF172
ARM GAS  C:\Users\YUANFA~1\AppData\Local\Temp\cc9Xhnxa.s 			page 76


 2660 0bc0 01       		.byte	0x1
 2661 0bc1 A403     		.2byte	0x3a4
 2662 0bc3 2A0C0000 		.4byte	0xc2a
 2663 0bc7 00       		.byte	0
 2664 0bc8 17       		.uleb128 0x17
 2665 0bc9 0A0B0000 		.4byte	.LASF173
 2666 0bcd 01       		.byte	0x1
 2667 0bce A503     		.2byte	0x3a5
 2668 0bd0 8E0B0000 		.4byte	0xb8e
 2669 0bd4 A0020000 		.4byte	.LLST14
 2670 0bd8 22       		.uleb128 0x22
 2671 0bd9 0C000000 		.4byte	.LVL54
 2672 0bdd DB090000 		.4byte	0x9db
 2673 0be1 F30B0000 		.4byte	0xbf3
 2674 0be5 1B       		.uleb128 0x1b
 2675 0be6 01       		.uleb128 0x1
 2676 0be7 50       		.byte	0x50
 2677 0be8 03       		.uleb128 0x3
 2678 0be9 F3       		.byte	0xf3
 2679 0bea 01       		.uleb128 0x1
 2680 0beb 50       		.byte	0x50
 2681 0bec 1B       		.uleb128 0x1b
 2682 0bed 01       		.uleb128 0x1
 2683 0bee 51       		.byte	0x51
 2684 0bef 02       		.uleb128 0x2
 2685 0bf0 7D       		.byte	0x7d
 2686 0bf1 00       		.sleb128 0
 2687 0bf2 00       		.byte	0
 2688 0bf3 1A       		.uleb128 0x1a
 2689 0bf4 50000000 		.4byte	.LVL60
 2690 0bf8 370F0000 		.4byte	0xf37
 2691 0bfc 1B       		.uleb128 0x1b
 2692 0bfd 01       		.uleb128 0x1
 2693 0bfe 50       		.byte	0x50
 2694 0bff 01       		.uleb128 0x1
 2695 0c00 30       		.byte	0x30
 2696 0c01 00       		.byte	0
 2697 0c02 00       		.byte	0
 2698 0c03 13       		.uleb128 0x13
 2699 0c04 04       		.byte	0x4
 2700 0c05 0A0C0000 		.4byte	0xc0a
 2701 0c09 23       		.uleb128 0x23
 2702 0c0a 1C       		.uleb128 0x1c
 2703 0c0b 090C0000 		.4byte	0xc09
 2704 0c0f 13       		.uleb128 0x13
 2705 0c10 04       		.byte	0x4
 2706 0c11 150C0000 		.4byte	0xc15
 2707 0c15 05       		.uleb128 0x5
 2708 0c16 970A0000 		.4byte	0xa97
 2709 0c1a 13       		.uleb128 0x13
 2710 0c1b 04       		.byte	0x4
 2711 0c1c 250C0000 		.4byte	0xc25
 2712 0c20 1C       		.uleb128 0x1c
 2713 0c21 77000000 		.4byte	0x77
 2714 0c25 05       		.uleb128 0x5
 2715 0c26 200C0000 		.4byte	0xc20
 2716 0c2a 13       		.uleb128 0x13
ARM GAS  C:\Users\YUANFA~1\AppData\Local\Temp\cc9Xhnxa.s 			page 77


 2717 0c2b 04       		.byte	0x4
 2718 0c2c 300C0000 		.4byte	0xc30
 2719 0c30 1C       		.uleb128 0x1c
 2720 0c31 C6000000 		.4byte	0xc6
 2721 0c35 1E       		.uleb128 0x1e
 2722 0c36 EF080000 		.4byte	.LASF175
 2723 0c3a 01       		.byte	0x1
 2724 0c3b 0604     		.2byte	0x406
 2725 0c3d A4000000 		.4byte	0xa4
 2726 0c41 00000000 		.4byte	.LFB4
 2727 0c45 80000000 		.4byte	.LFE4-.LFB4
 2728 0c49 01       		.uleb128 0x1
 2729 0c4a 9C       		.byte	0x9c
 2730 0c4b 150D0000 		.4byte	0xd15
 2731 0c4f 16       		.uleb128 0x16
 2732 0c50 60000000 		.4byte	.LASF158
 2733 0c54 01       		.byte	0x1
 2734 0c55 0604     		.2byte	0x406
 2735 0c57 83000000 		.4byte	0x83
 2736 0c5b B3020000 		.4byte	.LLST15
 2737 0c5f 16       		.uleb128 0x16
 2738 0c60 76030000 		.4byte	.LASF169
 2739 0c64 01       		.byte	0x1
 2740 0c65 0604     		.2byte	0x406
 2741 0c67 83000000 		.4byte	0x83
 2742 0c6b D4020000 		.4byte	.LLST16
 2743 0c6f 17       		.uleb128 0x17
 2744 0c70 C8020000 		.4byte	.LASF160
 2745 0c74 01       		.byte	0x1
 2746 0c75 0804     		.2byte	0x408
 2747 0c77 A4000000 		.4byte	0xa4
 2748 0c7b 32030000 		.4byte	.LLST17
 2749 0c7f 18       		.uleb128 0x18
 2750 0c80 EC030000 		.4byte	.LASF159
 2751 0c84 01       		.byte	0x1
 2752 0c85 0904     		.2byte	0x409
 2753 0c87 CF090000 		.4byte	0x9cf
 2754 0c8b 02       		.uleb128 0x2
 2755 0c8c 91       		.byte	0x91
 2756 0c8d 68       		.sleb128 -24
 2757 0c8e 1F       		.uleb128 0x1f
 2758 0c8f 04       		.byte	0x4
 2759 0c90 01       		.byte	0x1
 2760 0c91 0B04     		.2byte	0x40b
 2761 0c93 C80C0000 		.4byte	0xcc8
 2762 0c97 20       		.uleb128 0x20
 2763 0c98 70747200 		.ascii	"ptr\000"
 2764 0c9c 01       		.byte	0x1
 2765 0c9d 0D04     		.2byte	0x40d
 2766 0c9f 150D0000 		.4byte	0xd15
 2767 0ca3 21       		.uleb128 0x21
 2768 0ca4 78000000 		.4byte	.LASF170
 2769 0ca8 01       		.byte	0x1
 2770 0ca9 0E04     		.2byte	0x40e
 2771 0cab 1B0D0000 		.4byte	0xd1b
 2772 0caf 21       		.uleb128 0x21
 2773 0cb0 7F050000 		.4byte	.LASF171
ARM GAS  C:\Users\YUANFA~1\AppData\Local\Temp\cc9Xhnxa.s 			page 78


 2774 0cb4 01       		.byte	0x1
 2775 0cb5 0F04     		.2byte	0x40f
 2776 0cb7 210D0000 		.4byte	0xd21
 2777 0cbb 21       		.uleb128 0x21
 2778 0cbc 1D070000 		.4byte	.LASF172
 2779 0cc0 01       		.byte	0x1
 2780 0cc1 1004     		.2byte	0x410
 2781 0cc3 270D0000 		.4byte	0xd27
 2782 0cc7 00       		.byte	0
 2783 0cc8 24       		.uleb128 0x24
 2784 0cc9 0A0B0000 		.4byte	.LASF173
 2785 0ccd 01       		.byte	0x1
 2786 0cce 1104     		.2byte	0x411
 2787 0cd0 8E0C0000 		.4byte	0xc8e
 2788 0cd4 22       		.uleb128 0x22
 2789 0cd5 0C000000 		.4byte	.LVL65
 2790 0cd9 DB090000 		.4byte	0x9db
 2791 0cdd EF0C0000 		.4byte	0xcef
 2792 0ce1 1B       		.uleb128 0x1b
 2793 0ce2 01       		.uleb128 0x1
 2794 0ce3 50       		.byte	0x50
 2795 0ce4 03       		.uleb128 0x3
 2796 0ce5 F3       		.byte	0xf3
 2797 0ce6 01       		.uleb128 0x1
 2798 0ce7 50       		.byte	0x50
 2799 0ce8 1B       		.uleb128 0x1b
 2800 0ce9 01       		.uleb128 0x1
 2801 0cea 51       		.byte	0x51
 2802 0ceb 02       		.uleb128 0x2
 2803 0cec 7D       		.byte	0x7d
 2804 0ced 00       		.sleb128 0
 2805 0cee 00       		.byte	0
 2806 0cef 22       		.uleb128 0x22
 2807 0cf0 4C000000 		.4byte	.LVL72
 2808 0cf4 370F0000 		.4byte	0xf37
 2809 0cf8 020D0000 		.4byte	0xd02
 2810 0cfc 1B       		.uleb128 0x1b
 2811 0cfd 01       		.uleb128 0x1
 2812 0cfe 50       		.byte	0x50
 2813 0cff 01       		.uleb128 0x1
 2814 0d00 30       		.byte	0x30
 2815 0d01 00       		.byte	0
 2816 0d02 25       		.uleb128 0x25
 2817 0d03 64000000 		.4byte	.LVL73
 2818 0d07 420F0000 		.4byte	0xf42
 2819 0d0b 25       		.uleb128 0x25
 2820 0d0c 6E000000 		.4byte	.LVL74
 2821 0d10 4D0F0000 		.4byte	0xf4d
 2822 0d14 00       		.byte	0
 2823 0d15 13       		.uleb128 0x13
 2824 0d16 04       		.byte	0x4
 2825 0d17 090C0000 		.4byte	0xc09
 2826 0d1b 13       		.uleb128 0x13
 2827 0d1c 04       		.byte	0x4
 2828 0d1d B0000000 		.4byte	0xb0
 2829 0d21 13       		.uleb128 0x13
 2830 0d22 04       		.byte	0x4
ARM GAS  C:\Users\YUANFA~1\AppData\Local\Temp\cc9Xhnxa.s 			page 79


 2831 0d23 B5000000 		.4byte	0xb5
 2832 0d27 13       		.uleb128 0x13
 2833 0d28 04       		.byte	0x4
 2834 0d29 C6000000 		.4byte	0xc6
 2835 0d2d 1E       		.uleb128 0x1e
 2836 0d2e 96000000 		.4byte	.LASF176
 2837 0d32 01       		.byte	0x1
 2838 0d33 6704     		.2byte	0x467
 2839 0d35 83000000 		.4byte	0x83
 2840 0d39 00000000 		.4byte	.LFB5
 2841 0d3d 20000000 		.4byte	.LFE5-.LFB5
 2842 0d41 01       		.uleb128 0x1
 2843 0d42 9C       		.byte	0x9c
 2844 0d43 680D0000 		.4byte	0xd68
 2845 0d47 17       		.uleb128 0x17
 2846 0d48 C8020000 		.4byte	.LASF160
 2847 0d4c 01       		.byte	0x1
 2848 0d4d 6904     		.2byte	0x469
 2849 0d4f 83000000 		.4byte	0x83
 2850 0d53 5B030000 		.4byte	.LLST18
 2851 0d57 17       		.uleb128 0x17
 2852 0d58 F7050000 		.4byte	.LASF177
 2853 0d5c 01       		.byte	0x1
 2854 0d5d 6A04     		.2byte	0x46a
 2855 0d5f 83000000 		.4byte	0x83
 2856 0d63 7A030000 		.4byte	.LLST19
 2857 0d67 00       		.byte	0
 2858 0d68 1E       		.uleb128 0x1e
 2859 0d69 2D000000 		.4byte	.LASF178
 2860 0d6d 01       		.byte	0x1
 2861 0d6e 8F04     		.2byte	0x48f
 2862 0d70 83000000 		.4byte	0x83
 2863 0d74 00000000 		.4byte	.LFB6
 2864 0d78 24000000 		.4byte	.LFE6-.LFB6
 2865 0d7c 01       		.uleb128 0x1
 2866 0d7d 9C       		.byte	0x9c
 2867 0d7e A30D0000 		.4byte	0xda3
 2868 0d82 16       		.uleb128 0x16
 2869 0d83 DE0B0000 		.4byte	.LASF153
 2870 0d87 01       		.byte	0x1
 2871 0d88 8F04     		.2byte	0x48f
 2872 0d8a 83000000 		.4byte	0x83
 2873 0d8e AF030000 		.4byte	.LLST20
 2874 0d92 17       		.uleb128 0x17
 2875 0d93 C8020000 		.4byte	.LASF160
 2876 0d97 01       		.byte	0x1
 2877 0d98 9104     		.2byte	0x491
 2878 0d9a 83000000 		.4byte	0x83
 2879 0d9e E9030000 		.4byte	.LLST21
 2880 0da2 00       		.byte	0
 2881 0da3 1E       		.uleb128 0x1e
 2882 0da4 AE070000 		.4byte	.LASF179
 2883 0da8 01       		.byte	0x1
 2884 0da9 C104     		.2byte	0x4c1
 2885 0dab 83000000 		.4byte	0x83
 2886 0daf 00000000 		.4byte	.LFB7
 2887 0db3 34000000 		.4byte	.LFE7-.LFB7
ARM GAS  C:\Users\YUANFA~1\AppData\Local\Temp\cc9Xhnxa.s 			page 80


 2888 0db7 01       		.uleb128 0x1
 2889 0db8 9C       		.byte	0x9c
 2890 0db9 EC0D0000 		.4byte	0xdec
 2891 0dbd 16       		.uleb128 0x16
 2892 0dbe DE0B0000 		.4byte	.LASF153
 2893 0dc2 01       		.byte	0x1
 2894 0dc3 C104     		.2byte	0x4c1
 2895 0dc5 83000000 		.4byte	0x83
 2896 0dc9 1F040000 		.4byte	.LLST22
 2897 0dcd 26       		.uleb128 0x26
 2898 0dce FF010000 		.4byte	.LASF180
 2899 0dd2 01       		.byte	0x1
 2900 0dd3 C104     		.2byte	0x4c1
 2901 0dd5 83000000 		.4byte	0x83
 2902 0dd9 01       		.uleb128 0x1
 2903 0dda 51       		.byte	0x51
 2904 0ddb 17       		.uleb128 0x17
 2905 0ddc C8020000 		.4byte	.LASF160
 2906 0de0 01       		.byte	0x1
 2907 0de1 C304     		.2byte	0x4c3
 2908 0de3 83000000 		.4byte	0x83
 2909 0de7 72040000 		.4byte	.LLST23
 2910 0deb 00       		.byte	0
 2911 0dec 1E       		.uleb128 0x1e
 2912 0ded 8A030000 		.4byte	.LASF181
 2913 0df1 01       		.byte	0x1
 2914 0df2 C405     		.2byte	0x5c4
 2915 0df4 83000000 		.4byte	0x83
 2916 0df8 00000000 		.4byte	.LFB8
 2917 0dfc 40000000 		.4byte	.LFE8-.LFB8
 2918 0e00 01       		.uleb128 0x1
 2919 0e01 9C       		.byte	0x9c
 2920 0e02 570E0000 		.4byte	0xe57
 2921 0e06 16       		.uleb128 0x16
 2922 0e07 DE0B0000 		.4byte	.LASF153
 2923 0e0b 01       		.byte	0x1
 2924 0e0c C405     		.2byte	0x5c4
 2925 0e0e 83000000 		.4byte	0x83
 2926 0e12 A8040000 		.4byte	.LLST24
 2927 0e16 17       		.uleb128 0x17
 2928 0e17 690A0000 		.4byte	.LASF167
 2929 0e1b 01       		.byte	0x1
 2930 0e1c C605     		.2byte	0x5c6
 2931 0e1e 240B0000 		.4byte	0xb24
 2932 0e22 E2040000 		.4byte	.LLST25
 2933 0e26 17       		.uleb128 0x17
 2934 0e27 00000000 		.4byte	.LASF182
 2935 0e2b 01       		.byte	0x1
 2936 0e2c CD05     		.2byte	0x5cd
 2937 0e2e 570E0000 		.4byte	0xe57
 2938 0e32 23050000 		.4byte	.LLST26
 2939 0e36 17       		.uleb128 0x17
 2940 0e37 FC0A0000 		.4byte	.LASF183
 2941 0e3b 01       		.byte	0x1
 2942 0e3c D005     		.2byte	0x5d0
 2943 0e3e A4000000 		.4byte	0xa4
 2944 0e42 36050000 		.4byte	.LLST27
ARM GAS  C:\Users\YUANFA~1\AppData\Local\Temp\cc9Xhnxa.s 			page 81


 2945 0e46 17       		.uleb128 0x17
 2946 0e47 C8020000 		.4byte	.LASF160
 2947 0e4b 01       		.byte	0x1
 2948 0e4c D105     		.2byte	0x5d1
 2949 0e4e 83000000 		.4byte	0x83
 2950 0e52 60050000 		.4byte	.LLST28
 2951 0e56 00       		.byte	0
 2952 0e57 13       		.uleb128 0x13
 2953 0e58 04       		.byte	0x4
 2954 0e59 63020000 		.4byte	0x263
 2955 0e5d 27       		.uleb128 0x27
 2956 0e5e CC010000 		.4byte	.LASF184
 2957 0e62 01       		.byte	0x1
 2958 0e63 56       		.byte	0x56
 2959 0e64 1A080000 		.4byte	0x81a
 2960 0e68 05       		.uleb128 0x5
 2961 0e69 03       		.byte	0x3
 2962 0e6a 00000000 		.4byte	CapSense_csxTouchpadData_Touchpad0
 2963 0e6e 28       		.uleb128 0x28
 2964 0e6f 3A050000 		.4byte	.LASF185
 2965 0e73 01       		.byte	0x1
 2966 0e74 4A       		.byte	0x4a
 2967 0e75 D2060000 		.4byte	0x6d2
 2968 0e79 05       		.uleb128 0x5
 2969 0e7a 03       		.byte	0x3
 2970 0e7b 00000000 		.4byte	CapSense_dsRam
 2971 0e7f 28       		.uleb128 0x28
 2972 0e80 5F090000 		.4byte	.LASF186
 2973 0e84 01       		.byte	0x1
 2974 0e85 67       		.byte	0x67
 2975 0e86 900E0000 		.4byte	0xe90
 2976 0e8a 05       		.uleb128 0x5
 2977 0e8b 03       		.byte	0x3
 2978 0e8c 00000000 		.4byte	CapSense_dsFlash
 2979 0e90 1C       		.uleb128 0x1c
 2980 0e91 5F090000 		.4byte	0x95f
 2981 0e95 0F       		.uleb128 0xf
 2982 0e96 A50E0000 		.4byte	0xea5
 2983 0e9a A50E0000 		.4byte	0xea5
 2984 0e9e 10       		.uleb128 0x10
 2985 0e9f D2000000 		.4byte	0xd2
 2986 0ea3 11       		.byte	0x11
 2987 0ea4 00       		.byte	0
 2988 0ea5 1C       		.uleb128 0x1c
 2989 0ea6 70070000 		.4byte	0x770
 2990 0eaa 28       		.uleb128 0x28
 2991 0eab 730B0000 		.4byte	.LASF187
 2992 0eaf 01       		.byte	0x1
 2993 0eb0 84       		.byte	0x84
 2994 0eb1 BB0E0000 		.4byte	0xebb
 2995 0eb5 05       		.uleb128 0x5
 2996 0eb6 03       		.byte	0x3
 2997 0eb7 00000000 		.4byte	CapSense_ioList
 2998 0ebb 1C       		.uleb128 0x1c
 2999 0ebc 950E0000 		.4byte	0xe95
 3000 0ec0 29       		.uleb128 0x29
 3001 0ec1 830A0000 		.4byte	.LASF188
ARM GAS  C:\Users\YUANFA~1\AppData\Local\Temp\cc9Xhnxa.s 			page 82


 3002 0ec5 01       		.byte	0x1
 3003 0ec6 6601     		.2byte	0x166
 3004 0ec8 D20E0000 		.4byte	0xed2
 3005 0ecc 05       		.uleb128 0x5
 3006 0ecd 03       		.byte	0x3
 3007 0ece 00000000 		.4byte	CapSense_ramWidgetInit
 3008 0ed2 1C       		.uleb128 0x1c
 3009 0ed3 86020000 		.4byte	0x286
 3010 0ed7 0F       		.uleb128 0xf
 3011 0ed8 970A0000 		.4byte	0xa97
 3012 0edc E70E0000 		.4byte	0xee7
 3013 0ee0 10       		.uleb128 0x10
 3014 0ee1 D2000000 		.4byte	0xd2
 3015 0ee5 2C       		.byte	0x2c
 3016 0ee6 00       		.byte	0
 3017 0ee7 29       		.uleb128 0x29
 3018 0ee8 E0000000 		.4byte	.LASF189
 3019 0eec 01       		.byte	0x1
 3020 0eed 8201     		.2byte	0x182
 3021 0eef F90E0000 		.4byte	0xef9
 3022 0ef3 05       		.uleb128 0x5
 3023 0ef4 03       		.byte	0x3
 3024 0ef5 00000000 		.4byte	CapSense_ramIdacInit
 3025 0ef9 1C       		.uleb128 0x1c
 3026 0efa D70E0000 		.4byte	0xed7
 3027 0efe 0F       		.uleb128 0xf
 3028 0eff 970A0000 		.4byte	0xa97
 3029 0f03 0E0F0000 		.4byte	0xf0e
 3030 0f07 10       		.uleb128 0x10
 3031 0f08 D2000000 		.4byte	0xd2
 3032 0f0c 01       		.byte	0x1
 3033 0f0d 00       		.byte	0
 3034 0f0e 29       		.uleb128 0x29
 3035 0f0f 38040000 		.4byte	.LASF190
 3036 0f13 01       		.byte	0x1
 3037 0f14 EA01     		.2byte	0x1ea
 3038 0f16 200F0000 		.4byte	0xf20
 3039 0f1a 05       		.uleb128 0x5
 3040 0f1b 03       		.byte	0x3
 3041 0f1c 00000000 		.4byte	CapSense_extCapMap
 3042 0f20 1C       		.uleb128 0x1c
 3043 0f21 FE0E0000 		.4byte	0xefe
 3044 0f25 2A       		.uleb128 0x2a
 3045 0f26 830B0000 		.4byte	.LASF191
 3046 0f2a 830B0000 		.4byte	.LASF191
 3047 0f2e 2A       		.uleb128 0x2a
 3048 0f2f D9000000 		.4byte	.LASF192
 3049 0f33 D9000000 		.4byte	.LASF192
 3050 0f37 2B       		.uleb128 0x2b
 3051 0f38 66030000 		.4byte	.LASF193
 3052 0f3c 66030000 		.4byte	.LASF193
 3053 0f40 05       		.byte	0x5
 3054 0f41 FA       		.byte	0xfa
 3055 0f42 2B       		.uleb128 0x2b
 3056 0f43 92050000 		.4byte	.LASF194
 3057 0f47 92050000 		.4byte	.LASF194
 3058 0f4b 06       		.byte	0x6
ARM GAS  C:\Users\YUANFA~1\AppData\Local\Temp\cc9Xhnxa.s 			page 83


 3059 0f4c 83       		.byte	0x83
 3060 0f4d 2B       		.uleb128 0x2b
 3061 0f4e 45000000 		.4byte	.LASF195
 3062 0f52 45000000 		.4byte	.LASF195
 3063 0f56 06       		.byte	0x6
 3064 0f57 86       		.byte	0x86
 3065 0f58 00       		.byte	0
 3066              		.section	.debug_abbrev,"",%progbits
 3067              	.Ldebug_abbrev0:
 3068 0000 01       		.uleb128 0x1
 3069 0001 11       		.uleb128 0x11
 3070 0002 01       		.byte	0x1
 3071 0003 25       		.uleb128 0x25
 3072 0004 0E       		.uleb128 0xe
 3073 0005 13       		.uleb128 0x13
 3074 0006 0B       		.uleb128 0xb
 3075 0007 03       		.uleb128 0x3
 3076 0008 0E       		.uleb128 0xe
 3077 0009 1B       		.uleb128 0x1b
 3078 000a 0E       		.uleb128 0xe
 3079 000b 55       		.uleb128 0x55
 3080 000c 17       		.uleb128 0x17
 3081 000d 11       		.uleb128 0x11
 3082 000e 01       		.uleb128 0x1
 3083 000f 10       		.uleb128 0x10
 3084 0010 17       		.uleb128 0x17
 3085 0011 00       		.byte	0
 3086 0012 00       		.byte	0
 3087 0013 02       		.uleb128 0x2
 3088 0014 24       		.uleb128 0x24
 3089 0015 00       		.byte	0
 3090 0016 0B       		.uleb128 0xb
 3091 0017 0B       		.uleb128 0xb
 3092 0018 3E       		.uleb128 0x3e
 3093 0019 0B       		.uleb128 0xb
 3094 001a 03       		.uleb128 0x3
 3095 001b 0E       		.uleb128 0xe
 3096 001c 00       		.byte	0
 3097 001d 00       		.byte	0
 3098 001e 03       		.uleb128 0x3
 3099 001f 24       		.uleb128 0x24
 3100 0020 00       		.byte	0
 3101 0021 0B       		.uleb128 0xb
 3102 0022 0B       		.uleb128 0xb
 3103 0023 3E       		.uleb128 0x3e
 3104 0024 0B       		.uleb128 0xb
 3105 0025 03       		.uleb128 0x3
 3106 0026 08       		.uleb128 0x8
 3107 0027 00       		.byte	0
 3108 0028 00       		.byte	0
 3109 0029 04       		.uleb128 0x4
 3110 002a 16       		.uleb128 0x16
 3111 002b 00       		.byte	0
 3112 002c 03       		.uleb128 0x3
 3113 002d 0E       		.uleb128 0xe
 3114 002e 3A       		.uleb128 0x3a
 3115 002f 0B       		.uleb128 0xb
ARM GAS  C:\Users\YUANFA~1\AppData\Local\Temp\cc9Xhnxa.s 			page 84


 3116 0030 3B       		.uleb128 0x3b
 3117 0031 05       		.uleb128 0x5
 3118 0032 49       		.uleb128 0x49
 3119 0033 13       		.uleb128 0x13
 3120 0034 00       		.byte	0
 3121 0035 00       		.byte	0
 3122 0036 05       		.uleb128 0x5
 3123 0037 35       		.uleb128 0x35
 3124 0038 00       		.byte	0
 3125 0039 49       		.uleb128 0x49
 3126 003a 13       		.uleb128 0x13
 3127 003b 00       		.byte	0
 3128 003c 00       		.byte	0
 3129 003d 06       		.uleb128 0x6
 3130 003e 0F       		.uleb128 0xf
 3131 003f 00       		.byte	0
 3132 0040 0B       		.uleb128 0xb
 3133 0041 0B       		.uleb128 0xb
 3134 0042 00       		.byte	0
 3135 0043 00       		.byte	0
 3136 0044 07       		.uleb128 0x7
 3137 0045 04       		.uleb128 0x4
 3138 0046 01       		.byte	0x1
 3139 0047 0B       		.uleb128 0xb
 3140 0048 0B       		.uleb128 0xb
 3141 0049 49       		.uleb128 0x49
 3142 004a 13       		.uleb128 0x13
 3143 004b 3A       		.uleb128 0x3a
 3144 004c 0B       		.uleb128 0xb
 3145 004d 3B       		.uleb128 0x3b
 3146 004e 0B       		.uleb128 0xb
 3147 004f 01       		.uleb128 0x1
 3148 0050 13       		.uleb128 0x13
 3149 0051 00       		.byte	0
 3150 0052 00       		.byte	0
 3151 0053 08       		.uleb128 0x8
 3152 0054 28       		.uleb128 0x28
 3153 0055 00       		.byte	0
 3154 0056 03       		.uleb128 0x3
 3155 0057 0E       		.uleb128 0xe
 3156 0058 1C       		.uleb128 0x1c
 3157 0059 0B       		.uleb128 0xb
 3158 005a 00       		.byte	0
 3159 005b 00       		.byte	0
 3160 005c 09       		.uleb128 0x9
 3161 005d 16       		.uleb128 0x16
 3162 005e 00       		.byte	0
 3163 005f 03       		.uleb128 0x3
 3164 0060 0E       		.uleb128 0xe
 3165 0061 3A       		.uleb128 0x3a
 3166 0062 0B       		.uleb128 0xb
 3167 0063 3B       		.uleb128 0x3b
 3168 0064 0B       		.uleb128 0xb
 3169 0065 49       		.uleb128 0x49
 3170 0066 13       		.uleb128 0x13
 3171 0067 00       		.byte	0
 3172 0068 00       		.byte	0
ARM GAS  C:\Users\YUANFA~1\AppData\Local\Temp\cc9Xhnxa.s 			page 85


 3173 0069 0A       		.uleb128 0xa
 3174 006a 13       		.uleb128 0x13
 3175 006b 01       		.byte	0x1
 3176 006c 0B       		.uleb128 0xb
 3177 006d 0B       		.uleb128 0xb
 3178 006e 3A       		.uleb128 0x3a
 3179 006f 0B       		.uleb128 0xb
 3180 0070 3B       		.uleb128 0x3b
 3181 0071 0B       		.uleb128 0xb
 3182 0072 01       		.uleb128 0x1
 3183 0073 13       		.uleb128 0x13
 3184 0074 00       		.byte	0
 3185 0075 00       		.byte	0
 3186 0076 0B       		.uleb128 0xb
 3187 0077 0D       		.uleb128 0xd
 3188 0078 00       		.byte	0
 3189 0079 03       		.uleb128 0x3
 3190 007a 08       		.uleb128 0x8
 3191 007b 3A       		.uleb128 0x3a
 3192 007c 0B       		.uleb128 0xb
 3193 007d 3B       		.uleb128 0x3b
 3194 007e 0B       		.uleb128 0xb
 3195 007f 49       		.uleb128 0x49
 3196 0080 13       		.uleb128 0x13
 3197 0081 38       		.uleb128 0x38
 3198 0082 0B       		.uleb128 0xb
 3199 0083 00       		.byte	0
 3200 0084 00       		.byte	0
 3201 0085 0C       		.uleb128 0xc
 3202 0086 0D       		.uleb128 0xd
 3203 0087 00       		.byte	0
 3204 0088 03       		.uleb128 0x3
 3205 0089 08       		.uleb128 0x8
 3206 008a 3A       		.uleb128 0x3a
 3207 008b 0B       		.uleb128 0xb
 3208 008c 3B       		.uleb128 0x3b
 3209 008d 05       		.uleb128 0x5
 3210 008e 49       		.uleb128 0x49
 3211 008f 13       		.uleb128 0x13
 3212 0090 38       		.uleb128 0x38
 3213 0091 0B       		.uleb128 0xb
 3214 0092 00       		.byte	0
 3215 0093 00       		.byte	0
 3216 0094 0D       		.uleb128 0xd
 3217 0095 13       		.uleb128 0x13
 3218 0096 01       		.byte	0x1
 3219 0097 0B       		.uleb128 0xb
 3220 0098 0B       		.uleb128 0xb
 3221 0099 3A       		.uleb128 0x3a
 3222 009a 0B       		.uleb128 0xb
 3223 009b 3B       		.uleb128 0x3b
 3224 009c 05       		.uleb128 0x5
 3225 009d 01       		.uleb128 0x1
 3226 009e 13       		.uleb128 0x13
 3227 009f 00       		.byte	0
 3228 00a0 00       		.byte	0
 3229 00a1 0E       		.uleb128 0xe
ARM GAS  C:\Users\YUANFA~1\AppData\Local\Temp\cc9Xhnxa.s 			page 86


 3230 00a2 0D       		.uleb128 0xd
 3231 00a3 00       		.byte	0
 3232 00a4 03       		.uleb128 0x3
 3233 00a5 0E       		.uleb128 0xe
 3234 00a6 3A       		.uleb128 0x3a
 3235 00a7 0B       		.uleb128 0xb
 3236 00a8 3B       		.uleb128 0x3b
 3237 00a9 05       		.uleb128 0x5
 3238 00aa 49       		.uleb128 0x49
 3239 00ab 13       		.uleb128 0x13
 3240 00ac 38       		.uleb128 0x38
 3241 00ad 0B       		.uleb128 0xb
 3242 00ae 00       		.byte	0
 3243 00af 00       		.byte	0
 3244 00b0 0F       		.uleb128 0xf
 3245 00b1 01       		.uleb128 0x1
 3246 00b2 01       		.byte	0x1
 3247 00b3 49       		.uleb128 0x49
 3248 00b4 13       		.uleb128 0x13
 3249 00b5 01       		.uleb128 0x1
 3250 00b6 13       		.uleb128 0x13
 3251 00b7 00       		.byte	0
 3252 00b8 00       		.byte	0
 3253 00b9 10       		.uleb128 0x10
 3254 00ba 21       		.uleb128 0x21
 3255 00bb 00       		.byte	0
 3256 00bc 49       		.uleb128 0x49
 3257 00bd 13       		.uleb128 0x13
 3258 00be 2F       		.uleb128 0x2f
 3259 00bf 0B       		.uleb128 0xb
 3260 00c0 00       		.byte	0
 3261 00c1 00       		.byte	0
 3262 00c2 11       		.uleb128 0x11
 3263 00c3 13       		.uleb128 0x13
 3264 00c4 01       		.byte	0x1
 3265 00c5 0B       		.uleb128 0xb
 3266 00c6 05       		.uleb128 0x5
 3267 00c7 3A       		.uleb128 0x3a
 3268 00c8 0B       		.uleb128 0xb
 3269 00c9 3B       		.uleb128 0x3b
 3270 00ca 05       		.uleb128 0x5
 3271 00cb 01       		.uleb128 0x1
 3272 00cc 13       		.uleb128 0x13
 3273 00cd 00       		.byte	0
 3274 00ce 00       		.byte	0
 3275 00cf 12       		.uleb128 0x12
 3276 00d0 0D       		.uleb128 0xd
 3277 00d1 00       		.byte	0
 3278 00d2 03       		.uleb128 0x3
 3279 00d3 0E       		.uleb128 0xe
 3280 00d4 3A       		.uleb128 0x3a
 3281 00d5 0B       		.uleb128 0xb
 3282 00d6 3B       		.uleb128 0x3b
 3283 00d7 05       		.uleb128 0x5
 3284 00d8 49       		.uleb128 0x49
 3285 00d9 13       		.uleb128 0x13
 3286 00da 38       		.uleb128 0x38
ARM GAS  C:\Users\YUANFA~1\AppData\Local\Temp\cc9Xhnxa.s 			page 87


 3287 00db 05       		.uleb128 0x5
 3288 00dc 00       		.byte	0
 3289 00dd 00       		.byte	0
 3290 00de 13       		.uleb128 0x13
 3291 00df 0F       		.uleb128 0xf
 3292 00e0 00       		.byte	0
 3293 00e1 0B       		.uleb128 0xb
 3294 00e2 0B       		.uleb128 0xb
 3295 00e3 49       		.uleb128 0x49
 3296 00e4 13       		.uleb128 0x13
 3297 00e5 00       		.byte	0
 3298 00e6 00       		.byte	0
 3299 00e7 14       		.uleb128 0x14
 3300 00e8 26       		.uleb128 0x26
 3301 00e9 00       		.byte	0
 3302 00ea 00       		.byte	0
 3303 00eb 00       		.byte	0
 3304 00ec 15       		.uleb128 0x15
 3305 00ed 2E       		.uleb128 0x2e
 3306 00ee 01       		.byte	0x1
 3307 00ef 03       		.uleb128 0x3
 3308 00f0 0E       		.uleb128 0xe
 3309 00f1 3A       		.uleb128 0x3a
 3310 00f2 0B       		.uleb128 0xb
 3311 00f3 3B       		.uleb128 0x3b
 3312 00f4 05       		.uleb128 0x5
 3313 00f5 27       		.uleb128 0x27
 3314 00f6 19       		.uleb128 0x19
 3315 00f7 49       		.uleb128 0x49
 3316 00f8 13       		.uleb128 0x13
 3317 00f9 11       		.uleb128 0x11
 3318 00fa 01       		.uleb128 0x1
 3319 00fb 12       		.uleb128 0x12
 3320 00fc 06       		.uleb128 0x6
 3321 00fd 40       		.uleb128 0x40
 3322 00fe 18       		.uleb128 0x18
 3323 00ff 9742     		.uleb128 0x2117
 3324 0101 19       		.uleb128 0x19
 3325 0102 01       		.uleb128 0x1
 3326 0103 13       		.uleb128 0x13
 3327 0104 00       		.byte	0
 3328 0105 00       		.byte	0
 3329 0106 16       		.uleb128 0x16
 3330 0107 05       		.uleb128 0x5
 3331 0108 00       		.byte	0
 3332 0109 03       		.uleb128 0x3
 3333 010a 0E       		.uleb128 0xe
 3334 010b 3A       		.uleb128 0x3a
 3335 010c 0B       		.uleb128 0xb
 3336 010d 3B       		.uleb128 0x3b
 3337 010e 05       		.uleb128 0x5
 3338 010f 49       		.uleb128 0x49
 3339 0110 13       		.uleb128 0x13
 3340 0111 02       		.uleb128 0x2
 3341 0112 17       		.uleb128 0x17
 3342 0113 00       		.byte	0
 3343 0114 00       		.byte	0
ARM GAS  C:\Users\YUANFA~1\AppData\Local\Temp\cc9Xhnxa.s 			page 88


 3344 0115 17       		.uleb128 0x17
 3345 0116 34       		.uleb128 0x34
 3346 0117 00       		.byte	0
 3347 0118 03       		.uleb128 0x3
 3348 0119 0E       		.uleb128 0xe
 3349 011a 3A       		.uleb128 0x3a
 3350 011b 0B       		.uleb128 0xb
 3351 011c 3B       		.uleb128 0x3b
 3352 011d 05       		.uleb128 0x5
 3353 011e 49       		.uleb128 0x49
 3354 011f 13       		.uleb128 0x13
 3355 0120 02       		.uleb128 0x2
 3356 0121 17       		.uleb128 0x17
 3357 0122 00       		.byte	0
 3358 0123 00       		.byte	0
 3359 0124 18       		.uleb128 0x18
 3360 0125 34       		.uleb128 0x34
 3361 0126 00       		.byte	0
 3362 0127 03       		.uleb128 0x3
 3363 0128 0E       		.uleb128 0xe
 3364 0129 3A       		.uleb128 0x3a
 3365 012a 0B       		.uleb128 0xb
 3366 012b 3B       		.uleb128 0x3b
 3367 012c 05       		.uleb128 0x5
 3368 012d 49       		.uleb128 0x49
 3369 012e 13       		.uleb128 0x13
 3370 012f 02       		.uleb128 0x2
 3371 0130 18       		.uleb128 0x18
 3372 0131 00       		.byte	0
 3373 0132 00       		.byte	0
 3374 0133 19       		.uleb128 0x19
 3375 0134 34       		.uleb128 0x34
 3376 0135 00       		.byte	0
 3377 0136 03       		.uleb128 0x3
 3378 0137 08       		.uleb128 0x8
 3379 0138 3A       		.uleb128 0x3a
 3380 0139 0B       		.uleb128 0xb
 3381 013a 3B       		.uleb128 0x3b
 3382 013b 05       		.uleb128 0x5
 3383 013c 49       		.uleb128 0x49
 3384 013d 13       		.uleb128 0x13
 3385 013e 02       		.uleb128 0x2
 3386 013f 17       		.uleb128 0x17
 3387 0140 00       		.byte	0
 3388 0141 00       		.byte	0
 3389 0142 1A       		.uleb128 0x1a
 3390 0143 898201   		.uleb128 0x4109
 3391 0146 01       		.byte	0x1
 3392 0147 11       		.uleb128 0x11
 3393 0148 01       		.uleb128 0x1
 3394 0149 31       		.uleb128 0x31
 3395 014a 13       		.uleb128 0x13
 3396 014b 00       		.byte	0
 3397 014c 00       		.byte	0
 3398 014d 1B       		.uleb128 0x1b
 3399 014e 8A8201   		.uleb128 0x410a
 3400 0151 00       		.byte	0
ARM GAS  C:\Users\YUANFA~1\AppData\Local\Temp\cc9Xhnxa.s 			page 89


 3401 0152 02       		.uleb128 0x2
 3402 0153 18       		.uleb128 0x18
 3403 0154 9142     		.uleb128 0x2111
 3404 0156 18       		.uleb128 0x18
 3405 0157 00       		.byte	0
 3406 0158 00       		.byte	0
 3407 0159 1C       		.uleb128 0x1c
 3408 015a 26       		.uleb128 0x26
 3409 015b 00       		.byte	0
 3410 015c 49       		.uleb128 0x49
 3411 015d 13       		.uleb128 0x13
 3412 015e 00       		.byte	0
 3413 015f 00       		.byte	0
 3414 0160 1D       		.uleb128 0x1d
 3415 0161 2E       		.uleb128 0x2e
 3416 0162 01       		.byte	0x1
 3417 0163 3F       		.uleb128 0x3f
 3418 0164 19       		.uleb128 0x19
 3419 0165 03       		.uleb128 0x3
 3420 0166 0E       		.uleb128 0xe
 3421 0167 3A       		.uleb128 0x3a
 3422 0168 0B       		.uleb128 0xb
 3423 0169 3B       		.uleb128 0x3b
 3424 016a 05       		.uleb128 0x5
 3425 016b 27       		.uleb128 0x27
 3426 016c 19       		.uleb128 0x19
 3427 016d 11       		.uleb128 0x11
 3428 016e 01       		.uleb128 0x1
 3429 016f 12       		.uleb128 0x12
 3430 0170 06       		.uleb128 0x6
 3431 0171 40       		.uleb128 0x40
 3432 0172 18       		.uleb128 0x18
 3433 0173 9742     		.uleb128 0x2117
 3434 0175 19       		.uleb128 0x19
 3435 0176 01       		.uleb128 0x1
 3436 0177 13       		.uleb128 0x13
 3437 0178 00       		.byte	0
 3438 0179 00       		.byte	0
 3439 017a 1E       		.uleb128 0x1e
 3440 017b 2E       		.uleb128 0x2e
 3441 017c 01       		.byte	0x1
 3442 017d 3F       		.uleb128 0x3f
 3443 017e 19       		.uleb128 0x19
 3444 017f 03       		.uleb128 0x3
 3445 0180 0E       		.uleb128 0xe
 3446 0181 3A       		.uleb128 0x3a
 3447 0182 0B       		.uleb128 0xb
 3448 0183 3B       		.uleb128 0x3b
 3449 0184 05       		.uleb128 0x5
 3450 0185 27       		.uleb128 0x27
 3451 0186 19       		.uleb128 0x19
 3452 0187 49       		.uleb128 0x49
 3453 0188 13       		.uleb128 0x13
 3454 0189 11       		.uleb128 0x11
 3455 018a 01       		.uleb128 0x1
 3456 018b 12       		.uleb128 0x12
 3457 018c 06       		.uleb128 0x6
ARM GAS  C:\Users\YUANFA~1\AppData\Local\Temp\cc9Xhnxa.s 			page 90


 3458 018d 40       		.uleb128 0x40
 3459 018e 18       		.uleb128 0x18
 3460 018f 9742     		.uleb128 0x2117
 3461 0191 19       		.uleb128 0x19
 3462 0192 01       		.uleb128 0x1
 3463 0193 13       		.uleb128 0x13
 3464 0194 00       		.byte	0
 3465 0195 00       		.byte	0
 3466 0196 1F       		.uleb128 0x1f
 3467 0197 17       		.uleb128 0x17
 3468 0198 01       		.byte	0x1
 3469 0199 0B       		.uleb128 0xb
 3470 019a 0B       		.uleb128 0xb
 3471 019b 3A       		.uleb128 0x3a
 3472 019c 0B       		.uleb128 0xb
 3473 019d 3B       		.uleb128 0x3b
 3474 019e 05       		.uleb128 0x5
 3475 019f 01       		.uleb128 0x1
 3476 01a0 13       		.uleb128 0x13
 3477 01a1 00       		.byte	0
 3478 01a2 00       		.byte	0
 3479 01a3 20       		.uleb128 0x20
 3480 01a4 0D       		.uleb128 0xd
 3481 01a5 00       		.byte	0
 3482 01a6 03       		.uleb128 0x3
 3483 01a7 08       		.uleb128 0x8
 3484 01a8 3A       		.uleb128 0x3a
 3485 01a9 0B       		.uleb128 0xb
 3486 01aa 3B       		.uleb128 0x3b
 3487 01ab 05       		.uleb128 0x5
 3488 01ac 49       		.uleb128 0x49
 3489 01ad 13       		.uleb128 0x13
 3490 01ae 00       		.byte	0
 3491 01af 00       		.byte	0
 3492 01b0 21       		.uleb128 0x21
 3493 01b1 0D       		.uleb128 0xd
 3494 01b2 00       		.byte	0
 3495 01b3 03       		.uleb128 0x3
 3496 01b4 0E       		.uleb128 0xe
 3497 01b5 3A       		.uleb128 0x3a
 3498 01b6 0B       		.uleb128 0xb
 3499 01b7 3B       		.uleb128 0x3b
 3500 01b8 05       		.uleb128 0x5
 3501 01b9 49       		.uleb128 0x49
 3502 01ba 13       		.uleb128 0x13
 3503 01bb 00       		.byte	0
 3504 01bc 00       		.byte	0
 3505 01bd 22       		.uleb128 0x22
 3506 01be 898201   		.uleb128 0x4109
 3507 01c1 01       		.byte	0x1
 3508 01c2 11       		.uleb128 0x11
 3509 01c3 01       		.uleb128 0x1
 3510 01c4 31       		.uleb128 0x31
 3511 01c5 13       		.uleb128 0x13
 3512 01c6 01       		.uleb128 0x1
 3513 01c7 13       		.uleb128 0x13
 3514 01c8 00       		.byte	0
ARM GAS  C:\Users\YUANFA~1\AppData\Local\Temp\cc9Xhnxa.s 			page 91


 3515 01c9 00       		.byte	0
 3516 01ca 23       		.uleb128 0x23
 3517 01cb 35       		.uleb128 0x35
 3518 01cc 00       		.byte	0
 3519 01cd 00       		.byte	0
 3520 01ce 00       		.byte	0
 3521 01cf 24       		.uleb128 0x24
 3522 01d0 34       		.uleb128 0x34
 3523 01d1 00       		.byte	0
 3524 01d2 03       		.uleb128 0x3
 3525 01d3 0E       		.uleb128 0xe
 3526 01d4 3A       		.uleb128 0x3a
 3527 01d5 0B       		.uleb128 0xb
 3528 01d6 3B       		.uleb128 0x3b
 3529 01d7 05       		.uleb128 0x5
 3530 01d8 49       		.uleb128 0x49
 3531 01d9 13       		.uleb128 0x13
 3532 01da 00       		.byte	0
 3533 01db 00       		.byte	0
 3534 01dc 25       		.uleb128 0x25
 3535 01dd 898201   		.uleb128 0x4109
 3536 01e0 00       		.byte	0
 3537 01e1 11       		.uleb128 0x11
 3538 01e2 01       		.uleb128 0x1
 3539 01e3 31       		.uleb128 0x31
 3540 01e4 13       		.uleb128 0x13
 3541 01e5 00       		.byte	0
 3542 01e6 00       		.byte	0
 3543 01e7 26       		.uleb128 0x26
 3544 01e8 05       		.uleb128 0x5
 3545 01e9 00       		.byte	0
 3546 01ea 03       		.uleb128 0x3
 3547 01eb 0E       		.uleb128 0xe
 3548 01ec 3A       		.uleb128 0x3a
 3549 01ed 0B       		.uleb128 0xb
 3550 01ee 3B       		.uleb128 0x3b
 3551 01ef 05       		.uleb128 0x5
 3552 01f0 49       		.uleb128 0x49
 3553 01f1 13       		.uleb128 0x13
 3554 01f2 02       		.uleb128 0x2
 3555 01f3 18       		.uleb128 0x18
 3556 01f4 00       		.byte	0
 3557 01f5 00       		.byte	0
 3558 01f6 27       		.uleb128 0x27
 3559 01f7 34       		.uleb128 0x34
 3560 01f8 00       		.byte	0
 3561 01f9 03       		.uleb128 0x3
 3562 01fa 0E       		.uleb128 0xe
 3563 01fb 3A       		.uleb128 0x3a
 3564 01fc 0B       		.uleb128 0xb
 3565 01fd 3B       		.uleb128 0x3b
 3566 01fe 0B       		.uleb128 0xb
 3567 01ff 49       		.uleb128 0x49
 3568 0200 13       		.uleb128 0x13
 3569 0201 02       		.uleb128 0x2
 3570 0202 18       		.uleb128 0x18
 3571 0203 00       		.byte	0
ARM GAS  C:\Users\YUANFA~1\AppData\Local\Temp\cc9Xhnxa.s 			page 92


 3572 0204 00       		.byte	0
 3573 0205 28       		.uleb128 0x28
 3574 0206 34       		.uleb128 0x34
 3575 0207 00       		.byte	0
 3576 0208 03       		.uleb128 0x3
 3577 0209 0E       		.uleb128 0xe
 3578 020a 3A       		.uleb128 0x3a
 3579 020b 0B       		.uleb128 0xb
 3580 020c 3B       		.uleb128 0x3b
 3581 020d 0B       		.uleb128 0xb
 3582 020e 49       		.uleb128 0x49
 3583 020f 13       		.uleb128 0x13
 3584 0210 3F       		.uleb128 0x3f
 3585 0211 19       		.uleb128 0x19
 3586 0212 02       		.uleb128 0x2
 3587 0213 18       		.uleb128 0x18
 3588 0214 00       		.byte	0
 3589 0215 00       		.byte	0
 3590 0216 29       		.uleb128 0x29
 3591 0217 34       		.uleb128 0x34
 3592 0218 00       		.byte	0
 3593 0219 03       		.uleb128 0x3
 3594 021a 0E       		.uleb128 0xe
 3595 021b 3A       		.uleb128 0x3a
 3596 021c 0B       		.uleb128 0xb
 3597 021d 3B       		.uleb128 0x3b
 3598 021e 05       		.uleb128 0x5
 3599 021f 49       		.uleb128 0x49
 3600 0220 13       		.uleb128 0x13
 3601 0221 3F       		.uleb128 0x3f
 3602 0222 19       		.uleb128 0x19
 3603 0223 02       		.uleb128 0x2
 3604 0224 18       		.uleb128 0x18
 3605 0225 00       		.byte	0
 3606 0226 00       		.byte	0
 3607 0227 2A       		.uleb128 0x2a
 3608 0228 2E       		.uleb128 0x2e
 3609 0229 00       		.byte	0
 3610 022a 3F       		.uleb128 0x3f
 3611 022b 19       		.uleb128 0x19
 3612 022c 3C       		.uleb128 0x3c
 3613 022d 19       		.uleb128 0x19
 3614 022e 6E       		.uleb128 0x6e
 3615 022f 0E       		.uleb128 0xe
 3616 0230 03       		.uleb128 0x3
 3617 0231 0E       		.uleb128 0xe
 3618 0232 00       		.byte	0
 3619 0233 00       		.byte	0
 3620 0234 2B       		.uleb128 0x2b
 3621 0235 2E       		.uleb128 0x2e
 3622 0236 00       		.byte	0
 3623 0237 3F       		.uleb128 0x3f
 3624 0238 19       		.uleb128 0x19
 3625 0239 3C       		.uleb128 0x3c
 3626 023a 19       		.uleb128 0x19
 3627 023b 6E       		.uleb128 0x6e
 3628 023c 0E       		.uleb128 0xe
ARM GAS  C:\Users\YUANFA~1\AppData\Local\Temp\cc9Xhnxa.s 			page 93


 3629 023d 03       		.uleb128 0x3
 3630 023e 0E       		.uleb128 0xe
 3631 023f 3A       		.uleb128 0x3a
 3632 0240 0B       		.uleb128 0xb
 3633 0241 3B       		.uleb128 0x3b
 3634 0242 0B       		.uleb128 0xb
 3635 0243 00       		.byte	0
 3636 0244 00       		.byte	0
 3637 0245 00       		.byte	0
 3638              		.section	.debug_loc,"",%progbits
 3639              	.Ldebug_loc0:
 3640              	.LLST0:
 3641 0000 00000000 		.4byte	.LVL0
 3642 0004 12000000 		.4byte	.LVL3
 3643 0008 0100     		.2byte	0x1
 3644 000a 50       		.byte	0x50
 3645 000b 12000000 		.4byte	.LVL3
 3646 000f 6C000000 		.4byte	.LVL17
 3647 0013 0100     		.2byte	0x1
 3648 0015 54       		.byte	0x54
 3649 0016 00000000 		.4byte	0
 3650 001a 00000000 		.4byte	0
 3651              	.LLST1:
 3652 001e 00000000 		.4byte	.LVL0
 3653 0022 10000000 		.4byte	.LVL2
 3654 0026 0100     		.2byte	0x1
 3655 0028 51       		.byte	0x51
 3656 0029 10000000 		.4byte	.LVL2
 3657 002d 48000000 		.4byte	.LVL6
 3658 0031 0100     		.2byte	0x1
 3659 0033 56       		.byte	0x56
 3660 0034 48000000 		.4byte	.LVL6
 3661 0038 E8000000 		.4byte	.LFE2
 3662 003c 0400     		.2byte	0x4
 3663 003e F3       		.byte	0xf3
 3664 003f 01       		.uleb128 0x1
 3665 0040 51       		.byte	0x51
 3666 0041 9F       		.byte	0x9f
 3667 0042 00000000 		.4byte	0
 3668 0046 00000000 		.4byte	0
 3669              	.LLST2:
 3670 004a 0C000000 		.4byte	.LVL1
 3671 004e 76000000 		.4byte	.LVL20
 3672 0052 0200     		.2byte	0x2
 3673 0054 30       		.byte	0x30
 3674 0055 9F       		.byte	0x9f
 3675 0056 76000000 		.4byte	.LVL20
 3676 005a A6000000 		.4byte	.LVL26
 3677 005e 0100     		.2byte	0x1
 3678 0060 53       		.byte	0x53
 3679 0061 A8000000 		.4byte	.LVL27
 3680 0065 CE000000 		.4byte	.LVL29
 3681 0069 0100     		.2byte	0x1
 3682 006b 53       		.byte	0x53
 3683 006c D0000000 		.4byte	.LVL30
 3684 0070 D2000000 		.4byte	.LVL31
 3685 0074 0100     		.2byte	0x1
ARM GAS  C:\Users\YUANFA~1\AppData\Local\Temp\cc9Xhnxa.s 			page 94


 3686 0076 53       		.byte	0x53
 3687 0077 D4000000 		.4byte	.LVL32
 3688 007b E8000000 		.4byte	.LFE2
 3689 007f 0100     		.2byte	0x1
 3690 0081 53       		.byte	0x53
 3691 0082 00000000 		.4byte	0
 3692 0086 00000000 		.4byte	0
 3693              	.LLST3:
 3694 008a 46000000 		.4byte	.LVL5
 3695 008e 4C000000 		.4byte	.LVL7
 3696 0092 0200     		.2byte	0x2
 3697 0094 36       		.byte	0x36
 3698 0095 9F       		.byte	0x9f
 3699 0096 4C000000 		.4byte	.LVL7
 3700 009a 62000000 		.4byte	.LVL13
 3701 009e 0100     		.2byte	0x1
 3702 00a0 52       		.byte	0x52
 3703 00a1 62000000 		.4byte	.LVL13
 3704 00a5 8E000000 		.4byte	.LVL22
 3705 00a9 0300     		.2byte	0x3
 3706 00ab 72       		.byte	0x72
 3707 00ac 71       		.sleb128 -15
 3708 00ad 9F       		.byte	0x9f
 3709 00ae 94000000 		.4byte	.LVL23
 3710 00b2 96000000 		.4byte	.LVL24
 3711 00b6 0300     		.2byte	0x3
 3712 00b8 72       		.byte	0x72
 3713 00b9 71       		.sleb128 -15
 3714 00ba 9F       		.byte	0x9f
 3715 00bb 00000000 		.4byte	0
 3716 00bf 00000000 		.4byte	0
 3717              	.LLST4:
 3718 00c3 16000000 		.4byte	.LVL4
 3719 00c7 4C000000 		.4byte	.LVL7
 3720 00cb 0200     		.2byte	0x2
 3721 00cd 30       		.byte	0x30
 3722 00ce 9F       		.byte	0x9f
 3723 00cf 4C000000 		.4byte	.LVL7
 3724 00d3 54000000 		.4byte	.LVL9
 3725 00d7 0100     		.2byte	0x1
 3726 00d9 56       		.byte	0x56
 3727 00da 56000000 		.4byte	.LVL10
 3728 00de 68000000 		.4byte	.LVL15
 3729 00e2 0100     		.2byte	0x1
 3730 00e4 56       		.byte	0x56
 3731 00e5 6A000000 		.4byte	.LVL16
 3732 00e9 70000000 		.4byte	.LVL19
 3733 00ed 0100     		.2byte	0x1
 3734 00ef 53       		.byte	0x53
 3735 00f0 70000000 		.4byte	.LVL19
 3736 00f4 76000000 		.4byte	.LVL20
 3737 00f8 0600     		.2byte	0x6
 3738 00fa 73       		.byte	0x73
 3739 00fb 00       		.sleb128 0
 3740 00fc 08       		.byte	0x8
 3741 00fd FF       		.byte	0xff
 3742 00fe 1A       		.byte	0x1a
ARM GAS  C:\Users\YUANFA~1\AppData\Local\Temp\cc9Xhnxa.s 			page 95


 3743 00ff 9F       		.byte	0x9f
 3744 0100 76000000 		.4byte	.LVL20
 3745 0104 DA000000 		.4byte	.LVL34
 3746 0108 0B00     		.2byte	0xb
 3747 010a 7D       		.byte	0x7d
 3748 010b 00       		.sleb128 0
 3749 010c 74       		.byte	0x74
 3750 010d 00       		.sleb128 0
 3751 010e 22       		.byte	0x22
 3752 010f 94       		.byte	0x94
 3753 0110 01       		.byte	0x1
 3754 0111 08       		.byte	0x8
 3755 0112 FF       		.byte	0xff
 3756 0113 1A       		.byte	0x1a
 3757 0114 9F       		.byte	0x9f
 3758 0115 DA000000 		.4byte	.LVL34
 3759 0119 DA000000 		.4byte	.LVL35
 3760 011d 0B00     		.2byte	0xb
 3761 011f 76       		.byte	0x76
 3762 0120 00       		.sleb128 0
 3763 0121 74       		.byte	0x74
 3764 0122 00       		.sleb128 0
 3765 0123 22       		.byte	0x22
 3766 0124 94       		.byte	0x94
 3767 0125 01       		.byte	0x1
 3768 0126 08       		.byte	0x8
 3769 0127 FF       		.byte	0xff
 3770 0128 1A       		.byte	0x1a
 3771 0129 9F       		.byte	0x9f
 3772 012a 00000000 		.4byte	0
 3773 012e 00000000 		.4byte	0
 3774              	.LLST5:
 3775 0132 52000000 		.4byte	.LVL8
 3776 0136 5A000000 		.4byte	.LVL12
 3777 013a 0100     		.2byte	0x1
 3778 013c 53       		.byte	0x53
 3779 013d 66000000 		.4byte	.LVL14
 3780 0141 6A000000 		.4byte	.LVL16
 3781 0145 0100     		.2byte	0x1
 3782 0147 53       		.byte	0x53
 3783 0148 6E000000 		.4byte	.LVL18
 3784 014c DA000000 		.4byte	.LVL35
 3785 0150 0100     		.2byte	0x1
 3786 0152 54       		.byte	0x54
 3787 0153 00000000 		.4byte	0
 3788 0157 00000000 		.4byte	0
 3789              	.LLST6:
 3790 015b B2000000 		.4byte	.LVL41
 3791 015f B4000000 		.4byte	.LVL42
 3792 0163 0100     		.2byte	0x1
 3793 0165 53       		.byte	0x53
 3794 0166 B4000000 		.4byte	.LVL42
 3795 016a BE000000 		.4byte	.LVL45
 3796 016e 0100     		.2byte	0x1
 3797 0170 50       		.byte	0x50
 3798 0171 BE000000 		.4byte	.LVL45
 3799 0175 C0000000 		.4byte	.LVL46
ARM GAS  C:\Users\YUANFA~1\AppData\Local\Temp\cc9Xhnxa.s 			page 96


 3800 0179 0100     		.2byte	0x1
 3801 017b 53       		.byte	0x53
 3802 017c C0000000 		.4byte	.LVL46
 3803 0180 C8000000 		.4byte	.LVL48
 3804 0184 0100     		.2byte	0x1
 3805 0186 50       		.byte	0x50
 3806 0187 00000000 		.4byte	0
 3807 018b 00000000 		.4byte	0
 3808              	.LLST7:
 3809 018f A2000000 		.4byte	.LVL38
 3810 0193 AE000000 		.4byte	.LVL39
 3811 0197 0200     		.2byte	0x2
 3812 0199 31       		.byte	0x31
 3813 019a 9F       		.byte	0x9f
 3814 019b AE000000 		.4byte	.LVL39
 3815 019f C8000000 		.4byte	.LVL48
 3816 01a3 0100     		.2byte	0x1
 3817 01a5 55       		.byte	0x55
 3818 01a6 C8000000 		.4byte	.LVL48
 3819 01aa CA000000 		.4byte	.LVL49
 3820 01ae 0100     		.2byte	0x1
 3821 01b0 53       		.byte	0x53
 3822 01b1 CA000000 		.4byte	.LVL49
 3823 01b5 CE000000 		.4byte	.LVL51
 3824 01b9 0100     		.2byte	0x1
 3825 01bb 55       		.byte	0x55
 3826 01bc CE000000 		.4byte	.LVL51
 3827 01c0 18010000 		.4byte	.LFE1
 3828 01c4 0300     		.2byte	0x3
 3829 01c6 73       		.byte	0x73
 3830 01c7 7F       		.sleb128 -1
 3831 01c8 9F       		.byte	0x9f
 3832 01c9 00000000 		.4byte	0
 3833 01cd 00000000 		.4byte	0
 3834              	.LLST8:
 3835 01d1 B0000000 		.4byte	.LVL40
 3836 01d5 C8000000 		.4byte	.LVL48
 3837 01d9 0100     		.2byte	0x1
 3838 01db 51       		.byte	0x51
 3839 01dc 00000000 		.4byte	0
 3840 01e0 00000000 		.4byte	0
 3841              	.LLST9:
 3842 01e4 A2000000 		.4byte	.LVL38
 3843 01e8 AE000000 		.4byte	.LVL39
 3844 01ec 0600     		.2byte	0x6
 3845 01ee 03       		.byte	0x3
 3846 01ef 00000000 		.4byte	CapSense_dsFlash
 3847 01f3 9F       		.byte	0x9f
 3848 01f4 AE000000 		.4byte	.LVL39
 3849 01f8 CE000000 		.4byte	.LVL50
 3850 01fc 0100     		.2byte	0x1
 3851 01fe 54       		.byte	0x54
 3852 01ff 00000000 		.4byte	0
 3853 0203 00000000 		.4byte	0
 3854              	.LLST10:
 3855 0207 02000000 		.4byte	.LVL36
 3856 020b AE000000 		.4byte	.LVL39
ARM GAS  C:\Users\YUANFA~1\AppData\Local\Temp\cc9Xhnxa.s 			page 97


 3857 020f 0600     		.2byte	0x6
 3858 0211 03       		.byte	0x3
 3859 0212 00000000 		.4byte	CapSense_ramIdacInit
 3860 0216 9F       		.byte	0x9f
 3861 0217 AE000000 		.4byte	.LVL39
 3862 021b 18010000 		.4byte	.LFE1
 3863 021f 0100     		.2byte	0x1
 3864 0221 52       		.byte	0x52
 3865 0222 00000000 		.4byte	0
 3866 0226 00000000 		.4byte	0
 3867              	.LLST11:
 3868 022a 00000000 		.4byte	.LVL52
 3869 022e 0B000000 		.4byte	.LVL54-1
 3870 0232 0100     		.2byte	0x1
 3871 0234 50       		.byte	0x50
 3872 0235 0B000000 		.4byte	.LVL54-1
 3873 0239 60000000 		.4byte	.LFE3
 3874 023d 0400     		.2byte	0x4
 3875 023f F3       		.byte	0xf3
 3876 0240 01       		.uleb128 0x1
 3877 0241 50       		.byte	0x50
 3878 0242 9F       		.byte	0x9f
 3879 0243 00000000 		.4byte	0
 3880 0247 00000000 		.4byte	0
 3881              	.LLST12:
 3882 024b 00000000 		.4byte	.LVL52
 3883 024f 08000000 		.4byte	.LVL53
 3884 0253 0100     		.2byte	0x1
 3885 0255 51       		.byte	0x51
 3886 0256 08000000 		.4byte	.LVL53
 3887 025a 54000000 		.4byte	.LVL62
 3888 025e 0100     		.2byte	0x1
 3889 0260 55       		.byte	0x55
 3890 0261 54000000 		.4byte	.LVL62
 3891 0265 60000000 		.4byte	.LFE3
 3892 0269 0400     		.2byte	0x4
 3893 026b F3       		.byte	0xf3
 3894 026c 01       		.uleb128 0x1
 3895 026d 51       		.byte	0x51
 3896 026e 9F       		.byte	0x9f
 3897 026f 00000000 		.4byte	0
 3898 0273 00000000 		.4byte	0
 3899              	.LLST13:
 3900 0277 0E000000 		.4byte	.LVL55
 3901 027b 4C000000 		.4byte	.LVL59
 3902 027f 0100     		.2byte	0x1
 3903 0281 50       		.byte	0x50
 3904 0282 4C000000 		.4byte	.LVL59
 3905 0286 54000000 		.4byte	.LVL61
 3906 028a 0100     		.2byte	0x1
 3907 028c 54       		.byte	0x54
 3908 028d 54000000 		.4byte	.LVL61
 3909 0291 60000000 		.4byte	.LFE3
 3910 0295 0100     		.2byte	0x1
 3911 0297 50       		.byte	0x50
 3912 0298 00000000 		.4byte	0
 3913 029c 00000000 		.4byte	0
ARM GAS  C:\Users\YUANFA~1\AppData\Local\Temp\cc9Xhnxa.s 			page 98


 3914              	.LLST14:
 3915 02a0 26000000 		.4byte	.LVL57
 3916 02a4 2A000000 		.4byte	.LVL58
 3917 02a8 0100     		.2byte	0x1
 3918 02aa 52       		.byte	0x52
 3919 02ab 00000000 		.4byte	0
 3920 02af 00000000 		.4byte	0
 3921              	.LLST15:
 3922 02b3 00000000 		.4byte	.LVL63
 3923 02b7 0B000000 		.4byte	.LVL65-1
 3924 02bb 0100     		.2byte	0x1
 3925 02bd 50       		.byte	0x50
 3926 02be 0B000000 		.4byte	.LVL65-1
 3927 02c2 80000000 		.4byte	.LFE4
 3928 02c6 0400     		.2byte	0x4
 3929 02c8 F3       		.byte	0xf3
 3930 02c9 01       		.uleb128 0x1
 3931 02ca 50       		.byte	0x50
 3932 02cb 9F       		.byte	0x9f
 3933 02cc 00000000 		.4byte	0
 3934 02d0 00000000 		.4byte	0
 3935              	.LLST16:
 3936 02d4 00000000 		.4byte	.LVL63
 3937 02d8 08000000 		.4byte	.LVL64
 3938 02dc 0100     		.2byte	0x1
 3939 02de 51       		.byte	0x51
 3940 02df 08000000 		.4byte	.LVL64
 3941 02e3 30000000 		.4byte	.LVL68
 3942 02e7 0100     		.2byte	0x1
 3943 02e9 56       		.byte	0x56
 3944 02ea 30000000 		.4byte	.LVL68
 3945 02ee 34000000 		.4byte	.LVL69
 3946 02f2 0400     		.2byte	0x4
 3947 02f4 F3       		.byte	0xf3
 3948 02f5 01       		.uleb128 0x1
 3949 02f6 51       		.byte	0x51
 3950 02f7 9F       		.byte	0x9f
 3951 02f8 34000000 		.4byte	.LVL69
 3952 02fc 3A000000 		.4byte	.LVL70
 3953 0300 0100     		.2byte	0x1
 3954 0302 56       		.byte	0x56
 3955 0303 3A000000 		.4byte	.LVL70
 3956 0307 3E000000 		.4byte	.LVL71
 3957 030b 0400     		.2byte	0x4
 3958 030d F3       		.byte	0xf3
 3959 030e 01       		.uleb128 0x1
 3960 030f 51       		.byte	0x51
 3961 0310 9F       		.byte	0x9f
 3962 0311 3E000000 		.4byte	.LVL71
 3963 0315 4C000000 		.4byte	.LVL72
 3964 0319 0100     		.2byte	0x1
 3965 031b 56       		.byte	0x56
 3966 031c 4C000000 		.4byte	.LVL72
 3967 0320 80000000 		.4byte	.LFE4
 3968 0324 0400     		.2byte	0x4
 3969 0326 F3       		.byte	0xf3
 3970 0327 01       		.uleb128 0x1
ARM GAS  C:\Users\YUANFA~1\AppData\Local\Temp\cc9Xhnxa.s 			page 99


 3971 0328 51       		.byte	0x51
 3972 0329 9F       		.byte	0x9f
 3973 032a 00000000 		.4byte	0
 3974 032e 00000000 		.4byte	0
 3975              	.LLST17:
 3976 0332 0E000000 		.4byte	.LVL66
 3977 0336 1A000000 		.4byte	.LVL67
 3978 033a 0100     		.2byte	0x1
 3979 033c 50       		.byte	0x50
 3980 033d 1A000000 		.4byte	.LVL67
 3981 0341 72000000 		.4byte	.LVL75
 3982 0345 0100     		.2byte	0x1
 3983 0347 54       		.byte	0x54
 3984 0348 72000000 		.4byte	.LVL75
 3985 034c 80000000 		.4byte	.LFE4
 3986 0350 0100     		.2byte	0x1
 3987 0352 50       		.byte	0x50
 3988 0353 00000000 		.4byte	0
 3989 0357 00000000 		.4byte	0
 3990              	.LLST18:
 3991 035b 00000000 		.4byte	.LVL76
 3992 035f 06000000 		.4byte	.LVL77
 3993 0363 0200     		.2byte	0x2
 3994 0365 30       		.byte	0x30
 3995 0366 9F       		.byte	0x9f
 3996 0367 06000000 		.4byte	.LVL77
 3997 036b 20000000 		.4byte	.LFE5
 3998 036f 0100     		.2byte	0x1
 3999 0371 50       		.byte	0x50
 4000 0372 00000000 		.4byte	0
 4001 0376 00000000 		.4byte	0
 4002              	.LLST19:
 4003 037a 00000000 		.4byte	.LVL76
 4004 037e 06000000 		.4byte	.LVL77
 4005 0382 0200     		.2byte	0x2
 4006 0384 31       		.byte	0x31
 4007 0385 9F       		.byte	0x9f
 4008 0386 06000000 		.4byte	.LVL77
 4009 038a 12000000 		.4byte	.LVL79
 4010 038e 0100     		.2byte	0x1
 4011 0390 52       		.byte	0x52
 4012 0391 12000000 		.4byte	.LVL79
 4013 0395 14000000 		.4byte	.LVL80
 4014 0399 0100     		.2byte	0x1
 4015 039b 53       		.byte	0x53
 4016 039c 14000000 		.4byte	.LVL80
 4017 03a0 20000000 		.4byte	.LFE5
 4018 03a4 0100     		.2byte	0x1
 4019 03a6 52       		.byte	0x52
 4020 03a7 00000000 		.4byte	0
 4021 03ab 00000000 		.4byte	0
 4022              	.LLST20:
 4023 03af 00000000 		.4byte	.LVL81
 4024 03b3 16000000 		.4byte	.LVL82
 4025 03b7 0100     		.2byte	0x1
 4026 03b9 50       		.byte	0x50
 4027 03ba 16000000 		.4byte	.LVL82
ARM GAS  C:\Users\YUANFA~1\AppData\Local\Temp\cc9Xhnxa.s 			page 100


 4028 03be 1A000000 		.4byte	.LVL84
 4029 03c2 0400     		.2byte	0x4
 4030 03c4 F3       		.byte	0xf3
 4031 03c5 01       		.uleb128 0x1
 4032 03c6 50       		.byte	0x50
 4033 03c7 9F       		.byte	0x9f
 4034 03c8 1A000000 		.4byte	.LVL84
 4035 03cc 1C000000 		.4byte	.LVL85
 4036 03d0 0100     		.2byte	0x1
 4037 03d2 50       		.byte	0x50
 4038 03d3 1C000000 		.4byte	.LVL85
 4039 03d7 24000000 		.4byte	.LFE6
 4040 03db 0400     		.2byte	0x4
 4041 03dd F3       		.byte	0xf3
 4042 03de 01       		.uleb128 0x1
 4043 03df 50       		.byte	0x50
 4044 03e0 9F       		.byte	0x9f
 4045 03e1 00000000 		.4byte	0
 4046 03e5 00000000 		.4byte	0
 4047              	.LLST21:
 4048 03e9 00000000 		.4byte	.LVL81
 4049 03ed 18000000 		.4byte	.LVL83
 4050 03f1 0200     		.2byte	0x2
 4051 03f3 30       		.byte	0x30
 4052 03f4 9F       		.byte	0x9f
 4053 03f5 18000000 		.4byte	.LVL83
 4054 03f9 1A000000 		.4byte	.LVL84
 4055 03fd 0100     		.2byte	0x1
 4056 03ff 50       		.byte	0x50
 4057 0400 1A000000 		.4byte	.LVL84
 4058 0404 1C000000 		.4byte	.LVL85
 4059 0408 0200     		.2byte	0x2
 4060 040a 30       		.byte	0x30
 4061 040b 9F       		.byte	0x9f
 4062 040c 1C000000 		.4byte	.LVL85
 4063 0410 24000000 		.4byte	.LFE6
 4064 0414 0100     		.2byte	0x1
 4065 0416 50       		.byte	0x50
 4066 0417 00000000 		.4byte	0
 4067 041b 00000000 		.4byte	0
 4068              	.LLST22:
 4069 041f 00000000 		.4byte	.LVL86
 4070 0423 1A000000 		.4byte	.LVL87
 4071 0427 0100     		.2byte	0x1
 4072 0429 50       		.byte	0x50
 4073 042a 1A000000 		.4byte	.LVL87
 4074 042e 24000000 		.4byte	.LVL89
 4075 0432 0400     		.2byte	0x4
 4076 0434 F3       		.byte	0xf3
 4077 0435 01       		.uleb128 0x1
 4078 0436 50       		.byte	0x50
 4079 0437 9F       		.byte	0x9f
 4080 0438 24000000 		.4byte	.LVL89
 4081 043c 26000000 		.4byte	.LVL90
 4082 0440 0100     		.2byte	0x1
 4083 0442 50       		.byte	0x50
 4084 0443 26000000 		.4byte	.LVL90
ARM GAS  C:\Users\YUANFA~1\AppData\Local\Temp\cc9Xhnxa.s 			page 101


 4085 0447 28000000 		.4byte	.LVL91
 4086 044b 0400     		.2byte	0x4
 4087 044d F3       		.byte	0xf3
 4088 044e 01       		.uleb128 0x1
 4089 044f 50       		.byte	0x50
 4090 0450 9F       		.byte	0x9f
 4091 0451 28000000 		.4byte	.LVL91
 4092 0455 2A000000 		.4byte	.LVL92
 4093 0459 0100     		.2byte	0x1
 4094 045b 50       		.byte	0x50
 4095 045c 2A000000 		.4byte	.LVL92
 4096 0460 34000000 		.4byte	.LFE7
 4097 0464 0400     		.2byte	0x4
 4098 0466 F3       		.byte	0xf3
 4099 0467 01       		.uleb128 0x1
 4100 0468 50       		.byte	0x50
 4101 0469 9F       		.byte	0x9f
 4102 046a 00000000 		.4byte	0
 4103 046e 00000000 		.4byte	0
 4104              	.LLST23:
 4105 0472 00000000 		.4byte	.LVL86
 4106 0476 22000000 		.4byte	.LVL88
 4107 047a 0200     		.2byte	0x2
 4108 047c 30       		.byte	0x30
 4109 047d 9F       		.byte	0x9f
 4110 047e 22000000 		.4byte	.LVL88
 4111 0482 24000000 		.4byte	.LVL89
 4112 0486 0100     		.2byte	0x1
 4113 0488 50       		.byte	0x50
 4114 0489 24000000 		.4byte	.LVL89
 4115 048d 2A000000 		.4byte	.LVL92
 4116 0491 0200     		.2byte	0x2
 4117 0493 30       		.byte	0x30
 4118 0494 9F       		.byte	0x9f
 4119 0495 2A000000 		.4byte	.LVL92
 4120 0499 34000000 		.4byte	.LFE7
 4121 049d 0100     		.2byte	0x1
 4122 049f 50       		.byte	0x50
 4123 04a0 00000000 		.4byte	0
 4124 04a4 00000000 		.4byte	0
 4125              	.LLST24:
 4126 04a8 00000000 		.4byte	.LVL93
 4127 04ac 30000000 		.4byte	.LVL101
 4128 04b0 0100     		.2byte	0x1
 4129 04b2 50       		.byte	0x50
 4130 04b3 30000000 		.4byte	.LVL101
 4131 04b7 36000000 		.4byte	.LVL103
 4132 04bb 0400     		.2byte	0x4
 4133 04bd F3       		.byte	0xf3
 4134 04be 01       		.uleb128 0x1
 4135 04bf 50       		.byte	0x50
 4136 04c0 9F       		.byte	0x9f
 4137 04c1 36000000 		.4byte	.LVL103
 4138 04c5 38000000 		.4byte	.LVL104
 4139 04c9 0100     		.2byte	0x1
 4140 04cb 50       		.byte	0x50
 4141 04cc 38000000 		.4byte	.LVL104
ARM GAS  C:\Users\YUANFA~1\AppData\Local\Temp\cc9Xhnxa.s 			page 102


 4142 04d0 40000000 		.4byte	.LFE8
 4143 04d4 0400     		.2byte	0x4
 4144 04d6 F3       		.byte	0xf3
 4145 04d7 01       		.uleb128 0x1
 4146 04d8 50       		.byte	0x50
 4147 04d9 9F       		.byte	0x9f
 4148 04da 00000000 		.4byte	0
 4149 04de 00000000 		.4byte	0
 4150              	.LLST25:
 4151 04e2 02000000 		.4byte	.LVL94
 4152 04e6 14000000 		.4byte	.LVL95
 4153 04ea 0200     		.2byte	0x2
 4154 04ec 30       		.byte	0x30
 4155 04ed 9F       		.byte	0x9f
 4156 04ee 14000000 		.4byte	.LVL95
 4157 04f2 1E000000 		.4byte	.LVL96
 4158 04f6 0100     		.2byte	0x1
 4159 04f8 52       		.byte	0x52
 4160 04f9 1E000000 		.4byte	.LVL96
 4161 04fd 24000000 		.4byte	.LVL97
 4162 0501 0200     		.2byte	0x2
 4163 0503 30       		.byte	0x30
 4164 0504 9F       		.byte	0x9f
 4165 0505 24000000 		.4byte	.LVL97
 4166 0509 2E000000 		.4byte	.LVL100
 4167 050d 0100     		.2byte	0x1
 4168 050f 52       		.byte	0x52
 4169 0510 36000000 		.4byte	.LVL103
 4170 0514 3A000000 		.4byte	.LVL105
 4171 0518 0100     		.2byte	0x1
 4172 051a 52       		.byte	0x52
 4173 051b 00000000 		.4byte	0
 4174 051f 00000000 		.4byte	0
 4175              	.LLST26:
 4176 0523 2C000000 		.4byte	.LVL99
 4177 0527 36000000 		.4byte	.LVL103
 4178 052b 0100     		.2byte	0x1
 4179 052d 53       		.byte	0x53
 4180 052e 00000000 		.4byte	0
 4181 0532 00000000 		.4byte	0
 4182              	.LLST27:
 4183 0536 02000000 		.4byte	.LVL94
 4184 053a 26000000 		.4byte	.LVL98
 4185 053e 0200     		.2byte	0x2
 4186 0540 30       		.byte	0x30
 4187 0541 9F       		.byte	0x9f
 4188 0542 26000000 		.4byte	.LVL98
 4189 0546 2C000000 		.4byte	.LVL99
 4190 054a 0100     		.2byte	0x1
 4191 054c 53       		.byte	0x53
 4192 054d 36000000 		.4byte	.LVL103
 4193 0551 3A000000 		.4byte	.LVL105
 4194 0555 0100     		.2byte	0x1
 4195 0557 53       		.byte	0x53
 4196 0558 00000000 		.4byte	0
 4197 055c 00000000 		.4byte	0
 4198              	.LLST28:
ARM GAS  C:\Users\YUANFA~1\AppData\Local\Temp\cc9Xhnxa.s 			page 103


 4199 0560 02000000 		.4byte	.LVL94
 4200 0564 34000000 		.4byte	.LVL102
 4201 0568 0300     		.2byte	0x3
 4202 056a 09       		.byte	0x9
 4203 056b FF       		.byte	0xff
 4204 056c 9F       		.byte	0x9f
 4205 056d 34000000 		.4byte	.LVL102
 4206 0571 36000000 		.4byte	.LVL103
 4207 0575 0100     		.2byte	0x1
 4208 0577 50       		.byte	0x50
 4209 0578 36000000 		.4byte	.LVL103
 4210 057c 3A000000 		.4byte	.LVL105
 4211 0580 0300     		.2byte	0x3
 4212 0582 09       		.byte	0x9
 4213 0583 FF       		.byte	0xff
 4214 0584 9F       		.byte	0x9f
 4215 0585 3A000000 		.4byte	.LVL105
 4216 0589 40000000 		.4byte	.LFE8
 4217 058d 0100     		.2byte	0x1
 4218 058f 50       		.byte	0x50
 4219 0590 00000000 		.4byte	0
 4220 0594 00000000 		.4byte	0
 4221              		.section	.debug_aranges,"",%progbits
 4222 0000 54000000 		.4byte	0x54
 4223 0004 0200     		.2byte	0x2
 4224 0006 00000000 		.4byte	.Ldebug_info0
 4225 000a 04       		.byte	0x4
 4226 000b 00       		.byte	0
 4227 000c 0000     		.2byte	0
 4228 000e 0000     		.2byte	0
 4229 0010 00000000 		.4byte	.LFB2
 4230 0014 E8000000 		.4byte	.LFE2-.LFB2
 4231 0018 00000000 		.4byte	.LFB1
 4232 001c 18010000 		.4byte	.LFE1-.LFB1
 4233 0020 00000000 		.4byte	.LFB3
 4234 0024 60000000 		.4byte	.LFE3-.LFB3
 4235 0028 00000000 		.4byte	.LFB4
 4236 002c 80000000 		.4byte	.LFE4-.LFB4
 4237 0030 00000000 		.4byte	.LFB5
 4238 0034 20000000 		.4byte	.LFE5-.LFB5
 4239 0038 00000000 		.4byte	.LFB6
 4240 003c 24000000 		.4byte	.LFE6-.LFB6
 4241 0040 00000000 		.4byte	.LFB7
 4242 0044 34000000 		.4byte	.LFE7-.LFB7
 4243 0048 00000000 		.4byte	.LFB8
 4244 004c 40000000 		.4byte	.LFE8-.LFB8
 4245 0050 00000000 		.4byte	0
 4246 0054 00000000 		.4byte	0
 4247              		.section	.debug_ranges,"",%progbits
 4248              	.Ldebug_ranges0:
 4249 0000 00000000 		.4byte	.LFB2
 4250 0004 E8000000 		.4byte	.LFE2
 4251 0008 00000000 		.4byte	.LFB1
 4252 000c 18010000 		.4byte	.LFE1
 4253 0010 00000000 		.4byte	.LFB3
 4254 0014 60000000 		.4byte	.LFE3
 4255 0018 00000000 		.4byte	.LFB4
ARM GAS  C:\Users\YUANFA~1\AppData\Local\Temp\cc9Xhnxa.s 			page 104


 4256 001c 80000000 		.4byte	.LFE4
 4257 0020 00000000 		.4byte	.LFB5
 4258 0024 20000000 		.4byte	.LFE5
 4259 0028 00000000 		.4byte	.LFB6
 4260 002c 24000000 		.4byte	.LFE6
 4261 0030 00000000 		.4byte	.LFB7
 4262 0034 34000000 		.4byte	.LFE7
 4263 0038 00000000 		.4byte	.LFB8
 4264 003c 40000000 		.4byte	.LFE8
 4265 0040 00000000 		.4byte	0
 4266 0044 00000000 		.4byte	0
 4267              		.section	.debug_line,"",%progbits
 4268              	.Ldebug_line0:
 4269 0000 43020000 		.section	.debug_str,"MS",%progbits,1
 4269      0200A500 
 4269      00000201 
 4269      FB0E0D00 
 4269      01010101 
 4270              	.LASF182:
 4271 0000 77644373 		.ascii	"wdCsxTouchpad\000"
 4271      78546F75 
 4271      63687061 
 4271      6400
 4272              	.LASF26:
 4273 000e 43617053 		.ascii	"CapSense_WD_PROXIMITY_E\000"
 4273      656E7365 
 4273      5F57445F 
 4273      50524F58 
 4273      494D4954 
 4274              	.LASF165:
 4275 0026 77646774 		.ascii	"wdgtId\000"
 4275      496400
 4276              	.LASF178:
 4277 002d 43617053 		.ascii	"CapSense_IsWidgetActive\000"
 4277      656E7365 
 4277      5F497357 
 4277      69646765 
 4277      74416374 
 4278              	.LASF195:
 4279 0045 43617053 		.ascii	"CapSense_DsUpdateWidgetCrc\000"
 4279      656E7365 
 4279      5F447355 
 4279      70646174 
 4279      65576964 
 4280              	.LASF158:
 4281 0060 70617261 		.ascii	"paramId\000"
 4281      6D496400 
 4282              	.LASF109:
 4283 0068 736E7254 		.ascii	"snrTestWidgetId\000"
 4283      65737457 
 4283      69646765 
 4283      74496400 
 4284              	.LASF170:
 4285 0078 70747255 		.ascii	"ptrUint8\000"
 4285      696E7438 
 4285      00
 4286              	.LASF29:
ARM GAS  C:\Users\YUANFA~1\AppData\Local\Temp\cc9Xhnxa.s 			page 105


 4287 0081 43617053 		.ascii	"CapSense_UNDEFINED_E\000"
 4287      656E7365 
 4287      5F554E44 
 4287      4546494E 
 4287      45445F45 
 4288              	.LASF176:
 4289 0096 43617053 		.ascii	"CapSense_IsAnyWidgetActive\000"
 4289      656E7365 
 4289      5F497341 
 4289      6E795769 
 4289      64676574 
 4290              	.LASF8:
 4291 00b1 756E7369 		.ascii	"unsigned int\000"
 4291      676E6564 
 4291      20696E74 
 4291      00
 4292              	.LASF95:
 4293 00be 7363616E 		.ascii	"scanCounter\000"
 4293      436F756E 
 4293      74657200 
 4294              	.LASF93:
 4295 00ca 6877436C 		.ascii	"hwClock\000"
 4295      6F636B00 
 4296              	.LASF118:
 4297 00d2 70633250 		.ascii	"pc2Ptr\000"
 4297      747200
 4298              	.LASF192:
 4299 00d9 6D656D73 		.ascii	"memset\000"
 4299      657400
 4300              	.LASF189:
 4301 00e0 43617053 		.ascii	"CapSense_ramIdacInit\000"
 4301      656E7365 
 4301      5F72616D 
 4301      49646163 
 4301      496E6974 
 4302              	.LASF199:
 4303 00f5 44735061 		.ascii	"DsParseParamId\000"
 4303      72736550 
 4303      6172616D 
 4303      496400
 4304              	.LASF69:
 4305 0104 43617053 		.ascii	"CapSense_RAM_SNS_CP_STRUCT\000"
 4305      656E7365 
 4305      5F52414D 
 4305      5F534E53 
 4305      5F43505F 
 4306              	.LASF84:
 4307 011f 62697374 		.ascii	"bistCsxSnsCapISC\000"
 4307      43737853 
 4307      6E734361 
 4307      70495343 
 4307      00
 4308              	.LASF89:
 4309 0130 736E7353 		.ascii	"snsShortTimeUs\000"
 4309      686F7274 
 4309      54696D65 
 4309      557300
ARM GAS  C:\Users\YUANFA~1\AppData\Local\Temp\cc9Xhnxa.s 			page 106


 4310              	.LASF71:
 4311 013f 736E7343 		.ascii	"snsCapSnsClkDivider\000"
 4311      6170536E 
 4311      73436C6B 
 4311      44697669 
 4311      64657200 
 4312              	.LASF197:
 4313 0153 47656E65 		.ascii	"Generated_Source\\PSoC4\\CapSense_Structure.c\000"
 4313      72617465 
 4313      645F536F 
 4313      75726365 
 4313      5C50536F 
 4314              	.LASF123:
 4315 017f 6873696F 		.ascii	"hsiomShift\000"
 4315      6D536869 
 4315      667400
 4316              	.LASF25:
 4317 018a 43617053 		.ascii	"CapSense_WD_TOUCHPAD_E\000"
 4317      656E7365 
 4317      5F57445F 
 4317      544F5543 
 4317      48504144 
 4318              	.LASF49:
 4319 01a1 43617053 		.ascii	"CapSense_RAM_WD_LIST_STRUCT\000"
 4319      656E7365 
 4319      5F52414D 
 4319      5F57445F 
 4319      4C495354 
 4320              	.LASF148:
 4321 01bd 69697246 		.ascii	"iirFilterCoeff\000"
 4321      696C7465 
 4321      72436F65 
 4321      666600
 4322              	.LASF184:
 4323 01cc 43617053 		.ascii	"CapSense_csxTouchpadData_Touchpad0\000"
 4323      656E7365 
 4323      5F637378 
 4323      546F7563 
 4323      68706164 
 4324              	.LASF85:
 4325 01ef 62697374 		.ascii	"bistCsdShCapISC\000"
 4325      43736453 
 4325      68436170 
 4325      49534300 
 4326              	.LASF180:
 4327 01ff 73656E73 		.ascii	"sensorId\000"
 4327      6F724964 
 4327      00
 4328              	.LASF42:
 4329 0208 69646163 		.ascii	"idacGainIndex\000"
 4329      4761696E 
 4329      496E6465 
 4329      7800
 4330              	.LASF98:
 4331 0216 77646774 		.ascii	"wdgtWorking\000"
 4331      576F726B 
 4331      696E6700 
ARM GAS  C:\Users\YUANFA~1\AppData\Local\Temp\cc9Xhnxa.s 			page 107


 4332              	.LASF12:
 4333 0222 666C6F61 		.ascii	"float\000"
 4333      7400
 4334              	.LASF125:
 4335 0228 73686966 		.ascii	"shift\000"
 4335      7400
 4336              	.LASF196:
 4337 022e 474E5520 		.ascii	"GNU C11 5.4.1 20160609 (release) [ARM/embedded-5-br"
 4337      43313120 
 4337      352E342E 
 4337      31203230 
 4337      31363036 
 4338 0261 616E6368 		.ascii	"anch revision 237715] -mcpu=cortex-m0plus -mthumb -"
 4338      20726576 
 4338      6973696F 
 4338      6E203233 
 4338      37373135 
 4339 0294 67202D4F 		.ascii	"g -Og -ffunction-sections -ffat-lto-objects\000"
 4339      67202D66 
 4339      66756E63 
 4339      74696F6E 
 4339      2D736563 
 4340              	.LASF105:
 4341 02c0 736E734C 		.ascii	"snsList\000"
 4341      69737400 
 4342              	.LASF160:
 4343 02c8 72657375 		.ascii	"result\000"
 4343      6C7400
 4344              	.LASF7:
 4345 02cf 6C6F6E67 		.ascii	"long long unsigned int\000"
 4345      206C6F6E 
 4345      6720756E 
 4345      7369676E 
 4345      65642069 
 4346              	.LASF24:
 4347 02e6 43617053 		.ascii	"CapSense_WD_MATRIX_BUTTON_E\000"
 4347      656E7365 
 4347      5F57445F 
 4347      4D415452 
 4347      49585F42 
 4348              	.LASF48:
 4349 0302 746F7563 		.ascii	"touchpad0\000"
 4349      68706164 
 4349      3000
 4350              	.LASF126:
 4351 030c 43617053 		.ascii	"CapSense_FLASH_IO_STRUCT\000"
 4351      656E7365 
 4351      5F464C41 
 4351      53485F49 
 4351      4F5F5354 
 4352              	.LASF110:
 4353 0325 736E7254 		.ascii	"snrTestSensorId\000"
 4353      65737453 
 4353      656E736F 
 4353      72496400 
 4354              	.LASF77:
 4355 0335 76646461 		.ascii	"vddaModClkDivider\000"
ARM GAS  C:\Users\YUANFA~1\AppData\Local\Temp\cc9Xhnxa.s 			page 108


 4355      4D6F6443 
 4355      6C6B4469 
 4355      76696465 
 4355      7200
 4356              	.LASF87:
 4357 0347 73746172 		.ascii	"startupDelay\000"
 4357      74757044 
 4357      656C6179 
 4357      00
 4358              	.LASF174:
 4359 0354 43617053 		.ascii	"CapSense_GetParam\000"
 4359      656E7365 
 4359      5F476574 
 4359      50617261 
 4359      6D00
 4360              	.LASF193:
 4361 0366 43794861 		.ascii	"CyHalt\000"
 4361      6C7400
 4362              	.LASF139:
 4363 036d 77646774 		.ascii	"wdgtType\000"
 4363      54797065 
 4363      00
 4364              	.LASF169:
 4365 0376 76616C75 		.ascii	"value\000"
 4365      6500
 4366              	.LASF66:
 4367 037c 73686F72 		.ascii	"shortedWdgtId\000"
 4367      74656457 
 4367      64677449 
 4367      6400
 4368              	.LASF181:
 4369 038a 43617053 		.ascii	"CapSense_GetXYCoordinates\000"
 4369      656E7365 
 4369      5F476574 
 4369      5859436F 
 4369      6F726469 
 4370              	.LASF34:
 4371 03a4 43617053 		.ascii	"CapSense_CSX_TOUCHPAD_TOUCH_STRUCT\000"
 4371      656E7365 
 4371      5F435358 
 4371      5F544F55 
 4371      43485041 
 4372              	.LASF56:
 4373 03c7 43617053 		.ascii	"CapSense_RAM_SNS_STRUCT\000"
 4373      656E7365 
 4373      5F52414D 
 4373      5F534E53 
 4373      5F535452 
 4374              	.LASF119:
 4375 03df 64725074 		.ascii	"drPtr\000"
 4375      7200
 4376              	.LASF152:
 4377 03e5 6F666673 		.ascii	"offset\000"
 4377      657400
 4378              	.LASF159:
 4379 03ec 70446174 		.ascii	"pData\000"
 4379      6100
ARM GAS  C:\Users\YUANFA~1\AppData\Local\Temp\cc9Xhnxa.s 			page 109


 4380              	.LASF108:
 4381 03f2 736E7343 		.ascii	"snsCp\000"
 4381      7000
 4382              	.LASF39:
 4383 03f8 68797374 		.ascii	"hysteresis\000"
 4383      65726573 
 4383      697300
 4384              	.LASF23:
 4385 0403 43617053 		.ascii	"CapSense_WD_RADIAL_SLIDER_E\000"
 4385      656E7365 
 4385      5F57445F 
 4385      52414449 
 4385      414C5F53 
 4386              	.LASF149:
 4387 041f 43617053 		.ascii	"CapSense_FLASH_WD_STRUCT\000"
 4387      656E7365 
 4387      5F464C41 
 4387      53485F57 
 4387      445F5354 
 4388              	.LASF190:
 4389 0438 43617053 		.ascii	"CapSense_extCapMap\000"
 4389      656E7365 
 4389      5F657874 
 4389      4361704D 
 4389      617000
 4390              	.LASF41:
 4391 044b 6C6F7742 		.ascii	"lowBslnRst\000"
 4391      736C6E52 
 4391      737400
 4392              	.LASF80:
 4393 0456 76646461 		.ascii	"vddaIdacDefault\000"
 4393      49646163 
 4393      44656661 
 4393      756C7400 
 4394              	.LASF58:
 4395 0466 74657374 		.ascii	"testResultMask\000"
 4395      52657375 
 4395      6C744D61 
 4395      736B00
 4396              	.LASF138:
 4397 0475 746F7461 		.ascii	"totalNumSns\000"
 4397      6C4E756D 
 4397      536E7300 
 4398              	.LASF82:
 4399 0481 736E7343 		.ascii	"snsCapVrefGain\000"
 4399      61705672 
 4399      65664761 
 4399      696E00
 4400              	.LASF81:
 4401 0490 736E7343 		.ascii	"snsCapResolution\000"
 4401      61705265 
 4401      736F6C75 
 4401      74696F6E 
 4401      00
 4402              	.LASF37:
 4403 04a1 6E6F6973 		.ascii	"noiseTh\000"
 4403      65546800 
ARM GAS  C:\Users\YUANFA~1\AppData\Local\Temp\cc9Xhnxa.s 			page 110


 4404              	.LASF14:
 4405 04a9 63686172 		.ascii	"char\000"
 4405      00
 4406              	.LASF198:
 4407 04ae 5C5C4D61 		.ascii	"\\\\Mac\\Home\\Documents\\PSoC Creator\\touch-panel"
 4407      635C486F 
 4407      6D655C44 
 4407      6F63756D 
 4407      656E7473 
 4408 04db 5C434330 		.ascii	"\\CC03\\CC03_CSX\\wk1.cydsn\000"
 4408      335C4343 
 4408      30335F43 
 4408      53585C77 
 4408      6B312E63 
 4409              	.LASF68:
 4410 04f4 43617053 		.ascii	"CapSense_RAM_SELF_TEST_STRUCT\000"
 4410      656E7365 
 4410      5F52414D 
 4410      5F53454C 
 4410      465F5445 
 4411              	.LASF61:
 4412 0512 676C6243 		.ascii	"glbCrcCalc\000"
 4412      72634361 
 4412      6C6300
 4413              	.LASF10:
 4414 051d 75696E74 		.ascii	"uint16\000"
 4414      313600
 4415              	.LASF65:
 4416 0524 696E7642 		.ascii	"invBslnSnsId\000"
 4416      736C6E53 
 4416      6E734964 
 4416      00
 4417              	.LASF163:
 4418 0531 63726349 		.ascii	"crcIndex\000"
 4418      6E646578 
 4418      00
 4419              	.LASF185:
 4420 053a 43617053 		.ascii	"CapSense_dsRam\000"
 4420      656E7365 
 4420      5F647352 
 4420      616D00
 4421              	.LASF35:
 4422 0549 7265736F 		.ascii	"resolution\000"
 4422      6C757469 
 4422      6F6E00
 4423              	.LASF96:
 4424 0554 73746174 		.ascii	"status\000"
 4424      757300
 4425              	.LASF127:
 4426 055b 72617743 		.ascii	"rawCount\000"
 4426      6F756E74 
 4426      00
 4427              	.LASF20:
 4428 0564 43617053 		.ascii	"CapSense_LOW_BSLN_RST_TYPE\000"
 4428      656E7365 
 4428      5F4C4F57 
 4428      5F42534C 
ARM GAS  C:\Users\YUANFA~1\AppData\Local\Temp\cc9Xhnxa.s 			page 111


 4428      4E5F5253 
 4429              	.LASF171:
 4430 057f 70747255 		.ascii	"ptrUint16\000"
 4430      696E7431 
 4430      3600
 4431              	.LASF55:
 4432 0589 69646163 		.ascii	"idacComp\000"
 4432      436F6D70 
 4432      00
 4433              	.LASF194:
 4434 0592 43617053 		.ascii	"CapSense_DsUpdateGlobalCrc\000"
 4434      656E7365 
 4434      5F447355 
 4434      70646174 
 4434      65476C6F 
 4435              	.LASF117:
 4436 05ad 70635074 		.ascii	"pcPtr\000"
 4436      7200
 4437              	.LASF6:
 4438 05b3 6C6F6E67 		.ascii	"long long int\000"
 4438      206C6F6E 
 4438      6720696E 
 4438      7400
 4439              	.LASF140:
 4440 05c1 6E756D43 		.ascii	"numCols\000"
 4440      6F6C7300 
 4441              	.LASF83:
 4442 05c9 62697374 		.ascii	"bistCsdSnsCapISC\000"
 4442      43736453 
 4442      6E734361 
 4442      70495343 
 4442      00
 4443              	.LASF40:
 4444 05da 6F6E4465 		.ascii	"onDebounce\000"
 4444      626F756E 
 4444      636500
 4445              	.LASF128:
 4446 05e5 6465626F 		.ascii	"debounce\000"
 4446      756E6365 
 4446      00
 4447              	.LASF130:
 4448 05ee 746F7563 		.ascii	"touchNum\000"
 4448      684E756D 
 4448      00
 4449              	.LASF177:
 4450 05f7 7764576F 		.ascii	"wdWord\000"
 4450      726400
 4451              	.LASF104:
 4452 05fe 77646774 		.ascii	"wdgtList\000"
 4452      4C697374 
 4452      00
 4453              	.LASF151:
 4454 0607 43617053 		.ascii	"CapSense_FLASH_STRUCT\000"
 4454      656E7365 
 4454      5F464C41 
 4454      53485F53 
 4454      54525543 
ARM GAS  C:\Users\YUANFA~1\AppData\Local\Temp\cc9Xhnxa.s 			page 112


 4455              	.LASF146:
 4456 061d 70747232 		.ascii	"ptr2SnsCpArr\000"
 4456      536E7343 
 4456      70417272 
 4456      00
 4457              	.LASF45:
 4458 062a 76656C6F 		.ascii	"velocity\000"
 4458      63697479 
 4458      00
 4459              	.LASF112:
 4460 0633 736E7254 		.ascii	"snrTestRawCount\000"
 4460      65737452 
 4460      6177436F 
 4460      756E7400 
 4461              	.LASF129:
 4462 0643 43617053 		.ascii	"CapSense_CSX_TOUCHPAD_PEAK_STRUCT\000"
 4462      656E7365 
 4462      5F435358 
 4462      5F544F55 
 4462      43485041 
 4463              	.LASF67:
 4464 0665 73686F72 		.ascii	"shortedSnsId\000"
 4464      74656453 
 4464      6E734964 
 4464      00
 4465              	.LASF38:
 4466 0672 6E4E6F69 		.ascii	"nNoiseTh\000"
 4466      73655468 
 4466      00
 4467              	.LASF101:
 4468 067b 63736430 		.ascii	"csd0Config\000"
 4468      436F6E66 
 4468      696700
 4469              	.LASF46:
 4470 0686 746F7563 		.ascii	"touch\000"
 4470      6800
 4471              	.LASF131:
 4472 068c 43617053 		.ascii	"CapSense_CSX_TOUCHPAD_DATA_STRUCT\000"
 4472      656E7365 
 4472      5F435358 
 4472      5F544F55 
 4472      43485041 
 4473              	.LASF28:
 4474 06ae 43617053 		.ascii	"CapSense_WD_TYPE_ENUM\000"
 4474      656E7365 
 4474      5F57445F 
 4474      54595045 
 4474      5F454E55 
 4475              	.LASF116:
 4476 06c4 6873696F 		.ascii	"hsiomPtr\000"
 4476      6D507472 
 4476      00
 4477              	.LASF11:
 4478 06cd 75696E74 		.ascii	"uint32\000"
 4478      333200
 4479              	.LASF135:
 4480 06d4 70747232 		.ascii	"ptr2FltrHistory\000"
ARM GAS  C:\Users\YUANFA~1\AppData\Local\Temp\cc9Xhnxa.s 			page 113


 4480      466C7472 
 4480      48697374 
 4480      6F727900 
 4481              	.LASF122:
 4482 06e4 6D61736B 		.ascii	"mask\000"
 4482      00
 4483              	.LASF22:
 4484 06e9 43617053 		.ascii	"CapSense_WD_LINEAR_SLIDER_E\000"
 4484      656E7365 
 4484      5F57445F 
 4484      4C494E45 
 4484      41525F53 
 4485              	.LASF106:
 4486 0705 73656C66 		.ascii	"selfTest\000"
 4486      54657374 
 4486      00
 4487              	.LASF107:
 4488 070e 73656C66 		.ascii	"selfTestConfig\000"
 4488      54657374 
 4488      436F6E66 
 4488      696700
 4489              	.LASF172:
 4490 071d 70747255 		.ascii	"ptrUint32\000"
 4490      696E7433 
 4490      3200
 4491              	.LASF168:
 4492 0727 70747249 		.ascii	"ptrIdacInit\000"
 4492      64616349 
 4492      6E697400 
 4493              	.LASF88:
 4494 0733 66696E65 		.ascii	"fineInitTime\000"
 4494      496E6974 
 4494      54696D65 
 4494      00
 4495              	.LASF78:
 4496 0740 76646461 		.ascii	"vddaVrefGain\000"
 4496      56726566 
 4496      4761696E 
 4496      00
 4497              	.LASF79:
 4498 074d 76646461 		.ascii	"vddaResolution\000"
 4498      5265736F 
 4498      6C757469 
 4498      6F6E00
 4499              	.LASF33:
 4500 075c 43617053 		.ascii	"CapSense_SENSE_METHOD_ISX_E\000"
 4500      656E7365 
 4500      5F53454E 
 4500      53455F4D 
 4500      4554484F 
 4501              	.LASF17:
 4502 0778 6C6F6E67 		.ascii	"long double\000"
 4502      20646F75 
 4502      626C6500 
 4503              	.LASF113:
 4504 0784 7363616E 		.ascii	"scanCsxISC\000"
 4504      43737849 
ARM GAS  C:\Users\YUANFA~1\AppData\Local\Temp\cc9Xhnxa.s 			page 114


 4504      534300
 4505              	.LASF90:
 4506 078f 43617053 		.ascii	"CapSense_RAM_TST_CONFIG_STRUCT\000"
 4506      656E7365 
 4506      5F52414D 
 4506      5F545354 
 4506      5F434F4E 
 4507              	.LASF179:
 4508 07ae 43617053 		.ascii	"CapSense_IsSensorActive\000"
 4508      656E7365 
 4508      5F497353 
 4508      656E736F 
 4508      72416374 
 4509              	.LASF16:
 4510 07c6 72656733 		.ascii	"reg32\000"
 4510      3200
 4511              	.LASF111:
 4512 07cc 736E7254 		.ascii	"snrTestScanCounter\000"
 4512      65737453 
 4512      63616E43 
 4512      6F756E74 
 4512      657200
 4513              	.LASF75:
 4514 07df 76646461 		.ascii	"vddaVrefVoltage\000"
 4514      56726566 
 4514      566F6C74 
 4514      61676500 
 4515              	.LASF91:
 4516 07ef 636F6E66 		.ascii	"configId\000"
 4516      69674964 
 4516      00
 4517              	.LASF134:
 4518 07f8 70747232 		.ascii	"ptr2SnsRam\000"
 4518      536E7352 
 4518      616D00
 4519              	.LASF157:
 4520 0803 50415241 		.ascii	"PARAM_ID_STRUCT\000"
 4520      4D5F4944 
 4520      5F535452 
 4520      55435400 
 4521              	.LASF100:
 4522 0813 736E7353 		.ascii	"snsStatus\000"
 4522      74617475 
 4522      7300
 4523              	.LASF27:
 4524 081d 43617053 		.ascii	"CapSense_WD_ENCODERDIAL_E\000"
 4524      656E7365 
 4524      5F57445F 
 4524      454E434F 
 4524      44455244 
 4525              	.LASF44:
 4526 0837 736E7343 		.ascii	"snsClkSource\000"
 4526      6C6B536F 
 4526      75726365 
 4526      00
 4527              	.LASF145:
 4528 0844 7943656E 		.ascii	"yCentroidMultiplier\000"
ARM GAS  C:\Users\YUANFA~1\AppData\Local\Temp\cc9Xhnxa.s 			page 115


 4528      74726F69 
 4528      644D756C 
 4528      7469706C 
 4528      69657200 
 4529              	.LASF142:
 4530 0858 78526573 		.ascii	"xResolution\000"
 4530      6F6C7574 
 4530      696F6E00 
 4531              	.LASF2:
 4532 0864 73686F72 		.ascii	"short int\000"
 4532      7420696E 
 4532      7400
 4533              	.LASF115:
 4534 086e 43617053 		.ascii	"CapSense_RAM_STRUCT\000"
 4534      656E7365 
 4534      5F52414D 
 4534      5F535452 
 4534      55435400 
 4535              	.LASF4:
 4536 0882 6C6F6E67 		.ascii	"long int\000"
 4536      20696E74 
 4536      00
 4537              	.LASF97:
 4538 088b 77646774 		.ascii	"wdgtEnable\000"
 4538      456E6162 
 4538      6C6500
 4539              	.LASF200:
 4540 0896 43617053 		.ascii	"CapSense_DsInitialize\000"
 4540      656E7365 
 4540      5F447349 
 4540      6E697469 
 4540      616C697A 
 4541              	.LASF53:
 4542 08ac 64696666 		.ascii	"diff\000"
 4542      00
 4543              	.LASF161:
 4544 08b1 63726354 		.ascii	"crcTable\000"
 4544      61626C65 
 4544      00
 4545              	.LASF162:
 4546 08ba 61637475 		.ascii	"actualCrc\000"
 4546      616C4372 
 4546      6300
 4547              	.LASF94:
 4548 08c4 74756E65 		.ascii	"tunerCmd\000"
 4548      72436D64 
 4548      00
 4549              	.LASF31:
 4550 08cd 43617053 		.ascii	"CapSense_SENSE_METHOD_CSX_E\000"
 4550      656E7365 
 4550      5F53454E 
 4550      53455F4D 
 4550      4554484F 
 4551              	.LASF120:
 4552 08e9 70735074 		.ascii	"psPtr\000"
 4552      7200
 4553              	.LASF175:
ARM GAS  C:\Users\YUANFA~1\AppData\Local\Temp\cc9Xhnxa.s 			page 116


 4554 08ef 43617053 		.ascii	"CapSense_SetParam\000"
 4554      656E7365 
 4554      5F536574 
 4554      50617261 
 4554      6D00
 4555              	.LASF72:
 4556 0901 736E7343 		.ascii	"snsCapModClkKHz\000"
 4556      61704D6F 
 4556      64436C6B 
 4556      4B487A00 
 4557              	.LASF164:
 4558 0911 736E7349 		.ascii	"snsId\000"
 4558      6400
 4559              	.LASF21:
 4560 0917 43617053 		.ascii	"CapSense_WD_BUTTON_E\000"
 4560      656E7365 
 4560      5F57445F 
 4560      42555454 
 4560      4F4E5F45 
 4561              	.LASF166:
 4562 092c 70747253 		.ascii	"ptrSnsTmp\000"
 4562      6E73546D 
 4562      7000
 4563              	.LASF64:
 4564 0936 696E7642 		.ascii	"invBslnWdgtId\000"
 4564      736C6E57 
 4564      64677449 
 4564      6400
 4565              	.LASF73:
 4566 0944 736E7343 		.ascii	"snsCapModClkDivider\000"
 4566      61704D6F 
 4566      64436C6B 
 4566      44697669 
 4566      64657200 
 4567              	.LASF59:
 4568 0958 65787443 		.ascii	"extCap\000"
 4568      617000
 4569              	.LASF186:
 4570 095f 43617053 		.ascii	"CapSense_dsFlash\000"
 4570      656E7365 
 4570      5F647346 
 4570      6C617368 
 4570      00
 4571              	.LASF63:
 4572 0970 77646774 		.ascii	"wdgtCrcId\000"
 4572      43726349 
 4572      6400
 4573              	.LASF99:
 4574 097a 77646774 		.ascii	"wdgtStatus\000"
 4574      53746174 
 4574      757300
 4575              	.LASF47:
 4576 0985 43617053 		.ascii	"CapSense_RAM_WD_CSX_TOUCHPAD_STRUCT\000"
 4576      656E7365 
 4576      5F52414D 
 4576      5F57445F 
 4576      4353585F 
ARM GAS  C:\Users\YUANFA~1\AppData\Local\Temp\cc9Xhnxa.s 			page 117


 4577              	.LASF60:
 4578 09a9 76646461 		.ascii	"vddaVoltage\000"
 4578      566F6C74 
 4578      61676500 
 4579              	.LASF30:
 4580 09b5 43617053 		.ascii	"CapSense_SENSE_METHOD_CSD_E\000"
 4580      656E7365 
 4580      5F53454E 
 4580      53455F4D 
 4580      4554484F 
 4581              	.LASF18:
 4582 09d1 73697A65 		.ascii	"sizetype\000"
 4582      74797065 
 4582      00
 4583              	.LASF124:
 4584 09da 64725368 		.ascii	"drShift\000"
 4584      69667400 
 4585              	.LASF5:
 4586 09e2 6C6F6E67 		.ascii	"long unsigned int\000"
 4586      20756E73 
 4586      69676E65 
 4586      6420696E 
 4586      7400
 4587              	.LASF76:
 4588 09f4 65787443 		.ascii	"extCapVrefVoltage\000"
 4588      61705672 
 4588      6566566F 
 4588      6C746167 
 4588      6500
 4589              	.LASF62:
 4590 0a06 77646774 		.ascii	"wdgtCrcCalc\000"
 4590      43726343 
 4590      616C6300 
 4591              	.LASF136:
 4592 0a12 70747232 		.ascii	"ptr2DebounceArr\000"
 4592      4465626F 
 4592      756E6365 
 4592      41727200 
 4593              	.LASF144:
 4594 0a22 7843656E 		.ascii	"xCentroidMultiplier\000"
 4594      74726F69 
 4594      644D756C 
 4594      7469706C 
 4594      69657200 
 4595              	.LASF36:
 4596 0a36 66696E67 		.ascii	"fingerTh\000"
 4596      65725468 
 4596      00
 4597              	.LASF52:
 4598 0a3f 62736C6E 		.ascii	"bslnExt\000"
 4598      45787400 
 4599              	.LASF15:
 4600 0a47 63797374 		.ascii	"cystatus\000"
 4600      61747573 
 4600      00
 4601              	.LASF156:
 4602 0a50 74797065 		.ascii	"type\000"
ARM GAS  C:\Users\YUANFA~1\AppData\Local\Temp\cc9Xhnxa.s 			page 118


 4602      00
 4603              	.LASF1:
 4604 0a55 756E7369 		.ascii	"unsigned char\000"
 4604      676E6564 
 4604      20636861 
 4604      7200
 4605              	.LASF155:
 4606 0a63 666C6173 		.ascii	"flash\000"
 4606      6800
 4607              	.LASF167:
 4608 0a69 70747246 		.ascii	"ptrFlashWdgt\000"
 4608      6C617368 
 4608      57646774 
 4608      00
 4609              	.LASF137:
 4610 0a76 73746174 		.ascii	"staticConfig\000"
 4610      6963436F 
 4610      6E666967 
 4610      00
 4611              	.LASF188:
 4612 0a83 43617053 		.ascii	"CapSense_ramWidgetInit\000"
 4612      656E7365 
 4612      5F72616D 
 4612      57696467 
 4612      6574496E 
 4613              	.LASF102:
 4614 0a9a 6D6F6443 		.ascii	"modCsxClk\000"
 4614      7378436C 
 4614      6B00
 4615              	.LASF114:
 4616 0aa4 7363616E 		.ascii	"scanCurrentISC\000"
 4616      43757272 
 4616      656E7449 
 4616      534300
 4617              	.LASF133:
 4618 0ab3 70747232 		.ascii	"ptr2WdgtRam\000"
 4618      57646774 
 4618      52616D00 
 4619              	.LASF19:
 4620 0abf 43617053 		.ascii	"CapSense_THRESHOLD_TYPE\000"
 4620      656E7365 
 4620      5F544852 
 4620      4553484F 
 4620      4C445F54 
 4621              	.LASF32:
 4622 0ad7 43617053 		.ascii	"CapSense_SENSE_METHOD_BIST_E\000"
 4622      656E7365 
 4622      5F53454E 
 4622      53455F4D 
 4622      4554484F 
 4623              	.LASF141:
 4624 0af4 6E756D52 		.ascii	"numRows\000"
 4624      6F777300 
 4625              	.LASF183:
 4626 0afc 73746174 		.ascii	"state\000"
 4626      6500
 4627              	.LASF51:
ARM GAS  C:\Users\YUANFA~1\AppData\Local\Temp\cc9Xhnxa.s 			page 119


 4628 0b02 62736C6E 		.ascii	"bslnInv\000"
 4628      496E7600 
 4629              	.LASF173:
 4630 0b0a 70747244 		.ascii	"ptrData\000"
 4630      61746100 
 4631              	.LASF121:
 4632 0b12 6873696F 		.ascii	"hsiomMask\000"
 4632      6D4D6173 
 4632      6B00
 4633              	.LASF43:
 4634 0b1c 736E7343 		.ascii	"snsClk\000"
 4634      6C6B00
 4635              	.LASF74:
 4636 0b23 736E7343 		.ascii	"snsCapVrefVoltage\000"
 4636      61705672 
 4636      6566566F 
 4636      6C746167 
 4636      6500
 4637              	.LASF86:
 4638 0b35 65787443 		.ascii	"extCapVrefGain\000"
 4638      61705672 
 4638      65664761 
 4638      696E00
 4639              	.LASF0:
 4640 0b44 7369676E 		.ascii	"signed char\000"
 4640      65642063 
 4640      68617200 
 4641              	.LASF50:
 4642 0b50 62736C6E 		.ascii	"bsln\000"
 4642      00
 4643              	.LASF3:
 4644 0b55 73686F72 		.ascii	"short unsigned int\000"
 4644      7420756E 
 4644      7369676E 
 4644      65642069 
 4644      6E7400
 4645              	.LASF154:
 4646 0b68 61666665 		.ascii	"affectsCrc\000"
 4646      63747343 
 4646      726300
 4647              	.LASF187:
 4648 0b73 43617053 		.ascii	"CapSense_ioList\000"
 4648      656E7365 
 4648      5F696F4C 
 4648      69737400 
 4649              	.LASF191:
 4650 0b83 6D656D63 		.ascii	"memcpy\000"
 4650      707900
 4651              	.LASF132:
 4652 0b8a 70747232 		.ascii	"ptr2SnsFlash\000"
 4652      536E7346 
 4652      6C617368 
 4652      00
 4653              	.LASF103:
 4654 0b97 676C6243 		.ascii	"glbCrc\000"
 4654      726300
 4655              	.LASF9:
ARM GAS  C:\Users\YUANFA~1\AppData\Local\Temp\cc9Xhnxa.s 			page 120


 4656 0b9e 75696E74 		.ascii	"uint8\000"
 4656      3800
 4657              	.LASF13:
 4658 0ba4 646F7562 		.ascii	"double\000"
 4658      6C6500
 4659              	.LASF54:
 4660 0bab 6E656742 		.ascii	"negBslnRstCnt\000"
 4660      736C6E52 
 4660      7374436E 
 4660      7400
 4661              	.LASF147:
 4662 0bb9 70747232 		.ascii	"ptr2CsxTouchpad\000"
 4662      43737854 
 4662      6F756368 
 4662      70616400 
 4663              	.LASF92:
 4664 0bc9 64657669 		.ascii	"deviceId\000"
 4664      63654964 
 4664      00
 4665              	.LASF143:
 4666 0bd2 79526573 		.ascii	"yResolution\000"
 4666      6F6C7574 
 4666      696F6E00 
 4667              	.LASF153:
 4668 0bde 77696467 		.ascii	"widgetId\000"
 4668      65744964 
 4668      00
 4669              	.LASF57:
 4670 0be7 43617053 		.ascii	"CapSense_RAM_SNS_LIST_STRUCT\000"
 4670      656E7365 
 4670      5F52414D 
 4670      5F534E53 
 4670      5F4C4953 
 4671              	.LASF70:
 4672 0c04 736E7343 		.ascii	"snsCapSnsClkHz\000"
 4672      6170536E 
 4672      73436C6B 
 4672      487A00
 4673              	.LASF150:
 4674 0c13 77646774 		.ascii	"wdgtArray\000"
 4674      41727261 
 4674      7900
 4675              		.ident	"GCC: (GNU Tools for ARM Embedded Processors) 5.4.1 20160609 (release) [ARM/embedded-5-bran
