ARM GAS  C:\Users\YUANFA~1\AppData\Local\Temp\cc9Xhnxa.s 			page 1


   1              		.syntax unified
   2              		.cpu cortex-m0plus
   3              		.fpu softvfp
   4              		.eabi_attribute 20, 1
   5              		.eabi_attribute 21, 1
   6              		.eabi_attribute 23, 3
   7              		.eabi_attribute 24, 1
   8              		.eabi_attribute 25, 1
   9              		.eabi_attribute 26, 1
  10              		.eabi_attribute 30, 1
  11              		.eabi_attribute 34, 0
  12              		.eabi_attribute 18, 4
  13              		.thumb
  14              		.syntax unified
  15              		.file	"CapSense_Structure.c"
  16              		.text
  17              	.Ltext0:
  18              		.cfi_sections	.debug_frame
  19              		.section	.text.DsParseParamId,"ax",%progbits
  20              		.align	2
  21              		.code	16
  22              		.thumb_func
  23              		.type	DsParseParamId, %function
  24              	DsParseParamId:
  25              	.LFB2:
  26              		.file 1 "Generated_Source\\PSoC4\\CapSense_Structure.c"
   1:Generated_Source\PSoC4/CapSense_Structure.c **** /***************************************************************************//**
   2:Generated_Source\PSoC4/CapSense_Structure.c **** * \file CapSense_Structure.c
   3:Generated_Source\PSoC4/CapSense_Structure.c **** * \version 7.0
   4:Generated_Source\PSoC4/CapSense_Structure.c **** *
   5:Generated_Source\PSoC4/CapSense_Structure.c **** * \brief
   6:Generated_Source\PSoC4/CapSense_Structure.c **** *   This file defines the data structure global variables and provides implementation
   7:Generated_Source\PSoC4/CapSense_Structure.c **** *   for the high-level and low-level APIs of the Data Structure module.
   8:Generated_Source\PSoC4/CapSense_Structure.c **** *
   9:Generated_Source\PSoC4/CapSense_Structure.c **** * \see CapSense v7.0 Datasheet
  10:Generated_Source\PSoC4/CapSense_Structure.c **** *
  11:Generated_Source\PSoC4/CapSense_Structure.c **** *//*****************************************************************************
  12:Generated_Source\PSoC4/CapSense_Structure.c **** * Copyright (2016-2019), Cypress Semiconductor Corporation.
  13:Generated_Source\PSoC4/CapSense_Structure.c **** ********************************************************************************
  14:Generated_Source\PSoC4/CapSense_Structure.c **** * This software is owned by Cypress Semiconductor Corporation (Cypress) and is
  15:Generated_Source\PSoC4/CapSense_Structure.c **** * protected by and subject to worldwide patent protection (United States and
  16:Generated_Source\PSoC4/CapSense_Structure.c **** * foreign), United States copyright laws and international treaty provisions.
  17:Generated_Source\PSoC4/CapSense_Structure.c **** * Cypress hereby grants to licensee a personal, non-exclusive, non-transferable
  18:Generated_Source\PSoC4/CapSense_Structure.c **** * license to copy, use, modify, create derivative works of, and compile the
  19:Generated_Source\PSoC4/CapSense_Structure.c **** * Cypress Source Code and derivative works for the sole purpose of creating
  20:Generated_Source\PSoC4/CapSense_Structure.c **** * custom software in support of licensee product to be used only in conjunction
  21:Generated_Source\PSoC4/CapSense_Structure.c **** * with a Cypress integrated circuit as specified in the applicable agreement.
  22:Generated_Source\PSoC4/CapSense_Structure.c **** * Any reproduction, modification, translation, compilation, or representation of
  23:Generated_Source\PSoC4/CapSense_Structure.c **** * this software except as specified above is prohibited without the express
  24:Generated_Source\PSoC4/CapSense_Structure.c **** * written permission of Cypress.
  25:Generated_Source\PSoC4/CapSense_Structure.c **** *
  26:Generated_Source\PSoC4/CapSense_Structure.c **** * Disclaimer: CYPRESS MAKES NO WARRANTY OF ANY KIND, EXPRESS OR IMPLIED, WITH
  27:Generated_Source\PSoC4/CapSense_Structure.c **** * REGARD TO THIS MATERIAL, INCLUDING, BUT NOT LIMITED TO, THE IMPLIED
  28:Generated_Source\PSoC4/CapSense_Structure.c **** * WARRANTIES OF MERCHANTABILITY AND FITNESS FOR A PARTICULAR PURPOSE.
  29:Generated_Source\PSoC4/CapSense_Structure.c **** * Cypress reserves the right to make changes without further notice to the
  30:Generated_Source\PSoC4/CapSense_Structure.c **** * materials described herein. Cypress does not assume any liability arising out
  31:Generated_Source\PSoC4/CapSense_Structure.c **** * of the application or use of any product or circuit described herein. Cypress
ARM GAS  C:\Users\YUANFA~1\AppData\Local\Temp\cc9Xhnxa.s 			page 2


  32:Generated_Source\PSoC4/CapSense_Structure.c **** * does not authorize its products for use as critical components in life-support
  33:Generated_Source\PSoC4/CapSense_Structure.c **** * systems where a malfunction or failure may reasonably be expected to result in
  34:Generated_Source\PSoC4/CapSense_Structure.c **** * significant injury to the user. The inclusion of Cypress' product in a life-
  35:Generated_Source\PSoC4/CapSense_Structure.c **** * support systems application implies that the manufacturer assumes all risk of
  36:Generated_Source\PSoC4/CapSense_Structure.c **** * such use and in doing so indemnifies Cypress against all charges. Use may be
  37:Generated_Source\PSoC4/CapSense_Structure.c **** * limited by and subject to the applicable Cypress software license agreement.
  38:Generated_Source\PSoC4/CapSense_Structure.c **** *******************************************************************************/
  39:Generated_Source\PSoC4/CapSense_Structure.c **** 
  40:Generated_Source\PSoC4/CapSense_Structure.c **** #include <cytypes.h>
  41:Generated_Source\PSoC4/CapSense_Structure.c **** #include "CyLib.h"
  42:Generated_Source\PSoC4/CapSense_Structure.c **** #include "CapSense_Structure.h"
  43:Generated_Source\PSoC4/CapSense_Structure.c **** #include "CapSense_Configuration.h"
  44:Generated_Source\PSoC4/CapSense_Structure.c **** 
  45:Generated_Source\PSoC4/CapSense_Structure.c **** #if (0u != CapSense_ADC_EN)
  46:Generated_Source\PSoC4/CapSense_Structure.c ****     #include "CapSense_Adc.h"
  47:Generated_Source\PSoC4/CapSense_Structure.c **** #endif /* (0u != CapSense_ADC_EN) */
  48:Generated_Source\PSoC4/CapSense_Structure.c **** 
  49:Generated_Source\PSoC4/CapSense_Structure.c **** #if (CapSense_ENABLE == CapSense_SELF_TEST_EN)
  50:Generated_Source\PSoC4/CapSense_Structure.c ****     #include "CapSense_SelfTest.h"
  51:Generated_Source\PSoC4/CapSense_Structure.c **** #endif
  52:Generated_Source\PSoC4/CapSense_Structure.c **** 
  53:Generated_Source\PSoC4/CapSense_Structure.c **** #if (CapSense_ENABLE == CapSense_CENTROID_5X5_CSD_EN)
  54:Generated_Source\PSoC4/CapSense_Structure.c ****     #include "CapSense_AdvancedCentroid_LL.h"
  55:Generated_Source\PSoC4/CapSense_Structure.c **** #endif
  56:Generated_Source\PSoC4/CapSense_Structure.c **** 
  57:Generated_Source\PSoC4/CapSense_Structure.c **** #if (CapSense_ENABLE == CapSense_GES_GLOBAL_EN)
  58:Generated_Source\PSoC4/CapSense_Structure.c ****     #include "CapSense_Gesture.h"
  59:Generated_Source\PSoC4/CapSense_Structure.c **** #endif /* (CapSense_ENABLE == CapSense_GES_GLOBAL_EN) */
  60:Generated_Source\PSoC4/CapSense_Structure.c **** 
  61:Generated_Source\PSoC4/CapSense_Structure.c **** /*******************************************************************************
  62:Generated_Source\PSoC4/CapSense_Structure.c **** * Defines the RAM Data Structure variables and their init data in flash
  63:Generated_Source\PSoC4/CapSense_Structure.c **** *******************************************************************************/
  64:Generated_Source\PSoC4/CapSense_Structure.c **** /**
  65:Generated_Source\PSoC4/CapSense_Structure.c **** * \cond SECTION_GLOBAL_VARIABLES
  66:Generated_Source\PSoC4/CapSense_Structure.c **** * \addtogroup group_global_variables
  67:Generated_Source\PSoC4/CapSense_Structure.c **** * \{
  68:Generated_Source\PSoC4/CapSense_Structure.c **** */
  69:Generated_Source\PSoC4/CapSense_Structure.c **** 
  70:Generated_Source\PSoC4/CapSense_Structure.c **** /**
  71:Generated_Source\PSoC4/CapSense_Structure.c **** * The variable that contains the CapSense configuration, settings and
  72:Generated_Source\PSoC4/CapSense_Structure.c **** * scanning results. CapSense_dsRam represents RAM Data Structure.
  73:Generated_Source\PSoC4/CapSense_Structure.c **** */
  74:Generated_Source\PSoC4/CapSense_Structure.c **** CapSense_RAM_STRUCT CapSense_dsRam;
  75:Generated_Source\PSoC4/CapSense_Structure.c **** /** \}
  76:Generated_Source\PSoC4/CapSense_Structure.c **** * \endcond */
  77:Generated_Source\PSoC4/CapSense_Structure.c **** 
  78:Generated_Source\PSoC4/CapSense_Structure.c **** /*******************************************************************************
  79:Generated_Source\PSoC4/CapSense_Structure.c **** * Declares Widget's De-bounce Counters
  80:Generated_Source\PSoC4/CapSense_Structure.c **** *******************************************************************************/
  81:Generated_Source\PSoC4/CapSense_Structure.c **** 
  82:Generated_Source\PSoC4/CapSense_Structure.c **** 
  83:Generated_Source\PSoC4/CapSense_Structure.c **** /***************************************************************************//**
  84:Generated_Source\PSoC4/CapSense_Structure.c **** * Declares CSX Touchpad data
  85:Generated_Source\PSoC4/CapSense_Structure.c **** *******************************************************************************/
  86:Generated_Source\PSoC4/CapSense_Structure.c **** static CapSense_CSX_TOUCHPAD_DATA_STRUCT CapSense_csxTouchpadData_Touchpad0;
  87:Generated_Source\PSoC4/CapSense_Structure.c **** 
  88:Generated_Source\PSoC4/CapSense_Structure.c **** 
ARM GAS  C:\Users\YUANFA~1\AppData\Local\Temp\cc9Xhnxa.s 			page 3


  89:Generated_Source\PSoC4/CapSense_Structure.c **** /*******************************************************************************
  90:Generated_Source\PSoC4/CapSense_Structure.c **** * Defines and initializes the Flash Data Structure
  91:Generated_Source\PSoC4/CapSense_Structure.c **** *******************************************************************************/
  92:Generated_Source\PSoC4/CapSense_Structure.c **** 
  93:Generated_Source\PSoC4/CapSense_Structure.c **** 
  94:Generated_Source\PSoC4/CapSense_Structure.c **** 
  95:Generated_Source\PSoC4/CapSense_Structure.c **** /**
  96:Generated_Source\PSoC4/CapSense_Structure.c **** * \cond SECTION_API_CONSTANTS
  97:Generated_Source\PSoC4/CapSense_Structure.c **** * \addtogroup group_api_constants
  98:Generated_Source\PSoC4/CapSense_Structure.c **** * \{
  99:Generated_Source\PSoC4/CapSense_Structure.c **** */
 100:Generated_Source\PSoC4/CapSense_Structure.c **** /**
 101:Generated_Source\PSoC4/CapSense_Structure.c **** * Constant for the FLASH Data Structure
 102:Generated_Source\PSoC4/CapSense_Structure.c **** */
 103:Generated_Source\PSoC4/CapSense_Structure.c **** const CapSense_FLASH_STRUCT CapSense_dsFlash =
 104:Generated_Source\PSoC4/CapSense_Structure.c **** {
 105:Generated_Source\PSoC4/CapSense_Structure.c ****     /* Flash Widget Initialization Data */
 106:Generated_Source\PSoC4/CapSense_Structure.c ****     {
 107:Generated_Source\PSoC4/CapSense_Structure.c ****         { /* Touchpad0 */
 108:Generated_Source\PSoC4/CapSense_Structure.c ****             &CapSense_ioList[0u],
 109:Generated_Source\PSoC4/CapSense_Structure.c ****             (void *)&CapSense_dsRam.wdgtList.touchpad0,
 110:Generated_Source\PSoC4/CapSense_Structure.c ****             CapSense_dsRam.snsList.touchpad0,
 111:Generated_Source\PSoC4/CapSense_Structure.c ****             (void *)0u,
 112:Generated_Source\PSoC4/CapSense_Structure.c ****             (void *)0u,
 113:Generated_Source\PSoC4/CapSense_Structure.c ****             CapSense_TOUCHPAD0_STATIC_CONFIG,
 114:Generated_Source\PSoC4/CapSense_Structure.c ****             (CapSense_TOUCHPAD0_NUM_RX) * (CapSense_TOUCHPAD0_NUM_TX),
 115:Generated_Source\PSoC4/CapSense_Structure.c ****             (uint8)CapSense_WD_TOUCHPAD_E,
 116:Generated_Source\PSoC4/CapSense_Structure.c ****             CapSense_TOUCHPAD0_NUM_RX,
 117:Generated_Source\PSoC4/CapSense_Structure.c ****             CapSense_TOUCHPAD0_NUM_TX,
 118:Generated_Source\PSoC4/CapSense_Structure.c ****             CapSense_TOUCHPAD0_X_RESOLUTION,
 119:Generated_Source\PSoC4/CapSense_Structure.c ****             CapSense_TOUCHPAD0_Y_RESOLUTION,
 120:Generated_Source\PSoC4/CapSense_Structure.c ****             CapSense_TOUCHPAD0_X_CENT_MULT,
 121:Generated_Source\PSoC4/CapSense_Structure.c ****             CapSense_TOUCHPAD0_Y_CENT_MULT,
 122:Generated_Source\PSoC4/CapSense_Structure.c ****             &CapSense_dsRam.snsCp.touchpad0[0u],
 123:Generated_Source\PSoC4/CapSense_Structure.c ****             &CapSense_csxTouchpadData_Touchpad0,
 124:Generated_Source\PSoC4/CapSense_Structure.c ****             CapSense_TOUCHPAD0_IIR_FILTER_COEFF,
 125:Generated_Source\PSoC4/CapSense_Structure.c ****         },
 126:Generated_Source\PSoC4/CapSense_Structure.c ****     },
 127:Generated_Source\PSoC4/CapSense_Structure.c **** };
 128:Generated_Source\PSoC4/CapSense_Structure.c **** 
 129:Generated_Source\PSoC4/CapSense_Structure.c **** /**
 130:Generated_Source\PSoC4/CapSense_Structure.c **** * The array of the pointers to the electrode specific register.
 131:Generated_Source\PSoC4/CapSense_Structure.c **** */
 132:Generated_Source\PSoC4/CapSense_Structure.c **** const CapSense_FLASH_IO_STRUCT CapSense_ioList[CapSense_TOTAL_ELECTRODES] =
 133:Generated_Source\PSoC4/CapSense_Structure.c **** {
 134:Generated_Source\PSoC4/CapSense_Structure.c ****     { /* 0: Touchpad0_Rx0 */
 135:Generated_Source\PSoC4/CapSense_Structure.c ****         (reg32 *)CapSense_Rx__0__HSIOM,
 136:Generated_Source\PSoC4/CapSense_Structure.c ****         (reg32 *)CapSense_Rx__0__PC,
 137:Generated_Source\PSoC4/CapSense_Structure.c ****         (reg32 *)CapSense_Rx__0__PC2,
 138:Generated_Source\PSoC4/CapSense_Structure.c ****         (reg32 *)CapSense_Rx__0__DR,
 139:Generated_Source\PSoC4/CapSense_Structure.c ****         (reg32 *)CapSense_Rx__0__PS,
 140:Generated_Source\PSoC4/CapSense_Structure.c ****         CapSense_Rx__0__HSIOM_MASK,
 141:Generated_Source\PSoC4/CapSense_Structure.c ****         CapSense_Rx__0__MASK,
 142:Generated_Source\PSoC4/CapSense_Structure.c ****         CapSense_Rx__0__HSIOM_SHIFT,
 143:Generated_Source\PSoC4/CapSense_Structure.c ****         (uint8)CapSense_Rx__0__SHIFT,
 144:Generated_Source\PSoC4/CapSense_Structure.c ****         (uint8)CapSense_Rx__0__SHIFT * 3u,
 145:Generated_Source\PSoC4/CapSense_Structure.c ****     },
ARM GAS  C:\Users\YUANFA~1\AppData\Local\Temp\cc9Xhnxa.s 			page 4


 146:Generated_Source\PSoC4/CapSense_Structure.c ****     { /* 1: Touchpad0_Rx1 */
 147:Generated_Source\PSoC4/CapSense_Structure.c ****         (reg32 *)CapSense_Rx__1__HSIOM,
 148:Generated_Source\PSoC4/CapSense_Structure.c ****         (reg32 *)CapSense_Rx__1__PC,
 149:Generated_Source\PSoC4/CapSense_Structure.c ****         (reg32 *)CapSense_Rx__1__PC2,
 150:Generated_Source\PSoC4/CapSense_Structure.c ****         (reg32 *)CapSense_Rx__1__DR,
 151:Generated_Source\PSoC4/CapSense_Structure.c ****         (reg32 *)CapSense_Rx__1__PS,
 152:Generated_Source\PSoC4/CapSense_Structure.c ****         CapSense_Rx__1__HSIOM_MASK,
 153:Generated_Source\PSoC4/CapSense_Structure.c ****         CapSense_Rx__1__MASK,
 154:Generated_Source\PSoC4/CapSense_Structure.c ****         CapSense_Rx__1__HSIOM_SHIFT,
 155:Generated_Source\PSoC4/CapSense_Structure.c ****         (uint8)CapSense_Rx__1__SHIFT,
 156:Generated_Source\PSoC4/CapSense_Structure.c ****         (uint8)CapSense_Rx__1__SHIFT * 3u,
 157:Generated_Source\PSoC4/CapSense_Structure.c ****     },
 158:Generated_Source\PSoC4/CapSense_Structure.c ****     { /* 2: Touchpad0_Rx2 */
 159:Generated_Source\PSoC4/CapSense_Structure.c ****         (reg32 *)CapSense_Rx__2__HSIOM,
 160:Generated_Source\PSoC4/CapSense_Structure.c ****         (reg32 *)CapSense_Rx__2__PC,
 161:Generated_Source\PSoC4/CapSense_Structure.c ****         (reg32 *)CapSense_Rx__2__PC2,
 162:Generated_Source\PSoC4/CapSense_Structure.c ****         (reg32 *)CapSense_Rx__2__DR,
 163:Generated_Source\PSoC4/CapSense_Structure.c ****         (reg32 *)CapSense_Rx__2__PS,
 164:Generated_Source\PSoC4/CapSense_Structure.c ****         CapSense_Rx__2__HSIOM_MASK,
 165:Generated_Source\PSoC4/CapSense_Structure.c ****         CapSense_Rx__2__MASK,
 166:Generated_Source\PSoC4/CapSense_Structure.c ****         CapSense_Rx__2__HSIOM_SHIFT,
 167:Generated_Source\PSoC4/CapSense_Structure.c ****         (uint8)CapSense_Rx__2__SHIFT,
 168:Generated_Source\PSoC4/CapSense_Structure.c ****         (uint8)CapSense_Rx__2__SHIFT * 3u,
 169:Generated_Source\PSoC4/CapSense_Structure.c ****     },
 170:Generated_Source\PSoC4/CapSense_Structure.c ****     { /* 3: Touchpad0_Rx3 */
 171:Generated_Source\PSoC4/CapSense_Structure.c ****         (reg32 *)CapSense_Rx__3__HSIOM,
 172:Generated_Source\PSoC4/CapSense_Structure.c ****         (reg32 *)CapSense_Rx__3__PC,
 173:Generated_Source\PSoC4/CapSense_Structure.c ****         (reg32 *)CapSense_Rx__3__PC2,
 174:Generated_Source\PSoC4/CapSense_Structure.c ****         (reg32 *)CapSense_Rx__3__DR,
 175:Generated_Source\PSoC4/CapSense_Structure.c ****         (reg32 *)CapSense_Rx__3__PS,
 176:Generated_Source\PSoC4/CapSense_Structure.c ****         CapSense_Rx__3__HSIOM_MASK,
 177:Generated_Source\PSoC4/CapSense_Structure.c ****         CapSense_Rx__3__MASK,
 178:Generated_Source\PSoC4/CapSense_Structure.c ****         CapSense_Rx__3__HSIOM_SHIFT,
 179:Generated_Source\PSoC4/CapSense_Structure.c ****         (uint8)CapSense_Rx__3__SHIFT,
 180:Generated_Source\PSoC4/CapSense_Structure.c ****         (uint8)CapSense_Rx__3__SHIFT * 3u,
 181:Generated_Source\PSoC4/CapSense_Structure.c ****     },
 182:Generated_Source\PSoC4/CapSense_Structure.c ****     { /* 4: Touchpad0_Rx4 */
 183:Generated_Source\PSoC4/CapSense_Structure.c ****         (reg32 *)CapSense_Rx__4__HSIOM,
 184:Generated_Source\PSoC4/CapSense_Structure.c ****         (reg32 *)CapSense_Rx__4__PC,
 185:Generated_Source\PSoC4/CapSense_Structure.c ****         (reg32 *)CapSense_Rx__4__PC2,
 186:Generated_Source\PSoC4/CapSense_Structure.c ****         (reg32 *)CapSense_Rx__4__DR,
 187:Generated_Source\PSoC4/CapSense_Structure.c ****         (reg32 *)CapSense_Rx__4__PS,
 188:Generated_Source\PSoC4/CapSense_Structure.c ****         CapSense_Rx__4__HSIOM_MASK,
 189:Generated_Source\PSoC4/CapSense_Structure.c ****         CapSense_Rx__4__MASK,
 190:Generated_Source\PSoC4/CapSense_Structure.c ****         CapSense_Rx__4__HSIOM_SHIFT,
 191:Generated_Source\PSoC4/CapSense_Structure.c ****         (uint8)CapSense_Rx__4__SHIFT,
 192:Generated_Source\PSoC4/CapSense_Structure.c ****         (uint8)CapSense_Rx__4__SHIFT * 3u,
 193:Generated_Source\PSoC4/CapSense_Structure.c ****     },
 194:Generated_Source\PSoC4/CapSense_Structure.c ****     { /* 5: Touchpad0_Rx5 */
 195:Generated_Source\PSoC4/CapSense_Structure.c ****         (reg32 *)CapSense_Rx__5__HSIOM,
 196:Generated_Source\PSoC4/CapSense_Structure.c ****         (reg32 *)CapSense_Rx__5__PC,
 197:Generated_Source\PSoC4/CapSense_Structure.c ****         (reg32 *)CapSense_Rx__5__PC2,
 198:Generated_Source\PSoC4/CapSense_Structure.c ****         (reg32 *)CapSense_Rx__5__DR,
 199:Generated_Source\PSoC4/CapSense_Structure.c ****         (reg32 *)CapSense_Rx__5__PS,
 200:Generated_Source\PSoC4/CapSense_Structure.c ****         CapSense_Rx__5__HSIOM_MASK,
 201:Generated_Source\PSoC4/CapSense_Structure.c ****         CapSense_Rx__5__MASK,
 202:Generated_Source\PSoC4/CapSense_Structure.c ****         CapSense_Rx__5__HSIOM_SHIFT,
ARM GAS  C:\Users\YUANFA~1\AppData\Local\Temp\cc9Xhnxa.s 			page 5


 203:Generated_Source\PSoC4/CapSense_Structure.c ****         (uint8)CapSense_Rx__5__SHIFT,
 204:Generated_Source\PSoC4/CapSense_Structure.c ****         (uint8)CapSense_Rx__5__SHIFT * 3u,
 205:Generated_Source\PSoC4/CapSense_Structure.c ****     },
 206:Generated_Source\PSoC4/CapSense_Structure.c ****     { /* 6: Touchpad0_Rx6 */
 207:Generated_Source\PSoC4/CapSense_Structure.c ****         (reg32 *)CapSense_Rx__6__HSIOM,
 208:Generated_Source\PSoC4/CapSense_Structure.c ****         (reg32 *)CapSense_Rx__6__PC,
 209:Generated_Source\PSoC4/CapSense_Structure.c ****         (reg32 *)CapSense_Rx__6__PC2,
 210:Generated_Source\PSoC4/CapSense_Structure.c ****         (reg32 *)CapSense_Rx__6__DR,
 211:Generated_Source\PSoC4/CapSense_Structure.c ****         (reg32 *)CapSense_Rx__6__PS,
 212:Generated_Source\PSoC4/CapSense_Structure.c ****         CapSense_Rx__6__HSIOM_MASK,
 213:Generated_Source\PSoC4/CapSense_Structure.c ****         CapSense_Rx__6__MASK,
 214:Generated_Source\PSoC4/CapSense_Structure.c ****         CapSense_Rx__6__HSIOM_SHIFT,
 215:Generated_Source\PSoC4/CapSense_Structure.c ****         (uint8)CapSense_Rx__6__SHIFT,
 216:Generated_Source\PSoC4/CapSense_Structure.c ****         (uint8)CapSense_Rx__6__SHIFT * 3u,
 217:Generated_Source\PSoC4/CapSense_Structure.c ****     },
 218:Generated_Source\PSoC4/CapSense_Structure.c ****     { /* 7: Touchpad0_Rx7 */
 219:Generated_Source\PSoC4/CapSense_Structure.c ****         (reg32 *)CapSense_Rx__7__HSIOM,
 220:Generated_Source\PSoC4/CapSense_Structure.c ****         (reg32 *)CapSense_Rx__7__PC,
 221:Generated_Source\PSoC4/CapSense_Structure.c ****         (reg32 *)CapSense_Rx__7__PC2,
 222:Generated_Source\PSoC4/CapSense_Structure.c ****         (reg32 *)CapSense_Rx__7__DR,
 223:Generated_Source\PSoC4/CapSense_Structure.c ****         (reg32 *)CapSense_Rx__7__PS,
 224:Generated_Source\PSoC4/CapSense_Structure.c ****         CapSense_Rx__7__HSIOM_MASK,
 225:Generated_Source\PSoC4/CapSense_Structure.c ****         CapSense_Rx__7__MASK,
 226:Generated_Source\PSoC4/CapSense_Structure.c ****         CapSense_Rx__7__HSIOM_SHIFT,
 227:Generated_Source\PSoC4/CapSense_Structure.c ****         (uint8)CapSense_Rx__7__SHIFT,
 228:Generated_Source\PSoC4/CapSense_Structure.c ****         (uint8)CapSense_Rx__7__SHIFT * 3u,
 229:Generated_Source\PSoC4/CapSense_Structure.c ****     },
 230:Generated_Source\PSoC4/CapSense_Structure.c ****     { /* 8: Touchpad0_Rx8 */
 231:Generated_Source\PSoC4/CapSense_Structure.c ****         (reg32 *)CapSense_Rx__8__HSIOM,
 232:Generated_Source\PSoC4/CapSense_Structure.c ****         (reg32 *)CapSense_Rx__8__PC,
 233:Generated_Source\PSoC4/CapSense_Structure.c ****         (reg32 *)CapSense_Rx__8__PC2,
 234:Generated_Source\PSoC4/CapSense_Structure.c ****         (reg32 *)CapSense_Rx__8__DR,
 235:Generated_Source\PSoC4/CapSense_Structure.c ****         (reg32 *)CapSense_Rx__8__PS,
 236:Generated_Source\PSoC4/CapSense_Structure.c ****         CapSense_Rx__8__HSIOM_MASK,
 237:Generated_Source\PSoC4/CapSense_Structure.c ****         CapSense_Rx__8__MASK,
 238:Generated_Source\PSoC4/CapSense_Structure.c ****         CapSense_Rx__8__HSIOM_SHIFT,
 239:Generated_Source\PSoC4/CapSense_Structure.c ****         (uint8)CapSense_Rx__8__SHIFT,
 240:Generated_Source\PSoC4/CapSense_Structure.c ****         (uint8)CapSense_Rx__8__SHIFT * 3u,
 241:Generated_Source\PSoC4/CapSense_Structure.c ****     },
 242:Generated_Source\PSoC4/CapSense_Structure.c ****     { /* 9: Touchpad0_Rx9 */
 243:Generated_Source\PSoC4/CapSense_Structure.c ****         (reg32 *)CapSense_Rx__9__HSIOM,
 244:Generated_Source\PSoC4/CapSense_Structure.c ****         (reg32 *)CapSense_Rx__9__PC,
 245:Generated_Source\PSoC4/CapSense_Structure.c ****         (reg32 *)CapSense_Rx__9__PC2,
 246:Generated_Source\PSoC4/CapSense_Structure.c ****         (reg32 *)CapSense_Rx__9__DR,
 247:Generated_Source\PSoC4/CapSense_Structure.c ****         (reg32 *)CapSense_Rx__9__PS,
 248:Generated_Source\PSoC4/CapSense_Structure.c ****         CapSense_Rx__9__HSIOM_MASK,
 249:Generated_Source\PSoC4/CapSense_Structure.c ****         CapSense_Rx__9__MASK,
 250:Generated_Source\PSoC4/CapSense_Structure.c ****         CapSense_Rx__9__HSIOM_SHIFT,
 251:Generated_Source\PSoC4/CapSense_Structure.c ****         (uint8)CapSense_Rx__9__SHIFT,
 252:Generated_Source\PSoC4/CapSense_Structure.c ****         (uint8)CapSense_Rx__9__SHIFT * 3u,
 253:Generated_Source\PSoC4/CapSense_Structure.c ****     },
 254:Generated_Source\PSoC4/CapSense_Structure.c ****     { /* 10: Touchpad0_Rx10 */
 255:Generated_Source\PSoC4/CapSense_Structure.c ****         (reg32 *)CapSense_Rx__10__HSIOM,
 256:Generated_Source\PSoC4/CapSense_Structure.c ****         (reg32 *)CapSense_Rx__10__PC,
 257:Generated_Source\PSoC4/CapSense_Structure.c ****         (reg32 *)CapSense_Rx__10__PC2,
 258:Generated_Source\PSoC4/CapSense_Structure.c ****         (reg32 *)CapSense_Rx__10__DR,
 259:Generated_Source\PSoC4/CapSense_Structure.c ****         (reg32 *)CapSense_Rx__10__PS,
ARM GAS  C:\Users\YUANFA~1\AppData\Local\Temp\cc9Xhnxa.s 			page 6


 260:Generated_Source\PSoC4/CapSense_Structure.c ****         CapSense_Rx__10__HSIOM_MASK,
 261:Generated_Source\PSoC4/CapSense_Structure.c ****         CapSense_Rx__10__MASK,
 262:Generated_Source\PSoC4/CapSense_Structure.c ****         CapSense_Rx__10__HSIOM_SHIFT,
 263:Generated_Source\PSoC4/CapSense_Structure.c ****         (uint8)CapSense_Rx__10__SHIFT,
 264:Generated_Source\PSoC4/CapSense_Structure.c ****         (uint8)CapSense_Rx__10__SHIFT * 3u,
 265:Generated_Source\PSoC4/CapSense_Structure.c ****     },
 266:Generated_Source\PSoC4/CapSense_Structure.c ****     { /* 11: Touchpad0_Rx11 */
 267:Generated_Source\PSoC4/CapSense_Structure.c ****         (reg32 *)CapSense_Rx__11__HSIOM,
 268:Generated_Source\PSoC4/CapSense_Structure.c ****         (reg32 *)CapSense_Rx__11__PC,
 269:Generated_Source\PSoC4/CapSense_Structure.c ****         (reg32 *)CapSense_Rx__11__PC2,
 270:Generated_Source\PSoC4/CapSense_Structure.c ****         (reg32 *)CapSense_Rx__11__DR,
 271:Generated_Source\PSoC4/CapSense_Structure.c ****         (reg32 *)CapSense_Rx__11__PS,
 272:Generated_Source\PSoC4/CapSense_Structure.c ****         CapSense_Rx__11__HSIOM_MASK,
 273:Generated_Source\PSoC4/CapSense_Structure.c ****         CapSense_Rx__11__MASK,
 274:Generated_Source\PSoC4/CapSense_Structure.c ****         CapSense_Rx__11__HSIOM_SHIFT,
 275:Generated_Source\PSoC4/CapSense_Structure.c ****         (uint8)CapSense_Rx__11__SHIFT,
 276:Generated_Source\PSoC4/CapSense_Structure.c ****         (uint8)CapSense_Rx__11__SHIFT * 3u,
 277:Generated_Source\PSoC4/CapSense_Structure.c ****     },
 278:Generated_Source\PSoC4/CapSense_Structure.c ****     { /* 12: Touchpad0_Rx12 */
 279:Generated_Source\PSoC4/CapSense_Structure.c ****         (reg32 *)CapSense_Rx__12__HSIOM,
 280:Generated_Source\PSoC4/CapSense_Structure.c ****         (reg32 *)CapSense_Rx__12__PC,
 281:Generated_Source\PSoC4/CapSense_Structure.c ****         (reg32 *)CapSense_Rx__12__PC2,
 282:Generated_Source\PSoC4/CapSense_Structure.c ****         (reg32 *)CapSense_Rx__12__DR,
 283:Generated_Source\PSoC4/CapSense_Structure.c ****         (reg32 *)CapSense_Rx__12__PS,
 284:Generated_Source\PSoC4/CapSense_Structure.c ****         CapSense_Rx__12__HSIOM_MASK,
 285:Generated_Source\PSoC4/CapSense_Structure.c ****         CapSense_Rx__12__MASK,
 286:Generated_Source\PSoC4/CapSense_Structure.c ****         CapSense_Rx__12__HSIOM_SHIFT,
 287:Generated_Source\PSoC4/CapSense_Structure.c ****         (uint8)CapSense_Rx__12__SHIFT,
 288:Generated_Source\PSoC4/CapSense_Structure.c ****         (uint8)CapSense_Rx__12__SHIFT * 3u,
 289:Generated_Source\PSoC4/CapSense_Structure.c ****     },
 290:Generated_Source\PSoC4/CapSense_Structure.c ****     { /* 13: Touchpad0_Rx13 */
 291:Generated_Source\PSoC4/CapSense_Structure.c ****         (reg32 *)CapSense_Rx__13__HSIOM,
 292:Generated_Source\PSoC4/CapSense_Structure.c ****         (reg32 *)CapSense_Rx__13__PC,
 293:Generated_Source\PSoC4/CapSense_Structure.c ****         (reg32 *)CapSense_Rx__13__PC2,
 294:Generated_Source\PSoC4/CapSense_Structure.c ****         (reg32 *)CapSense_Rx__13__DR,
 295:Generated_Source\PSoC4/CapSense_Structure.c ****         (reg32 *)CapSense_Rx__13__PS,
 296:Generated_Source\PSoC4/CapSense_Structure.c ****         CapSense_Rx__13__HSIOM_MASK,
 297:Generated_Source\PSoC4/CapSense_Structure.c ****         CapSense_Rx__13__MASK,
 298:Generated_Source\PSoC4/CapSense_Structure.c ****         CapSense_Rx__13__HSIOM_SHIFT,
 299:Generated_Source\PSoC4/CapSense_Structure.c ****         (uint8)CapSense_Rx__13__SHIFT,
 300:Generated_Source\PSoC4/CapSense_Structure.c ****         (uint8)CapSense_Rx__13__SHIFT * 3u,
 301:Generated_Source\PSoC4/CapSense_Structure.c ****     },
 302:Generated_Source\PSoC4/CapSense_Structure.c ****     { /* 14: Touchpad0_Rx14 */
 303:Generated_Source\PSoC4/CapSense_Structure.c ****         (reg32 *)CapSense_Rx__14__HSIOM,
 304:Generated_Source\PSoC4/CapSense_Structure.c ****         (reg32 *)CapSense_Rx__14__PC,
 305:Generated_Source\PSoC4/CapSense_Structure.c ****         (reg32 *)CapSense_Rx__14__PC2,
 306:Generated_Source\PSoC4/CapSense_Structure.c ****         (reg32 *)CapSense_Rx__14__DR,
 307:Generated_Source\PSoC4/CapSense_Structure.c ****         (reg32 *)CapSense_Rx__14__PS,
 308:Generated_Source\PSoC4/CapSense_Structure.c ****         CapSense_Rx__14__HSIOM_MASK,
 309:Generated_Source\PSoC4/CapSense_Structure.c ****         CapSense_Rx__14__MASK,
 310:Generated_Source\PSoC4/CapSense_Structure.c ****         CapSense_Rx__14__HSIOM_SHIFT,
 311:Generated_Source\PSoC4/CapSense_Structure.c ****         (uint8)CapSense_Rx__14__SHIFT,
 312:Generated_Source\PSoC4/CapSense_Structure.c ****         (uint8)CapSense_Rx__14__SHIFT * 3u,
 313:Generated_Source\PSoC4/CapSense_Structure.c ****     },
 314:Generated_Source\PSoC4/CapSense_Structure.c ****     { /* 15: Touchpad0_Tx0 */
 315:Generated_Source\PSoC4/CapSense_Structure.c ****         (reg32 *)CapSense_Tx__0__HSIOM,
 316:Generated_Source\PSoC4/CapSense_Structure.c ****         (reg32 *)CapSense_Tx__0__PC,
ARM GAS  C:\Users\YUANFA~1\AppData\Local\Temp\cc9Xhnxa.s 			page 7


 317:Generated_Source\PSoC4/CapSense_Structure.c ****         (reg32 *)CapSense_Tx__0__PC2,
 318:Generated_Source\PSoC4/CapSense_Structure.c ****         (reg32 *)CapSense_Tx__0__DR,
 319:Generated_Source\PSoC4/CapSense_Structure.c ****         (reg32 *)CapSense_Tx__0__PS,
 320:Generated_Source\PSoC4/CapSense_Structure.c ****         CapSense_Tx__0__HSIOM_MASK,
 321:Generated_Source\PSoC4/CapSense_Structure.c ****         CapSense_Tx__0__MASK,
 322:Generated_Source\PSoC4/CapSense_Structure.c ****         CapSense_Tx__0__HSIOM_SHIFT,
 323:Generated_Source\PSoC4/CapSense_Structure.c ****         (uint8)CapSense_Tx__0__SHIFT,
 324:Generated_Source\PSoC4/CapSense_Structure.c ****         (uint8)CapSense_Tx__0__SHIFT * 3u,
 325:Generated_Source\PSoC4/CapSense_Structure.c ****     },
 326:Generated_Source\PSoC4/CapSense_Structure.c ****     { /* 16: Touchpad0_Tx1 */
 327:Generated_Source\PSoC4/CapSense_Structure.c ****         (reg32 *)CapSense_Tx__1__HSIOM,
 328:Generated_Source\PSoC4/CapSense_Structure.c ****         (reg32 *)CapSense_Tx__1__PC,
 329:Generated_Source\PSoC4/CapSense_Structure.c ****         (reg32 *)CapSense_Tx__1__PC2,
 330:Generated_Source\PSoC4/CapSense_Structure.c ****         (reg32 *)CapSense_Tx__1__DR,
 331:Generated_Source\PSoC4/CapSense_Structure.c ****         (reg32 *)CapSense_Tx__1__PS,
 332:Generated_Source\PSoC4/CapSense_Structure.c ****         CapSense_Tx__1__HSIOM_MASK,
 333:Generated_Source\PSoC4/CapSense_Structure.c ****         CapSense_Tx__1__MASK,
 334:Generated_Source\PSoC4/CapSense_Structure.c ****         CapSense_Tx__1__HSIOM_SHIFT,
 335:Generated_Source\PSoC4/CapSense_Structure.c ****         (uint8)CapSense_Tx__1__SHIFT,
 336:Generated_Source\PSoC4/CapSense_Structure.c ****         (uint8)CapSense_Tx__1__SHIFT * 3u,
 337:Generated_Source\PSoC4/CapSense_Structure.c ****     },
 338:Generated_Source\PSoC4/CapSense_Structure.c ****     { /* 17: Touchpad0_Tx2 */
 339:Generated_Source\PSoC4/CapSense_Structure.c ****         (reg32 *)CapSense_Tx__2__HSIOM,
 340:Generated_Source\PSoC4/CapSense_Structure.c ****         (reg32 *)CapSense_Tx__2__PC,
 341:Generated_Source\PSoC4/CapSense_Structure.c ****         (reg32 *)CapSense_Tx__2__PC2,
 342:Generated_Source\PSoC4/CapSense_Structure.c ****         (reg32 *)CapSense_Tx__2__DR,
 343:Generated_Source\PSoC4/CapSense_Structure.c ****         (reg32 *)CapSense_Tx__2__PS,
 344:Generated_Source\PSoC4/CapSense_Structure.c ****         CapSense_Tx__2__HSIOM_MASK,
 345:Generated_Source\PSoC4/CapSense_Structure.c ****         CapSense_Tx__2__MASK,
 346:Generated_Source\PSoC4/CapSense_Structure.c ****         CapSense_Tx__2__HSIOM_SHIFT,
 347:Generated_Source\PSoC4/CapSense_Structure.c ****         (uint8)CapSense_Tx__2__SHIFT,
 348:Generated_Source\PSoC4/CapSense_Structure.c ****         (uint8)CapSense_Tx__2__SHIFT * 3u,
 349:Generated_Source\PSoC4/CapSense_Structure.c ****     },
 350:Generated_Source\PSoC4/CapSense_Structure.c **** };
 351:Generated_Source\PSoC4/CapSense_Structure.c **** 
 352:Generated_Source\PSoC4/CapSense_Structure.c **** 
 353:Generated_Source\PSoC4/CapSense_Structure.c **** 
 354:Generated_Source\PSoC4/CapSense_Structure.c **** /** \}
 355:Generated_Source\PSoC4/CapSense_Structure.c **** * \endcond */
 356:Generated_Source\PSoC4/CapSense_Structure.c **** 
 357:Generated_Source\PSoC4/CapSense_Structure.c **** /* Initialization data for RAM widget list */
 358:Generated_Source\PSoC4/CapSense_Structure.c **** const CapSense_RAM_WD_LIST_STRUCT CapSense_ramWidgetInit =
 359:Generated_Source\PSoC4/CapSense_Structure.c **** {
 360:Generated_Source\PSoC4/CapSense_Structure.c ****     { /* Touchpad0 */
 361:Generated_Source\PSoC4/CapSense_Structure.c ****         CapSense_TOUCHPAD0_CRC,
 362:Generated_Source\PSoC4/CapSense_Structure.c ****         CapSense_TOUCHPAD0_RESOLUTION,
 363:Generated_Source\PSoC4/CapSense_Structure.c ****         CapSense_TOUCHPAD0_FINGER_TH,
 364:Generated_Source\PSoC4/CapSense_Structure.c ****         CapSense_TOUCHPAD0_NOISE_TH,
 365:Generated_Source\PSoC4/CapSense_Structure.c ****         CapSense_TOUCHPAD0_NNOISE_TH,
 366:Generated_Source\PSoC4/CapSense_Structure.c ****         CapSense_TOUCHPAD0_HYSTERESIS,
 367:Generated_Source\PSoC4/CapSense_Structure.c ****         CapSense_TOUCHPAD0_ON_DEBOUNCE,
 368:Generated_Source\PSoC4/CapSense_Structure.c ****         CapSense_TOUCHPAD0_LOW_BSLN_RST,
 369:Generated_Source\PSoC4/CapSense_Structure.c ****         CapSense_TOUCHPAD0_IDAC_GAIN_INDEX,
 370:Generated_Source\PSoC4/CapSense_Structure.c ****         CapSense_TOUCHPAD0_SNS_CLK,
 371:Generated_Source\PSoC4/CapSense_Structure.c ****         CapSense_TOUCHPAD0_SNS_CLK_SOURCE,
 372:Generated_Source\PSoC4/CapSense_Structure.c ****         CapSense_TOUCHPAD0_VELOCITY,
 373:Generated_Source\PSoC4/CapSense_Structure.c ****         {
ARM GAS  C:\Users\YUANFA~1\AppData\Local\Temp\cc9Xhnxa.s 			page 8


 374:Generated_Source\PSoC4/CapSense_Structure.c ****             {
 375:Generated_Source\PSoC4/CapSense_Structure.c ****                 CapSense_TOUCHPAD0_TOUCH0_X,
 376:Generated_Source\PSoC4/CapSense_Structure.c ****                 CapSense_TOUCHPAD0_TOUCH0_Y,
 377:Generated_Source\PSoC4/CapSense_Structure.c ****                 CapSense_TOUCHPAD0_TOUCH0_Z,
 378:Generated_Source\PSoC4/CapSense_Structure.c ****                 CapSense_TOUCHPAD0_TOUCH0_ID,
 379:Generated_Source\PSoC4/CapSense_Structure.c ****             },
 380:Generated_Source\PSoC4/CapSense_Structure.c ****         },
 381:Generated_Source\PSoC4/CapSense_Structure.c ****     },
 382:Generated_Source\PSoC4/CapSense_Structure.c **** };
 383:Generated_Source\PSoC4/CapSense_Structure.c **** 
 384:Generated_Source\PSoC4/CapSense_Structure.c **** 
 385:Generated_Source\PSoC4/CapSense_Structure.c **** /* IDAC Initialization Data */
 386:Generated_Source\PSoC4/CapSense_Structure.c **** const uint8 CapSense_ramIdacInit[CapSense_TOTAL_SENSORS] =
 387:Generated_Source\PSoC4/CapSense_Structure.c **** {
 388:Generated_Source\PSoC4/CapSense_Structure.c ****     /* Touchpad0 */
 389:Generated_Source\PSoC4/CapSense_Structure.c ****     CapSense_TOUCHPAD0_RX0_TX0_IDAC_COMP0,
 390:Generated_Source\PSoC4/CapSense_Structure.c ****     CapSense_TOUCHPAD0_RX0_TX1_IDAC_COMP0,
 391:Generated_Source\PSoC4/CapSense_Structure.c ****     CapSense_TOUCHPAD0_RX0_TX2_IDAC_COMP0,
 392:Generated_Source\PSoC4/CapSense_Structure.c ****     CapSense_TOUCHPAD0_RX1_TX0_IDAC_COMP0,
 393:Generated_Source\PSoC4/CapSense_Structure.c ****     CapSense_TOUCHPAD0_RX1_TX1_IDAC_COMP0,
 394:Generated_Source\PSoC4/CapSense_Structure.c ****     CapSense_TOUCHPAD0_RX1_TX2_IDAC_COMP0,
 395:Generated_Source\PSoC4/CapSense_Structure.c ****     CapSense_TOUCHPAD0_RX2_TX0_IDAC_COMP0,
 396:Generated_Source\PSoC4/CapSense_Structure.c ****     CapSense_TOUCHPAD0_RX2_TX1_IDAC_COMP0,
 397:Generated_Source\PSoC4/CapSense_Structure.c ****     CapSense_TOUCHPAD0_RX2_TX2_IDAC_COMP0,
 398:Generated_Source\PSoC4/CapSense_Structure.c ****     CapSense_TOUCHPAD0_RX3_TX0_IDAC_COMP0,
 399:Generated_Source\PSoC4/CapSense_Structure.c ****     CapSense_TOUCHPAD0_RX3_TX1_IDAC_COMP0,
 400:Generated_Source\PSoC4/CapSense_Structure.c ****     CapSense_TOUCHPAD0_RX3_TX2_IDAC_COMP0,
 401:Generated_Source\PSoC4/CapSense_Structure.c ****     CapSense_TOUCHPAD0_RX4_TX0_IDAC_COMP0,
 402:Generated_Source\PSoC4/CapSense_Structure.c ****     CapSense_TOUCHPAD0_RX4_TX1_IDAC_COMP0,
 403:Generated_Source\PSoC4/CapSense_Structure.c ****     CapSense_TOUCHPAD0_RX4_TX2_IDAC_COMP0,
 404:Generated_Source\PSoC4/CapSense_Structure.c ****     CapSense_TOUCHPAD0_RX5_TX0_IDAC_COMP0,
 405:Generated_Source\PSoC4/CapSense_Structure.c ****     CapSense_TOUCHPAD0_RX5_TX1_IDAC_COMP0,
 406:Generated_Source\PSoC4/CapSense_Structure.c ****     CapSense_TOUCHPAD0_RX5_TX2_IDAC_COMP0,
 407:Generated_Source\PSoC4/CapSense_Structure.c ****     CapSense_TOUCHPAD0_RX6_TX0_IDAC_COMP0,
 408:Generated_Source\PSoC4/CapSense_Structure.c ****     CapSense_TOUCHPAD0_RX6_TX1_IDAC_COMP0,
 409:Generated_Source\PSoC4/CapSense_Structure.c ****     CapSense_TOUCHPAD0_RX6_TX2_IDAC_COMP0,
 410:Generated_Source\PSoC4/CapSense_Structure.c ****     CapSense_TOUCHPAD0_RX7_TX0_IDAC_COMP0,
 411:Generated_Source\PSoC4/CapSense_Structure.c ****     CapSense_TOUCHPAD0_RX7_TX1_IDAC_COMP0,
 412:Generated_Source\PSoC4/CapSense_Structure.c ****     CapSense_TOUCHPAD0_RX7_TX2_IDAC_COMP0,
 413:Generated_Source\PSoC4/CapSense_Structure.c ****     CapSense_TOUCHPAD0_RX8_TX0_IDAC_COMP0,
 414:Generated_Source\PSoC4/CapSense_Structure.c ****     CapSense_TOUCHPAD0_RX8_TX1_IDAC_COMP0,
 415:Generated_Source\PSoC4/CapSense_Structure.c ****     CapSense_TOUCHPAD0_RX8_TX2_IDAC_COMP0,
 416:Generated_Source\PSoC4/CapSense_Structure.c ****     CapSense_TOUCHPAD0_RX9_TX0_IDAC_COMP0,
 417:Generated_Source\PSoC4/CapSense_Structure.c ****     CapSense_TOUCHPAD0_RX9_TX1_IDAC_COMP0,
 418:Generated_Source\PSoC4/CapSense_Structure.c ****     CapSense_TOUCHPAD0_RX9_TX2_IDAC_COMP0,
 419:Generated_Source\PSoC4/CapSense_Structure.c ****     CapSense_TOUCHPAD0_RX10_TX0_IDAC_COMP0,
 420:Generated_Source\PSoC4/CapSense_Structure.c ****     CapSense_TOUCHPAD0_RX10_TX1_IDAC_COMP0,
 421:Generated_Source\PSoC4/CapSense_Structure.c ****     CapSense_TOUCHPAD0_RX10_TX2_IDAC_COMP0,
 422:Generated_Source\PSoC4/CapSense_Structure.c ****     CapSense_TOUCHPAD0_RX11_TX0_IDAC_COMP0,
 423:Generated_Source\PSoC4/CapSense_Structure.c ****     CapSense_TOUCHPAD0_RX11_TX1_IDAC_COMP0,
 424:Generated_Source\PSoC4/CapSense_Structure.c ****     CapSense_TOUCHPAD0_RX11_TX2_IDAC_COMP0,
 425:Generated_Source\PSoC4/CapSense_Structure.c ****     CapSense_TOUCHPAD0_RX12_TX0_IDAC_COMP0,
 426:Generated_Source\PSoC4/CapSense_Structure.c ****     CapSense_TOUCHPAD0_RX12_TX1_IDAC_COMP0,
 427:Generated_Source\PSoC4/CapSense_Structure.c ****     CapSense_TOUCHPAD0_RX12_TX2_IDAC_COMP0,
 428:Generated_Source\PSoC4/CapSense_Structure.c ****     CapSense_TOUCHPAD0_RX13_TX0_IDAC_COMP0,
 429:Generated_Source\PSoC4/CapSense_Structure.c ****     CapSense_TOUCHPAD0_RX13_TX1_IDAC_COMP0,
 430:Generated_Source\PSoC4/CapSense_Structure.c ****     CapSense_TOUCHPAD0_RX13_TX2_IDAC_COMP0,
ARM GAS  C:\Users\YUANFA~1\AppData\Local\Temp\cc9Xhnxa.s 			page 9


 431:Generated_Source\PSoC4/CapSense_Structure.c ****     CapSense_TOUCHPAD0_RX14_TX0_IDAC_COMP0,
 432:Generated_Source\PSoC4/CapSense_Structure.c ****     CapSense_TOUCHPAD0_RX14_TX1_IDAC_COMP0,
 433:Generated_Source\PSoC4/CapSense_Structure.c ****     CapSense_TOUCHPAD0_RX14_TX2_IDAC_COMP0,
 434:Generated_Source\PSoC4/CapSense_Structure.c **** };
 435:Generated_Source\PSoC4/CapSense_Structure.c **** 
 436:Generated_Source\PSoC4/CapSense_Structure.c **** 
 437:Generated_Source\PSoC4/CapSense_Structure.c **** 
 438:Generated_Source\PSoC4/CapSense_Structure.c **** 
 439:Generated_Source\PSoC4/CapSense_Structure.c **** 
 440:Generated_Source\PSoC4/CapSense_Structure.c **** /*******************************************************************************
 441:Generated_Source\PSoC4/CapSense_Structure.c **** * Defines internal data types and statements
 442:Generated_Source\PSoC4/CapSense_Structure.c **** *******************************************************************************/
 443:Generated_Source\PSoC4/CapSense_Structure.c **** #define PARAM_TYPE_OFFSET       (30u)
 444:Generated_Source\PSoC4/CapSense_Structure.c **** #define PARAM_TYPE_MASK         (3Lu << PARAM_TYPE_OFFSET)
 445:Generated_Source\PSoC4/CapSense_Structure.c **** #define PARAM_RWBIT_OFFSET      (29u)
 446:Generated_Source\PSoC4/CapSense_Structure.c **** #define PARAM_RWBIT_MASK        (1Lu << PARAM_RWBIT_OFFSET)
 447:Generated_Source\PSoC4/CapSense_Structure.c **** #define PARAM_FBIT_OFFSET       (28u)
 448:Generated_Source\PSoC4/CapSense_Structure.c **** #define PARAM_FBIT_MASK         (1Lu << PARAM_FBIT_OFFSET)
 449:Generated_Source\PSoC4/CapSense_Structure.c **** #define PARAM_UBIT_OFFSET       (23u)
 450:Generated_Source\PSoC4/CapSense_Structure.c **** #define PARAM_UBIT_MASK         (1Lu << PARAM_UBIT_OFFSET)
 451:Generated_Source\PSoC4/CapSense_Structure.c **** #define PARAM_WDID_OFFSET       (16u)
 452:Generated_Source\PSoC4/CapSense_Structure.c **** #define PARAM_WDID_MASK         (0x7FLu << PARAM_WDID_OFFSET)
 453:Generated_Source\PSoC4/CapSense_Structure.c **** #define PARAM_CRC_OFFSET        (24u)
 454:Generated_Source\PSoC4/CapSense_Structure.c **** #define PARAM_CRC_MASK          (0x0FLu << PARAM_CRC_OFFSET)
 455:Generated_Source\PSoC4/CapSense_Structure.c **** 
 456:Generated_Source\PSoC4/CapSense_Structure.c **** /* Defines align masks for uint16 and uint32 */
 457:Generated_Source\PSoC4/CapSense_Structure.c **** #define UINT16_ALIGN_MASK       (1Lu)
 458:Generated_Source\PSoC4/CapSense_Structure.c **** #define UINT32_ALIGN_MASK       (3Lu)
 459:Generated_Source\PSoC4/CapSense_Structure.c **** 
 460:Generated_Source\PSoC4/CapSense_Structure.c **** /* Defines supported parameter types */
 461:Generated_Source\PSoC4/CapSense_Structure.c **** #define DS_PARAM_TYPE_UINT8     (0x01u)
 462:Generated_Source\PSoC4/CapSense_Structure.c **** #define DS_PARAM_TYPE_UINT16    (0x02u)
 463:Generated_Source\PSoC4/CapSense_Structure.c **** #define DS_PARAM_TYPE_UINT32    (0x03u)
 464:Generated_Source\PSoC4/CapSense_Structure.c **** 
 465:Generated_Source\PSoC4/CapSense_Structure.c **** 
 466:Generated_Source\PSoC4/CapSense_Structure.c **** /* Defines PARAM_ID structure */
 467:Generated_Source\PSoC4/CapSense_Structure.c **** typedef struct
 468:Generated_Source\PSoC4/CapSense_Structure.c **** {
 469:Generated_Source\PSoC4/CapSense_Structure.c ****     uint16 offset;      /* parameter offset */
 470:Generated_Source\PSoC4/CapSense_Structure.c ****     uint8  widgetId;    /* widget Id parameter belongs to */
 471:Generated_Source\PSoC4/CapSense_Structure.c ****     uint8  affectsCrc;  /* parameter affects widget CRC */
 472:Generated_Source\PSoC4/CapSense_Structure.c ****     uint8  crc;         /* parameter CRC */
 473:Generated_Source\PSoC4/CapSense_Structure.c ****     uint8  flash;       /* parameter located in FLASH flag */
 474:Generated_Source\PSoC4/CapSense_Structure.c ****     uint8  rw;          /* parameter is read/write flag */
 475:Generated_Source\PSoC4/CapSense_Structure.c ****     uint8  type;        /* parameter type: uint8/uint16/uint32 */
 476:Generated_Source\PSoC4/CapSense_Structure.c **** } PARAM_ID_STRUCT;
 477:Generated_Source\PSoC4/CapSense_Structure.c **** 
 478:Generated_Source\PSoC4/CapSense_Structure.c **** 
 479:Generated_Source\PSoC4/CapSense_Structure.c **** /*******************************************************************************
 480:Generated_Source\PSoC4/CapSense_Structure.c **** * Static Function Prototypes
 481:Generated_Source\PSoC4/CapSense_Structure.c **** *******************************************************************************/
 482:Generated_Source\PSoC4/CapSense_Structure.c **** /**
 483:Generated_Source\PSoC4/CapSense_Structure.c **** * \cond SECTION_C_INTERNAL
 484:Generated_Source\PSoC4/CapSense_Structure.c **** * \addtogroup group_c_internal
 485:Generated_Source\PSoC4/CapSense_Structure.c **** * \{
 486:Generated_Source\PSoC4/CapSense_Structure.c **** */
 487:Generated_Source\PSoC4/CapSense_Structure.c **** 
ARM GAS  C:\Users\YUANFA~1\AppData\Local\Temp\cc9Xhnxa.s 			page 10


 488:Generated_Source\PSoC4/CapSense_Structure.c **** 
 489:Generated_Source\PSoC4/CapSense_Structure.c **** /* Ext Cap Mapping Data */
 490:Generated_Source\PSoC4/CapSense_Structure.c **** const uint8 CapSense_extCapMap[CapSense_TST_EXT_CAPS_NUM] =
 491:Generated_Source\PSoC4/CapSense_Structure.c **** {
 492:Generated_Source\PSoC4/CapSense_Structure.c ****     CapSense_TST_CINTA_MAP,
 493:Generated_Source\PSoC4/CapSense_Structure.c ****     CapSense_TST_CINTB_MAP,
 494:Generated_Source\PSoC4/CapSense_Structure.c **** };
 495:Generated_Source\PSoC4/CapSense_Structure.c **** 
 496:Generated_Source\PSoC4/CapSense_Structure.c **** 
 497:Generated_Source\PSoC4/CapSense_Structure.c **** static cystatus DsParseParamId(uint32 paramId, PARAM_ID_STRUCT *pData);
 498:Generated_Source\PSoC4/CapSense_Structure.c **** 
 499:Generated_Source\PSoC4/CapSense_Structure.c **** /** \}
 500:Generated_Source\PSoC4/CapSense_Structure.c **** * \endcond */
 501:Generated_Source\PSoC4/CapSense_Structure.c **** 
 502:Generated_Source\PSoC4/CapSense_Structure.c **** 
 503:Generated_Source\PSoC4/CapSense_Structure.c **** /*******************************************************************************
 504:Generated_Source\PSoC4/CapSense_Structure.c **** * Function Name: CapSense_DsInitialize
 505:Generated_Source\PSoC4/CapSense_Structure.c **** ****************************************************************************//**
 506:Generated_Source\PSoC4/CapSense_Structure.c **** *
 507:Generated_Source\PSoC4/CapSense_Structure.c **** * \brief
 508:Generated_Source\PSoC4/CapSense_Structure.c **** *   This function initializes the Data Structure storage.
 509:Generated_Source\PSoC4/CapSense_Structure.c **** *
 510:Generated_Source\PSoC4/CapSense_Structure.c **** * \details
 511:Generated_Source\PSoC4/CapSense_Structure.c **** *   This function copies the default widget configuration parameters
 512:Generated_Source\PSoC4/CapSense_Structure.c **** *   from the Flash storage into the RAM Data Structure.
 513:Generated_Source\PSoC4/CapSense_Structure.c **** *
 514:Generated_Source\PSoC4/CapSense_Structure.c **** *******************************************************************************/
 515:Generated_Source\PSoC4/CapSense_Structure.c **** void CapSense_DsInitialize(void)
 516:Generated_Source\PSoC4/CapSense_Structure.c **** {
 517:Generated_Source\PSoC4/CapSense_Structure.c ****     #if ((CapSense_ENABLE == CapSense_CSX_EN) || \
 518:Generated_Source\PSoC4/CapSense_Structure.c ****          (CapSense_ENABLE == CapSense_CSD_IDAC_COMP_EN) || \
 519:Generated_Source\PSoC4/CapSense_Structure.c ****         ((CapSense_ENABLE == CapSense_CSX_EN) && \
 520:Generated_Source\PSoC4/CapSense_Structure.c ****          (CapSense_ENABLE == CapSense_CSX_SKIP_OVSMPL_SPECIFIC_NODES)))
 521:Generated_Source\PSoC4/CapSense_Structure.c ****         uint32 snsId;
 522:Generated_Source\PSoC4/CapSense_Structure.c ****         uint32 wdgtId;
 523:Generated_Source\PSoC4/CapSense_Structure.c ****         CapSense_RAM_SNS_STRUCT * ptrSnsTmp;
 524:Generated_Source\PSoC4/CapSense_Structure.c ****         CapSense_FLASH_WD_STRUCT const * ptrFlashWdgt;
 525:Generated_Source\PSoC4/CapSense_Structure.c ****     #endif
 526:Generated_Source\PSoC4/CapSense_Structure.c **** 
 527:Generated_Source\PSoC4/CapSense_Structure.c ****     #if ((CapSense_ENABLE == CapSense_CSX_EN) && \
 528:Generated_Source\PSoC4/CapSense_Structure.c ****          (CapSense_ENABLE == CapSense_CSX_SKIP_OVSMPL_SPECIFIC_NODES))
 529:Generated_Source\PSoC4/CapSense_Structure.c ****         uint16 subConvNumber;
 530:Generated_Source\PSoC4/CapSense_Structure.c ****     #endif
 531:Generated_Source\PSoC4/CapSense_Structure.c **** 
 532:Generated_Source\PSoC4/CapSense_Structure.c ****     #if ((0u != CapSense_CSX_EN) || (0 != CapSense_CSD_IDAC_COMP_EN))
 533:Generated_Source\PSoC4/CapSense_Structure.c ****         uint8 const * ptrIdacInit = CapSense_ramIdacInit;
 534:Generated_Source\PSoC4/CapSense_Structure.c ****     #endif
 535:Generated_Source\PSoC4/CapSense_Structure.c **** 
 536:Generated_Source\PSoC4/CapSense_Structure.c ****     /* Reset RAM data structure content */
 537:Generated_Source\PSoC4/CapSense_Structure.c ****     (void)memset(&CapSense_dsRam, 0, sizeof(CapSense_dsRam));
 538:Generated_Source\PSoC4/CapSense_Structure.c **** 
 539:Generated_Source\PSoC4/CapSense_Structure.c ****     /* Initialize configId, deviceId and hwClock registers */
 540:Generated_Source\PSoC4/CapSense_Structure.c ****     CapSense_dsRam.configId = CapSense_CONFIG_ID;
 541:Generated_Source\PSoC4/CapSense_Structure.c ****     CapSense_dsRam.deviceId = CapSense_DEVICE_ID;
 542:Generated_Source\PSoC4/CapSense_Structure.c ****     CapSense_dsRam.hwClock = CapSense_HW_CLOCK;
 543:Generated_Source\PSoC4/CapSense_Structure.c **** 
 544:Generated_Source\PSoC4/CapSense_Structure.c ****     /* Initialize global RAM data */
ARM GAS  C:\Users\YUANFA~1\AppData\Local\Temp\cc9Xhnxa.s 			page 11


 545:Generated_Source\PSoC4/CapSense_Structure.c ****     CapSense_dsRam.csd0Config = CapSense_CSD0_CONFIG;
 546:Generated_Source\PSoC4/CapSense_Structure.c **** 
 547:Generated_Source\PSoC4/CapSense_Structure.c ****     CapSense_dsRam.scanCurrentISC = CapSense_SNS_CONNECTION_UNDEFINED;
 548:Generated_Source\PSoC4/CapSense_Structure.c ****     #if (0u != CapSense_TOTAL_CSD_WIDGETS)
 549:Generated_Source\PSoC4/CapSense_Structure.c ****         CapSense_dsRam.modCsdClk = CapSense_CSD_SCANSPEED_DIVIDER;
 550:Generated_Source\PSoC4/CapSense_Structure.c ****         CapSense_dsRam.scanCsdISC = CapSense_CSD_INACTIVE_SNS_CONNECTION;
 551:Generated_Source\PSoC4/CapSense_Structure.c **** 
 552:Generated_Source\PSoC4/CapSense_Structure.c ****         #if (0u != CapSense_CSD_COMMON_SNS_CLK_EN)
 553:Generated_Source\PSoC4/CapSense_Structure.c ****             CapSense_dsRam.snsCsdClk = CapSense_CSD_SNS_CLK_DIVIDER;
 554:Generated_Source\PSoC4/CapSense_Structure.c ****         #endif /* #if (0u != CapSense_CSD_COMMON_SNS_CLK_EN) */
 555:Generated_Source\PSoC4/CapSense_Structure.c ****     #endif /* #if (0u != CapSense_TOTAL_CSD_WIDGETS) */
 556:Generated_Source\PSoC4/CapSense_Structure.c **** 
 557:Generated_Source\PSoC4/CapSense_Structure.c ****     #if (CapSense_ENABLE == CapSense_CSX_EN)
 558:Generated_Source\PSoC4/CapSense_Structure.c ****         CapSense_dsRam.modCsxClk = CapSense_CSX_SCANSPEED_DIVIDER;
 559:Generated_Source\PSoC4/CapSense_Structure.c ****         CapSense_dsRam.scanCsxISC = CapSense_CSX_INACTIVE_SNS_CONNECTION;
 560:Generated_Source\PSoC4/CapSense_Structure.c **** 
 561:Generated_Source\PSoC4/CapSense_Structure.c ****         #if (0u != CapSense_CSX_COMMON_TX_CLK_EN)
 562:Generated_Source\PSoC4/CapSense_Structure.c ****             CapSense_dsRam.snsCsxClk = CapSense_CSX_TX_CLK_DIVIDER;
 563:Generated_Source\PSoC4/CapSense_Structure.c ****         #endif /* #if (0u != CapSense_CSX_COMMON_TX_CLK_EN) */
 564:Generated_Source\PSoC4/CapSense_Structure.c ****     #endif /* #if (CapSense_ENABLE == CapSense_CSX_EN) */
 565:Generated_Source\PSoC4/CapSense_Structure.c **** 
 566:Generated_Source\PSoC4/CapSense_Structure.c ****     #if (CapSense_ENABLE == CapSense_ISX_EN)
 567:Generated_Source\PSoC4/CapSense_Structure.c ****         CapSense_dsRam.modIsxClk = CapSense_ISX_SCANSPEED_DIVIDER;
 568:Generated_Source\PSoC4/CapSense_Structure.c ****     #endif /* #if (0u != CapSense_ISX_EN) */
 569:Generated_Source\PSoC4/CapSense_Structure.c **** 
 570:Generated_Source\PSoC4/CapSense_Structure.c ****     #if (0u != CapSense_SELF_TEST_EN)
 571:Generated_Source\PSoC4/CapSense_Structure.c **** 
 572:Generated_Source\PSoC4/CapSense_Structure.c ****         CapSense_dsRam.glbCrc = CapSense_GLB_CRC;
 573:Generated_Source\PSoC4/CapSense_Structure.c ****         CapSense_dsRam.selfTestConfig.fineInitTime = (uint8)CapSense_TST_FINE_INIT_TIME;
 574:Generated_Source\PSoC4/CapSense_Structure.c ****         CapSense_dsRam.selfTestConfig.startupDelay = CapSense_TST_ANALOG_STARTUP_DELAY_US;
 575:Generated_Source\PSoC4/CapSense_Structure.c **** 
 576:Generated_Source\PSoC4/CapSense_Structure.c ****         #if (0u != CapSense_TST_SNS_SHORT_EN)
 577:Generated_Source\PSoC4/CapSense_Structure.c ****             CapSense_dsRam.selfTestConfig.snsShortTimeUs = CapSense_TST_SNS_SHORT_TIME;
 578:Generated_Source\PSoC4/CapSense_Structure.c ****         #endif
 579:Generated_Source\PSoC4/CapSense_Structure.c **** 
 580:Generated_Source\PSoC4/CapSense_Structure.c ****         #if ((0u != CapSense_TST_SNS_CAP_EN) ||\
 581:Generated_Source\PSoC4/CapSense_Structure.c ****              (0u != CapSense_TST_SH_CAP_EN))
 582:Generated_Source\PSoC4/CapSense_Structure.c ****             CapSense_dsRam.selfTestConfig.snsCapSnsClkDivider = CapSense_TST_SNS_CAP_SNS_CLK_DIVIDE
 583:Generated_Source\PSoC4/CapSense_Structure.c ****             CapSense_dsRam.selfTestConfig.snsCapSnsClkHz = CapSense_TST_SNS_CAP_SNS_CLK_HZ;
 584:Generated_Source\PSoC4/CapSense_Structure.c ****             CapSense_dsRam.selfTestConfig.snsCapResolution = CapSense_TST_SNS_CAP_RESOLUTION;
 585:Generated_Source\PSoC4/CapSense_Structure.c ****             CapSense_dsRam.selfTestConfig.snsCapVrefGain = CapSense_TST_SNS_CAP_VREF_GAIN ;
 586:Generated_Source\PSoC4/CapSense_Structure.c ****             CapSense_dsRam.selfTestConfig.snsCapVrefVoltage = CapSense_TST_SNS_CAP_VREF_MV;
 587:Generated_Source\PSoC4/CapSense_Structure.c ****             CapSense_dsRam.selfTestConfig.snsCapModClkDivider = CapSense_TST_MOD_CLK_DIVIDER ;
 588:Generated_Source\PSoC4/CapSense_Structure.c ****             CapSense_dsRam.selfTestConfig.snsCapModClkKHz = CapSense_TST_MOD_CLK_KHZ ;
 589:Generated_Source\PSoC4/CapSense_Structure.c ****         #endif /* ((0u != CapSense_TST_SNS_CAP_EN) ||
 590:Generated_Source\PSoC4/CapSense_Structure.c ****                    (0u != CapSense_TST_SH_CAP_EN)) */
 591:Generated_Source\PSoC4/CapSense_Structure.c **** 
 592:Generated_Source\PSoC4/CapSense_Structure.c ****         #if (0u != CapSense_TST_SNS_CAP_EN)
 593:Generated_Source\PSoC4/CapSense_Structure.c ****             #if (0u != CapSense_CSD_EN)
 594:Generated_Source\PSoC4/CapSense_Structure.c ****                 CapSense_dsRam.selfTestConfig.bistCsdSnsCapISC = CapSense_SNS_CAP_CSD_INACTIVE_CONN
 595:Generated_Source\PSoC4/CapSense_Structure.c ****             #endif /* (0u != CapSense_CSD_EN) */
 596:Generated_Source\PSoC4/CapSense_Structure.c ****             #if (0u != CapSense_CSX_EN)
 597:Generated_Source\PSoC4/CapSense_Structure.c ****                 CapSense_dsRam.selfTestConfig.bistCsxSnsCapISC = CapSense_SNS_CAP_CSX_INACTIVE_CONN
 598:Generated_Source\PSoC4/CapSense_Structure.c ****             #endif /* (0u != CapSense_CSX_EN) */
 599:Generated_Source\PSoC4/CapSense_Structure.c ****         #endif /* (0u != CapSense_TST_SNS_CAP_EN) */
 600:Generated_Source\PSoC4/CapSense_Structure.c **** 
 601:Generated_Source\PSoC4/CapSense_Structure.c ****         #if (0u != CapSense_TST_SH_CAP_EN)
ARM GAS  C:\Users\YUANFA~1\AppData\Local\Temp\cc9Xhnxa.s 			page 12


 602:Generated_Source\PSoC4/CapSense_Structure.c ****             #if ((0u != CapSense_CSD_EN) && (0u != CapSense_CSD_SHIELD_EN))
 603:Generated_Source\PSoC4/CapSense_Structure.c ****                 CapSense_dsRam.selfTestConfig.bistCsdShCapISC = CapSense_SHIELD_CAP_INACTIVE_CONNEC
 604:Generated_Source\PSoC4/CapSense_Structure.c ****             #endif /* ((0u != CapSense_CSD_EN) && (0u != CapSense_CSD_SHIELD_EN)) */
 605:Generated_Source\PSoC4/CapSense_Structure.c ****         #endif /* (0u != CapSense_TST_SH_CAP_EN) */
 606:Generated_Source\PSoC4/CapSense_Structure.c **** 
 607:Generated_Source\PSoC4/CapSense_Structure.c ****         #if (0u != CapSense_TST_EXTERNAL_CAP_EN)
 608:Generated_Source\PSoC4/CapSense_Structure.c ****             CapSense_dsRam.selfTestConfig.extCapVrefGain = CapSense_TST_EXT_CAP_VREF_GAIN;
 609:Generated_Source\PSoC4/CapSense_Structure.c ****             CapSense_dsRam.selfTestConfig.extCapVrefVoltage = CapSense_TST_EXT_CAP_VREF_MV;
 610:Generated_Source\PSoC4/CapSense_Structure.c ****         #endif /* #if (0u != CapSense_TST_EXTERNAL_CAP_EN) */
 611:Generated_Source\PSoC4/CapSense_Structure.c **** 
 612:Generated_Source\PSoC4/CapSense_Structure.c ****         #if (0u != CapSense_TST_VDDA_EN)
 613:Generated_Source\PSoC4/CapSense_Structure.c ****             CapSense_dsRam.selfTestConfig.vddaResolution = CapSense_TST_VDDA_RESOLUTION;
 614:Generated_Source\PSoC4/CapSense_Structure.c ****             CapSense_dsRam.selfTestConfig.vddaModClkDivider = CapSense_TST_VDDA_MOD_CLK_DIVIDER;
 615:Generated_Source\PSoC4/CapSense_Structure.c **** 
 616:Generated_Source\PSoC4/CapSense_Structure.c ****             CapSense_dsRam.selfTestConfig.vddaVrefGain = CapSense_TST_VDDA_VREF_GAIN;
 617:Generated_Source\PSoC4/CapSense_Structure.c ****             CapSense_dsRam.selfTestConfig.vddaVrefVoltage = CapSense_TST_VDDA_VREF_MV;
 618:Generated_Source\PSoC4/CapSense_Structure.c ****         #endif /* #if (0u != CapSense_TST_VDDA_EN) */
 619:Generated_Source\PSoC4/CapSense_Structure.c **** 
 620:Generated_Source\PSoC4/CapSense_Structure.c ****     #endif /* #if (0u != CapSense_SELF_TEST_EN) */
 621:Generated_Source\PSoC4/CapSense_Structure.c **** 
 622:Generated_Source\PSoC4/CapSense_Structure.c ****     /* Initialize RAM widget data */
 623:Generated_Source\PSoC4/CapSense_Structure.c ****     CapSense_dsRam.wdgtList = CapSense_ramWidgetInit;
 624:Generated_Source\PSoC4/CapSense_Structure.c **** 
 625:Generated_Source\PSoC4/CapSense_Structure.c ****     /* Initialize Gesture configuration structure */
 626:Generated_Source\PSoC4/CapSense_Structure.c ****     #if ((0u != CapSense_GES_GLOBAL_EN) || (0u != CapSense_BALLISTIC_MULTIPLIER_EN))
 627:Generated_Source\PSoC4/CapSense_Structure.c ****         CapSense_dsRam.timestampInterval = CapSense_TIMESTAMP_INTERVAL;
 628:Generated_Source\PSoC4/CapSense_Structure.c ****     #endif /* ((0u != CapSense_GES_GLOBAL_EN) || (0u != CapSense_BALLISTIC_MULTIPLIER_EN)) */
 629:Generated_Source\PSoC4/CapSense_Structure.c **** 
 630:Generated_Source\PSoC4/CapSense_Structure.c ****     #if (0u != CapSense_GES_GLOBAL_EN)
 631:Generated_Source\PSoC4/CapSense_Structure.c ****         CapSense_dsRam.gestures = CapSense_ramGesturesInit;
 632:Generated_Source\PSoC4/CapSense_Structure.c ****     #endif /* (0u != CapSense_GES_GLOBAL_EN) */
 633:Generated_Source\PSoC4/CapSense_Structure.c **** 
 634:Generated_Source\PSoC4/CapSense_Structure.c ****     #if (0u != CapSense_BALLISTIC_MULTIPLIER_EN)
 635:Generated_Source\PSoC4/CapSense_Structure.c ****         CapSense_dsRam.ballisticConfig = CapSense_ramBallisticInit;
 636:Generated_Source\PSoC4/CapSense_Structure.c ****     #endif /* (0u != CapSense_BALLISTIC_MULTIPLIER_EN) */
 637:Generated_Source\PSoC4/CapSense_Structure.c **** 
 638:Generated_Source\PSoC4/CapSense_Structure.c ****     #if (0u != CapSense_CSX_EN) || (0 != CapSense_CSD_IDAC_COMP_EN)
 639:Generated_Source\PSoC4/CapSense_Structure.c ****         /* Initialize IDAC data */
 640:Generated_Source\PSoC4/CapSense_Structure.c ****         ptrFlashWdgt = CapSense_dsFlash.wdgtArray;
 641:Generated_Source\PSoC4/CapSense_Structure.c **** 
 642:Generated_Source\PSoC4/CapSense_Structure.c ****         for (wdgtId = CapSense_TOTAL_WIDGETS; wdgtId-- > 0u; )
 643:Generated_Source\PSoC4/CapSense_Structure.c ****         {
 644:Generated_Source\PSoC4/CapSense_Structure.c ****             ptrSnsTmp = ptrFlashWdgt->ptr2SnsRam;
 645:Generated_Source\PSoC4/CapSense_Structure.c **** 
 646:Generated_Source\PSoC4/CapSense_Structure.c ****             for (snsId = CapSense_GET_SNS_CNT_BY_PTR(ptrFlashWdgt); snsId-- > 0u;)
 647:Generated_Source\PSoC4/CapSense_Structure.c ****             {
 648:Generated_Source\PSoC4/CapSense_Structure.c ****                 ptrSnsTmp->idacComp[0u] = *ptrIdacInit;
 649:Generated_Source\PSoC4/CapSense_Structure.c ****                 ptrIdacInit++;
 650:Generated_Source\PSoC4/CapSense_Structure.c **** 
 651:Generated_Source\PSoC4/CapSense_Structure.c ****                 #if (0u != CapSense_MULTI_FREQ_SCAN_EN)
 652:Generated_Source\PSoC4/CapSense_Structure.c ****                     ptrSnsTmp->idacComp[1u] = *ptrIdacInit;
 653:Generated_Source\PSoC4/CapSense_Structure.c ****                     ptrIdacInit++;
 654:Generated_Source\PSoC4/CapSense_Structure.c **** 
 655:Generated_Source\PSoC4/CapSense_Structure.c ****                     ptrSnsTmp->idacComp[2u] = *ptrIdacInit;
 656:Generated_Source\PSoC4/CapSense_Structure.c ****                     ptrIdacInit++;
 657:Generated_Source\PSoC4/CapSense_Structure.c ****                 #endif /* #if (0u != CapSense_MULTI_FREQ_SCAN_EN) */
 658:Generated_Source\PSoC4/CapSense_Structure.c **** 
ARM GAS  C:\Users\YUANFA~1\AppData\Local\Temp\cc9Xhnxa.s 			page 13


 659:Generated_Source\PSoC4/CapSense_Structure.c ****                 ptrSnsTmp++;
 660:Generated_Source\PSoC4/CapSense_Structure.c ****             }
 661:Generated_Source\PSoC4/CapSense_Structure.c **** 
 662:Generated_Source\PSoC4/CapSense_Structure.c ****             ptrFlashWdgt++; /* Move to next widget */
 663:Generated_Source\PSoC4/CapSense_Structure.c ****         }
 664:Generated_Source\PSoC4/CapSense_Structure.c ****     #endif /*(0u != CapSense_CSX_EN) || (0 != CapSense_CSD_IDAC_COMP_EN)*/
 665:Generated_Source\PSoC4/CapSense_Structure.c **** 
 666:Generated_Source\PSoC4/CapSense_Structure.c ****     #if ((CapSense_ENABLE == CapSense_CSX_EN) && \
 667:Generated_Source\PSoC4/CapSense_Structure.c ****          (CapSense_ENABLE == CapSense_CSX_SKIP_OVSMPL_SPECIFIC_NODES))
 668:Generated_Source\PSoC4/CapSense_Structure.c ****         /* Initialize Sub-Conversion Number for each node of each CSX widget */
 669:Generated_Source\PSoC4/CapSense_Structure.c ****         ptrFlashWdgt = CapSense_dsFlash.wdgtArray;
 670:Generated_Source\PSoC4/CapSense_Structure.c ****         for (wdgtId = CapSense_TOTAL_WIDGETS; wdgtId-- > 0u;)
 671:Generated_Source\PSoC4/CapSense_Structure.c ****         {
 672:Generated_Source\PSoC4/CapSense_Structure.c ****             /* Check for widget sense method */
 673:Generated_Source\PSoC4/CapSense_Structure.c ****             if (CapSense_SENSE_METHOD_CSX_E == CapSense_GET_SENSE_METHOD(ptrFlashWdgt))
 674:Generated_Source\PSoC4/CapSense_Structure.c ****             {
 675:Generated_Source\PSoC4/CapSense_Structure.c ****                 /* Take the sub-convesion number of a CSX widget and initialize each node of this w
 676:Generated_Source\PSoC4/CapSense_Structure.c ****                 subConvNumber = ((CapSense_RAM_WD_BASE_STRUCT *)(ptrFlashWdgt->ptr2WdgtRam))->resol
 677:Generated_Source\PSoC4/CapSense_Structure.c ****                 ptrSnsTmp = ptrFlashWdgt->ptr2SnsRam;
 678:Generated_Source\PSoC4/CapSense_Structure.c ****                 for (snsId = CapSense_GET_SNS_CNT_BY_PTR(ptrFlashWdgt); snsId-- > 0u;)
 679:Generated_Source\PSoC4/CapSense_Structure.c ****                 {
 680:Generated_Source\PSoC4/CapSense_Structure.c ****                     ptrSnsTmp->subConvNum = subConvNumber;
 681:Generated_Source\PSoC4/CapSense_Structure.c ****                     ptrSnsTmp++;
 682:Generated_Source\PSoC4/CapSense_Structure.c ****                 }
 683:Generated_Source\PSoC4/CapSense_Structure.c ****             }
 684:Generated_Source\PSoC4/CapSense_Structure.c ****             /* Move to the next widget */
 685:Generated_Source\PSoC4/CapSense_Structure.c ****             ptrFlashWdgt++;
 686:Generated_Source\PSoC4/CapSense_Structure.c ****         }
 687:Generated_Source\PSoC4/CapSense_Structure.c ****     #endif /* ((CapSense_ENABLE == CapSense_CSX_EN) && \
 688:Generated_Source\PSoC4/CapSense_Structure.c ****                (CapSense_ENABLE == CapSense_CSX_SKIP_OVSMPL_SPECIFIC_NODES)) */
 689:Generated_Source\PSoC4/CapSense_Structure.c **** 
 690:Generated_Source\PSoC4/CapSense_Structure.c ****     #if (0u != CapSense_ADC_EN)
 691:Generated_Source\PSoC4/CapSense_Structure.c ****         CapSense_AdcDsInitialize();
 692:Generated_Source\PSoC4/CapSense_Structure.c ****     #endif /* (0u != CapSense_ADC_EN) */
 693:Generated_Source\PSoC4/CapSense_Structure.c **** }
 694:Generated_Source\PSoC4/CapSense_Structure.c **** 
 695:Generated_Source\PSoC4/CapSense_Structure.c **** 
 696:Generated_Source\PSoC4/CapSense_Structure.c **** #if (0u != CapSense_ADC_EN)
 697:Generated_Source\PSoC4/CapSense_Structure.c ****     /*******************************************************************************
 698:Generated_Source\PSoC4/CapSense_Structure.c ****     * Function Name: CapSense_AdcDsInitialize
 699:Generated_Source\PSoC4/CapSense_Structure.c ****     ****************************************************************************//**
 700:Generated_Source\PSoC4/CapSense_Structure.c ****     *
 701:Generated_Source\PSoC4/CapSense_Structure.c ****     * \brief
 702:Generated_Source\PSoC4/CapSense_Structure.c ****     *   Configures the initial Adc datastructure members.
 703:Generated_Source\PSoC4/CapSense_Structure.c ****     *
 704:Generated_Source\PSoC4/CapSense_Structure.c ****     *******************************************************************************/
 705:Generated_Source\PSoC4/CapSense_Structure.c ****     void CapSense_AdcDsInitialize(void)
 706:Generated_Source\PSoC4/CapSense_Structure.c ****     {
 707:Generated_Source\PSoC4/CapSense_Structure.c ****         CapSense_dsRam.adcResolution = CapSense_ADC_RESOLUTION;
 708:Generated_Source\PSoC4/CapSense_Structure.c ****         CapSense_dsRam.adcIdac = (uint8)(CapSense_ADC_IDAC_DEFAULT);
 709:Generated_Source\PSoC4/CapSense_Structure.c ****         CapSense_dsRam.adcActiveCh = CapSense_AdcNO_CHANNEL;
 710:Generated_Source\PSoC4/CapSense_Structure.c ****     }
 711:Generated_Source\PSoC4/CapSense_Structure.c **** #endif /* (0u != CapSense_ADC_EN) */
 712:Generated_Source\PSoC4/CapSense_Structure.c **** 
 713:Generated_Source\PSoC4/CapSense_Structure.c **** 
 714:Generated_Source\PSoC4/CapSense_Structure.c **** /*******************************************************************************
 715:Generated_Source\PSoC4/CapSense_Structure.c **** * Function Name: DsParseParamId
ARM GAS  C:\Users\YUANFA~1\AppData\Local\Temp\cc9Xhnxa.s 			page 14


 716:Generated_Source\PSoC4/CapSense_Structure.c **** ****************************************************************************//**
 717:Generated_Source\PSoC4/CapSense_Structure.c **** *
 718:Generated_Source\PSoC4/CapSense_Structure.c **** * \brief
 719:Generated_Source\PSoC4/CapSense_Structure.c **** *   This function parses the parameter ID and checks its correctness.
 720:Generated_Source\PSoC4/CapSense_Structure.c **** *
 721:Generated_Source\PSoC4/CapSense_Structure.c **** * \details
 722:Generated_Source\PSoC4/CapSense_Structure.c **** *   This function checks the parameter CRC if the self-test is enabled,
 723:Generated_Source\PSoC4/CapSense_Structure.c **** *   validates the offset value and parameter type.
 724:Generated_Source\PSoC4/CapSense_Structure.c **** *
 725:Generated_Source\PSoC4/CapSense_Structure.c **** * \param paramId The parameter to parse.
 726:Generated_Source\PSoC4/CapSense_Structure.c **** * \param pData   The pointer to the structure that will hold parsed data.
 727:Generated_Source\PSoC4/CapSense_Structure.c **** *
 728:Generated_Source\PSoC4/CapSense_Structure.c **** * \return CYRET_SUCCESS     If the parameter is valid
 729:Generated_Source\PSoC4/CapSense_Structure.c **** *         CYRET_BAD_PARAM   If the parameter is invalid
 730:Generated_Source\PSoC4/CapSense_Structure.c **** *
 731:Generated_Source\PSoC4/CapSense_Structure.c **** *******************************************************************************/
 732:Generated_Source\PSoC4/CapSense_Structure.c **** static cystatus DsParseParamId(uint32 paramId, PARAM_ID_STRUCT *pData)
 733:Generated_Source\PSoC4/CapSense_Structure.c **** {
  27              		.loc 1 733 0
  28              		.cfi_startproc
  29              		@ args = 0, pretend = 0, frame = 16
  30              		@ frame_needed = 0, uses_anonymous_args = 0
  31              	.LVL0:
  32 0000 F0B5     		push	{r4, r5, r6, r7, lr}
  33              		.cfi_def_cfa_offset 20
  34              		.cfi_offset 4, -20
  35              		.cfi_offset 5, -16
  36              		.cfi_offset 6, -12
  37              		.cfi_offset 7, -8
  38              		.cfi_offset 14, -4
  39 0002 4746     		mov	r7, r8
  40 0004 80B4     		push	{r7}
  41              		.cfi_def_cfa_offset 24
  42              		.cfi_offset 8, -24
  43 0006 84B0     		sub	sp, sp, #16
  44              		.cfi_def_cfa_offset 40
  45 0008 0400     		movs	r4, r0
  46 000a 0E00     		movs	r6, r1
  47              	.LVL1:
 734:Generated_Source\PSoC4/CapSense_Structure.c ****     cystatus result = CYRET_SUCCESS;
 735:Generated_Source\PSoC4/CapSense_Structure.c **** 
 736:Generated_Source\PSoC4/CapSense_Structure.c ****     #if (0u != CapSense_SELF_TEST_EN)
 737:Generated_Source\PSoC4/CapSense_Structure.c ****         const uint8 crcTable[] =
  48              		.loc 1 737 0
  49 000c 1022     		movs	r2, #16
  50 000e 3449     		ldr	r1, .L22
  51              	.LVL2:
  52 0010 6846     		mov	r0, sp
  53              	.LVL3:
  54 0012 FFF7FEFF 		bl	memcpy
  55              	.LVL4:
 738:Generated_Source\PSoC4/CapSense_Structure.c ****         {
 739:Generated_Source\PSoC4/CapSense_Structure.c ****             0x00u, 0x09u, 0x0Bu, 0x02u, 0x0Fu, 0x06u, 0x04u, 0x0Du,
 740:Generated_Source\PSoC4/CapSense_Structure.c ****             0x07u, 0x0Eu, 0x0Cu, 0x05u, 0x08u, 0x01u, 0x03u, 0x0Au
 741:Generated_Source\PSoC4/CapSense_Structure.c ****         };
 742:Generated_Source\PSoC4/CapSense_Structure.c **** 
 743:Generated_Source\PSoC4/CapSense_Structure.c ****         uint32 i;
ARM GAS  C:\Users\YUANFA~1\AppData\Local\Temp\cc9Xhnxa.s 			page 15


 744:Generated_Source\PSoC4/CapSense_Structure.c ****         uint32 actualCrc = 0u;
 745:Generated_Source\PSoC4/CapSense_Structure.c ****         uint32 crcIndex;
 746:Generated_Source\PSoC4/CapSense_Structure.c ****     #endif /* #if (0u != CapSense_SELF_TEST_EN) */
 747:Generated_Source\PSoC4/CapSense_Structure.c **** 
 748:Generated_Source\PSoC4/CapSense_Structure.c ****     /* Extract parameter data */
 749:Generated_Source\PSoC4/CapSense_Structure.c ****     pData->offset     = LO16(paramId);
  56              		.loc 1 749 0
  57 0016 A3B2     		uxth	r3, r4
  58 0018 9C46     		mov	ip, r3
  59 001a 3380     		strh	r3, [r6]
 750:Generated_Source\PSoC4/CapSense_Structure.c ****     pData->affectsCrc = LO8((paramId & PARAM_UBIT_MASK)  >> PARAM_UBIT_OFFSET);
  60              		.loc 1 750 0
  61 001c E50D     		lsrs	r5, r4, #23
  62 001e 0123     		movs	r3, #1
  63 0020 1D40     		ands	r5, r3
  64 0022 F570     		strb	r5, [r6, #3]
 751:Generated_Source\PSoC4/CapSense_Structure.c ****     pData->widgetId   = LO8((paramId & PARAM_WDID_MASK)  >> PARAM_WDID_OFFSET);
  65              		.loc 1 751 0
  66 0024 220C     		lsrs	r2, r4, #16
  67 0026 7F27     		movs	r7, #127
  68 0028 1740     		ands	r7, r2
  69 002a B770     		strb	r7, [r6, #2]
 752:Generated_Source\PSoC4/CapSense_Structure.c ****     pData->type       = LO8((paramId & PARAM_TYPE_MASK)  >> PARAM_TYPE_OFFSET);
  70              		.loc 1 752 0
  71 002c A00F     		lsrs	r0, r4, #30
  72 002e F071     		strb	r0, [r6, #7]
 753:Generated_Source\PSoC4/CapSense_Structure.c ****     pData->flash      = LO8((paramId & PARAM_FBIT_MASK)  >> PARAM_FBIT_OFFSET);
  73              		.loc 1 753 0
  74 0030 210F     		lsrs	r1, r4, #28
  75 0032 1940     		ands	r1, r3
  76 0034 7171     		strb	r1, [r6, #5]
 754:Generated_Source\PSoC4/CapSense_Structure.c ****     pData->rw         = LO8((paramId & PARAM_RWBIT_MASK) >> PARAM_RWBIT_OFFSET);
  77              		.loc 1 754 0
  78 0036 620F     		lsrs	r2, r4, #29
  79 0038 1340     		ands	r3, r2
  80 003a 9846     		mov	r8, r3
  81 003c B371     		strb	r3, [r6, #6]
 755:Generated_Source\PSoC4/CapSense_Structure.c ****     pData->crc        = LO8((paramId & PARAM_CRC_MASK)   >> PARAM_CRC_OFFSET);
  82              		.loc 1 755 0
  83 003e 230E     		lsrs	r3, r4, #24
  84 0040 0F22     		movs	r2, #15
  85 0042 1340     		ands	r3, r2
  86 0044 3371     		strb	r3, [r6, #4]
  87              	.LVL5:
 744:Generated_Source\PSoC4/CapSense_Structure.c ****         uint32 crcIndex;
  88              		.loc 1 744 0
  89 0046 0026     		movs	r6, #0
  90              	.LVL6:
 756:Generated_Source\PSoC4/CapSense_Structure.c **** 
 757:Generated_Source\PSoC4/CapSense_Structure.c ****     /* Check parameter CRC if self-test is enabled */
 758:Generated_Source\PSoC4/CapSense_Structure.c ****     #if (0u != CapSense_SELF_TEST_EN)
 759:Generated_Source\PSoC4/CapSense_Structure.c **** 
 760:Generated_Source\PSoC4/CapSense_Structure.c ****         /* Calculate CRC for bits 0..24.
 761:Generated_Source\PSoC4/CapSense_Structure.c ****          * The CRC is calculated using nibbles (4-bits).
 762:Generated_Source\PSoC4/CapSense_Structure.c ****          * So for 0..24 bits there are in total 6 nibbles. */
 763:Generated_Source\PSoC4/CapSense_Structure.c ****         for (i = 6u; i > 0u; i--)
  91              		.loc 1 763 0
ARM GAS  C:\Users\YUANFA~1\AppData\Local\Temp\cc9Xhnxa.s 			page 16


  92 0048 093A     		subs	r2, r2, #9
  93 004a 06E0     		b	.L2
  94              	.LVL7:
  95              	.L3:
 764:Generated_Source\PSoC4/CapSense_Structure.c ****         {
 765:Generated_Source\PSoC4/CapSense_Structure.c ****             crcIndex = actualCrc ^ (paramId & 0x0Fu);
  96              		.loc 1 765 0 discriminator 3
  97 004c 0F23     		movs	r3, #15
  98 004e 2340     		ands	r3, r4
  99 0050 7340     		eors	r3, r6
 100              	.LVL8:
 766:Generated_Source\PSoC4/CapSense_Structure.c ****             actualCrc = crcTable[crcIndex];
 101              		.loc 1 766 0 discriminator 3
 102 0052 6E46     		mov	r6, sp
 103              	.LVL9:
 104 0054 F65C     		ldrb	r6, [r6, r3]
 105              	.LVL10:
 767:Generated_Source\PSoC4/CapSense_Structure.c ****             paramId >>= 4u;
 106              		.loc 1 767 0 discriminator 3
 107 0056 2409     		lsrs	r4, r4, #4
 108              	.LVL11:
 763:Generated_Source\PSoC4/CapSense_Structure.c ****         {
 109              		.loc 1 763 0 discriminator 3
 110 0058 013A     		subs	r2, r2, #1
 111              	.LVL12:
 112              	.L2:
 763:Generated_Source\PSoC4/CapSense_Structure.c ****         {
 113              		.loc 1 763 0 is_stmt 0 discriminator 1
 114 005a 002A     		cmp	r2, #0
 115 005c F6D1     		bne	.L3
 768:Generated_Source\PSoC4/CapSense_Structure.c ****         }
 769:Generated_Source\PSoC4/CapSense_Structure.c **** 
 770:Generated_Source\PSoC4/CapSense_Structure.c ****         /* Add bits 28..32 */
 771:Generated_Source\PSoC4/CapSense_Structure.c ****         crcIndex = actualCrc ^ ((paramId >> 4u) & 0x0Fu);
 116              		.loc 1 771 0 is_stmt 1
 117 005e 2309     		lsrs	r3, r4, #4
 118 0060 0F32     		adds	r2, r2, #15
 119              	.LVL13:
 120 0062 1340     		ands	r3, r2
 121 0064 7340     		eors	r3, r6
 122              	.LVL14:
 772:Generated_Source\PSoC4/CapSense_Structure.c ****         actualCrc = crcTable[crcIndex];
 123              		.loc 1 772 0
 124 0066 6E46     		mov	r6, sp
 125              	.LVL15:
 126 0068 F35C     		ldrb	r3, [r6, r3]
 127              	.LVL16:
 773:Generated_Source\PSoC4/CapSense_Structure.c **** 
 774:Generated_Source\PSoC4/CapSense_Structure.c ****         /* Add bits 24..28 (CRC) */
 775:Generated_Source\PSoC4/CapSense_Structure.c ****         crcIndex = actualCrc ^ (paramId & 0x0Fu);
 128              		.loc 1 775 0
 129 006a 1440     		ands	r4, r2
 130              	.LVL17:
 131 006c 5C40     		eors	r4, r3
 132              	.LVL18:
 776:Generated_Source\PSoC4/CapSense_Structure.c ****         actualCrc = crcTable[crcIndex];
 133              		.loc 1 776 0
ARM GAS  C:\Users\YUANFA~1\AppData\Local\Temp\cc9Xhnxa.s 			page 17


 134 006e 335D     		ldrb	r3, [r6, r4]
 135              	.LVL19:
 777:Generated_Source\PSoC4/CapSense_Structure.c **** 
 778:Generated_Source\PSoC4/CapSense_Structure.c ****         if (0u != actualCrc)
 136              		.loc 1 778 0
 137 0070 002B     		cmp	r3, #0
 138 0072 00D0     		beq	.L4
 779:Generated_Source\PSoC4/CapSense_Structure.c ****         {
 780:Generated_Source\PSoC4/CapSense_Structure.c ****             /* CRC mismatch */
 781:Generated_Source\PSoC4/CapSense_Structure.c ****             result = CYRET_BAD_PARAM;
 139              		.loc 1 781 0
 140 0074 0123     		movs	r3, #1
 141              	.LVL20:
 142              	.L4:
 782:Generated_Source\PSoC4/CapSense_Structure.c ****         }
 783:Generated_Source\PSoC4/CapSense_Structure.c **** 
 784:Generated_Source\PSoC4/CapSense_Structure.c ****         if ((CYRET_SUCCESS == result) &&
 143              		.loc 1 784 0
 144 0076 002B     		cmp	r3, #0
 145 0078 04D1     		bne	.L5
 146              		.loc 1 784 0 is_stmt 0 discriminator 1
 147 007a 002D     		cmp	r5, #0
 148 007c 02D0     		beq	.L5
 785:Generated_Source\PSoC4/CapSense_Structure.c ****             (0u != pData->affectsCrc) && (pData->widgetId >= CapSense_TOTAL_WIDGETS ))
 149              		.loc 1 785 0 is_stmt 1
 150 007e 002F     		cmp	r7, #0
 151 0080 00D0     		beq	.L5
 786:Generated_Source\PSoC4/CapSense_Structure.c ****         {
 787:Generated_Source\PSoC4/CapSense_Structure.c ****             /* Wrong widgetId for protected parameter */
 788:Generated_Source\PSoC4/CapSense_Structure.c ****             result = CYRET_BAD_PARAM;
 152              		.loc 1 788 0
 153 0082 0133     		adds	r3, r3, #1
 154              	.LVL21:
 155              	.L5:
 789:Generated_Source\PSoC4/CapSense_Structure.c ****         }
 790:Generated_Source\PSoC4/CapSense_Structure.c **** 
 791:Generated_Source\PSoC4/CapSense_Structure.c ****         /* Check offset value range */
 792:Generated_Source\PSoC4/CapSense_Structure.c ****         if (CYRET_SUCCESS == result)
 156              		.loc 1 792 0
 157 0084 002B     		cmp	r3, #0
 158 0086 10D1     		bne	.L6
 793:Generated_Source\PSoC4/CapSense_Structure.c ****         {
 794:Generated_Source\PSoC4/CapSense_Structure.c ****             if (0u == pData->flash)
 159              		.loc 1 794 0
 160 0088 0029     		cmp	r1, #0
 161 008a 03D1     		bne	.L7
 795:Generated_Source\PSoC4/CapSense_Structure.c ****             {
 796:Generated_Source\PSoC4/CapSense_Structure.c ****                 /* Check offset for RAM Data Structure range */
 797:Generated_Source\PSoC4/CapSense_Structure.c ****                 if (pData->offset >= sizeof(CapSense_dsRam))
 162              		.loc 1 797 0
 163 008c 154A     		ldr	r2, .L22+4
 164              	.LVL22:
 165 008e 9445     		cmp	ip, r2
 166 0090 08D8     		bhi	.L15
 167 0092 0AE0     		b	.L6
 168              	.LVL23:
 169              	.L7:
ARM GAS  C:\Users\YUANFA~1\AppData\Local\Temp\cc9Xhnxa.s 			page 18


 798:Generated_Source\PSoC4/CapSense_Structure.c ****                 {
 799:Generated_Source\PSoC4/CapSense_Structure.c ****                     result = CYRET_BAD_PARAM;
 800:Generated_Source\PSoC4/CapSense_Structure.c ****                 }
 801:Generated_Source\PSoC4/CapSense_Structure.c ****             }
 802:Generated_Source\PSoC4/CapSense_Structure.c ****             else
 803:Generated_Source\PSoC4/CapSense_Structure.c ****             {
 804:Generated_Source\PSoC4/CapSense_Structure.c ****                 /* Check offset for Flash Data Structure range */
 805:Generated_Source\PSoC4/CapSense_Structure.c ****                 if (pData->offset >= sizeof(CapSense_dsFlash))
 170              		.loc 1 805 0
 171 0094 6246     		mov	r2, ip
 172              	.LVL24:
 173 0096 372A     		cmp	r2, #55
 174 0098 00D9     		bls	.L8
 806:Generated_Source\PSoC4/CapSense_Structure.c ****                 {
 807:Generated_Source\PSoC4/CapSense_Structure.c ****                     result = CYRET_BAD_PARAM;
 175              		.loc 1 807 0
 176 009a 0123     		movs	r3, #1
 177              	.LVL25:
 178              	.L8:
 808:Generated_Source\PSoC4/CapSense_Structure.c ****                 }
 809:Generated_Source\PSoC4/CapSense_Structure.c **** 
 810:Generated_Source\PSoC4/CapSense_Structure.c ****                 /* Check if it is marked as Read Only */
 811:Generated_Source\PSoC4/CapSense_Structure.c ****                 if (0u != pData->rw)
 179              		.loc 1 811 0
 180 009c 4246     		mov	r2, r8
 181 009e 002A     		cmp	r2, #0
 182 00a0 02D1     		bne	.L17
 183 00a2 02E0     		b	.L6
 184              	.L15:
 799:Generated_Source\PSoC4/CapSense_Structure.c ****                 }
 185              		.loc 1 799 0
 186 00a4 0123     		movs	r3, #1
 187              	.LVL26:
 188 00a6 00E0     		b	.L6
 189              	.LVL27:
 190              	.L17:
 812:Generated_Source\PSoC4/CapSense_Structure.c ****                 {
 813:Generated_Source\PSoC4/CapSense_Structure.c ****                     result = CYRET_BAD_PARAM;
 191              		.loc 1 813 0
 192 00a8 0123     		movs	r3, #1
 193              	.LVL28:
 194              	.L6:
 814:Generated_Source\PSoC4/CapSense_Structure.c ****                 }
 815:Generated_Source\PSoC4/CapSense_Structure.c ****             }
 816:Generated_Source\PSoC4/CapSense_Structure.c ****         }
 817:Generated_Source\PSoC4/CapSense_Structure.c ****     #else /* #if (0u != CapSense_SELF_TEST_EN) */
 818:Generated_Source\PSoC4/CapSense_Structure.c ****         /* Check offset value range */
 819:Generated_Source\PSoC4/CapSense_Structure.c ****         if (0u == pData->flash)
 820:Generated_Source\PSoC4/CapSense_Structure.c ****         {
 821:Generated_Source\PSoC4/CapSense_Structure.c ****             /* Check offset for RAM Data Structure range */
 822:Generated_Source\PSoC4/CapSense_Structure.c ****             if (pData->offset >= sizeof(CapSense_dsRam))
 823:Generated_Source\PSoC4/CapSense_Structure.c ****             {
 824:Generated_Source\PSoC4/CapSense_Structure.c ****                 result = CYRET_BAD_PARAM;
 825:Generated_Source\PSoC4/CapSense_Structure.c ****             }
 826:Generated_Source\PSoC4/CapSense_Structure.c ****         }
 827:Generated_Source\PSoC4/CapSense_Structure.c ****         else
 828:Generated_Source\PSoC4/CapSense_Structure.c ****         {
ARM GAS  C:\Users\YUANFA~1\AppData\Local\Temp\cc9Xhnxa.s 			page 19


 829:Generated_Source\PSoC4/CapSense_Structure.c ****             /* Check offset for Flash Data Structure range */
 830:Generated_Source\PSoC4/CapSense_Structure.c ****             if (pData->offset >= sizeof(CapSense_dsFlash))
 831:Generated_Source\PSoC4/CapSense_Structure.c ****             {
 832:Generated_Source\PSoC4/CapSense_Structure.c ****                 result = CYRET_BAD_PARAM;
 833:Generated_Source\PSoC4/CapSense_Structure.c ****             }
 834:Generated_Source\PSoC4/CapSense_Structure.c **** 
 835:Generated_Source\PSoC4/CapSense_Structure.c ****             /* Check if it is marked as Read Only */
 836:Generated_Source\PSoC4/CapSense_Structure.c ****             if (0u != pData->rw)
 837:Generated_Source\PSoC4/CapSense_Structure.c ****             {
 838:Generated_Source\PSoC4/CapSense_Structure.c ****                 result = CYRET_BAD_PARAM;
 839:Generated_Source\PSoC4/CapSense_Structure.c ****             }
 840:Generated_Source\PSoC4/CapSense_Structure.c ****         }
 841:Generated_Source\PSoC4/CapSense_Structure.c ****     #endif /* #if (0u != CapSense_SELF_TEST_EN) */
 842:Generated_Source\PSoC4/CapSense_Structure.c **** 
 843:Generated_Source\PSoC4/CapSense_Structure.c ****     if (CYRET_SUCCESS == result)
 195              		.loc 1 843 0
 196 00aa 002B     		cmp	r3, #0
 197 00ac 13D1     		bne	.L9
 844:Generated_Source\PSoC4/CapSense_Structure.c ****     {
 845:Generated_Source\PSoC4/CapSense_Structure.c ****         /* Check parameter type, offset alignment */
 846:Generated_Source\PSoC4/CapSense_Structure.c ****         switch (pData->type)
 198              		.loc 1 846 0
 199 00ae 0228     		cmp	r0, #2
 200 00b0 04D0     		beq	.L10
 201 00b2 0328     		cmp	r0, #3
 202 00b4 06D0     		beq	.L11
 203 00b6 0128     		cmp	r0, #1
 204 00b8 08D1     		bne	.L21
 205 00ba 0CE0     		b	.L9
 206              	.L10:
 847:Generated_Source\PSoC4/CapSense_Structure.c ****         {
 848:Generated_Source\PSoC4/CapSense_Structure.c ****         case DS_PARAM_TYPE_UINT16:
 849:Generated_Source\PSoC4/CapSense_Structure.c ****             if (0u != (pData->offset & UINT16_ALIGN_MASK))
 207              		.loc 1 849 0
 208 00bc 6246     		mov	r2, ip
 209 00be D207     		lsls	r2, r2, #31
 210 00c0 06D4     		bmi	.L19
 211 00c2 08E0     		b	.L9
 212              	.L11:
 850:Generated_Source\PSoC4/CapSense_Structure.c ****             {
 851:Generated_Source\PSoC4/CapSense_Structure.c ****                 result = CYRET_BAD_PARAM;
 852:Generated_Source\PSoC4/CapSense_Structure.c ****             }
 853:Generated_Source\PSoC4/CapSense_Structure.c ****             break;
 854:Generated_Source\PSoC4/CapSense_Structure.c **** 
 855:Generated_Source\PSoC4/CapSense_Structure.c ****         case DS_PARAM_TYPE_UINT32:
 856:Generated_Source\PSoC4/CapSense_Structure.c ****             if (0u != (pData->offset & UINT32_ALIGN_MASK))
 213              		.loc 1 856 0
 214 00c4 6246     		mov	r2, ip
 215 00c6 9207     		lsls	r2, r2, #30
 216 00c8 04D1     		bne	.L20
 217 00ca 04E0     		b	.L9
 218              	.L21:
 857:Generated_Source\PSoC4/CapSense_Structure.c ****             {
 858:Generated_Source\PSoC4/CapSense_Structure.c ****                 result = CYRET_BAD_PARAM;
 859:Generated_Source\PSoC4/CapSense_Structure.c ****             }
 860:Generated_Source\PSoC4/CapSense_Structure.c ****             break;
 861:Generated_Source\PSoC4/CapSense_Structure.c **** 
ARM GAS  C:\Users\YUANFA~1\AppData\Local\Temp\cc9Xhnxa.s 			page 20


 862:Generated_Source\PSoC4/CapSense_Structure.c ****         case DS_PARAM_TYPE_UINT8:
 863:Generated_Source\PSoC4/CapSense_Structure.c ****             break;
 864:Generated_Source\PSoC4/CapSense_Structure.c **** 
 865:Generated_Source\PSoC4/CapSense_Structure.c ****         default:
 866:Generated_Source\PSoC4/CapSense_Structure.c ****             result = CYRET_BAD_PARAM;
 219              		.loc 1 866 0
 220 00cc 0123     		movs	r3, #1
 221              	.LVL29:
 222 00ce 02E0     		b	.L9
 223              	.LVL30:
 224              	.L19:
 851:Generated_Source\PSoC4/CapSense_Structure.c ****             }
 225              		.loc 1 851 0
 226 00d0 0123     		movs	r3, #1
 227              	.LVL31:
 228 00d2 00E0     		b	.L9
 229              	.LVL32:
 230              	.L20:
 858:Generated_Source\PSoC4/CapSense_Structure.c ****             }
 231              		.loc 1 858 0
 232 00d4 0123     		movs	r3, #1
 233              	.LVL33:
 234              	.L9:
 867:Generated_Source\PSoC4/CapSense_Structure.c ****             break;
 868:Generated_Source\PSoC4/CapSense_Structure.c ****         }
 869:Generated_Source\PSoC4/CapSense_Structure.c ****     }
 870:Generated_Source\PSoC4/CapSense_Structure.c **** 
 871:Generated_Source\PSoC4/CapSense_Structure.c ****     return result;
 872:Generated_Source\PSoC4/CapSense_Structure.c **** }
 235              		.loc 1 872 0
 236 00d6 1800     		movs	r0, r3
 237 00d8 04B0     		add	sp, sp, #16
 238              	.LVL34:
 239              		@ sp needed
 240              	.LVL35:
 241 00da 04BC     		pop	{r2}
 242 00dc 9046     		mov	r8, r2
 243 00de F0BD     		pop	{r4, r5, r6, r7, pc}
 244              	.L23:
 245              		.align	2
 246              	.L22:
 247 00e0 00000000 		.word	.LANCHOR0
 248 00e4 E3020000 		.word	739
 249              		.cfi_endproc
 250              	.LFE2:
 251              		.size	DsParseParamId, .-DsParseParamId
 252              		.section	.text.CapSense_DsInitialize,"ax",%progbits
 253              		.align	2
 254              		.global	CapSense_DsInitialize
 255              		.code	16
 256              		.thumb_func
 257              		.type	CapSense_DsInitialize, %function
 258              	CapSense_DsInitialize:
 259              	.LFB1:
 516:Generated_Source\PSoC4/CapSense_Structure.c ****     #if ((CapSense_ENABLE == CapSense_CSX_EN) || \
 260              		.loc 1 516 0
 261              		.cfi_startproc
ARM GAS  C:\Users\YUANFA~1\AppData\Local\Temp\cc9Xhnxa.s 			page 21


 262              		@ args = 0, pretend = 0, frame = 0
 263              		@ frame_needed = 0, uses_anonymous_args = 0
 264 0000 70B5     		push	{r4, r5, r6, lr}
 265              		.cfi_def_cfa_offset 16
 266              		.cfi_offset 4, -16
 267              		.cfi_offset 5, -12
 268              		.cfi_offset 6, -8
 269              		.cfi_offset 14, -4
 270              	.LVL36:
 537:Generated_Source\PSoC4/CapSense_Structure.c **** 
 271              		.loc 1 537 0
 272 0002 334C     		ldr	r4, .L29
 273 0004 B922     		movs	r2, #185
 274 0006 9200     		lsls	r2, r2, #2
 275 0008 0021     		movs	r1, #0
 276 000a 2000     		movs	r0, r4
 277 000c FFF7FEFF 		bl	memset
 278              	.LVL37:
 540:Generated_Source\PSoC4/CapSense_Structure.c ****     CapSense_dsRam.deviceId = CapSense_DEVICE_ID;
 279              		.loc 1 540 0
 280 0010 304B     		ldr	r3, .L29+4
 281 0012 2380     		strh	r3, [r4]
 541:Generated_Source\PSoC4/CapSense_Structure.c ****     CapSense_dsRam.hwClock = CapSense_HW_CLOCK;
 282              		.loc 1 541 0
 283 0014 9023     		movs	r3, #144
 284 0016 1B01     		lsls	r3, r3, #4
 285 0018 6380     		strh	r3, [r4, #2]
 542:Generated_Source\PSoC4/CapSense_Structure.c **** 
 286              		.loc 1 542 0
 287 001a 2F4B     		ldr	r3, .L29+8
 288 001c A380     		strh	r3, [r4, #4]
 545:Generated_Source\PSoC4/CapSense_Structure.c **** 
 289              		.loc 1 545 0
 290 001e 0A23     		movs	r3, #10
 291 0020 E383     		strh	r3, [r4, #30]
 547:Generated_Source\PSoC4/CapSense_Structure.c ****     #if (0u != CapSense_TOTAL_CSD_WIDGETS)
 292              		.loc 1 547 0
 293 0022 0322     		movs	r2, #3
 294 0024 2D4B     		ldr	r3, .L29+12
 295 0026 E254     		strb	r2, [r4, r3]
 558:Generated_Source\PSoC4/CapSense_Structure.c ****         CapSense_dsRam.scanCsxISC = CapSense_CSX_INACTIVE_SNS_CONNECTION;
 296              		.loc 1 558 0
 297 0028 0121     		movs	r1, #1
 298 002a 2023     		movs	r3, #32
 299 002c E154     		strb	r1, [r4, r3]
 572:Generated_Source\PSoC4/CapSense_Structure.c ****         CapSense_dsRam.selfTestConfig.fineInitTime = (uint8)CapSense_TST_FINE_INIT_TIME;
 300              		.loc 1 572 0
 301 002e 2C4B     		ldr	r3, .L29+16
 302 0030 6384     		strh	r3, [r4, #34]
 573:Generated_Source\PSoC4/CapSense_Structure.c ****         CapSense_dsRam.selfTestConfig.startupDelay = CapSense_TST_ANALOG_STARTUP_DELAY_US;
 303              		.loc 1 573 0
 304 0032 2C4B     		ldr	r3, .L29+20
 305 0034 0A22     		movs	r2, #10
 306 0036 E254     		strb	r2, [r4, r3]
 574:Generated_Source\PSoC4/CapSense_Structure.c **** 
 307              		.loc 1 574 0
 308 0038 1722     		movs	r2, #23
ARM GAS  C:\Users\YUANFA~1\AppData\Local\Temp\cc9Xhnxa.s 			page 22


 309 003a 2B4B     		ldr	r3, .L29+24
 310 003c E254     		strb	r2, [r4, r3]
 577:Generated_Source\PSoC4/CapSense_Structure.c ****         #endif
 311              		.loc 1 577 0
 312 003e 153A     		subs	r2, r2, #21
 313 0040 0233     		adds	r3, r3, #2
 314 0042 E254     		strb	r2, [r4, r3]
 582:Generated_Source\PSoC4/CapSense_Structure.c ****             CapSense_dsRam.selfTestConfig.snsCapSnsClkHz = CapSense_TST_SNS_CAP_SNS_CLK_HZ;
 315              		.loc 1 582 0
 316 0044 3E32     		adds	r2, r2, #62
 317 0046 183B     		subs	r3, r3, #24
 318 0048 E252     		strh	r2, [r4, r3]
 583:Generated_Source\PSoC4/CapSense_Structure.c ****             CapSense_dsRam.selfTestConfig.snsCapResolution = CapSense_TST_SNS_CAP_RESOLUTION;
 319              		.loc 1 583 0
 320 004a 284A     		ldr	r2, .L29+28
 321 004c 043B     		subs	r3, r3, #4
 322 004e E250     		str	r2, [r4, r3]
 584:Generated_Source\PSoC4/CapSense_Structure.c ****             CapSense_dsRam.selfTestConfig.snsCapVrefGain = CapSense_TST_SNS_CAP_VREF_GAIN ;
 323              		.loc 1 584 0
 324 0050 0C22     		movs	r2, #12
 325 0052 1433     		adds	r3, r3, #20
 326 0054 E254     		strb	r2, [r4, r3]
 585:Generated_Source\PSoC4/CapSense_Structure.c ****             CapSense_dsRam.selfTestConfig.snsCapVrefVoltage = CapSense_TST_SNS_CAP_VREF_MV;
 327              		.loc 1 585 0
 328 0056 1332     		adds	r2, r2, #19
 329 0058 254B     		ldr	r3, .L29+32
 330 005a E254     		strb	r2, [r4, r3]
 586:Generated_Source\PSoC4/CapSense_Structure.c ****             CapSense_dsRam.selfTestConfig.snsCapModClkDivider = CapSense_TST_MOD_CLK_DIVIDER ;
 331              		.loc 1 586 0
 332 005c 9623     		movs	r3, #150
 333 005e DB00     		lsls	r3, r3, #3
 334 0060 2448     		ldr	r0, .L29+36
 335 0062 2352     		strh	r3, [r4, r0]
 587:Generated_Source\PSoC4/CapSense_Structure.c ****             CapSense_dsRam.selfTestConfig.snsCapModClkKHz = CapSense_TST_MOD_CLK_KHZ ;
 336              		.loc 1 587 0
 337 0064 0238     		subs	r0, r0, #2
 338 0066 2152     		strh	r1, [r4, r0]
 588:Generated_Source\PSoC4/CapSense_Structure.c ****         #endif /* ((0u != CapSense_TST_SNS_CAP_EN) ||
 339              		.loc 1 588 0
 340 0068 2348     		ldr	r0, .L29+40
 341 006a 2449     		ldr	r1, .L29+44
 342 006c 6052     		strh	r0, [r4, r1]
 608:Generated_Source\PSoC4/CapSense_Structure.c ****             CapSense_dsRam.selfTestConfig.extCapVrefVoltage = CapSense_TST_EXT_CAP_VREF_MV;
 343              		.loc 1 608 0
 344 006e 2449     		ldr	r1, .L29+48
 345 0070 6254     		strb	r2, [r4, r1]
 609:Generated_Source\PSoC4/CapSense_Structure.c ****         #endif /* #if (0u != CapSense_TST_EXTERNAL_CAP_EN) */
 346              		.loc 1 609 0
 347 0072 244A     		ldr	r2, .L29+52
 348 0074 A352     		strh	r3, [r4, r2]
 613:Generated_Source\PSoC4/CapSense_Structure.c ****             CapSense_dsRam.selfTestConfig.vddaModClkDivider = CapSense_TST_VDDA_MOD_CLK_DIVIDER;
 349              		.loc 1 613 0
 350 0076 244B     		ldr	r3, .L29+56
 351 0078 0A22     		movs	r2, #10
 352 007a E254     		strb	r2, [r4, r3]
 614:Generated_Source\PSoC4/CapSense_Structure.c **** 
 353              		.loc 1 614 0
ARM GAS  C:\Users\YUANFA~1\AppData\Local\Temp\cc9Xhnxa.s 			page 23


 354 007c 023B     		subs	r3, r3, #2
 355 007e 0122     		movs	r2, #1
 356 0080 E254     		strb	r2, [r4, r3]
 616:Generated_Source\PSoC4/CapSense_Structure.c ****             CapSense_dsRam.selfTestConfig.vddaVrefVoltage = CapSense_TST_VDDA_VREF_MV;
 357              		.loc 1 616 0
 358 0082 1222     		movs	r2, #18
 359 0084 214B     		ldr	r3, .L29+60
 360 0086 E254     		strb	r2, [r4, r3]
 617:Generated_Source\PSoC4/CapSense_Structure.c ****         #endif /* #if (0u != CapSense_TST_VDDA_EN) */
 361              		.loc 1 617 0
 362 0088 214A     		ldr	r2, .L29+64
 363 008a 053B     		subs	r3, r3, #5
 364 008c E252     		strh	r2, [r4, r3]
 623:Generated_Source\PSoC4/CapSense_Structure.c **** 
 365              		.loc 1 623 0
 366 008e 2149     		ldr	r1, .L29+68
 367 0090 2434     		adds	r4, r4, #36
 368 0092 0B00     		movs	r3, r1
 369 0094 7833     		adds	r3, r3, #120
 370 0096 25CB     		ldmia	r3!, {r0, r2, r5}
 371 0098 25C4     		stmia	r4!, {r0, r2, r5}
 372 009a 25CB     		ldmia	r3!, {r0, r2, r5}
 373 009c 25C4     		stmia	r4!, {r0, r2, r5}
 374 009e 1B68     		ldr	r3, [r3]
 375 00a0 2360     		str	r3, [r4]
 376              	.LVL38:
 533:Generated_Source\PSoC4/CapSense_Structure.c ****     #endif
 377              		.loc 1 533 0
 378 00a2 0A00     		movs	r2, r1
 379 00a4 1032     		adds	r2, r2, #16
 640:Generated_Source\PSoC4/CapSense_Structure.c **** 
 380              		.loc 1 640 0
 381 00a6 4031     		adds	r1, r1, #64
 382 00a8 0C00     		movs	r4, r1
 642:Generated_Source\PSoC4/CapSense_Structure.c ****         {
 383              		.loc 1 642 0
 384 00aa 0123     		movs	r3, #1
 385 00ac 0CE0     		b	.L25
 386              	.LVL39:
 387              	.L28:
 644:Generated_Source\PSoC4/CapSense_Structure.c **** 
 388              		.loc 1 644 0
 389 00ae A168     		ldr	r1, [r4, #8]
 390              	.LVL40:
 646:Generated_Source\PSoC4/CapSense_Structure.c ****             {
 391              		.loc 1 646 0
 392 00b0 238B     		ldrh	r3, [r4, #24]
 393              	.LVL41:
 394 00b2 04E0     		b	.L26
 395              	.LVL42:
 396              	.L27:
 648:Generated_Source\PSoC4/CapSense_Structure.c ****                 ptrIdacInit++;
 397              		.loc 1 648 0
 398 00b4 1378     		ldrb	r3, [r2]
 399 00b6 CB72     		strb	r3, [r1, #11]
 649:Generated_Source\PSoC4/CapSense_Structure.c **** 
 400              		.loc 1 649 0
ARM GAS  C:\Users\YUANFA~1\AppData\Local\Temp\cc9Xhnxa.s 			page 24


 401 00b8 0132     		adds	r2, r2, #1
 402              	.LVL43:
 659:Generated_Source\PSoC4/CapSense_Structure.c ****             }
 403              		.loc 1 659 0
 404 00ba 0C31     		adds	r1, r1, #12
 405              	.LVL44:
 646:Generated_Source\PSoC4/CapSense_Structure.c ****             {
 406              		.loc 1 646 0
 407 00bc 0300     		movs	r3, r0
 408              	.LVL45:
 409              	.L26:
 646:Generated_Source\PSoC4/CapSense_Structure.c ****             {
 410              		.loc 1 646 0 is_stmt 0 discriminator 1
 411 00be 581E     		subs	r0, r3, #1
 412              	.LVL46:
 413 00c0 002B     		cmp	r3, #0
 414 00c2 F7D1     		bne	.L27
 662:Generated_Source\PSoC4/CapSense_Structure.c ****         }
 415              		.loc 1 662 0 is_stmt 1
 416 00c4 3834     		adds	r4, r4, #56
 417              	.LVL47:
 642:Generated_Source\PSoC4/CapSense_Structure.c ****         {
 418              		.loc 1 642 0
 419 00c6 2B00     		movs	r3, r5
 420              	.LVL48:
 421              	.L25:
 642:Generated_Source\PSoC4/CapSense_Structure.c ****         {
 422              		.loc 1 642 0 is_stmt 0 discriminator 1
 423 00c8 5D1E     		subs	r5, r3, #1
 424              	.LVL49:
 425 00ca 002B     		cmp	r3, #0
 426 00cc EFD1     		bne	.L28
 693:Generated_Source\PSoC4/CapSense_Structure.c **** 
 427              		.loc 1 693 0 is_stmt 1
 428              		@ sp needed
 429              	.LVL50:
 430              	.LVL51:
 431 00ce 70BD     		pop	{r4, r5, r6, pc}
 432              	.L30:
 433              		.align	2
 434              	.L29:
 435 00d0 00000000 		.word	CapSense_dsRam
 436 00d4 06BAFFFF 		.word	-17914
 437 00d8 B80B0000 		.word	3000
 438 00dc E3020000 		.word	739
 439 00e0 BE84FFFF 		.word	-31554
 440 00e4 8F020000 		.word	655
 441 00e8 8E020000 		.word	654
 442 00ec D8B80500 		.word	375000
 443 00f0 89020000 		.word	649
 444 00f4 7E020000 		.word	638
 445 00f8 C05D0000 		.word	24000
 446 00fc 7A020000 		.word	634
 447 0100 8D020000 		.word	653
 448 0104 82020000 		.word	642
 449 0108 86020000 		.word	646
 450 010c 85020000 		.word	645
ARM GAS  C:\Users\YUANFA~1\AppData\Local\Temp\cc9Xhnxa.s 			page 25


 451 0110 E5070000 		.word	2021
 452 0114 00000000 		.word	.LANCHOR0
 453              		.cfi_endproc
 454              	.LFE1:
 455              		.size	CapSense_DsInitialize, .-CapSense_DsInitialize
 456              		.section	.text.CapSense_GetParam,"ax",%progbits
 457              		.align	2
 458              		.global	CapSense_GetParam
 459              		.code	16
 460              		.thumb_func
 461              		.type	CapSense_GetParam, %function
 462              	CapSense_GetParam:
 463              	.LFB3:
 873:Generated_Source\PSoC4/CapSense_Structure.c **** 
 874:Generated_Source\PSoC4/CapSense_Structure.c **** /*******************************************************************************
 875:Generated_Source\PSoC4/CapSense_Structure.c **** * Function Name: CapSense_GetParam
 876:Generated_Source\PSoC4/CapSense_Structure.c **** ****************************************************************************//**
 877:Generated_Source\PSoC4/CapSense_Structure.c **** *
 878:Generated_Source\PSoC4/CapSense_Structure.c **** * \brief
 879:Generated_Source\PSoC4/CapSense_Structure.c **** *  Gets the specified parameter value from the \ref group_structures.
 880:Generated_Source\PSoC4/CapSense_Structure.c **** *
 881:Generated_Source\PSoC4/CapSense_Structure.c **** * \details
 882:Generated_Source\PSoC4/CapSense_Structure.c **** *  This function gets the value of the specified parameter by the paramId
 883:Generated_Source\PSoC4/CapSense_Structure.c **** *  argument. The paramId for each register is available in the
 884:Generated_Source\PSoC4/CapSense_Structure.c **** *  CapSense RegisterMap header file as
 885:Generated_Source\PSoC4/CapSense_Structure.c **** *  CapSense_<ParameterName>_PARAM_ID. The paramId is a special
 886:Generated_Source\PSoC4/CapSense_Structure.c **** *  enumerated value generated by the customizer. The format of paramId is as
 887:Generated_Source\PSoC4/CapSense_Structure.c **** *  follows:
 888:Generated_Source\PSoC4/CapSense_Structure.c **** *    1. [ byte 3 byte 2 byte 1 byte 0 ]
 889:Generated_Source\PSoC4/CapSense_Structure.c **** *    2. [ TTWFCCCC UIIIIIII MMMMMMMM LLLLLLLL ]
 890:Generated_Source\PSoC4/CapSense_Structure.c **** *    3. T - encodes the parameter type:
 891:Generated_Source\PSoC4/CapSense_Structure.c **** *      - 01b: uint8
 892:Generated_Source\PSoC4/CapSense_Structure.c **** *      - 10b: uint16
 893:Generated_Source\PSoC4/CapSense_Structure.c **** *      - 11b: uint32
 894:Generated_Source\PSoC4/CapSense_Structure.c **** *    4. W - indicates whether the parameter is writable:
 895:Generated_Source\PSoC4/CapSense_Structure.c **** *      - 0: ReadOnly
 896:Generated_Source\PSoC4/CapSense_Structure.c **** *      - 1: Read/Write
 897:Generated_Source\PSoC4/CapSense_Structure.c **** *    5. C - 4 bit CRC (X^3 + 1) of the whole paramId word, the C bits are
 898:Generated_Source\PSoC4/CapSense_Structure.c **** *       filled with 0s when the CRC is calculated.
 899:Generated_Source\PSoC4/CapSense_Structure.c **** *    6. U - indicates if the parameter affects the RAM Widget Object CRC.
 900:Generated_Source\PSoC4/CapSense_Structure.c **** *    7. I - specifies that the widgetId parameter belongs to
 901:Generated_Source\PSoC4/CapSense_Structure.c **** *    8. M,L - the parameter offset MSB and LSB accordingly in:
 902:Generated_Source\PSoC4/CapSense_Structure.c **** *      - Flash Data Structure if W bit is 0.
 903:Generated_Source\PSoC4/CapSense_Structure.c **** *      - RAM Data Structure if W bit is 1.
 904:Generated_Source\PSoC4/CapSense_Structure.c **** *
 905:Generated_Source\PSoC4/CapSense_Structure.c **** *  Refer to the \ref group_structures section for details of the data structure
 906:Generated_Source\PSoC4/CapSense_Structure.c **** *  organization and examples of its register access.
 907:Generated_Source\PSoC4/CapSense_Structure.c **** *
 908:Generated_Source\PSoC4/CapSense_Structure.c **** * \param paramId
 909:Generated_Source\PSoC4/CapSense_Structure.c **** *  Specifies the ID of parameter to get its value.
 910:Generated_Source\PSoC4/CapSense_Structure.c **** *  A macro for the parameter ID can be found in the CapSense RegisterMap header
 911:Generated_Source\PSoC4/CapSense_Structure.c **** *  file defined as CapSense_<ParameterName>_PARAM_ID.
 912:Generated_Source\PSoC4/CapSense_Structure.c **** *
 913:Generated_Source\PSoC4/CapSense_Structure.c **** * \param value
 914:Generated_Source\PSoC4/CapSense_Structure.c **** *  The pointer to a variable to be updated with the obtained value.
 915:Generated_Source\PSoC4/CapSense_Structure.c **** *
 916:Generated_Source\PSoC4/CapSense_Structure.c **** * \return
ARM GAS  C:\Users\YUANFA~1\AppData\Local\Temp\cc9Xhnxa.s 			page 26


 917:Generated_Source\PSoC4/CapSense_Structure.c **** *  Returns the status of the operation:
 918:Generated_Source\PSoC4/CapSense_Structure.c **** *    - CYRET_SUCCESS - The operation is successfully completed.
 919:Generated_Source\PSoC4/CapSense_Structure.c **** *    - CYRET_BAD_PARAM - The input parameter is invalid.
 920:Generated_Source\PSoC4/CapSense_Structure.c **** *
 921:Generated_Source\PSoC4/CapSense_Structure.c **** *******************************************************************************/
 922:Generated_Source\PSoC4/CapSense_Structure.c **** cystatus CapSense_GetParam(uint32 paramId, uint32 *value)
 923:Generated_Source\PSoC4/CapSense_Structure.c **** {
 464              		.loc 1 923 0
 465              		.cfi_startproc
 466              		@ args = 0, pretend = 0, frame = 8
 467              		@ frame_needed = 0, uses_anonymous_args = 0
 468              	.LVL52:
 469 0000 30B5     		push	{r4, r5, lr}
 470              		.cfi_def_cfa_offset 12
 471              		.cfi_offset 4, -12
 472              		.cfi_offset 5, -8
 473              		.cfi_offset 14, -4
 474 0002 83B0     		sub	sp, sp, #12
 475              		.cfi_def_cfa_offset 24
 476 0004 0D00     		movs	r5, r1
 924:Generated_Source\PSoC4/CapSense_Structure.c ****     PARAM_ID_STRUCT pData;
 925:Generated_Source\PSoC4/CapSense_Structure.c ****     cystatus result;
 926:Generated_Source\PSoC4/CapSense_Structure.c **** 
 927:Generated_Source\PSoC4/CapSense_Structure.c ****     union
 928:Generated_Source\PSoC4/CapSense_Structure.c ****     {
 929:Generated_Source\PSoC4/CapSense_Structure.c ****         volatile void   const * ptr;
 930:Generated_Source\PSoC4/CapSense_Structure.c ****         volatile uint8  const * ptrUint8;
 931:Generated_Source\PSoC4/CapSense_Structure.c ****         volatile uint16 const * ptrUint16;
 932:Generated_Source\PSoC4/CapSense_Structure.c ****         volatile uint32 const * ptrUint32;
 933:Generated_Source\PSoC4/CapSense_Structure.c ****     } ptrData;
 934:Generated_Source\PSoC4/CapSense_Structure.c **** 
 935:Generated_Source\PSoC4/CapSense_Structure.c ****     result = DsParseParamId(paramId, &pData);
 477              		.loc 1 935 0
 478 0006 6946     		mov	r1, sp
 479              	.LVL53:
 480 0008 FFF7FEFF 		bl	DsParseParamId
 481              	.LVL54:
 482 000c 041E     		subs	r4, r0, #0
 483              	.LVL55:
 936:Generated_Source\PSoC4/CapSense_Structure.c **** 
 937:Generated_Source\PSoC4/CapSense_Structure.c ****     /* Parse and validate paramId */
 938:Generated_Source\PSoC4/CapSense_Structure.c ****     if (CYRET_SUCCESS == result)
 484              		.loc 1 938 0
 485 000e 1FD1     		bne	.L32
 939:Generated_Source\PSoC4/CapSense_Structure.c ****     {
 940:Generated_Source\PSoC4/CapSense_Structure.c ****         /* Get base address of parameter */
 941:Generated_Source\PSoC4/CapSense_Structure.c ****         if (0u == pData.flash)
 486              		.loc 1 941 0
 487 0010 6B46     		mov	r3, sp
 488 0012 5B79     		ldrb	r3, [r3, #5]
 489 0014 002B     		cmp	r3, #0
 490 0016 01D1     		bne	.L33
 942:Generated_Source\PSoC4/CapSense_Structure.c ****         {
 943:Generated_Source\PSoC4/CapSense_Structure.c ****             ptrData.ptr = &CapSense_dsRam;
 491              		.loc 1 943 0
 492 0018 0F4A     		ldr	r2, .L38
 493              	.LVL56:
ARM GAS  C:\Users\YUANFA~1\AppData\Local\Temp\cc9Xhnxa.s 			page 27


 494 001a 02E0     		b	.L34
 495              	.L33:
 944:Generated_Source\PSoC4/CapSense_Structure.c ****         }
 945:Generated_Source\PSoC4/CapSense_Structure.c ****         else
 946:Generated_Source\PSoC4/CapSense_Structure.c ****         {
 947:Generated_Source\PSoC4/CapSense_Structure.c ****             ptrData.ptr = &CapSense_dsFlash;
 496              		.loc 1 947 0
 497 001c 0F4B     		ldr	r3, .L38+4
 498 001e 4033     		adds	r3, r3, #64
 499 0020 1A00     		movs	r2, r3
 500              	.L34:
 948:Generated_Source\PSoC4/CapSense_Structure.c ****         }
 949:Generated_Source\PSoC4/CapSense_Structure.c **** 
 950:Generated_Source\PSoC4/CapSense_Structure.c ****         /* Add offset to base address */
 951:Generated_Source\PSoC4/CapSense_Structure.c ****         ptrData.ptrUint8 += pData.offset;
 501              		.loc 1 951 0
 502 0022 6B46     		mov	r3, sp
 503 0024 1B88     		ldrh	r3, [r3]
 504              	.LVL57:
 505 0026 D318     		adds	r3, r2, r3
 952:Generated_Source\PSoC4/CapSense_Structure.c **** 
 953:Generated_Source\PSoC4/CapSense_Structure.c ****         /* Read data */
 954:Generated_Source\PSoC4/CapSense_Structure.c ****         if (DS_PARAM_TYPE_UINT8 == pData.type)
 506              		.loc 1 954 0
 507 0028 6A46     		mov	r2, sp
 508              	.LVL58:
 509 002a D279     		ldrb	r2, [r2, #7]
 510 002c 012A     		cmp	r2, #1
 511 002e 02D1     		bne	.L35
 955:Generated_Source\PSoC4/CapSense_Structure.c ****         {
 956:Generated_Source\PSoC4/CapSense_Structure.c ****             *value = (uint32) (*ptrData.ptrUint8);
 512              		.loc 1 956 0
 513 0030 1B78     		ldrb	r3, [r3]
 514 0032 2B60     		str	r3, [r5]
 515 0034 0CE0     		b	.L32
 516              	.L35:
 957:Generated_Source\PSoC4/CapSense_Structure.c ****         }
 958:Generated_Source\PSoC4/CapSense_Structure.c ****         else if (DS_PARAM_TYPE_UINT16 == pData.type)
 517              		.loc 1 958 0
 518 0036 022A     		cmp	r2, #2
 519 0038 02D1     		bne	.L36
 959:Generated_Source\PSoC4/CapSense_Structure.c ****         {
 960:Generated_Source\PSoC4/CapSense_Structure.c ****             *value = (uint32) (*ptrData.ptrUint16);
 520              		.loc 1 960 0
 521 003a 1B88     		ldrh	r3, [r3]
 522 003c 2B60     		str	r3, [r5]
 523 003e 07E0     		b	.L32
 524              	.L36:
 961:Generated_Source\PSoC4/CapSense_Structure.c ****         }
 962:Generated_Source\PSoC4/CapSense_Structure.c ****         else if (DS_PARAM_TYPE_UINT32 == pData.type)
 525              		.loc 1 962 0
 526 0040 032A     		cmp	r2, #3
 527 0042 02D1     		bne	.L37
 963:Generated_Source\PSoC4/CapSense_Structure.c ****         {
 964:Generated_Source\PSoC4/CapSense_Structure.c ****             *value = *ptrData.ptrUint32;
 528              		.loc 1 964 0
 529 0044 1B68     		ldr	r3, [r3]
ARM GAS  C:\Users\YUANFA~1\AppData\Local\Temp\cc9Xhnxa.s 			page 28


 530 0046 2B60     		str	r3, [r5]
 531 0048 02E0     		b	.L32
 532              	.L37:
 965:Generated_Source\PSoC4/CapSense_Structure.c ****         }
 966:Generated_Source\PSoC4/CapSense_Structure.c ****         else
 967:Generated_Source\PSoC4/CapSense_Structure.c ****         {
 968:Generated_Source\PSoC4/CapSense_Structure.c ****             /* Parameter comes here already validated. */
 969:Generated_Source\PSoC4/CapSense_Structure.c ****             CYASSERT(0u);
 533              		.loc 1 969 0 discriminator 1
 534 004a 0020     		movs	r0, #0
 535              	.LVL59:
 536 004c FFF7FEFF 		bl	CyHalt
 537              	.LVL60:
 538              	.L32:
 970:Generated_Source\PSoC4/CapSense_Structure.c ****         }
 971:Generated_Source\PSoC4/CapSense_Structure.c ****     }
 972:Generated_Source\PSoC4/CapSense_Structure.c **** 
 973:Generated_Source\PSoC4/CapSense_Structure.c ****     return result;
 974:Generated_Source\PSoC4/CapSense_Structure.c **** }
 539              		.loc 1 974 0
 540 0050 2000     		movs	r0, r4
 541 0052 03B0     		add	sp, sp, #12
 542              		@ sp needed
 543              	.LVL61:
 544              	.LVL62:
 545 0054 30BD     		pop	{r4, r5, pc}
 546              	.L39:
 547 0056 C046     		.align	2
 548              	.L38:
 549 0058 00000000 		.word	CapSense_dsRam
 550 005c 00000000 		.word	.LANCHOR0
 551              		.cfi_endproc
 552              	.LFE3:
 553              		.size	CapSense_GetParam, .-CapSense_GetParam
 554              		.section	.text.CapSense_SetParam,"ax",%progbits
 555              		.align	2
 556              		.global	CapSense_SetParam
 557              		.code	16
 558              		.thumb_func
 559              		.type	CapSense_SetParam, %function
 560              	CapSense_SetParam:
 561              	.LFB4:
 975:Generated_Source\PSoC4/CapSense_Structure.c **** 
 976:Generated_Source\PSoC4/CapSense_Structure.c **** 
 977:Generated_Source\PSoC4/CapSense_Structure.c **** /*******************************************************************************
 978:Generated_Source\PSoC4/CapSense_Structure.c **** * Function Name: CapSense_SetParam
 979:Generated_Source\PSoC4/CapSense_Structure.c **** ****************************************************************************//**
 980:Generated_Source\PSoC4/CapSense_Structure.c **** *
 981:Generated_Source\PSoC4/CapSense_Structure.c **** * \brief
 982:Generated_Source\PSoC4/CapSense_Structure.c **** *  Sets a new value for the specified parameter in the \ref group_structures.
 983:Generated_Source\PSoC4/CapSense_Structure.c **** *
 984:Generated_Source\PSoC4/CapSense_Structure.c **** * \details
 985:Generated_Source\PSoC4/CapSense_Structure.c **** *  This function sets the value of the specified parameter by the paramId
 986:Generated_Source\PSoC4/CapSense_Structure.c **** *  argument. The paramId for each register is available in the
 987:Generated_Source\PSoC4/CapSense_Structure.c **** *  CapSense RegisterMap header file as
 988:Generated_Source\PSoC4/CapSense_Structure.c **** *  CapSense_<ParameterName>_PARAM_ID. The paramId is a special
 989:Generated_Source\PSoC4/CapSense_Structure.c **** *  enumerated value generated by the customizer. The format of paramId is as
ARM GAS  C:\Users\YUANFA~1\AppData\Local\Temp\cc9Xhnxa.s 			page 29


 990:Generated_Source\PSoC4/CapSense_Structure.c **** *  follows:
 991:Generated_Source\PSoC4/CapSense_Structure.c **** *    1. [ byte 3 byte 2 byte 1 byte 0 ]
 992:Generated_Source\PSoC4/CapSense_Structure.c **** *    2. [ TTWFCCCC UIIIIIII MMMMMMMM LLLLLLLL ]
 993:Generated_Source\PSoC4/CapSense_Structure.c **** *    3. T - encodes the parameter type:
 994:Generated_Source\PSoC4/CapSense_Structure.c **** *      - 01b: uint8
 995:Generated_Source\PSoC4/CapSense_Structure.c **** *      - 10b: uint16
 996:Generated_Source\PSoC4/CapSense_Structure.c **** *      - 11b: uint32
 997:Generated_Source\PSoC4/CapSense_Structure.c **** *    4. W - indicates whether the parameter is writable:
 998:Generated_Source\PSoC4/CapSense_Structure.c **** *      - 0: ReadOnly
 999:Generated_Source\PSoC4/CapSense_Structure.c **** *      - 1: Read/Write
1000:Generated_Source\PSoC4/CapSense_Structure.c **** *    5. C - 4 bit CRC (X^3 + 1) of the whole paramId word, the C bits are
1001:Generated_Source\PSoC4/CapSense_Structure.c **** *       filled with 0s when the CRC is calculated.
1002:Generated_Source\PSoC4/CapSense_Structure.c **** *    6. U - indicates if the parameter affects the RAM Widget Object CRC.
1003:Generated_Source\PSoC4/CapSense_Structure.c **** *    7. I - specifies that the widgetId parameter belongs to
1004:Generated_Source\PSoC4/CapSense_Structure.c **** *    8. M,L - the parameter offset MSB and LSB accordingly in:
1005:Generated_Source\PSoC4/CapSense_Structure.c **** *      - Flash Data Structure if W bit is 0.
1006:Generated_Source\PSoC4/CapSense_Structure.c **** *      - RAM Data Structure if W bit is 1.
1007:Generated_Source\PSoC4/CapSense_Structure.c **** *
1008:Generated_Source\PSoC4/CapSense_Structure.c **** *  Refer to the \ref group_structures section for details of the data structure
1009:Generated_Source\PSoC4/CapSense_Structure.c **** *  organization and examples of its register access.
1010:Generated_Source\PSoC4/CapSense_Structure.c **** *
1011:Generated_Source\PSoC4/CapSense_Structure.c **** *  This function writes specified value into the desired register without
1012:Generated_Source\PSoC4/CapSense_Structure.c **** *  other registers update. It is application layer responsibility to keep all
1013:Generated_Source\PSoC4/CapSense_Structure.c **** *  the data structure registers aligned. Repeated call of
1014:Generated_Source\PSoC4/CapSense_Structure.c **** *  CapSense_Start() function helps aligning dependent register values.
1015:Generated_Source\PSoC4/CapSense_Structure.c **** *
1016:Generated_Source\PSoC4/CapSense_Structure.c **** * \param paramId
1017:Generated_Source\PSoC4/CapSense_Structure.c **** *  Specifies the ID of parameter to set its value.
1018:Generated_Source\PSoC4/CapSense_Structure.c **** *  A macro for the parameter ID can be found in the CapSense RegisterMap header
1019:Generated_Source\PSoC4/CapSense_Structure.c **** *  file defined as CapSense_<ParameterName>_PARAM_ID.
1020:Generated_Source\PSoC4/CapSense_Structure.c **** 
1021:Generated_Source\PSoC4/CapSense_Structure.c **** * \param value
1022:Generated_Source\PSoC4/CapSense_Structure.c **** *  Specifies the new parameter's value.
1023:Generated_Source\PSoC4/CapSense_Structure.c **** *
1024:Generated_Source\PSoC4/CapSense_Structure.c **** * \return
1025:Generated_Source\PSoC4/CapSense_Structure.c **** *  Returns the status of the operation:
1026:Generated_Source\PSoC4/CapSense_Structure.c **** *    - CYRET_SUCCESS - The operation is successfully completed.
1027:Generated_Source\PSoC4/CapSense_Structure.c **** *    - CYRET_BAD_PARAM - The input parameter is invalid.
1028:Generated_Source\PSoC4/CapSense_Structure.c **** *
1029:Generated_Source\PSoC4/CapSense_Structure.c **** *******************************************************************************/
1030:Generated_Source\PSoC4/CapSense_Structure.c **** cystatus CapSense_SetParam(uint32 paramId, uint32 value)
1031:Generated_Source\PSoC4/CapSense_Structure.c **** {
 562              		.loc 1 1031 0
 563              		.cfi_startproc
 564              		@ args = 0, pretend = 0, frame = 8
 565              		@ frame_needed = 0, uses_anonymous_args = 0
 566              	.LVL63:
 567 0000 70B5     		push	{r4, r5, r6, lr}
 568              		.cfi_def_cfa_offset 16
 569              		.cfi_offset 4, -16
 570              		.cfi_offset 5, -12
 571              		.cfi_offset 6, -8
 572              		.cfi_offset 14, -4
 573 0002 82B0     		sub	sp, sp, #8
 574              		.cfi_def_cfa_offset 24
 575 0004 0E00     		movs	r6, r1
1032:Generated_Source\PSoC4/CapSense_Structure.c ****     cystatus result;
ARM GAS  C:\Users\YUANFA~1\AppData\Local\Temp\cc9Xhnxa.s 			page 30


1033:Generated_Source\PSoC4/CapSense_Structure.c ****     PARAM_ID_STRUCT pData;
1034:Generated_Source\PSoC4/CapSense_Structure.c **** 
1035:Generated_Source\PSoC4/CapSense_Structure.c ****     union
1036:Generated_Source\PSoC4/CapSense_Structure.c ****     {
1037:Generated_Source\PSoC4/CapSense_Structure.c ****         volatile void   * ptr;
1038:Generated_Source\PSoC4/CapSense_Structure.c ****         volatile uint8  * ptrUint8;
1039:Generated_Source\PSoC4/CapSense_Structure.c ****         volatile uint16 * ptrUint16;
1040:Generated_Source\PSoC4/CapSense_Structure.c ****         volatile uint32 * ptrUint32;
1041:Generated_Source\PSoC4/CapSense_Structure.c ****     } ptrData;
1042:Generated_Source\PSoC4/CapSense_Structure.c **** 
1043:Generated_Source\PSoC4/CapSense_Structure.c ****     result = DsParseParamId(paramId, &pData);
 576              		.loc 1 1043 0
 577 0006 6946     		mov	r1, sp
 578              	.LVL64:
 579 0008 FFF7FEFF 		bl	DsParseParamId
 580              	.LVL65:
 581 000c 041E     		subs	r4, r0, #0
 582              	.LVL66:
1044:Generated_Source\PSoC4/CapSense_Structure.c **** 
1045:Generated_Source\PSoC4/CapSense_Structure.c ****     /* verify if parameter is writable */
1046:Generated_Source\PSoC4/CapSense_Structure.c ****     if (CYRET_SUCCESS == result)
 583              		.loc 1 1046 0
 584 000e 04D1     		bne	.L41
1047:Generated_Source\PSoC4/CapSense_Structure.c ****     {
1048:Generated_Source\PSoC4/CapSense_Structure.c ****         if (0u == pData.rw)
 585              		.loc 1 1048 0
 586 0010 6B46     		mov	r3, sp
 587 0012 9B79     		ldrb	r3, [r3, #6]
 588 0014 002B     		cmp	r3, #0
 589 0016 00D1     		bne	.L41
1049:Generated_Source\PSoC4/CapSense_Structure.c ****         {
1050:Generated_Source\PSoC4/CapSense_Structure.c ****             result = CYRET_BAD_PARAM;
 590              		.loc 1 1050 0
 591 0018 0134     		adds	r4, r4, #1
 592              	.L41:
 593              	.LVL67:
1051:Generated_Source\PSoC4/CapSense_Structure.c ****         }
1052:Generated_Source\PSoC4/CapSense_Structure.c ****     }
1053:Generated_Source\PSoC4/CapSense_Structure.c **** 
1054:Generated_Source\PSoC4/CapSense_Structure.c ****     /* Parse and validate paramId */
1055:Generated_Source\PSoC4/CapSense_Structure.c ****     if (CYRET_SUCCESS == result)
 594              		.loc 1 1055 0
 595 001a 002C     		cmp	r4, #0
 596 001c 27D1     		bne	.L42
1056:Generated_Source\PSoC4/CapSense_Structure.c ****     {
1057:Generated_Source\PSoC4/CapSense_Structure.c ****         /* Get base address of parameter */
1058:Generated_Source\PSoC4/CapSense_Structure.c ****         ptrData.ptr = &CapSense_dsRam;
1059:Generated_Source\PSoC4/CapSense_Structure.c **** 
1060:Generated_Source\PSoC4/CapSense_Structure.c ****         /* Add offset to base address */
1061:Generated_Source\PSoC4/CapSense_Structure.c ****         ptrData.ptrUint8 += pData.offset;
 597              		.loc 1 1061 0
 598 001e 6B46     		mov	r3, sp
 599 0020 1D88     		ldrh	r5, [r3]
 600 0022 144B     		ldr	r3, .L49
 601 0024 ED18     		adds	r5, r5, r3
1062:Generated_Source\PSoC4/CapSense_Structure.c **** 
1063:Generated_Source\PSoC4/CapSense_Structure.c ****         /* Write data */
ARM GAS  C:\Users\YUANFA~1\AppData\Local\Temp\cc9Xhnxa.s 			page 31


1064:Generated_Source\PSoC4/CapSense_Structure.c ****         if (DS_PARAM_TYPE_UINT8 == pData.type)
 602              		.loc 1 1064 0
 603 0026 6B46     		mov	r3, sp
 604 0028 DB79     		ldrb	r3, [r3, #7]
 605 002a 012B     		cmp	r3, #1
 606 002c 02D1     		bne	.L43
1065:Generated_Source\PSoC4/CapSense_Structure.c ****         {
1066:Generated_Source\PSoC4/CapSense_Structure.c ****             *ptrData.ptrUint8 = LO8(value);
 607              		.loc 1 1066 0
 608 002e F6B2     		uxtb	r6, r6
 609              	.LVL68:
 610 0030 2E70     		strb	r6, [r5]
 611 0032 0BE0     		b	.L44
 612              	.LVL69:
 613              	.L43:
1067:Generated_Source\PSoC4/CapSense_Structure.c ****         }
1068:Generated_Source\PSoC4/CapSense_Structure.c ****         else if (DS_PARAM_TYPE_UINT16 == pData.type)
 614              		.loc 1 1068 0
 615 0034 022B     		cmp	r3, #2
 616 0036 02D1     		bne	.L45
1069:Generated_Source\PSoC4/CapSense_Structure.c ****         {
1070:Generated_Source\PSoC4/CapSense_Structure.c ****             *ptrData.ptrUint16 = LO16(value);
 617              		.loc 1 1070 0
 618 0038 B6B2     		uxth	r6, r6
 619              	.LVL70:
 620 003a 2E80     		strh	r6, [r5]
 621 003c 06E0     		b	.L44
 622              	.LVL71:
 623              	.L45:
1071:Generated_Source\PSoC4/CapSense_Structure.c ****         }
1072:Generated_Source\PSoC4/CapSense_Structure.c ****         else if (DS_PARAM_TYPE_UINT32 == pData.type)
 624              		.loc 1 1072 0
 625 003e 032B     		cmp	r3, #3
 626 0040 01D1     		bne	.L46
1073:Generated_Source\PSoC4/CapSense_Structure.c ****         {
1074:Generated_Source\PSoC4/CapSense_Structure.c ****             *ptrData.ptrUint32 = value;
 627              		.loc 1 1074 0
 628 0042 2E60     		str	r6, [r5]
 629 0044 02E0     		b	.L44
 630              	.L46:
1075:Generated_Source\PSoC4/CapSense_Structure.c ****         }
1076:Generated_Source\PSoC4/CapSense_Structure.c ****         else
1077:Generated_Source\PSoC4/CapSense_Structure.c ****         {
1078:Generated_Source\PSoC4/CapSense_Structure.c ****             /* Parameter comes here already validated. */
1079:Generated_Source\PSoC4/CapSense_Structure.c ****             CYASSERT(0u);
 631              		.loc 1 1079 0 discriminator 1
 632 0046 0020     		movs	r0, #0
 633 0048 FFF7FEFF 		bl	CyHalt
 634              	.LVL72:
 635              	.L44:
1080:Generated_Source\PSoC4/CapSense_Structure.c ****         }
1081:Generated_Source\PSoC4/CapSense_Structure.c **** 
1082:Generated_Source\PSoC4/CapSense_Structure.c ****         #if (CapSense_ENABLE == (CapSense_TST_WDGT_CRC_EN || CapSense_TST_GLOBAL_CRC_EN))
1083:Generated_Source\PSoC4/CapSense_Structure.c ****             /* Update widget or global CRC if self-test is enabled and parameter affects it */
1084:Generated_Source\PSoC4/CapSense_Structure.c ****             if (0u != pData.affectsCrc)
 636              		.loc 1 1084 0
 637 004c 6B46     		mov	r3, sp
ARM GAS  C:\Users\YUANFA~1\AppData\Local\Temp\cc9Xhnxa.s 			page 32


 638 004e DB78     		ldrb	r3, [r3, #3]
 639 0050 002B     		cmp	r3, #0
 640 0052 0CD0     		beq	.L42
1085:Generated_Source\PSoC4/CapSense_Structure.c ****             {
1086:Generated_Source\PSoC4/CapSense_Structure.c ****                 if ((ptrData.ptrUint16 >= &CapSense_dsRam.csd0Config) &&
 641              		.loc 1 1086 0
 642 0054 084B     		ldr	r3, .L49+4
 643 0056 9D42     		cmp	r5, r3
 644 0058 05D3     		bcc	.L47
 645              		.loc 1 1086 0 is_stmt 0 discriminator 1
 646 005a 084B     		ldr	r3, .L49+8
 647 005c 9D42     		cmp	r5, r3
 648 005e 02D2     		bcs	.L47
1087:Generated_Source\PSoC4/CapSense_Structure.c ****                     (ptrData.ptrUint16 <  &CapSense_dsRam.glbCrc))
1088:Generated_Source\PSoC4/CapSense_Structure.c ****                 {
1089:Generated_Source\PSoC4/CapSense_Structure.c **** 
1090:Generated_Source\PSoC4/CapSense_Structure.c ****                     #if (CapSense_ENABLE == CapSense_TST_GLOBAL_CRC_EN)
1091:Generated_Source\PSoC4/CapSense_Structure.c ****                         CapSense_DsUpdateGlobalCrc();
 649              		.loc 1 1091 0 is_stmt 1
 650 0060 FFF7FEFF 		bl	CapSense_DsUpdateGlobalCrc
 651              	.LVL73:
 652 0064 03E0     		b	.L42
 653              	.L47:
1092:Generated_Source\PSoC4/CapSense_Structure.c ****                     #endif /* (CapSense_ENABLE == CapSense_TST_GLOBAL_CRC_EN) */
1093:Generated_Source\PSoC4/CapSense_Structure.c **** 
1094:Generated_Source\PSoC4/CapSense_Structure.c ****                 }
1095:Generated_Source\PSoC4/CapSense_Structure.c ****                 else
1096:Generated_Source\PSoC4/CapSense_Structure.c ****                 {
1097:Generated_Source\PSoC4/CapSense_Structure.c ****                     #if (CapSense_ENABLE == CapSense_TST_WDGT_CRC_EN)
1098:Generated_Source\PSoC4/CapSense_Structure.c ****                         CapSense_DsUpdateWidgetCrc((uint32)pData.widgetId);
 654              		.loc 1 1098 0
 655 0066 6B46     		mov	r3, sp
 656 0068 9878     		ldrb	r0, [r3, #2]
 657 006a FFF7FEFF 		bl	CapSense_DsUpdateWidgetCrc
 658              	.LVL74:
 659              	.L42:
1099:Generated_Source\PSoC4/CapSense_Structure.c ****                     #endif /* (CapSense_ENABLE == CapSense_TST_WDGT_CRC_EN) */
1100:Generated_Source\PSoC4/CapSense_Structure.c ****                 }
1101:Generated_Source\PSoC4/CapSense_Structure.c ****             }
1102:Generated_Source\PSoC4/CapSense_Structure.c ****         #endif /* (CapSense_ENABLE == (CapSense_TST_WDGT_CRC_EN || CapSense_TST_GLOBAL_CRC_EN)) */
1103:Generated_Source\PSoC4/CapSense_Structure.c ****     }
1104:Generated_Source\PSoC4/CapSense_Structure.c **** 
1105:Generated_Source\PSoC4/CapSense_Structure.c ****     return result;
1106:Generated_Source\PSoC4/CapSense_Structure.c **** }
 660              		.loc 1 1106 0
 661 006e 2000     		movs	r0, r4
 662 0070 02B0     		add	sp, sp, #8
 663              		@ sp needed
 664              	.LVL75:
 665 0072 70BD     		pop	{r4, r5, r6, pc}
 666              	.L50:
 667              		.align	2
 668              	.L49:
 669 0074 00000000 		.word	CapSense_dsRam
 670 0078 1E000000 		.word	CapSense_dsRam+30
 671 007c 22000000 		.word	CapSense_dsRam+34
 672              		.cfi_endproc
ARM GAS  C:\Users\YUANFA~1\AppData\Local\Temp\cc9Xhnxa.s 			page 33


 673              	.LFE4:
 674              		.size	CapSense_SetParam, .-CapSense_SetParam
 675              		.section	.text.CapSense_IsAnyWidgetActive,"ax",%progbits
 676              		.align	2
 677              		.global	CapSense_IsAnyWidgetActive
 678              		.code	16
 679              		.thumb_func
 680              		.type	CapSense_IsAnyWidgetActive, %function
 681              	CapSense_IsAnyWidgetActive:
 682              	.LFB5:
1107:Generated_Source\PSoC4/CapSense_Structure.c **** 
1108:Generated_Source\PSoC4/CapSense_Structure.c **** /*******************************************************************************
1109:Generated_Source\PSoC4/CapSense_Structure.c **** * Function Name: CapSense_IsAnyWidgetActive
1110:Generated_Source\PSoC4/CapSense_Structure.c **** ****************************************************************************//**
1111:Generated_Source\PSoC4/CapSense_Structure.c **** *
1112:Generated_Source\PSoC4/CapSense_Structure.c **** * \brief
1113:Generated_Source\PSoC4/CapSense_Structure.c **** *  Reports if any widget has detected a touch.
1114:Generated_Source\PSoC4/CapSense_Structure.c **** *
1115:Generated_Source\PSoC4/CapSense_Structure.c **** * \details
1116:Generated_Source\PSoC4/CapSense_Structure.c **** *  This function reports if any widget has detected a touch or not by extracting
1117:Generated_Source\PSoC4/CapSense_Structure.c **** *  information from the wdgtStatus registers
1118:Generated_Source\PSoC4/CapSense_Structure.c **** *  (CapSense_WDGT_STATUS<X>_VALUE). This function does not process a
1119:Generated_Source\PSoC4/CapSense_Structure.c **** *  widget but extracts processed results from the \ref group_structures.
1120:Generated_Source\PSoC4/CapSense_Structure.c **** *
1121:Generated_Source\PSoC4/CapSense_Structure.c **** * \return
1122:Generated_Source\PSoC4/CapSense_Structure.c **** *   Returns the touch detection status of all the widgets:
1123:Generated_Source\PSoC4/CapSense_Structure.c **** *     - Zero - No touch is detected in all the widgets or sensors.
1124:Generated_Source\PSoC4/CapSense_Structure.c **** *     - Non-zero - At least one widget or sensor detected a touch.
1125:Generated_Source\PSoC4/CapSense_Structure.c **** *
1126:Generated_Source\PSoC4/CapSense_Structure.c **** *******************************************************************************/
1127:Generated_Source\PSoC4/CapSense_Structure.c **** uint32 CapSense_IsAnyWidgetActive(void)
1128:Generated_Source\PSoC4/CapSense_Structure.c **** {
 683              		.loc 1 1128 0
 684              		.cfi_startproc
 685              		@ args = 0, pretend = 0, frame = 0
 686              		@ frame_needed = 0, uses_anonymous_args = 0
 687              		@ link register save eliminated.
 688              	.LVL76:
1129:Generated_Source\PSoC4/CapSense_Structure.c ****     uint32 result = 0Lu;
1130:Generated_Source\PSoC4/CapSense_Structure.c ****     uint32 wdWord;
1131:Generated_Source\PSoC4/CapSense_Structure.c **** 
1132:Generated_Source\PSoC4/CapSense_Structure.c ****     for (wdWord = CapSense_WDGT_STATUS_WORDS; wdWord-- > 0u;)
 689              		.loc 1 1132 0
 690 0000 0123     		movs	r3, #1
1129:Generated_Source\PSoC4/CapSense_Structure.c ****     uint32 result = 0Lu;
 691              		.loc 1 1129 0
 692 0002 0020     		movs	r0, #0
 693              		.loc 1 1132 0
 694 0004 05E0     		b	.L52
 695              	.LVL77:
 696              	.L53:
1133:Generated_Source\PSoC4/CapSense_Structure.c ****     {
1134:Generated_Source\PSoC4/CapSense_Structure.c ****         result |= CapSense_dsRam.wdgtStatus[wdWord];
 697              		.loc 1 1134 0
 698 0006 931D     		adds	r3, r2, #6
 699 0008 9B00     		lsls	r3, r3, #2
 700 000a 0449     		ldr	r1, .L54
ARM GAS  C:\Users\YUANFA~1\AppData\Local\Temp\cc9Xhnxa.s 			page 34


 701 000c 5B58     		ldr	r3, [r3, r1]
 702 000e 1843     		orrs	r0, r3
 703              	.LVL78:
1132:Generated_Source\PSoC4/CapSense_Structure.c ****     {
 704              		.loc 1 1132 0
 705 0010 1300     		movs	r3, r2
 706              	.LVL79:
 707              	.L52:
1132:Generated_Source\PSoC4/CapSense_Structure.c ****     {
 708              		.loc 1 1132 0 is_stmt 0 discriminator 1
 709 0012 5A1E     		subs	r2, r3, #1
 710              	.LVL80:
 711 0014 002B     		cmp	r3, #0
 712 0016 F6D1     		bne	.L53
1135:Generated_Source\PSoC4/CapSense_Structure.c ****     }
1136:Generated_Source\PSoC4/CapSense_Structure.c **** 
1137:Generated_Source\PSoC4/CapSense_Structure.c ****     return result;
1138:Generated_Source\PSoC4/CapSense_Structure.c **** }
 713              		.loc 1 1138 0 is_stmt 1
 714              		@ sp needed
 715 0018 7047     		bx	lr
 716              	.L55:
 717 001a C046     		.align	2
 718              	.L54:
 719 001c 00000000 		.word	CapSense_dsRam
 720              		.cfi_endproc
 721              	.LFE5:
 722              		.size	CapSense_IsAnyWidgetActive, .-CapSense_IsAnyWidgetActive
 723              		.section	.text.CapSense_IsWidgetActive,"ax",%progbits
 724              		.align	2
 725              		.global	CapSense_IsWidgetActive
 726              		.code	16
 727              		.thumb_func
 728              		.type	CapSense_IsWidgetActive, %function
 729              	CapSense_IsWidgetActive:
 730              	.LFB6:
1139:Generated_Source\PSoC4/CapSense_Structure.c **** 
1140:Generated_Source\PSoC4/CapSense_Structure.c **** 
1141:Generated_Source\PSoC4/CapSense_Structure.c **** /*******************************************************************************
1142:Generated_Source\PSoC4/CapSense_Structure.c **** * Function Name: CapSense_IsWidgetActive
1143:Generated_Source\PSoC4/CapSense_Structure.c **** ****************************************************************************//**
1144:Generated_Source\PSoC4/CapSense_Structure.c **** *
1145:Generated_Source\PSoC4/CapSense_Structure.c **** * \brief
1146:Generated_Source\PSoC4/CapSense_Structure.c **** *  Reports if the specified widget detects a touch on any of its sensors.
1147:Generated_Source\PSoC4/CapSense_Structure.c **** *
1148:Generated_Source\PSoC4/CapSense_Structure.c **** * \details
1149:Generated_Source\PSoC4/CapSense_Structure.c **** *  This function reports if the specified widget has detected a touch or not by
1150:Generated_Source\PSoC4/CapSense_Structure.c **** *  extracting information from the wdgtStatus registers
1151:Generated_Source\PSoC4/CapSense_Structure.c **** *  (CapSense_WDGT_STATUS<X>_VALUE). This function does not process the
1152:Generated_Source\PSoC4/CapSense_Structure.c **** *  widget but extracts processed results from the \ref group_structures.
1153:Generated_Source\PSoC4/CapSense_Structure.c **** *
1154:Generated_Source\PSoC4/CapSense_Structure.c **** * \param widgetId
1155:Generated_Source\PSoC4/CapSense_Structure.c **** *  Specifies the ID number of the widget to get its status.
1156:Generated_Source\PSoC4/CapSense_Structure.c **** *  A macro for the widget ID can be found in the CapSense Configuration header
1157:Generated_Source\PSoC4/CapSense_Structure.c **** *  file defined as CapSense_<WidgetName>_WDGT_ID.
1158:Generated_Source\PSoC4/CapSense_Structure.c **** *
1159:Generated_Source\PSoC4/CapSense_Structure.c **** * \return
ARM GAS  C:\Users\YUANFA~1\AppData\Local\Temp\cc9Xhnxa.s 			page 35


1160:Generated_Source\PSoC4/CapSense_Structure.c **** *  Returns the touch detection status of the specified widgets:
1161:Generated_Source\PSoC4/CapSense_Structure.c **** *    - Zero - No touch is detected in the specified widget or a wrong widgetId
1162:Generated_Source\PSoC4/CapSense_Structure.c **** *      is specified.
1163:Generated_Source\PSoC4/CapSense_Structure.c **** *    - Non-zero if at least one sensor of the specified widget is active, i.e.
1164:Generated_Source\PSoC4/CapSense_Structure.c **** *      a touch is detected.
1165:Generated_Source\PSoC4/CapSense_Structure.c **** *
1166:Generated_Source\PSoC4/CapSense_Structure.c **** *******************************************************************************/
1167:Generated_Source\PSoC4/CapSense_Structure.c **** uint32 CapSense_IsWidgetActive(uint32 widgetId)
1168:Generated_Source\PSoC4/CapSense_Structure.c **** {
 731              		.loc 1 1168 0
 732              		.cfi_startproc
 733              		@ args = 0, pretend = 0, frame = 0
 734              		@ frame_needed = 0, uses_anonymous_args = 0
 735              		@ link register save eliminated.
 736              	.LVL81:
1169:Generated_Source\PSoC4/CapSense_Structure.c ****     uint32 result = 0Lu;
1170:Generated_Source\PSoC4/CapSense_Structure.c **** 
1171:Generated_Source\PSoC4/CapSense_Structure.c ****     if (widgetId < CapSense_TOTAL_WIDGETS)
 737              		.loc 1 1171 0
 738 0000 0028     		cmp	r0, #0
 739 0002 0AD1     		bne	.L58
1172:Generated_Source\PSoC4/CapSense_Structure.c ****     {
1173:Generated_Source\PSoC4/CapSense_Structure.c ****         result = CapSense_GET_WIDGET_ACTIVE_STATUS(widgetId);
 740              		.loc 1 1173 0
 741 0004 1F23     		movs	r3, #31
 742 0006 0340     		ands	r3, r0
 743 0008 0122     		movs	r2, #1
 744 000a 9A40     		lsls	r2, r2, r3
 745 000c 4309     		lsrs	r3, r0, #5
 746 000e 0633     		adds	r3, r3, #6
 747 0010 9B00     		lsls	r3, r3, #2
 748 0012 0349     		ldr	r1, .L59
 749 0014 5858     		ldr	r0, [r3, r1]
 750              	.LVL82:
 751 0016 1040     		ands	r0, r2
 752              	.LVL83:
 753 0018 00E0     		b	.L57
 754              	.LVL84:
 755              	.L58:
1169:Generated_Source\PSoC4/CapSense_Structure.c ****     uint32 result = 0Lu;
 756              		.loc 1 1169 0
 757 001a 0020     		movs	r0, #0
 758              	.LVL85:
 759              	.L57:
1174:Generated_Source\PSoC4/CapSense_Structure.c ****     }
1175:Generated_Source\PSoC4/CapSense_Structure.c ****     return result;
1176:Generated_Source\PSoC4/CapSense_Structure.c **** }
 760              		.loc 1 1176 0
 761              		@ sp needed
 762 001c 7047     		bx	lr
 763              	.L60:
 764 001e C046     		.align	2
 765              	.L59:
 766 0020 00000000 		.word	CapSense_dsRam
 767              		.cfi_endproc
 768              	.LFE6:
 769              		.size	CapSense_IsWidgetActive, .-CapSense_IsWidgetActive
ARM GAS  C:\Users\YUANFA~1\AppData\Local\Temp\cc9Xhnxa.s 			page 36


 770              		.section	.text.CapSense_IsSensorActive,"ax",%progbits
 771              		.align	2
 772              		.global	CapSense_IsSensorActive
 773              		.code	16
 774              		.thumb_func
 775              		.type	CapSense_IsSensorActive, %function
 776              	CapSense_IsSensorActive:
 777              	.LFB7:
1177:Generated_Source\PSoC4/CapSense_Structure.c **** 
1178:Generated_Source\PSoC4/CapSense_Structure.c **** 
1179:Generated_Source\PSoC4/CapSense_Structure.c **** /*******************************************************************************
1180:Generated_Source\PSoC4/CapSense_Structure.c **** * Function Name: CapSense_IsSensorActive
1181:Generated_Source\PSoC4/CapSense_Structure.c **** ****************************************************************************//**
1182:Generated_Source\PSoC4/CapSense_Structure.c **** *
1183:Generated_Source\PSoC4/CapSense_Structure.c **** * \brief
1184:Generated_Source\PSoC4/CapSense_Structure.c **** *  Reports if the specified sensor in the widget detects a touch.
1185:Generated_Source\PSoC4/CapSense_Structure.c **** *
1186:Generated_Source\PSoC4/CapSense_Structure.c **** * \details
1187:Generated_Source\PSoC4/CapSense_Structure.c **** *  This function reports if the specified sensor in the widget has detected a
1188:Generated_Source\PSoC4/CapSense_Structure.c **** *  touch or not by extracting information from the wdgtStatus registers
1189:Generated_Source\PSoC4/CapSense_Structure.c **** *  (CapSense_WDGT_STATUS<X>_VALUE). This function does not process the
1190:Generated_Source\PSoC4/CapSense_Structure.c **** *  widget or sensor but extracts processed results from the \ref group_structures.
1191:Generated_Source\PSoC4/CapSense_Structure.c **** *
1192:Generated_Source\PSoC4/CapSense_Structure.c **** *  For proximity sensors, this function returns the proximity detection status. To
1193:Generated_Source\PSoC4/CapSense_Structure.c **** *  get the finger touch status of proximity sensors, use the
1194:Generated_Source\PSoC4/CapSense_Structure.c **** *  CapSense_IsProximitySensorActive() function.
1195:Generated_Source\PSoC4/CapSense_Structure.c **** *
1196:Generated_Source\PSoC4/CapSense_Structure.c **** * \param widgetId
1197:Generated_Source\PSoC4/CapSense_Structure.c **** *  Specifies the ID number of the widget.
1198:Generated_Source\PSoC4/CapSense_Structure.c **** *  A macro for the widget ID can be found in the CapSense Configuration header
1199:Generated_Source\PSoC4/CapSense_Structure.c **** *  file defined as CapSense_<WidgetName>_WDGT_ID.
1200:Generated_Source\PSoC4/CapSense_Structure.c **** 
1201:Generated_Source\PSoC4/CapSense_Structure.c **** * \param sensorId
1202:Generated_Source\PSoC4/CapSense_Structure.c **** *  Specifies the ID number of the sensor within the widget to get its touch
1203:Generated_Source\PSoC4/CapSense_Structure.c **** *  detection status.
1204:Generated_Source\PSoC4/CapSense_Structure.c **** *  A macro for the sensor ID within the specified widget can be found in the
1205:Generated_Source\PSoC4/CapSense_Structure.c **** *  CapSense Configuration header file defined as
1206:Generated_Source\PSoC4/CapSense_Structure.c **** *  CapSense_<WidgetName>_SNS<SensorNumber>_ID.
1207:Generated_Source\PSoC4/CapSense_Structure.c **** *
1208:Generated_Source\PSoC4/CapSense_Structure.c **** * \return
1209:Generated_Source\PSoC4/CapSense_Structure.c **** *  Returns the touch detection status of the specified sensor / widget:
1210:Generated_Source\PSoC4/CapSense_Structure.c **** *    - Zero if no touch is detected in the specified sensor / widget or a wrong
1211:Generated_Source\PSoC4/CapSense_Structure.c **** *      widget ID / sensor ID is specified.
1212:Generated_Source\PSoC4/CapSense_Structure.c **** *    - Non-zero if the specified sensor is active i.e. touch is detected. If the
1213:Generated_Source\PSoC4/CapSense_Structure.c **** *      specific sensor belongs to a proximity widget, the proximity detection
1214:Generated_Source\PSoC4/CapSense_Structure.c **** *      status is returned.
1215:Generated_Source\PSoC4/CapSense_Structure.c **** *
1216:Generated_Source\PSoC4/CapSense_Structure.c **** *******************************************************************************/
1217:Generated_Source\PSoC4/CapSense_Structure.c **** uint32 CapSense_IsSensorActive(uint32 widgetId, uint32 sensorId)
1218:Generated_Source\PSoC4/CapSense_Structure.c **** {
 778              		.loc 1 1218 0
 779              		.cfi_startproc
 780              		@ args = 0, pretend = 0, frame = 0
 781              		@ frame_needed = 0, uses_anonymous_args = 0
 782              		@ link register save eliminated.
 783              	.LVL86:
1219:Generated_Source\PSoC4/CapSense_Structure.c ****     uint32 result = 0Lu;
ARM GAS  C:\Users\YUANFA~1\AppData\Local\Temp\cc9Xhnxa.s 			page 37


1220:Generated_Source\PSoC4/CapSense_Structure.c **** 
1221:Generated_Source\PSoC4/CapSense_Structure.c ****     if ((widgetId < CapSense_TOTAL_WIDGETS) &&
 784              		.loc 1 1221 0
 785 0000 0028     		cmp	r0, #0
 786 0002 0FD1     		bne	.L63
1222:Generated_Source\PSoC4/CapSense_Structure.c ****         (sensorId < CapSense_GET_SENSOR_COUNT(widgetId)))
 787              		.loc 1 1222 0 discriminator 1
 788 0004 C200     		lsls	r2, r0, #3
 789 0006 121A     		subs	r2, r2, r0
 790 0008 D300     		lsls	r3, r2, #3
 791 000a 084A     		ldr	r2, .L65
 792 000c D318     		adds	r3, r2, r3
 793 000e 5833     		adds	r3, r3, #88
 794 0010 1B88     		ldrh	r3, [r3]
1221:Generated_Source\PSoC4/CapSense_Structure.c ****         (sensorId < CapSense_GET_SENSOR_COUNT(widgetId)))
 795              		.loc 1 1221 0 discriminator 1
 796 0012 8B42     		cmp	r3, r1
 797 0014 08D9     		bls	.L64
1223:Generated_Source\PSoC4/CapSense_Structure.c ****     {
1224:Generated_Source\PSoC4/CapSense_Structure.c ****         #if (CapSense_ENABLE == CapSense_PROXIMITY_WIDGET_EN)
1225:Generated_Source\PSoC4/CapSense_Structure.c ****             if (CapSense_WD_PROXIMITY_E ==
1226:Generated_Source\PSoC4/CapSense_Structure.c ****                 (CapSense_WD_TYPE_ENUM)CapSense_dsFlash.wdgtArray[widgetId].wdgtType)
1227:Generated_Source\PSoC4/CapSense_Structure.c ****             {
1228:Generated_Source\PSoC4/CapSense_Structure.c ****                 sensorId = CapSense_PROX_STS_OFFSET(sensorId);
1229:Generated_Source\PSoC4/CapSense_Structure.c ****             }
1230:Generated_Source\PSoC4/CapSense_Structure.c ****         #endif /* (CapSense_ENABLE != CapSense_PROXIMITY_WIDGET_EN) */
1231:Generated_Source\PSoC4/CapSense_Structure.c ****         result = CapSense_dsRam.snsStatus[widgetId] & (1Lu << sensorId);
 798              		.loc 1 1231 0
 799 0016 064B     		ldr	r3, .L65+4
 800 0018 1818     		adds	r0, r3, r0
 801              	.LVL87:
 802 001a 037F     		ldrb	r3, [r0, #28]
 803 001c 0120     		movs	r0, #1
 804 001e 8840     		lsls	r0, r0, r1
 805 0020 1840     		ands	r0, r3
 806              	.LVL88:
 807 0022 02E0     		b	.L62
 808              	.LVL89:
 809              	.L63:
1219:Generated_Source\PSoC4/CapSense_Structure.c **** 
 810              		.loc 1 1219 0
 811 0024 0020     		movs	r0, #0
 812              	.LVL90:
 813 0026 00E0     		b	.L62
 814              	.LVL91:
 815              	.L64:
 816 0028 0020     		movs	r0, #0
 817              	.LVL92:
 818              	.L62:
1232:Generated_Source\PSoC4/CapSense_Structure.c ****     }
1233:Generated_Source\PSoC4/CapSense_Structure.c **** 
1234:Generated_Source\PSoC4/CapSense_Structure.c ****     return result;
1235:Generated_Source\PSoC4/CapSense_Structure.c **** }
 819              		.loc 1 1235 0
 820              		@ sp needed
 821 002a 7047     		bx	lr
 822              	.L66:
ARM GAS  C:\Users\YUANFA~1\AppData\Local\Temp\cc9Xhnxa.s 			page 38


 823              		.align	2
 824              	.L65:
 825 002c 00000000 		.word	.LANCHOR0
 826 0030 00000000 		.word	CapSense_dsRam
 827              		.cfi_endproc
 828              	.LFE7:
 829              		.size	CapSense_IsSensorActive, .-CapSense_IsSensorActive
 830              		.section	.text.CapSense_GetXYCoordinates,"ax",%progbits
 831              		.align	2
 832              		.global	CapSense_GetXYCoordinates
 833              		.code	16
 834              		.thumb_func
 835              		.type	CapSense_GetXYCoordinates, %function
 836              	CapSense_GetXYCoordinates:
 837              	.LFB8:
1236:Generated_Source\PSoC4/CapSense_Structure.c **** 
1237:Generated_Source\PSoC4/CapSense_Structure.c **** #if (0u != CapSense_MATRIX_WIDGET_EN)
1238:Generated_Source\PSoC4/CapSense_Structure.c **** /*******************************************************************************
1239:Generated_Source\PSoC4/CapSense_Structure.c **** * Function Name: CapSense_IsMatrixButtonsActive
1240:Generated_Source\PSoC4/CapSense_Structure.c **** ****************************************************************************//**
1241:Generated_Source\PSoC4/CapSense_Structure.c **** *
1242:Generated_Source\PSoC4/CapSense_Structure.c **** * \brief
1243:Generated_Source\PSoC4/CapSense_Structure.c **** *  Reports the status of the specified matrix button widget.
1244:Generated_Source\PSoC4/CapSense_Structure.c **** *
1245:Generated_Source\PSoC4/CapSense_Structure.c **** * \details
1246:Generated_Source\PSoC4/CapSense_Structure.c **** *  This function reports if the specified matrix widget has detected a touch or
1247:Generated_Source\PSoC4/CapSense_Structure.c **** *  not by extracting information from the wdgtStatus registers
1248:Generated_Source\PSoC4/CapSense_Structure.c **** *  (CapSense_WDGT_STATUS<X>_VALUE for the CSD widgets and
1249:Generated_Source\PSoC4/CapSense_Structure.c **** *  CapSense_SNS_STATUS<WidgetId>_VALUE for CSX widget). In addition, the
1250:Generated_Source\PSoC4/CapSense_Structure.c **** *  function provides details of the active sensor including active rows/columns
1251:Generated_Source\PSoC4/CapSense_Structure.c **** *  for the CSD widgets. This function is used only with the matrix button
1252:Generated_Source\PSoC4/CapSense_Structure.c **** *  widgets. This function does not process the widget but extracts
1253:Generated_Source\PSoC4/CapSense_Structure.c **** *  processed results from the \ref group_structures.
1254:Generated_Source\PSoC4/CapSense_Structure.c **** *
1255:Generated_Source\PSoC4/CapSense_Structure.c **** * \param widgetId
1256:Generated_Source\PSoC4/CapSense_Structure.c **** *  Specifies the ID number of the matrix button widget to check the status of its
1257:Generated_Source\PSoC4/CapSense_Structure.c **** *  sensors.
1258:Generated_Source\PSoC4/CapSense_Structure.c **** *  A macro for the widget ID can be found in the CapSense Configuration header file
1259:Generated_Source\PSoC4/CapSense_Structure.c **** *  defined as CapSense_<WidgetName>_WDGT_ID
1260:Generated_Source\PSoC4/CapSense_Structure.c **** *
1261:Generated_Source\PSoC4/CapSense_Structure.c **** * \return
1262:Generated_Source\PSoC4/CapSense_Structure.c **** *  Returns the touch detection status of the sensors in the specified matrix
1263:Generated_Source\PSoC4/CapSense_Structure.c **** *  buttons widget. Zero indicates that no touch is detected in the specified
1264:Generated_Source\PSoC4/CapSense_Structure.c **** *  widget or a wrong widgetId is specified.
1265:Generated_Source\PSoC4/CapSense_Structure.c **** *    1. For the matrix buttons widgets with the CSD sensing mode:
1266:Generated_Source\PSoC4/CapSense_Structure.c **** *      - Bit [31] if set, indicates that one or more sensors in the widget
1267:Generated_Source\PSoC4/CapSense_Structure.c **** *        detected a touch.
1268:Generated_Source\PSoC4/CapSense_Structure.c **** *      - Bits [30..24] are reserved
1269:Generated_Source\PSoC4/CapSense_Structure.c **** *      - Bits [23..16] indicate the logical sensor number of the sensor that
1270:Generated_Source\PSoC4/CapSense_Structure.c **** *        detected a touch. If more than one sensor detected a touch for the CSD
1271:Generated_Source\PSoC4/CapSense_Structure.c **** *        widget, no status is reported because more than one touch is invalid for the
1272:Generated_Source\PSoC4/CapSense_Structure.c **** *        CSD matrix buttons widgets.
1273:Generated_Source\PSoC4/CapSense_Structure.c **** *      - Bits [15..8] indicate the active row number.
1274:Generated_Source\PSoC4/CapSense_Structure.c **** *      - Bits [7..0] indicate the active column number.
1275:Generated_Source\PSoC4/CapSense_Structure.c **** *    2. For the matrix buttons widgets with the CSX widgets, each bit (31..0)
1276:Generated_Source\PSoC4/CapSense_Structure.c **** *      corresponds to the TX/RX intersection.
1277:Generated_Source\PSoC4/CapSense_Structure.c **** *
ARM GAS  C:\Users\YUANFA~1\AppData\Local\Temp\cc9Xhnxa.s 			page 39


1278:Generated_Source\PSoC4/CapSense_Structure.c **** *******************************************************************************/
1279:Generated_Source\PSoC4/CapSense_Structure.c **** uint32 CapSense_IsMatrixButtonsActive(uint32 widgetId)
1280:Generated_Source\PSoC4/CapSense_Structure.c **** {
1281:Generated_Source\PSoC4/CapSense_Structure.c ****     uint32 result = 0Lu;
1282:Generated_Source\PSoC4/CapSense_Structure.c ****     cystatus state = CYRET_SUCCESS;
1283:Generated_Source\PSoC4/CapSense_Structure.c ****     CapSense_FLASH_WD_STRUCT const *ptrFlashWdgt = 0u;
1284:Generated_Source\PSoC4/CapSense_Structure.c **** 
1285:Generated_Source\PSoC4/CapSense_Structure.c ****     #if (0u != CapSense_CSD_MATRIX_WIDGET_EN)
1286:Generated_Source\PSoC4/CapSense_Structure.c ****         CapSense_RAM_WD_CSD_MATRIX_STRUCT *wdCsdMatrix;
1287:Generated_Source\PSoC4/CapSense_Structure.c ****     #endif
1288:Generated_Source\PSoC4/CapSense_Structure.c **** 
1289:Generated_Source\PSoC4/CapSense_Structure.c ****     if (widgetId >= CapSense_TOTAL_WIDGETS)
1290:Generated_Source\PSoC4/CapSense_Structure.c ****     {
1291:Generated_Source\PSoC4/CapSense_Structure.c ****         state = CYRET_BAD_PARAM;
1292:Generated_Source\PSoC4/CapSense_Structure.c ****     }
1293:Generated_Source\PSoC4/CapSense_Structure.c ****     else
1294:Generated_Source\PSoC4/CapSense_Structure.c ****     {
1295:Generated_Source\PSoC4/CapSense_Structure.c ****         ptrFlashWdgt = &CapSense_dsFlash.wdgtArray[widgetId];
1296:Generated_Source\PSoC4/CapSense_Structure.c **** 
1297:Generated_Source\PSoC4/CapSense_Structure.c ****         if ((CapSense_WD_TYPE_ENUM)ptrFlashWdgt->wdgtType != CapSense_WD_MATRIX_BUTTON_E)
1298:Generated_Source\PSoC4/CapSense_Structure.c ****         {
1299:Generated_Source\PSoC4/CapSense_Structure.c ****             state = CYRET_BAD_PARAM;
1300:Generated_Source\PSoC4/CapSense_Structure.c ****         }
1301:Generated_Source\PSoC4/CapSense_Structure.c ****         else if (0u == CapSense_GET_WIDGET_ACTIVE_STATUS(widgetId))
1302:Generated_Source\PSoC4/CapSense_Structure.c ****         {
1303:Generated_Source\PSoC4/CapSense_Structure.c ****             state = CYRET_BAD_PARAM;
1304:Generated_Source\PSoC4/CapSense_Structure.c ****         }
1305:Generated_Source\PSoC4/CapSense_Structure.c ****         else
1306:Generated_Source\PSoC4/CapSense_Structure.c ****         {
1307:Generated_Source\PSoC4/CapSense_Structure.c ****             /* input parameters are OK */
1308:Generated_Source\PSoC4/CapSense_Structure.c ****         }
1309:Generated_Source\PSoC4/CapSense_Structure.c ****     }
1310:Generated_Source\PSoC4/CapSense_Structure.c **** 
1311:Generated_Source\PSoC4/CapSense_Structure.c ****     if (CYRET_SUCCESS == state)
1312:Generated_Source\PSoC4/CapSense_Structure.c ****     {
1313:Generated_Source\PSoC4/CapSense_Structure.c ****         switch(CapSense_GET_SENSE_METHOD(ptrFlashWdgt))
1314:Generated_Source\PSoC4/CapSense_Structure.c ****         {
1315:Generated_Source\PSoC4/CapSense_Structure.c ****         #if (0u != CapSense_CSD_MATRIX_WIDGET_EN)
1316:Generated_Source\PSoC4/CapSense_Structure.c ****             case CapSense_SENSE_METHOD_CSD_E:
1317:Generated_Source\PSoC4/CapSense_Structure.c ****                 wdCsdMatrix = ptrFlashWdgt->ptr2WdgtRam;
1318:Generated_Source\PSoC4/CapSense_Structure.c **** 
1319:Generated_Source\PSoC4/CapSense_Structure.c ****                 result = CapSense_MATRIX_BUTTONS_TOUCHED |
1320:Generated_Source\PSoC4/CapSense_Structure.c ****                          ((uint32)wdCsdMatrix->posSnsId << 16u)  |
1321:Generated_Source\PSoC4/CapSense_Structure.c ****                          ((uint32)wdCsdMatrix->posRow   << 8u)   |
1322:Generated_Source\PSoC4/CapSense_Structure.c ****                          (uint32)wdCsdMatrix->posCol;
1323:Generated_Source\PSoC4/CapSense_Structure.c ****                 break;
1324:Generated_Source\PSoC4/CapSense_Structure.c ****         #endif /* #if (0u != CapSense_CSD_MATRIX_WIDGET_EN) */
1325:Generated_Source\PSoC4/CapSense_Structure.c **** 
1326:Generated_Source\PSoC4/CapSense_Structure.c ****         #if (0u != CapSense_CSX_MATRIX_WIDGET_EN)
1327:Generated_Source\PSoC4/CapSense_Structure.c ****             case CapSense_SENSE_METHOD_CSX_E:
1328:Generated_Source\PSoC4/CapSense_Structure.c ****                 result = CapSense_dsRam.snsStatus[widgetId];
1329:Generated_Source\PSoC4/CapSense_Structure.c ****                 break;
1330:Generated_Source\PSoC4/CapSense_Structure.c ****         #endif /* #if (0u != CapSense_CSX_MATRIX_WIDGET_EN) */
1331:Generated_Source\PSoC4/CapSense_Structure.c **** 
1332:Generated_Source\PSoC4/CapSense_Structure.c ****         default:
1333:Generated_Source\PSoC4/CapSense_Structure.c ****             CYASSERT(0u);
1334:Generated_Source\PSoC4/CapSense_Structure.c ****             break;
ARM GAS  C:\Users\YUANFA~1\AppData\Local\Temp\cc9Xhnxa.s 			page 40


1335:Generated_Source\PSoC4/CapSense_Structure.c ****         }
1336:Generated_Source\PSoC4/CapSense_Structure.c ****     }
1337:Generated_Source\PSoC4/CapSense_Structure.c **** 
1338:Generated_Source\PSoC4/CapSense_Structure.c ****     return result;
1339:Generated_Source\PSoC4/CapSense_Structure.c **** }
1340:Generated_Source\PSoC4/CapSense_Structure.c **** #endif /* #if (0u != CapSense_MATRIX_WIDGET_EN) */
1341:Generated_Source\PSoC4/CapSense_Structure.c **** 
1342:Generated_Source\PSoC4/CapSense_Structure.c **** #if (0u != CapSense_PROXIMITY_WIDGET_EN)
1343:Generated_Source\PSoC4/CapSense_Structure.c **** /*******************************************************************************
1344:Generated_Source\PSoC4/CapSense_Structure.c **** * Function Name: CapSense_IsProximitySensorActive
1345:Generated_Source\PSoC4/CapSense_Structure.c **** ****************************************************************************//**
1346:Generated_Source\PSoC4/CapSense_Structure.c **** *
1347:Generated_Source\PSoC4/CapSense_Structure.c **** * \brief
1348:Generated_Source\PSoC4/CapSense_Structure.c **** *  Reports the finger detection status of the specified proximity widget/sensor.
1349:Generated_Source\PSoC4/CapSense_Structure.c **** *
1350:Generated_Source\PSoC4/CapSense_Structure.c **** * \details
1351:Generated_Source\PSoC4/CapSense_Structure.c **** *  This function reports if the specified proximity sensor has detected a touch
1352:Generated_Source\PSoC4/CapSense_Structure.c **** *  or not by extracting information from the wdgtStatus registers
1353:Generated_Source\PSoC4/CapSense_Structure.c **** *  (CapSense_SNS_STATUS<WidgetId>_VALUE). This function is used
1354:Generated_Source\PSoC4/CapSense_Structure.c **** *  only with proximity sensor widgets. This function does not process the
1355:Generated_Source\PSoC4/CapSense_Structure.c **** *  widget but extracts processed results from the \ref group_structures.
1356:Generated_Source\PSoC4/CapSense_Structure.c **** *
1357:Generated_Source\PSoC4/CapSense_Structure.c **** * \param widgetId
1358:Generated_Source\PSoC4/CapSense_Structure.c **** *  Specifies the ID number of the proximity widget.
1359:Generated_Source\PSoC4/CapSense_Structure.c **** *  A macro for the widget ID can be found in the CapSense Configuration header
1360:Generated_Source\PSoC4/CapSense_Structure.c **** *  file defined as CapSense_<WidgetName>_WDGT_ID
1361:Generated_Source\PSoC4/CapSense_Structure.c **** *
1362:Generated_Source\PSoC4/CapSense_Structure.c **** * \param proxId
1363:Generated_Source\PSoC4/CapSense_Structure.c **** *  Specifies the ID number of the proximity sensor within the proximity widget to
1364:Generated_Source\PSoC4/CapSense_Structure.c **** *  get its touch detection status.
1365:Generated_Source\PSoC4/CapSense_Structure.c **** *  A macro for the proximity ID within a specified widget can be found in the
1366:Generated_Source\PSoC4/CapSense_Structure.c **** *  CapSense Configuration header file defined as
1367:Generated_Source\PSoC4/CapSense_Structure.c **** *  CapSense_<WidgetName>_SNS<SensorNumber>_ID
1368:Generated_Source\PSoC4/CapSense_Structure.c **** *
1369:Generated_Source\PSoC4/CapSense_Structure.c **** * \return
1370:Generated_Source\PSoC4/CapSense_Structure.c **** *  Returns the status of the specified sensor of the proximity widget. Zero
1371:Generated_Source\PSoC4/CapSense_Structure.c **** *  indicates that no touch is detected in the specified sensor / widget or a
1372:Generated_Source\PSoC4/CapSense_Structure.c **** *  wrong widgetId / proxId is specified.
1373:Generated_Source\PSoC4/CapSense_Structure.c **** *    - Bits [31..2] are reserved.
1374:Generated_Source\PSoC4/CapSense_Structure.c **** *    - Bit [1] indicates that a touch is detected.
1375:Generated_Source\PSoC4/CapSense_Structure.c **** *    - Bit [0] indicates that a proximity is detected.
1376:Generated_Source\PSoC4/CapSense_Structure.c **** *
1377:Generated_Source\PSoC4/CapSense_Structure.c **** *******************************************************************************/
1378:Generated_Source\PSoC4/CapSense_Structure.c **** uint32 CapSense_IsProximitySensorActive(uint32 widgetId, uint32 proxId)
1379:Generated_Source\PSoC4/CapSense_Structure.c **** {
1380:Generated_Source\PSoC4/CapSense_Structure.c ****     uint32 result = 0Lu;
1381:Generated_Source\PSoC4/CapSense_Structure.c **** 
1382:Generated_Source\PSoC4/CapSense_Structure.c ****     if ((widgetId < CapSense_TOTAL_WIDGETS) && (proxId < CapSense_GET_SENSOR_COUNT(widgetId)) &&
1383:Generated_Source\PSoC4/CapSense_Structure.c ****         (CapSense_WD_PROXIMITY_E ==
1384:Generated_Source\PSoC4/CapSense_Structure.c ****             (CapSense_WD_TYPE_ENUM)CapSense_dsFlash.wdgtArray[widgetId].wdgtType))
1385:Generated_Source\PSoC4/CapSense_Structure.c ****     {
1386:Generated_Source\PSoC4/CapSense_Structure.c ****         result = CapSense_dsRam.snsStatus[widgetId];
1387:Generated_Source\PSoC4/CapSense_Structure.c ****         result >>= CapSense_PROX_STS_OFFSET(proxId);
1388:Generated_Source\PSoC4/CapSense_Structure.c ****         result &=  CapSense_PROX_STS_MASK;
1389:Generated_Source\PSoC4/CapSense_Structure.c ****     }
1390:Generated_Source\PSoC4/CapSense_Structure.c **** 
1391:Generated_Source\PSoC4/CapSense_Structure.c ****     return result;
ARM GAS  C:\Users\YUANFA~1\AppData\Local\Temp\cc9Xhnxa.s 			page 41


1392:Generated_Source\PSoC4/CapSense_Structure.c **** }
1393:Generated_Source\PSoC4/CapSense_Structure.c **** #endif /* #if (0u != CapSense_PROXIMITY_WIDGET_EN) */
1394:Generated_Source\PSoC4/CapSense_Structure.c **** 
1395:Generated_Source\PSoC4/CapSense_Structure.c **** 
1396:Generated_Source\PSoC4/CapSense_Structure.c **** #if (0u != CapSense_SLIDER_WIDGET_EN)
1397:Generated_Source\PSoC4/CapSense_Structure.c **** /*******************************************************************************
1398:Generated_Source\PSoC4/CapSense_Structure.c **** * Function Name: CapSense_GetCentroidPos
1399:Generated_Source\PSoC4/CapSense_Structure.c **** ****************************************************************************//**
1400:Generated_Source\PSoC4/CapSense_Structure.c **** *
1401:Generated_Source\PSoC4/CapSense_Structure.c **** * \brief
1402:Generated_Source\PSoC4/CapSense_Structure.c **** *  Reports the centroid position for the specified slider widget.
1403:Generated_Source\PSoC4/CapSense_Structure.c **** *
1404:Generated_Source\PSoC4/CapSense_Structure.c **** * \details
1405:Generated_Source\PSoC4/CapSense_Structure.c **** *  This function reports the centroid value of a specified radial or linear
1406:Generated_Source\PSoC4/CapSense_Structure.c **** *  slider widget by extracting information from the wdgtStatus registers
1407:Generated_Source\PSoC4/CapSense_Structure.c **** *  (CapSense_<WidgetName>_POSITION<X>_VALUE). This function is
1408:Generated_Source\PSoC4/CapSense_Structure.c **** *  used only with radial or linear slider widgets. This function does not
1409:Generated_Source\PSoC4/CapSense_Structure.c **** *  process the widget but extracts processed results from the \ref group_structures.
1410:Generated_Source\PSoC4/CapSense_Structure.c **** *
1411:Generated_Source\PSoC4/CapSense_Structure.c **** * \param widgetId
1412:Generated_Source\PSoC4/CapSense_Structure.c **** *  Specifies the ID number of a slider widget to get the centroid of the
1413:Generated_Source\PSoC4/CapSense_Structure.c **** *  detected touch.
1414:Generated_Source\PSoC4/CapSense_Structure.c **** *  A macro for the widget ID can be found in the
1415:Generated_Source\PSoC4/CapSense_Structure.c **** *  CapSense Configuration header file defined as
1416:Generated_Source\PSoC4/CapSense_Structure.c **** *  CapSense_<WidgetName>_WDGT_ID
1417:Generated_Source\PSoC4/CapSense_Structure.c **** *
1418:Generated_Source\PSoC4/CapSense_Structure.c **** * \return
1419:Generated_Source\PSoC4/CapSense_Structure.c **** *  Returns the centroid position of a specified slider widget:
1420:Generated_Source\PSoC4/CapSense_Structure.c **** *    - The centroid position if a touch is detected.
1421:Generated_Source\PSoC4/CapSense_Structure.c **** *    - CapSense_SLIDER_NO_TOUCH - No touch is detected or a wrong
1422:Generated_Source\PSoC4/CapSense_Structure.c **** *      widgetId is specified.
1423:Generated_Source\PSoC4/CapSense_Structure.c **** *
1424:Generated_Source\PSoC4/CapSense_Structure.c **** *******************************************************************************/
1425:Generated_Source\PSoC4/CapSense_Structure.c **** uint32 CapSense_GetCentroidPos(uint32 widgetId)
1426:Generated_Source\PSoC4/CapSense_Structure.c **** {
1427:Generated_Source\PSoC4/CapSense_Structure.c ****     uint32 result = CapSense_SLIDER_NO_TOUCH;
1428:Generated_Source\PSoC4/CapSense_Structure.c ****     CapSense_RAM_WD_SLIDER_STRUCT *wdSlider;
1429:Generated_Source\PSoC4/CapSense_Structure.c **** 
1430:Generated_Source\PSoC4/CapSense_Structure.c ****     if ((widgetId < CapSense_TOTAL_WIDGETS) &&
1431:Generated_Source\PSoC4/CapSense_Structure.c ****         ((CapSense_WD_LINEAR_SLIDER_E ==
1432:Generated_Source\PSoC4/CapSense_Structure.c ****             (CapSense_WD_TYPE_ENUM)CapSense_dsFlash.wdgtArray[widgetId].wdgtType) ||
1433:Generated_Source\PSoC4/CapSense_Structure.c ****          (CapSense_WD_RADIAL_SLIDER_E ==
1434:Generated_Source\PSoC4/CapSense_Structure.c ****             (CapSense_WD_TYPE_ENUM)CapSense_dsFlash.wdgtArray[widgetId].wdgtType)))
1435:Generated_Source\PSoC4/CapSense_Structure.c ****     {
1436:Generated_Source\PSoC4/CapSense_Structure.c ****         wdSlider = CapSense_dsFlash.wdgtArray[widgetId].ptr2WdgtRam;
1437:Generated_Source\PSoC4/CapSense_Structure.c ****         result = (uint32)wdSlider->position[0u];
1438:Generated_Source\PSoC4/CapSense_Structure.c ****     }
1439:Generated_Source\PSoC4/CapSense_Structure.c **** 
1440:Generated_Source\PSoC4/CapSense_Structure.c ****     return result;
1441:Generated_Source\PSoC4/CapSense_Structure.c **** }
1442:Generated_Source\PSoC4/CapSense_Structure.c **** #endif /* #if (0u != CapSense_SLIDER_WIDGET_EN) */
1443:Generated_Source\PSoC4/CapSense_Structure.c **** 
1444:Generated_Source\PSoC4/CapSense_Structure.c **** 
1445:Generated_Source\PSoC4/CapSense_Structure.c **** #if (0u != CapSense_TOUCHPAD_WIDGET_EN)
1446:Generated_Source\PSoC4/CapSense_Structure.c **** /*******************************************************************************
1447:Generated_Source\PSoC4/CapSense_Structure.c **** * Function Name: CapSense_GetXYCoordinates
1448:Generated_Source\PSoC4/CapSense_Structure.c **** ****************************************************************************//**
ARM GAS  C:\Users\YUANFA~1\AppData\Local\Temp\cc9Xhnxa.s 			page 42


1449:Generated_Source\PSoC4/CapSense_Structure.c **** *
1450:Generated_Source\PSoC4/CapSense_Structure.c **** * \brief
1451:Generated_Source\PSoC4/CapSense_Structure.c **** *  Reports the X/Y position detected for the specified touchpad widget.
1452:Generated_Source\PSoC4/CapSense_Structure.c **** *
1453:Generated_Source\PSoC4/CapSense_Structure.c **** * \details
1454:Generated_Source\PSoC4/CapSense_Structure.c **** *  This function reports a touch position (X and Y coordinates) value of a
1455:Generated_Source\PSoC4/CapSense_Structure.c **** *  specified touchpad widget by extracting information from the wdgtStatus
1456:Generated_Source\PSoC4/CapSense_Structure.c **** *  registers (CapSense_<WidgetName>_POS_Y_VALUE). This function should
1457:Generated_Source\PSoC4/CapSense_Structure.c **** *  be used only with the touchpad widgets. This function does not process the
1458:Generated_Source\PSoC4/CapSense_Structure.c **** *  widget but extracts processed results from the \ref group_structures.
1459:Generated_Source\PSoC4/CapSense_Structure.c **** *
1460:Generated_Source\PSoC4/CapSense_Structure.c **** * \param widgetId
1461:Generated_Source\PSoC4/CapSense_Structure.c **** *  Specifies the ID number of a touchpad widget to get the X/Y position of a
1462:Generated_Source\PSoC4/CapSense_Structure.c **** *  detected touch.
1463:Generated_Source\PSoC4/CapSense_Structure.c **** *  A macro for the widget ID can be found in the
1464:Generated_Source\PSoC4/CapSense_Structure.c **** *  CapSense Configuration header file defined as
1465:Generated_Source\PSoC4/CapSense_Structure.c **** *  CapSense_<WidgetName>_WDGT_ID.
1466:Generated_Source\PSoC4/CapSense_Structure.c **** *
1467:Generated_Source\PSoC4/CapSense_Structure.c **** * \return
1468:Generated_Source\PSoC4/CapSense_Structure.c **** *  Returns the touch position of a specified touchpad widget:
1469:Generated_Source\PSoC4/CapSense_Structure.c **** *    1. If a touch is detected:
1470:Generated_Source\PSoC4/CapSense_Structure.c **** *      - Bits [31..16] indicate the Y coordinate.
1471:Generated_Source\PSoC4/CapSense_Structure.c **** *      - Bits [15..0] indicate the X coordinate.
1472:Generated_Source\PSoC4/CapSense_Structure.c **** *    2. If no touch is detected or a wrong widgetId is specified:
1473:Generated_Source\PSoC4/CapSense_Structure.c **** *      - CapSense_TOUCHPAD_NO_TOUCH.
1474:Generated_Source\PSoC4/CapSense_Structure.c **** *
1475:Generated_Source\PSoC4/CapSense_Structure.c **** *******************************************************************************/
1476:Generated_Source\PSoC4/CapSense_Structure.c **** uint32 CapSense_GetXYCoordinates(uint32 widgetId)
1477:Generated_Source\PSoC4/CapSense_Structure.c **** {
 838              		.loc 1 1477 0
 839              		.cfi_startproc
 840              		@ args = 0, pretend = 0, frame = 0
 841              		@ frame_needed = 0, uses_anonymous_args = 0
 842              	.LVL93:
 843 0000 10B5     		push	{r4, lr}
 844              		.cfi_def_cfa_offset 8
 845              		.cfi_offset 4, -8
 846              		.cfi_offset 14, -4
 847              	.LVL94:
1478:Generated_Source\PSoC4/CapSense_Structure.c ****     CapSense_FLASH_WD_STRUCT const *ptrFlashWdgt = NULL;
1479:Generated_Source\PSoC4/CapSense_Structure.c **** 
1480:Generated_Source\PSoC4/CapSense_Structure.c ****     #if (0u != CapSense_CSD_TOUCHPAD_WIDGET_EN)
1481:Generated_Source\PSoC4/CapSense_Structure.c ****         CapSense_RAM_WD_CSD_TOUCHPAD_STRUCT *wdCsdTouchpad;
1482:Generated_Source\PSoC4/CapSense_Structure.c ****     #endif /* #if (0u != CapSense_CSD_TOUCHPAD_WIDGET_EN) */
1483:Generated_Source\PSoC4/CapSense_Structure.c **** 
1484:Generated_Source\PSoC4/CapSense_Structure.c ****     #if (0u != CapSense_CSX_TOUCHPAD_WIDGET_EN)
1485:Generated_Source\PSoC4/CapSense_Structure.c ****         CapSense_RAM_WD_CSX_TOUCHPAD_STRUCT *wdCsxTouchpad;
1486:Generated_Source\PSoC4/CapSense_Structure.c ****     #endif /* #if (0u != CapSense_CSX_TOUCHPAD_WIDGET_EN) */
1487:Generated_Source\PSoC4/CapSense_Structure.c **** 
1488:Generated_Source\PSoC4/CapSense_Structure.c ****     cystatus state = CYRET_SUCCESS;
1489:Generated_Source\PSoC4/CapSense_Structure.c ****     uint32 result = CapSense_TOUCHPAD_NO_TOUCH;
1490:Generated_Source\PSoC4/CapSense_Structure.c **** 
1491:Generated_Source\PSoC4/CapSense_Structure.c ****     if (widgetId >= CapSense_TOTAL_WIDGETS)
 848              		.loc 1 1491 0
 849 0002 0028     		cmp	r0, #0
 850 0004 0BD1     		bne	.L70
1492:Generated_Source\PSoC4/CapSense_Structure.c ****     {
ARM GAS  C:\Users\YUANFA~1\AppData\Local\Temp\cc9Xhnxa.s 			page 43


1493:Generated_Source\PSoC4/CapSense_Structure.c ****         state = CYRET_BAD_PARAM;
1494:Generated_Source\PSoC4/CapSense_Structure.c ****     }
1495:Generated_Source\PSoC4/CapSense_Structure.c ****     else
1496:Generated_Source\PSoC4/CapSense_Structure.c ****     {
1497:Generated_Source\PSoC4/CapSense_Structure.c ****         ptrFlashWdgt = &CapSense_dsFlash.wdgtArray[widgetId];
 851              		.loc 1 1497 0
 852 0006 0D4B     		ldr	r3, .L73
 853 0008 4033     		adds	r3, r3, #64
 854 000a 1900     		movs	r1, r3
 855 000c C300     		lsls	r3, r0, #3
 856 000e 1C1A     		subs	r4, r3, r0
 857 0010 E200     		lsls	r2, r4, #3
 858 0012 8A18     		adds	r2, r1, r2
 859              	.LVL95:
1498:Generated_Source\PSoC4/CapSense_Structure.c **** 
1499:Generated_Source\PSoC4/CapSense_Structure.c ****         if ((CapSense_WD_TYPE_ENUM)ptrFlashWdgt->wdgtType != CapSense_WD_TOUCHPAD_E)
 860              		.loc 1 1499 0
 861 0014 937E     		ldrb	r3, [r2, #26]
 862 0016 052B     		cmp	r3, #5
 863 0018 04D1     		bne	.L71
1488:Generated_Source\PSoC4/CapSense_Structure.c ****     uint32 result = CapSense_TOUCHPAD_NO_TOUCH;
 864              		.loc 1 1488 0
 865 001a 0023     		movs	r3, #0
 866 001c 03E0     		b	.L68
 867              	.LVL96:
 868              	.L70:
1493:Generated_Source\PSoC4/CapSense_Structure.c ****     }
 869              		.loc 1 1493 0
 870 001e 0123     		movs	r3, #1
1478:Generated_Source\PSoC4/CapSense_Structure.c **** 
 871              		.loc 1 1478 0
 872 0020 0022     		movs	r2, #0
 873 0022 00E0     		b	.L68
 874              	.LVL97:
 875              	.L71:
1500:Generated_Source\PSoC4/CapSense_Structure.c ****         {
1501:Generated_Source\PSoC4/CapSense_Structure.c ****             state = CYRET_BAD_PARAM;
 876              		.loc 1 1501 0
 877 0024 0123     		movs	r3, #1
 878              	.LVL98:
 879              	.L68:
1502:Generated_Source\PSoC4/CapSense_Structure.c ****         }
1503:Generated_Source\PSoC4/CapSense_Structure.c ****     }
1504:Generated_Source\PSoC4/CapSense_Structure.c **** 
1505:Generated_Source\PSoC4/CapSense_Structure.c ****     if (CYRET_SUCCESS == state)
 880              		.loc 1 1505 0
 881 0026 002B     		cmp	r3, #0
 882 0028 05D1     		bne	.L72
1506:Generated_Source\PSoC4/CapSense_Structure.c ****     {
1507:Generated_Source\PSoC4/CapSense_Structure.c ****         switch(CapSense_GET_SENSE_METHOD(ptrFlashWdgt))
1508:Generated_Source\PSoC4/CapSense_Structure.c ****         {
1509:Generated_Source\PSoC4/CapSense_Structure.c ****         #if (0u != CapSense_CSD_TOUCHPAD_WIDGET_EN)
1510:Generated_Source\PSoC4/CapSense_Structure.c ****             case CapSense_SENSE_METHOD_CSD_E:
1511:Generated_Source\PSoC4/CapSense_Structure.c ****                 wdCsdTouchpad = ptrFlashWdgt->ptr2WdgtRam;
1512:Generated_Source\PSoC4/CapSense_Structure.c ****                 #if (CapSense_ENABLE == CapSense_CENTROID_5X5_CSD_EN)
1513:Generated_Source\PSoC4/CapSense_Structure.c ****                     #if (CapSense_ENABLE == CapSense_CENTROID_3X3_CSD_EN)
1514:Generated_Source\PSoC4/CapSense_Structure.c ****                         if (0 != (ptrFlashWdgt->staticConfig & CapSense_CENTROID_5X5_MASK))
ARM GAS  C:\Users\YUANFA~1\AppData\Local\Temp\cc9Xhnxa.s 			page 44


1515:Generated_Source\PSoC4/CapSense_Structure.c ****                         {
1516:Generated_Source\PSoC4/CapSense_Structure.c ****                     #endif
1517:Generated_Source\PSoC4/CapSense_Structure.c ****                         result = ((uint32)wdCsdTouchpad->position.pos[0u].x) |
1518:Generated_Source\PSoC4/CapSense_Structure.c ****                                  ((uint32)wdCsdTouchpad->position.pos[0u].y << 16u);
1519:Generated_Source\PSoC4/CapSense_Structure.c ****                     #if (CapSense_ENABLE == CapSense_CENTROID_3X3_CSD_EN)
1520:Generated_Source\PSoC4/CapSense_Structure.c ****                         }
1521:Generated_Source\PSoC4/CapSense_Structure.c ****                     #endif
1522:Generated_Source\PSoC4/CapSense_Structure.c ****                 #endif
1523:Generated_Source\PSoC4/CapSense_Structure.c **** 
1524:Generated_Source\PSoC4/CapSense_Structure.c ****                 #if (CapSense_ENABLE == CapSense_CENTROID_3X3_CSD_EN)
1525:Generated_Source\PSoC4/CapSense_Structure.c ****                     #if (CapSense_ENABLE == CapSense_CENTROID_5X5_CSD_EN)
1526:Generated_Source\PSoC4/CapSense_Structure.c ****                         if (0 != (ptrFlashWdgt->staticConfig & CapSense_CENTROID_3X3_MASK))
1527:Generated_Source\PSoC4/CapSense_Structure.c ****                         {
1528:Generated_Source\PSoC4/CapSense_Structure.c ****                     #endif
1529:Generated_Source\PSoC4/CapSense_Structure.c ****                         result = ((uint32)wdCsdTouchpad->posX) |
1530:Generated_Source\PSoC4/CapSense_Structure.c ****                                  ((uint32)wdCsdTouchpad->posY << 16u);
1531:Generated_Source\PSoC4/CapSense_Structure.c ****                     #if (CapSense_ENABLE == CapSense_CENTROID_5X5_CSD_EN)
1532:Generated_Source\PSoC4/CapSense_Structure.c ****                         }
1533:Generated_Source\PSoC4/CapSense_Structure.c ****                     #endif
1534:Generated_Source\PSoC4/CapSense_Structure.c ****                 #endif
1535:Generated_Source\PSoC4/CapSense_Structure.c **** 
1536:Generated_Source\PSoC4/CapSense_Structure.c ****                 break;
1537:Generated_Source\PSoC4/CapSense_Structure.c ****         #endif /* #if (0u != CapSense_CSD_TOUCHPAD_WIDGET_EN) */
1538:Generated_Source\PSoC4/CapSense_Structure.c **** 
1539:Generated_Source\PSoC4/CapSense_Structure.c ****         #if (0u != CapSense_CSX_TOUCHPAD_WIDGET_EN)
1540:Generated_Source\PSoC4/CapSense_Structure.c ****             case CapSense_SENSE_METHOD_CSX_E:
1541:Generated_Source\PSoC4/CapSense_Structure.c ****                 wdCsxTouchpad = ptrFlashWdgt->ptr2WdgtRam;
 883              		.loc 1 1541 0
 884 002a 5368     		ldr	r3, [r2, #4]
 885              	.LVL99:
1542:Generated_Source\PSoC4/CapSense_Structure.c **** 
1543:Generated_Source\PSoC4/CapSense_Structure.c ****                 result = ((uint32)wdCsxTouchpad->touch[0u].x) |
 886              		.loc 1 1543 0
 887 002c 9A8A     		ldrh	r2, [r3, #20]
 888              	.LVL100:
1544:Generated_Source\PSoC4/CapSense_Structure.c ****                          ((uint32)wdCsxTouchpad->touch[0u].y << 16u);
 889              		.loc 1 1544 0
 890 002e D88A     		ldrh	r0, [r3, #22]
 891              	.LVL101:
 892 0030 0004     		lsls	r0, r0, #16
1543:Generated_Source\PSoC4/CapSense_Structure.c ****                          ((uint32)wdCsxTouchpad->touch[0u].y << 16u);
 893              		.loc 1 1543 0
 894 0032 1043     		orrs	r0, r2
 895              	.LVL102:
1545:Generated_Source\PSoC4/CapSense_Structure.c ****                 break;
 896              		.loc 1 1545 0
 897 0034 01E0     		b	.L69
 898              	.LVL103:
 899              	.L72:
1489:Generated_Source\PSoC4/CapSense_Structure.c **** 
 900              		.loc 1 1489 0
 901 0036 0120     		movs	r0, #1
 902              	.LVL104:
 903 0038 4042     		rsbs	r0, r0, #0
 904              	.LVL105:
 905              	.L69:
1546:Generated_Source\PSoC4/CapSense_Structure.c ****         #endif /* #if (0u != CapSense_CSX_TOUCHPAD_WIDGET_EN) */
ARM GAS  C:\Users\YUANFA~1\AppData\Local\Temp\cc9Xhnxa.s 			page 45


1547:Generated_Source\PSoC4/CapSense_Structure.c **** 
1548:Generated_Source\PSoC4/CapSense_Structure.c ****         default:
1549:Generated_Source\PSoC4/CapSense_Structure.c ****             CYASSERT(0u);
1550:Generated_Source\PSoC4/CapSense_Structure.c ****             break;
1551:Generated_Source\PSoC4/CapSense_Structure.c ****         }
1552:Generated_Source\PSoC4/CapSense_Structure.c ****     }
1553:Generated_Source\PSoC4/CapSense_Structure.c **** 
1554:Generated_Source\PSoC4/CapSense_Structure.c ****     return result;
1555:Generated_Source\PSoC4/CapSense_Structure.c **** }
 906              		.loc 1 1555 0
 907              		@ sp needed
 908 003a 10BD     		pop	{r4, pc}
 909              	.L74:
 910              		.align	2
 911              	.L73:
 912 003c 00000000 		.word	.LANCHOR0
 913              		.cfi_endproc
 914              	.LFE8:
 915              		.size	CapSense_GetXYCoordinates, .-CapSense_GetXYCoordinates
 916              		.global	CapSense_extCapMap
 917              		.global	CapSense_ramIdacInit
 918              		.global	CapSense_ramWidgetInit
 919              		.global	CapSense_ioList
 920              		.global	CapSense_dsFlash
 921              		.comm	CapSense_dsRam,740,4
 922              		.section	.rodata
 923              		.align	2
 924              		.set	.LANCHOR0,. + 0
 925              	.LC0:
 926 0000 00       		.byte	0
 927 0001 09       		.byte	9
 928 0002 0B       		.byte	11
 929 0003 02       		.byte	2
 930 0004 0F       		.byte	15
 931 0005 06       		.byte	6
 932 0006 04       		.byte	4
 933 0007 0D       		.byte	13
 934 0008 07       		.byte	7
 935 0009 0E       		.byte	14
 936 000a 0C       		.byte	12
 937 000b 05       		.byte	5
 938 000c 08       		.byte	8
 939 000d 01       		.byte	1
 940 000e 03       		.byte	3
 941 000f 0A       		.byte	10
 942              		.type	CapSense_ramIdacInit, %object
 943              		.size	CapSense_ramIdacInit, 45
 944              	CapSense_ramIdacInit:
 945 0010 20       		.byte	32
 946 0011 20       		.byte	32
 947 0012 20       		.byte	32
 948 0013 20       		.byte	32
 949 0014 20       		.byte	32
 950 0015 20       		.byte	32
 951 0016 20       		.byte	32
 952 0017 20       		.byte	32
 953 0018 20       		.byte	32
ARM GAS  C:\Users\YUANFA~1\AppData\Local\Temp\cc9Xhnxa.s 			page 46


 954 0019 20       		.byte	32
 955 001a 20       		.byte	32
 956 001b 20       		.byte	32
 957 001c 20       		.byte	32
 958 001d 20       		.byte	32
 959 001e 20       		.byte	32
 960 001f 20       		.byte	32
 961 0020 20       		.byte	32
 962 0021 20       		.byte	32
 963 0022 20       		.byte	32
 964 0023 20       		.byte	32
 965 0024 20       		.byte	32
 966 0025 20       		.byte	32
 967 0026 20       		.byte	32
 968 0027 20       		.byte	32
 969 0028 20       		.byte	32
 970 0029 20       		.byte	32
 971 002a 20       		.byte	32
 972 002b 20       		.byte	32
 973 002c 20       		.byte	32
 974 002d 20       		.byte	32
 975 002e 20       		.byte	32
 976 002f 20       		.byte	32
 977 0030 20       		.byte	32
 978 0031 20       		.byte	32
 979 0032 20       		.byte	32
 980 0033 20       		.byte	32
 981 0034 20       		.byte	32
 982 0035 20       		.byte	32
 983 0036 20       		.byte	32
 984 0037 20       		.byte	32
 985 0038 20       		.byte	32
 986 0039 20       		.byte	32
 987 003a 20       		.byte	32
 988 003b 20       		.byte	32
 989 003c 20       		.byte	32
 990 003d 000000   		.space	3
 991              		.type	CapSense_dsFlash, %object
 992              		.size	CapSense_dsFlash, 56
 993              	CapSense_dsFlash:
 994 0040 00000000 		.word	CapSense_ioList
 995 0044 24000000 		.word	CapSense_dsRam+36
 996 0048 40000000 		.word	CapSense_dsRam+64
 997 004c 00000000 		.word	0
 998 0050 00000000 		.word	0
 999 0054 01280000 		.word	10241
 1000 0058 2D00     		.short	45
 1001 005a 05       		.byte	5
 1002 005b 0F       		.byte	15
 1003 005c 03       		.byte	3
 1004 005d 00       		.space	1
 1005 005e 6400     		.short	100
 1006 0060 6400     		.short	100
 1007 0062 0000     		.space	2
 1008 0064 24070000 		.word	1828
 1009 0068 00320000 		.word	12800
 1010 006c 94020000 		.word	CapSense_dsRam+660
ARM GAS  C:\Users\YUANFA~1\AppData\Local\Temp\cc9Xhnxa.s 			page 47


 1011 0070 00000000 		.word	CapSense_csxTouchpadData_Touchpad0
 1012 0074 80       		.byte	-128
 1013 0075 000000   		.space	3
 1014              		.type	CapSense_ramWidgetInit, %object
 1015              		.size	CapSense_ramWidgetInit, 28
 1016              	CapSense_ramWidgetInit:
 1017 0078 7201     		.short	370
 1018 007a 6400     		.short	100
 1019 007c 6400     		.short	100
 1020 007e 28       		.byte	40
 1021 007f 28       		.byte	40
 1022 0080 0A       		.byte	10
 1023 0081 03       		.byte	3
 1024 0082 1E       		.byte	30
 1025 0083 02       		.byte	2
 1026 0084 5000     		.short	80
 1027 0086 00       		.byte	0
 1028 0087 00       		.space	1
 1029 0088 C4090000 		.word	2500
 1030 008c FFFF     		.short	-1
 1031 008e FFFF     		.short	-1
 1032 0090 FF       		.byte	-1
 1033 0091 28       		.byte	40
 1034 0092 0000     		.space	2
 1035              		.type	CapSense_extCapMap, %object
 1036              		.size	CapSense_extCapMap, 2
 1037              	CapSense_extCapMap:
 1038 0094 02       		.byte	2
 1039 0095 03       		.byte	3
 1040 0096 0000     		.space	2
 1041              		.type	CapSense_ioList, %object
 1042              		.size	CapSense_ioList, 576
 1043              	CapSense_ioList:
 1044 0098 00020240 		.word	1073873408
 1045 009c 08020440 		.word	1074004488
 1046 00a0 18020440 		.word	1074004504
 1047 00a4 00020440 		.word	1074004480
 1048 00a8 04020440 		.word	1074004484
 1049 00ac 000F0000 		.word	3840
 1050 00b0 04000000 		.word	4
 1051 00b4 08       		.byte	8
 1052 00b5 02       		.byte	2
 1053 00b6 06       		.byte	6
 1054 00b7 00       		.space	1
 1055 00b8 00020240 		.word	1073873408
 1056 00bc 08020440 		.word	1074004488
 1057 00c0 18020440 		.word	1074004504
 1058 00c4 00020440 		.word	1074004480
 1059 00c8 04020440 		.word	1074004484
 1060 00cc F0000000 		.word	240
 1061 00d0 02000000 		.word	2
 1062 00d4 04       		.byte	4
 1063 00d5 01       		.byte	1
 1064 00d6 03       		.byte	3
 1065 00d7 00       		.space	1
 1066 00d8 00020240 		.word	1073873408
 1067 00dc 08020440 		.word	1074004488
ARM GAS  C:\Users\YUANFA~1\AppData\Local\Temp\cc9Xhnxa.s 			page 48


 1068 00e0 18020440 		.word	1074004504
 1069 00e4 00020440 		.word	1074004480
 1070 00e8 04020440 		.word	1074004484
 1071 00ec 0F000000 		.word	15
 1072 00f0 01000000 		.word	1
 1073 00f4 00       		.byte	0
 1074 00f5 00       		.byte	0
 1075 00f6 00       		.byte	0
 1076 00f7 00       		.space	1
 1077 00f8 00010240 		.word	1073873152
 1078 00fc 08010440 		.word	1074004232
 1079 0100 18010440 		.word	1074004248
 1080 0104 00010440 		.word	1074004224
 1081 0108 04010440 		.word	1074004228
 1082 010c 0000000F 		.word	251658240
 1083 0110 40000000 		.word	64
 1084 0114 18       		.byte	24
 1085 0115 06       		.byte	6
 1086 0116 12       		.byte	18
 1087 0117 00       		.space	1
 1088 0118 00010240 		.word	1073873152
 1089 011c 08010440 		.word	1074004232
 1090 0120 18010440 		.word	1074004248
 1091 0124 00010440 		.word	1074004224
 1092 0128 04010440 		.word	1074004228
 1093 012c 0000F000 		.word	15728640
 1094 0130 20000000 		.word	32
 1095 0134 14       		.byte	20
 1096 0135 05       		.byte	5
 1097 0136 0F       		.byte	15
 1098 0137 00       		.space	1
 1099 0138 00010240 		.word	1073873152
 1100 013c 08010440 		.word	1074004232
 1101 0140 18010440 		.word	1074004248
 1102 0144 00010440 		.word	1074004224
 1103 0148 04010440 		.word	1074004228
 1104 014c 00000F00 		.word	983040
 1105 0150 10000000 		.word	16
 1106 0154 10       		.byte	16
 1107 0155 04       		.byte	4
 1108 0156 0C       		.byte	12
 1109 0157 00       		.space	1
 1110 0158 00010240 		.word	1073873152
 1111 015c 08010440 		.word	1074004232
 1112 0160 18010440 		.word	1074004248
 1113 0164 00010440 		.word	1074004224
 1114 0168 04010440 		.word	1074004228
 1115 016c 000F0000 		.word	3840
 1116 0170 04000000 		.word	4
 1117 0174 08       		.byte	8
 1118 0175 02       		.byte	2
 1119 0176 06       		.byte	6
 1120 0177 00       		.space	1
 1121 0178 00010240 		.word	1073873152
 1122 017c 08010440 		.word	1074004232
 1123 0180 18010440 		.word	1074004248
 1124 0184 00010440 		.word	1074004224
ARM GAS  C:\Users\YUANFA~1\AppData\Local\Temp\cc9Xhnxa.s 			page 49


 1125 0188 04010440 		.word	1074004228
 1126 018c F0000000 		.word	240
 1127 0190 02000000 		.word	2
 1128 0194 04       		.byte	4
 1129 0195 01       		.byte	1
 1130 0196 03       		.byte	3
 1131 0197 00       		.space	1
 1132 0198 00010240 		.word	1073873152
 1133 019c 08010440 		.word	1074004232
 1134 01a0 18010440 		.word	1074004248
 1135 01a4 00010440 		.word	1074004224
 1136 01a8 04010440 		.word	1074004228
 1137 01ac 0F000000 		.word	15
 1138 01b0 01000000 		.word	1
 1139 01b4 00       		.byte	0
 1140 01b5 00       		.byte	0
 1141 01b6 00       		.byte	0
 1142 01b7 00       		.space	1
 1143 01b8 00040240 		.word	1073873920
 1144 01bc 08040440 		.word	1074005000
 1145 01c0 18040440 		.word	1074005016
 1146 01c4 00040440 		.word	1074004992
 1147 01c8 04040440 		.word	1074004996
 1148 01cc 00000F00 		.word	983040
 1149 01d0 10000000 		.word	16
 1150 01d4 10       		.byte	16
 1151 01d5 04       		.byte	4
 1152 01d6 0C       		.byte	12
 1153 01d7 00       		.space	1
 1154 01d8 00040240 		.word	1073873920
 1155 01dc 08040440 		.word	1074005000
 1156 01e0 18040440 		.word	1074005016
 1157 01e4 00040440 		.word	1074004992
 1158 01e8 04040440 		.word	1074004996
 1159 01ec 0000F000 		.word	15728640
 1160 01f0 20000000 		.word	32
 1161 01f4 14       		.byte	20
 1162 01f5 05       		.byte	5
 1163 01f6 0F       		.byte	15
 1164 01f7 00       		.space	1
 1165 01f8 00040240 		.word	1073873920
 1166 01fc 08040440 		.word	1074005000
 1167 0200 18040440 		.word	1074005016
 1168 0204 00040440 		.word	1074004992
 1169 0208 04040440 		.word	1074004996
 1170 020c 0000000F 		.word	251658240
 1171 0210 40000000 		.word	64
 1172 0214 18       		.byte	24
 1173 0215 06       		.byte	6
 1174 0216 12       		.byte	18
 1175 0217 00       		.space	1
 1176 0218 00040240 		.word	1073873920
 1177 021c 08040440 		.word	1074005000
 1178 0220 18040440 		.word	1074005016
 1179 0224 00040440 		.word	1074004992
 1180 0228 04040440 		.word	1074004996
 1181 022c 000000F0 		.word	-268435456
ARM GAS  C:\Users\YUANFA~1\AppData\Local\Temp\cc9Xhnxa.s 			page 50


 1182 0230 80000000 		.word	128
 1183 0234 1C       		.byte	28
 1184 0235 07       		.byte	7
 1185 0236 15       		.byte	21
 1186 0237 00       		.space	1
 1187 0238 00050240 		.word	1073874176
 1188 023c 08050440 		.word	1074005256
 1189 0240 18050440 		.word	1074005272
 1190 0244 00050440 		.word	1074005248
 1191 0248 04050440 		.word	1074005252
 1192 024c 0000000F 		.word	251658240
 1193 0250 40000000 		.word	64
 1194 0254 18       		.byte	24
 1195 0255 06       		.byte	6
 1196 0256 12       		.byte	18
 1197 0257 00       		.space	1
 1198 0258 00050240 		.word	1073874176
 1199 025c 08050440 		.word	1074005256
 1200 0260 18050440 		.word	1074005272
 1201 0264 00050440 		.word	1074005248
 1202 0268 04050440 		.word	1074005252
 1203 026c 000000F0 		.word	-268435456
 1204 0270 80000000 		.word	128
 1205 0274 1C       		.byte	28
 1206 0275 07       		.byte	7
 1207 0276 15       		.byte	21
 1208 0277 00       		.space	1
 1209 0278 00020240 		.word	1073873408
 1210 027c 08020440 		.word	1074004488
 1211 0280 18020440 		.word	1074004504
 1212 0284 00020440 		.word	1074004480
 1213 0288 04020440 		.word	1074004484
 1214 028c 0000F000 		.word	15728640
 1215 0290 20000000 		.word	32
 1216 0294 14       		.byte	20
 1217 0295 05       		.byte	5
 1218 0296 0F       		.byte	15
 1219 0297 00       		.space	1
 1220 0298 00020240 		.word	1073873408
 1221 029c 08020440 		.word	1074004488
 1222 02a0 18020440 		.word	1074004504
 1223 02a4 00020440 		.word	1074004480
 1224 02a8 04020440 		.word	1074004484
 1225 02ac 0000000F 		.word	251658240
 1226 02b0 40000000 		.word	64
 1227 02b4 18       		.byte	24
 1228 02b5 06       		.byte	6
 1229 02b6 12       		.byte	18
 1230 02b7 00       		.space	1
 1231 02b8 00020240 		.word	1073873408
 1232 02bc 08020440 		.word	1074004488
 1233 02c0 18020440 		.word	1074004504
 1234 02c4 00020440 		.word	1074004480
 1235 02c8 04020440 		.word	1074004484
 1236 02cc 000000F0 		.word	-268435456
 1237 02d0 80000000 		.word	128
 1238 02d4 1C       		.byte	28
ARM GAS  C:\Users\YUANFA~1\AppData\Local\Temp\cc9Xhnxa.s 			page 51


 1239 02d5 07       		.byte	7
 1240 02d6 15       		.byte	21
 1241 02d7 00       		.space	1
 1242              		.bss
 1243              		.align	2
 1244              		.type	CapSense_csxTouchpadData_Touchpad0, %object
 1245              		.size	CapSense_csxTouchpadData_Touchpad0, 62
 1246              	CapSense_csxTouchpadData_Touchpad0:
 1247 0000 00000000 		.space	62
 1247      00000000 
 1247      00000000 
 1247      00000000 
 1247      00000000 
 1248              		.text
 1249              	.Letext0:
 1250              		.file 2 "Generated_Source\\PSoC4/cytypes.h"
 1251              		.file 3 "Generated_Source\\PSoC4\\CapSense_Configuration.h"
 1252              		.file 4 "Generated_Source\\PSoC4\\CapSense_Structure.h"
 1253              		.file 5 "Generated_Source\\PSoC4\\CyLib.h"
 1254              		.file 6 "Generated_Source\\PSoC4\\CapSense_SelfTest.h"