ARM GAS  C:\Users\YUANFA~1\AppData\Local\Temp\ccmw9eEE.s 			page 1


   1              		.syntax unified
   2              		.cpu cortex-m0plus
   3              		.fpu softvfp
   4              		.eabi_attribute 20, 1
   5              		.eabi_attribute 21, 1
   6              		.eabi_attribute 23, 3
   7              		.eabi_attribute 24, 1
   8              		.eabi_attribute 25, 1
   9              		.eabi_attribute 26, 1
  10              		.eabi_attribute 30, 1
  11              		.eabi_attribute 34, 0
  12              		.eabi_attribute 18, 4
  13              		.thumb
  14              		.syntax unified
  15              		.file	"main.c"
  16              		.text
  17              	.Ltext0:
  18              		.cfi_sections	.debug_frame
  19              		.section	.text.print,"ax",%progbits
  20              		.align	2
  21              		.global	print
  22              		.code	16
  23              		.thumb_func
  24              		.type	print, %function
  25              	print:
  26              	.LFB33:
  27              		.file 1 "main.c"
   1:main.c        **** /* ========================================
   2:main.c        ****  *
   3:main.c        ****  * Copyright YOUR COMPANY, THE YEAR
   4:main.c        ****  * All Rights Reserved
   5:main.c        ****  * UNPUBLISHED, LICENSED SOFTWARE.
   6:main.c        ****  *
   7:main.c        ****  * CONFIDENTIAL AND PROPRIETARY INFORMATION
   8:main.c        ****  * WHICH IS THE PROPERTY OF your company.
   9:main.c        ****  *
  10:main.c        ****  * ========================================
  11:main.c        **** */
  12:main.c        **** #include "project.h"
  13:main.c        **** 
  14:main.c        **** 
  15:main.c        **** /* show message with UART */
  16:main.c        **** void print(char* msg) {
  28              		.loc 1 16 0
  29              		.cfi_startproc
  30              		@ args = 0, pretend = 0, frame = 0
  31              		@ frame_needed = 0, uses_anonymous_args = 0
  32              	.LVL0:
  33 0000 10B5     		push	{r4, lr}
  34              		.cfi_def_cfa_offset 8
  35              		.cfi_offset 4, -8
  36              		.cfi_offset 14, -4
  17:main.c        ****     UART_UartPutString(msg);
  37              		.loc 1 17 0
  38 0002 FFF7FEFF 		bl	UART_UartPutString
  39              	.LVL1:
  18:main.c        ****     UART_UartPutString("\r\n");
ARM GAS  C:\Users\YUANFA~1\AppData\Local\Temp\ccmw9eEE.s 			page 2


  40              		.loc 1 18 0
  41 0006 0248     		ldr	r0, .L2
  42 0008 FFF7FEFF 		bl	UART_UartPutString
  43              	.LVL2:
  19:main.c        **** }
  44              		.loc 1 19 0
  45              		@ sp needed
  46 000c 10BD     		pop	{r4, pc}
  47              	.L3:
  48 000e C046     		.align	2
  49              	.L2:
  50 0010 00000000 		.word	.LC0
  51              		.cfi_endproc
  52              	.LFE33:
  53              		.size	print, .-print
  54              		.section	.text.getCapSenseState,"ax",%progbits
  55              		.align	2
  56              		.global	getCapSenseState
  57              		.code	16
  58              		.thumb_func
  59              		.type	getCapSenseState, %function
  60              	getCapSenseState:
  61              	.LFB34:
  20:main.c        **** 
  21:main.c        **** /* show the electrode status */
  22:main.c        **** void getCapSenseState(CapSense_TST_MEASUREMENT_STATUS_ENUM state) {
  62              		.loc 1 22 0
  63              		.cfi_startproc
  64              		@ args = 0, pretend = 0, frame = 0
  65              		@ frame_needed = 0, uses_anonymous_args = 0
  66              	.LVL3:
  67 0000 10B5     		push	{r4, lr}
  68              		.cfi_def_cfa_offset 8
  69              		.cfi_offset 4, -8
  70              		.cfi_offset 14, -4
  23:main.c        ****     switch (state) {
  71              		.loc 1 23 0
  72 0002 0528     		cmp	r0, #5
  73 0004 17D8     		bhi	.L5
  74 0006 8000     		lsls	r0, r0, #2
  75              	.LVL4:
  76 0008 0D4B     		ldr	r3, .L13
  77 000a 1B58     		ldr	r3, [r3, r0]
  78 000c 9F46     		mov	pc, r3
  79              		.section	.rodata
  80              		.align	2
  81              	.L7:
  82 0000 0E000000 		.word	.L6
  83 0004 16000000 		.word	.L8
  84 0008 36000000 		.word	.L5
  85 000c 2E000000 		.word	.L9
  86 0010 1E000000 		.word	.L10
  87 0014 26000000 		.word	.L11
  88              		.section	.text.getCapSenseState
  89              	.L6:
  24:main.c        ****         case CapSense_TST_MEASUREMENT_SUCCESS:
  25:main.c        ****             print("SUCCESS");
ARM GAS  C:\Users\YUANFA~1\AppData\Local\Temp\ccmw9eEE.s 			page 3


  90              		.loc 1 25 0
  91 000e 0D48     		ldr	r0, .L13+4
  92 0010 FFF7FEFF 		bl	print
  93              	.LVL5:
  26:main.c        ****             break;
  94              		.loc 1 26 0
  95 0014 12E0     		b	.L4
  96              	.L8:
  27:main.c        ****         case CapSense_TST_MEASUREMENT_BAD_PARAM:
  28:main.c        ****             print("BAD_PARAM");
  97              		.loc 1 28 0
  98 0016 0C48     		ldr	r0, .L13+8
  99 0018 FFF7FEFF 		bl	print
 100              	.LVL6:
  29:main.c        ****             break;
 101              		.loc 1 29 0
 102 001c 0EE0     		b	.L4
 103              	.L10:
  30:main.c        ****         case CapSense_TST_MEASUREMENT_LOW_LIMIT:
  31:main.c        ****             print("LOW_LIMIT");
 104              		.loc 1 31 0
 105 001e 0B48     		ldr	r0, .L13+12
 106 0020 FFF7FEFF 		bl	print
 107              	.LVL7:
  32:main.c        ****             break;
 108              		.loc 1 32 0
 109 0024 0AE0     		b	.L4
 110              	.L11:
  33:main.c        ****         case CapSense_TST_MEASUREMENT_HIGH_LIMIT:
  34:main.c        ****             print("HIGH_LIMIT");
 111              		.loc 1 34 0
 112 0026 0A48     		ldr	r0, .L13+16
 113 0028 FFF7FEFF 		bl	print
 114              	.LVL8:
  35:main.c        ****             break;
 115              		.loc 1 35 0
 116 002c 06E0     		b	.L4
 117              	.L9:
  36:main.c        ****         case CapSense_TST_MEASUREMENT_ERROR:
  37:main.c        ****             print("ERROR");
 118              		.loc 1 37 0
 119 002e 0948     		ldr	r0, .L13+20
 120 0030 FFF7FEFF 		bl	print
 121              	.LVL9:
  38:main.c        ****             break;
 122              		.loc 1 38 0
 123 0034 02E0     		b	.L4
 124              	.L5:
  39:main.c        ****         default:
  40:main.c        ****             print("what?");
 125              		.loc 1 40 0
 126 0036 0848     		ldr	r0, .L13+24
 127 0038 FFF7FEFF 		bl	print
 128              	.LVL10:
 129              	.L4:
  41:main.c        ****     }
  42:main.c        **** }
ARM GAS  C:\Users\YUANFA~1\AppData\Local\Temp\ccmw9eEE.s 			page 4


 130              		.loc 1 42 0
 131              		@ sp needed
 132 003c 10BD     		pop	{r4, pc}
 133              	.L14:
 134 003e C046     		.align	2
 135              	.L13:
 136 0040 00000000 		.word	.L7
 137 0044 04000000 		.word	.LC3
 138 0048 0C000000 		.word	.LC5
 139 004c 18000000 		.word	.LC7
 140 0050 24000000 		.word	.LC9
 141 0054 30000000 		.word	.LC11
 142 0058 38000000 		.word	.LC13
 143              		.cfi_endproc
 144              	.LFE34:
 145              		.size	getCapSenseState, .-getCapSenseState
 146              		.section	.text.showElectrodeIsShorted,"ax",%progbits
 147              		.align	2
 148              		.global	showElectrodeIsShorted
 149              		.code	16
 150              		.thumb_func
 151              		.type	showElectrodeIsShorted, %function
 152              	showElectrodeIsShorted:
 153              	.LFB35:
  43:main.c        **** 
  44:main.c        **** /* detect the target electrode is shorted or not and show it with URAT */
  45:main.c        **** void showElectrodeIsShorted(uint32 wid, uint32 sid) {
 154              		.loc 1 45 0
 155              		.cfi_startproc
 156              		@ args = 0, pretend = 0, frame = 8
 157              		@ frame_needed = 0, uses_anonymous_args = 0
 158              	.LVL11:
 159 0000 70B5     		push	{r4, r5, r6, lr}
 160              		.cfi_def_cfa_offset 16
 161              		.cfi_offset 4, -16
 162              		.cfi_offset 5, -12
 163              		.cfi_offset 6, -8
 164              		.cfi_offset 14, -4
 165 0002 82B0     		sub	sp, sp, #8
 166              		.cfi_def_cfa_offset 24
 167 0004 0500     		movs	r5, r0
 168 0006 0E00     		movs	r6, r1
  46:main.c        ****     CapSense_TST_MEASUREMENT_STATUS_ENUM stateParam;
  47:main.c        ****     uint32 val = CapSense_GetSensorCapacitance(wid, sid, &stateParam);
 169              		.loc 1 47 0
 170 0008 6B46     		mov	r3, sp
 171 000a DC1D     		adds	r4, r3, #7
 172 000c 2200     		movs	r2, r4
 173 000e FFF7FEFF 		bl	CapSense_GetSensorCapacitance
 174              	.LVL12:
  48:main.c        ****     uint32 stateElectrode = CapSense_CheckIntegritySensorPins(wid, sid);
 175              		.loc 1 48 0
 176 0012 3100     		movs	r1, r6
 177 0014 2800     		movs	r0, r5
 178 0016 FFF7FEFF 		bl	CapSense_CheckIntegritySensorPins
 179              	.LVL13:
 180 001a 0500     		movs	r5, r0
ARM GAS  C:\Users\YUANFA~1\AppData\Local\Temp\ccmw9eEE.s 			page 5


 181              	.LVL14:
  49:main.c        ****     getCapSenseState(stateParam);
 182              		.loc 1 49 0
 183 001c 2078     		ldrb	r0, [r4]
 184              	.LVL15:
 185 001e FFF7FEFF 		bl	getCapSenseState
 186              	.LVL16:
  50:main.c        ****     UART_UartPutString(" ");
 187              		.loc 1 50 0
 188 0022 0C48     		ldr	r0, .L19
 189 0024 FFF7FEFF 		bl	UART_UartPutString
 190              	.LVL17:
  51:main.c        ****     if (stateElectrode == CYRET_SUCCESS) UART_UartPutString("SUCCESS");
 191              		.loc 1 51 0
 192 0028 002D     		cmp	r5, #0
 193 002a 03D1     		bne	.L16
 194              		.loc 1 51 0 is_stmt 0 discriminator 1
 195 002c 0A48     		ldr	r0, .L19+4
 196 002e FFF7FEFF 		bl	UART_UartPutString
 197              	.LVL18:
 198 0032 0AE0     		b	.L17
 199              	.L16:
  52:main.c        ****     else if (stateElectrode == CapSense_TST_SNS_SHORT) UART_UartPutString("SHORT");
 200              		.loc 1 52 0 is_stmt 1
 201 0034 8023     		movs	r3, #128
 202 0036 5B00     		lsls	r3, r3, #1
 203 0038 9D42     		cmp	r5, r3
 204 003a 03D1     		bne	.L18
 205              		.loc 1 52 0 is_stmt 0 discriminator 1
 206 003c 0748     		ldr	r0, .L19+8
 207 003e FFF7FEFF 		bl	UART_UartPutString
 208              	.LVL19:
 209 0042 02E0     		b	.L17
 210              	.L18:
  53:main.c        ****     else UART_UartPutString("BAD");
 211              		.loc 1 53 0 is_stmt 1
 212 0044 0648     		ldr	r0, .L19+12
 213 0046 FFF7FEFF 		bl	UART_UartPutString
 214              	.LVL20:
 215              	.L17:
  54:main.c        ****     UART_UartPutString("\r\n");
 216              		.loc 1 54 0
 217 004a 0648     		ldr	r0, .L19+16
 218 004c FFF7FEFF 		bl	UART_UartPutString
 219              	.LVL21:
  55:main.c        **** }
 220              		.loc 1 55 0
 221 0050 02B0     		add	sp, sp, #8
 222              		@ sp needed
 223              	.LVL22:
 224              	.LVL23:
 225 0052 70BD     		pop	{r4, r5, r6, pc}
 226              	.L20:
 227              		.align	2
 228              	.L19:
 229 0054 40000000 		.word	.LC15
 230 0058 04000000 		.word	.LC3
ARM GAS  C:\Users\YUANFA~1\AppData\Local\Temp\ccmw9eEE.s 			page 6


 231 005c 44000000 		.word	.LC18
 232 0060 4C000000 		.word	.LC20
 233 0064 00000000 		.word	.LC0
 234              		.cfi_endproc
 235              	.LFE35:
 236              		.size	showElectrodeIsShorted, .-showElectrodeIsShorted
 237              		.section	.text.getCapacitanceValueCSD,"ax",%progbits
 238              		.align	2
 239              		.global	getCapacitanceValueCSD
 240              		.code	16
 241              		.thumb_func
 242              		.type	getCapacitanceValueCSD, %function
 243              	getCapacitanceValueCSD:
 244              	.LFB36:
  56:main.c        **** 
  57:main.c        **** /* show the capacitance value for the target electrode */
  58:main.c        **** void getCapacitanceValueCSD(uint32 wid, uint32 sid) {
 245              		.loc 1 58 0
 246              		.cfi_startproc
 247              		@ args = 0, pretend = 0, frame = 40
 248              		@ frame_needed = 0, uses_anonymous_args = 0
 249              	.LVL24:
 250 0000 00B5     		push	{lr}
 251              		.cfi_def_cfa_offset 4
 252              		.cfi_offset 14, -4
 253 0002 8BB0     		sub	sp, sp, #44
 254              		.cfi_def_cfa_offset 48
  59:main.c        ****     char res[30];
  60:main.c        ****     CapSense_TST_MEASUREMENT_STATUS_ENUM state;
  61:main.c        ****     uint32 val = CapSense_GetSensorCapacitance(wid, sid, &state);
 255              		.loc 1 61 0
 256 0004 6B46     		mov	r3, sp
 257 0006 DA1D     		adds	r2, r3, #7
 258 0008 FFF7FEFF 		bl	CapSense_GetSensorCapacitance
 259              	.LVL25:
 260 000c 0200     		movs	r2, r0
 261              	.LVL26:
  62:main.c        ****     sprintf(res, "%lu", val);
 262              		.loc 1 62 0
 263 000e 0649     		ldr	r1, .L22
 264 0010 02A8     		add	r0, sp, #8
 265              	.LVL27:
 266 0012 FFF7FEFF 		bl	sprintf
 267              	.LVL28:
  63:main.c        ****     UART_UartPutString(res);
 268              		.loc 1 63 0
 269 0016 02A8     		add	r0, sp, #8
 270 0018 FFF7FEFF 		bl	UART_UartPutString
 271              	.LVL29:
  64:main.c        ****     UART_UartPutString(" ");
 272              		.loc 1 64 0
 273 001c 0348     		ldr	r0, .L22+4
 274 001e FFF7FEFF 		bl	UART_UartPutString
 275              	.LVL30:
  65:main.c        **** }
 276              		.loc 1 65 0
 277 0022 0BB0     		add	sp, sp, #44
ARM GAS  C:\Users\YUANFA~1\AppData\Local\Temp\ccmw9eEE.s 			page 7


 278              		@ sp needed
 279 0024 00BD     		pop	{pc}
 280              	.L23:
 281 0026 C046     		.align	2
 282              	.L22:
 283 0028 50000000 		.word	.LC23
 284 002c 40000000 		.word	.LC15
 285              		.cfi_endproc
 286              	.LFE36:
 287              		.size	getCapacitanceValueCSD, .-getCapacitanceValueCSD
 288              		.section	.text.getCapacitanceValueCSDDam,"ax",%progbits
 289              		.align	2
 290              		.global	getCapacitanceValueCSDDam
 291              		.code	16
 292              		.thumb_func
 293              		.type	getCapacitanceValueCSDDam, %function
 294              	getCapacitanceValueCSDDam:
 295              	.LFB37:
  66:main.c        **** 
  67:main.c        **** void getCapacitanceValueCSDDam(uint32 wid, uint32 sid) {
 296              		.loc 1 67 0
 297              		.cfi_startproc
 298              		@ args = 0, pretend = 0, frame = 8
 299              		@ frame_needed = 0, uses_anonymous_args = 0
 300              	.LVL31:
 301 0000 00B5     		push	{lr}
 302              		.cfi_def_cfa_offset 4
 303              		.cfi_offset 14, -4
 304 0002 83B0     		sub	sp, sp, #12
 305              		.cfi_def_cfa_offset 16
  68:main.c        ****     char res[30];
  69:main.c        ****     CapSense_TST_MEASUREMENT_STATUS_ENUM state;
  70:main.c        ****     uint32 val = CapSense_GetSensorCapacitance(wid, sid, &state);
 306              		.loc 1 70 0
 307 0004 6B46     		mov	r3, sp
 308 0006 DA1D     		adds	r2, r3, #7
 309 0008 FFF7FEFF 		bl	CapSense_GetSensorCapacitance
 310              	.LVL32:
  71:main.c        **** }
 311              		.loc 1 71 0
 312 000c 03B0     		add	sp, sp, #12
 313              		@ sp needed
 314 000e 00BD     		pop	{pc}
 315              		.cfi_endproc
 316              	.LFE37:
 317              		.size	getCapacitanceValueCSDDam, .-getCapacitanceValueCSDDam
 318              		.section	.text.PrintAll,"ax",%progbits
 319              		.align	2
 320              		.global	PrintAll
 321              		.code	16
 322              		.thumb_func
 323              		.type	PrintAll, %function
 324              	PrintAll:
 325              	.LFB38:
  72:main.c        **** 
  73:main.c        **** /* show the capacitance value for all target electrode */
  74:main.c        **** void PrintAll(){
ARM GAS  C:\Users\YUANFA~1\AppData\Local\Temp\ccmw9eEE.s 			page 8


 326              		.loc 1 74 0
 327              		.cfi_startproc
 328              		@ args = 0, pretend = 0, frame = 0
 329              		@ frame_needed = 0, uses_anonymous_args = 0
 330 0000 10B5     		push	{r4, lr}
 331              		.cfi_def_cfa_offset 8
 332              		.cfi_offset 4, -8
 333              		.cfi_offset 14, -4
  75:main.c        ****     getCapacitanceValueCSDDam(CapSense_TOUCHPAD0_WDGT_ID, CapSense_TOUCHPAD0_SNS0_ID);
 334              		.loc 1 75 0
 335 0002 0021     		movs	r1, #0
 336 0004 0020     		movs	r0, #0
 337 0006 FFF7FEFF 		bl	getCapacitanceValueCSDDam
 338              	.LVL33:
  76:main.c        ****     getCapacitanceValueCSDDam(CapSense_TOUCHPAD0_WDGT_ID, CapSense_TOUCHPAD0_SNS1_ID);
 339              		.loc 1 76 0
 340 000a 0121     		movs	r1, #1
 341 000c 0020     		movs	r0, #0
 342 000e FFF7FEFF 		bl	getCapacitanceValueCSDDam
 343              	.LVL34:
  77:main.c        ****     getCapacitanceValueCSDDam(CapSense_TOUCHPAD0_WDGT_ID, CapSense_TOUCHPAD0_SNS2_ID);
 344              		.loc 1 77 0
 345 0012 0221     		movs	r1, #2
 346 0014 0020     		movs	r0, #0
 347 0016 FFF7FEFF 		bl	getCapacitanceValueCSDDam
 348              	.LVL35:
  78:main.c        ****     getCapacitanceValueCSDDam(CapSense_TOUCHPAD0_WDGT_ID, CapSense_TOUCHPAD0_SNS3_ID);
 349              		.loc 1 78 0
 350 001a 0321     		movs	r1, #3
 351 001c 0020     		movs	r0, #0
 352 001e FFF7FEFF 		bl	getCapacitanceValueCSDDam
 353              	.LVL36:
  79:main.c        ****     getCapacitanceValueCSDDam(CapSense_TOUCHPAD0_WDGT_ID, CapSense_TOUCHPAD0_SNS4_ID);
 354              		.loc 1 79 0
 355 0022 0421     		movs	r1, #4
 356 0024 0020     		movs	r0, #0
 357 0026 FFF7FEFF 		bl	getCapacitanceValueCSDDam
 358              	.LVL37:
  80:main.c        ****     getCapacitanceValueCSDDam(CapSense_TOUCHPAD0_WDGT_ID, CapSense_TOUCHPAD0_SNS5_ID);
 359              		.loc 1 80 0
 360 002a 0521     		movs	r1, #5
 361 002c 0020     		movs	r0, #0
 362 002e FFF7FEFF 		bl	getCapacitanceValueCSDDam
 363              	.LVL38:
  81:main.c        ****     getCapacitanceValueCSDDam(CapSense_TOUCHPAD0_WDGT_ID, CapSense_TOUCHPAD0_SNS6_ID);
 364              		.loc 1 81 0
 365 0032 0621     		movs	r1, #6
 366 0034 0020     		movs	r0, #0
 367 0036 FFF7FEFF 		bl	getCapacitanceValueCSDDam
 368              	.LVL39:
  82:main.c        ****     getCapacitanceValueCSDDam(CapSense_TOUCHPAD0_WDGT_ID, CapSense_TOUCHPAD0_SNS7_ID);
 369              		.loc 1 82 0
 370 003a 0721     		movs	r1, #7
 371 003c 0020     		movs	r0, #0
 372 003e FFF7FEFF 		bl	getCapacitanceValueCSDDam
 373              	.LVL40:
  83:main.c        ****     getCapacitanceValueCSDDam(CapSense_TOUCHPAD0_WDGT_ID, CapSense_TOUCHPAD0_SNS8_ID);
ARM GAS  C:\Users\YUANFA~1\AppData\Local\Temp\ccmw9eEE.s 			page 9


 374              		.loc 1 83 0
 375 0042 0821     		movs	r1, #8
 376 0044 0020     		movs	r0, #0
 377 0046 FFF7FEFF 		bl	getCapacitanceValueCSDDam
 378              	.LVL41:
  84:main.c        ****     getCapacitanceValueCSDDam(CapSense_TOUCHPAD0_WDGT_ID, CapSense_TOUCHPAD0_SNS9_ID);
 379              		.loc 1 84 0
 380 004a 0921     		movs	r1, #9
 381 004c 0020     		movs	r0, #0
 382 004e FFF7FEFF 		bl	getCapacitanceValueCSDDam
 383              	.LVL42:
  85:main.c        ****     getCapacitanceValueCSDDam(CapSense_TOUCHPAD0_WDGT_ID, CapSense_TOUCHPAD0_SNS10_ID);
 384              		.loc 1 85 0
 385 0052 0A21     		movs	r1, #10
 386 0054 0020     		movs	r0, #0
 387 0056 FFF7FEFF 		bl	getCapacitanceValueCSDDam
 388              	.LVL43:
  86:main.c        ****     getCapacitanceValueCSDDam(CapSense_TOUCHPAD0_WDGT_ID, CapSense_TOUCHPAD0_SNS11_ID);
 389              		.loc 1 86 0
 390 005a 0B21     		movs	r1, #11
 391 005c 0020     		movs	r0, #0
 392 005e FFF7FEFF 		bl	getCapacitanceValueCSDDam
 393              	.LVL44:
  87:main.c        ****     getCapacitanceValueCSDDam(CapSense_TOUCHPAD0_WDGT_ID, CapSense_TOUCHPAD0_SNS12_ID);
 394              		.loc 1 87 0
 395 0062 0C21     		movs	r1, #12
 396 0064 0020     		movs	r0, #0
 397 0066 FFF7FEFF 		bl	getCapacitanceValueCSDDam
 398              	.LVL45:
  88:main.c        ****     getCapacitanceValueCSDDam(CapSense_TOUCHPAD0_WDGT_ID, CapSense_TOUCHPAD0_SNS13_ID);
 399              		.loc 1 88 0
 400 006a 0D21     		movs	r1, #13
 401 006c 0020     		movs	r0, #0
 402 006e FFF7FEFF 		bl	getCapacitanceValueCSDDam
 403              	.LVL46:
  89:main.c        ****     getCapacitanceValueCSDDam(CapSense_TOUCHPAD0_WDGT_ID, CapSense_TOUCHPAD0_SNS14_ID);
 404              		.loc 1 89 0
 405 0072 0E21     		movs	r1, #14
 406 0074 0020     		movs	r0, #0
 407 0076 FFF7FEFF 		bl	getCapacitanceValueCSDDam
 408              	.LVL47:
  90:main.c        ****     getCapacitanceValueCSDDam(CapSense_TOUCHPAD0_WDGT_ID, CapSense_TOUCHPAD0_SNS15_ID);
 409              		.loc 1 90 0
 410 007a 0F21     		movs	r1, #15
 411 007c 0020     		movs	r0, #0
 412 007e FFF7FEFF 		bl	getCapacitanceValueCSDDam
 413              	.LVL48:
  91:main.c        ****     getCapacitanceValueCSDDam(CapSense_TOUCHPAD0_WDGT_ID, CapSense_TOUCHPAD0_SNS16_ID);
 414              		.loc 1 91 0
 415 0082 1021     		movs	r1, #16
 416 0084 0020     		movs	r0, #0
 417 0086 FFF7FEFF 		bl	getCapacitanceValueCSDDam
 418              	.LVL49:
  92:main.c        ****     getCapacitanceValueCSDDam(CapSense_TOUCHPAD0_WDGT_ID, CapSense_TOUCHPAD0_SNS17_ID);
 419              		.loc 1 92 0
 420 008a 1121     		movs	r1, #17
 421 008c 0020     		movs	r0, #0
ARM GAS  C:\Users\YUANFA~1\AppData\Local\Temp\ccmw9eEE.s 			page 10


 422 008e FFF7FEFF 		bl	getCapacitanceValueCSDDam
 423              	.LVL50:
  93:main.c        ****     getCapacitanceValueCSD(CapSense_TOUCHPAD0_WDGT_ID, CapSense_TOUCHPAD0_RX0_ID);
 424              		.loc 1 93 0
 425 0092 0021     		movs	r1, #0
 426 0094 0020     		movs	r0, #0
 427 0096 FFF7FEFF 		bl	getCapacitanceValueCSD
 428              	.LVL51:
  94:main.c        ****     getCapacitanceValueCSD(CapSense_TOUCHPAD0_WDGT_ID, CapSense_TOUCHPAD0_RX1_ID);
 429              		.loc 1 94 0
 430 009a 0121     		movs	r1, #1
 431 009c 0020     		movs	r0, #0
 432 009e FFF7FEFF 		bl	getCapacitanceValueCSD
 433              	.LVL52:
  95:main.c        ****     getCapacitanceValueCSD(CapSense_TOUCHPAD0_WDGT_ID, CapSense_TOUCHPAD0_RX2_ID);
 434              		.loc 1 95 0
 435 00a2 0221     		movs	r1, #2
 436 00a4 0020     		movs	r0, #0
 437 00a6 FFF7FEFF 		bl	getCapacitanceValueCSD
 438              	.LVL53:
  96:main.c        ****     getCapacitanceValueCSD(CapSense_TOUCHPAD0_WDGT_ID, CapSense_TOUCHPAD0_RX3_ID);
 439              		.loc 1 96 0
 440 00aa 0321     		movs	r1, #3
 441 00ac 0020     		movs	r0, #0
 442 00ae FFF7FEFF 		bl	getCapacitanceValueCSD
 443              	.LVL54:
  97:main.c        ****     getCapacitanceValueCSD(CapSense_TOUCHPAD0_WDGT_ID, CapSense_TOUCHPAD0_RX4_ID);
 444              		.loc 1 97 0
 445 00b2 0421     		movs	r1, #4
 446 00b4 0020     		movs	r0, #0
 447 00b6 FFF7FEFF 		bl	getCapacitanceValueCSD
 448              	.LVL55:
  98:main.c        ****     getCapacitanceValueCSD(CapSense_TOUCHPAD0_WDGT_ID, CapSense_TOUCHPAD0_RX5_ID);
 449              		.loc 1 98 0
 450 00ba 0521     		movs	r1, #5
 451 00bc 0020     		movs	r0, #0
 452 00be FFF7FEFF 		bl	getCapacitanceValueCSD
 453              	.LVL56:
  99:main.c        ****     getCapacitanceValueCSD(CapSense_TOUCHPAD0_WDGT_ID, CapSense_TOUCHPAD0_RX6_ID);
 454              		.loc 1 99 0
 455 00c2 0621     		movs	r1, #6
 456 00c4 0020     		movs	r0, #0
 457 00c6 FFF7FEFF 		bl	getCapacitanceValueCSD
 458              	.LVL57:
 100:main.c        ****     getCapacitanceValueCSD(CapSense_TOUCHPAD0_WDGT_ID, CapSense_TOUCHPAD0_RX7_ID);
 459              		.loc 1 100 0
 460 00ca 0721     		movs	r1, #7
 461 00cc 0020     		movs	r0, #0
 462 00ce FFF7FEFF 		bl	getCapacitanceValueCSD
 463              	.LVL58:
 101:main.c        ****     getCapacitanceValueCSD(CapSense_TOUCHPAD0_WDGT_ID, CapSense_TOUCHPAD0_RX8_ID);
 464              		.loc 1 101 0
 465 00d2 0821     		movs	r1, #8
 466 00d4 0020     		movs	r0, #0
 467 00d6 FFF7FEFF 		bl	getCapacitanceValueCSD
 468              	.LVL59:
 102:main.c        ****     getCapacitanceValueCSD(CapSense_TOUCHPAD0_WDGT_ID, CapSense_TOUCHPAD0_RX9_ID);
ARM GAS  C:\Users\YUANFA~1\AppData\Local\Temp\ccmw9eEE.s 			page 11


 469              		.loc 1 102 0
 470 00da 0921     		movs	r1, #9
 471 00dc 0020     		movs	r0, #0
 472 00de FFF7FEFF 		bl	getCapacitanceValueCSD
 473              	.LVL60:
 103:main.c        ****     getCapacitanceValueCSD(CapSense_TOUCHPAD0_WDGT_ID, CapSense_TOUCHPAD0_RX10_ID);
 474              		.loc 1 103 0
 475 00e2 0A21     		movs	r1, #10
 476 00e4 0020     		movs	r0, #0
 477 00e6 FFF7FEFF 		bl	getCapacitanceValueCSD
 478              	.LVL61:
 104:main.c        ****     getCapacitanceValueCSD(CapSense_TOUCHPAD0_WDGT_ID, CapSense_TOUCHPAD0_RX11_ID);
 479              		.loc 1 104 0
 480 00ea 0B21     		movs	r1, #11
 481 00ec 0020     		movs	r0, #0
 482 00ee FFF7FEFF 		bl	getCapacitanceValueCSD
 483              	.LVL62:
 105:main.c        ****     getCapacitanceValueCSD(CapSense_TOUCHPAD0_WDGT_ID, CapSense_TOUCHPAD0_RX12_ID);
 484              		.loc 1 105 0
 485 00f2 0C21     		movs	r1, #12
 486 00f4 0020     		movs	r0, #0
 487 00f6 FFF7FEFF 		bl	getCapacitanceValueCSD
 488              	.LVL63:
 106:main.c        ****     getCapacitanceValueCSD(CapSense_TOUCHPAD0_WDGT_ID, CapSense_TOUCHPAD0_RX13_ID);
 489              		.loc 1 106 0
 490 00fa 0D21     		movs	r1, #13
 491 00fc 0020     		movs	r0, #0
 492 00fe FFF7FEFF 		bl	getCapacitanceValueCSD
 493              	.LVL64:
 107:main.c        ****     getCapacitanceValueCSD(CapSense_TOUCHPAD0_WDGT_ID, CapSense_TOUCHPAD0_RX14_ID);
 494              		.loc 1 107 0
 495 0102 0E21     		movs	r1, #14
 496 0104 0020     		movs	r0, #0
 497 0106 FFF7FEFF 		bl	getCapacitanceValueCSD
 498              	.LVL65:
 108:main.c        ****     getCapacitanceValueCSD(CapSense_TOUCHPAD0_WDGT_ID, CapSense_TOUCHPAD0_TX0_ID);
 499              		.loc 1 108 0
 500 010a 0F21     		movs	r1, #15
 501 010c 0020     		movs	r0, #0
 502 010e FFF7FEFF 		bl	getCapacitanceValueCSD
 503              	.LVL66:
 109:main.c        ****     getCapacitanceValueCSD(CapSense_TOUCHPAD0_WDGT_ID, CapSense_TOUCHPAD0_TX1_ID);
 504              		.loc 1 109 0
 505 0112 1021     		movs	r1, #16
 506 0114 0020     		movs	r0, #0
 507 0116 FFF7FEFF 		bl	getCapacitanceValueCSD
 508              	.LVL67:
 110:main.c        ****     getCapacitanceValueCSD(CapSense_TOUCHPAD0_WDGT_ID, CapSense_TOUCHPAD0_TX2_ID);
 509              		.loc 1 110 0
 510 011a 1121     		movs	r1, #17
 511 011c 0020     		movs	r0, #0
 512 011e FFF7FEFF 		bl	getCapacitanceValueCSD
 513              	.LVL68:
 111:main.c        ****     UART_UartPutString("\r\n");
 514              		.loc 1 111 0
 515 0122 0248     		ldr	r0, .L26
 516 0124 FFF7FEFF 		bl	UART_UartPutString
ARM GAS  C:\Users\YUANFA~1\AppData\Local\Temp\ccmw9eEE.s 			page 12


 517              	.LVL69:
 112:main.c        **** }
 518              		.loc 1 112 0
 519              		@ sp needed
 520 0128 10BD     		pop	{r4, pc}
 521              	.L27:
 522 012a C046     		.align	2
 523              	.L26:
 524 012c 00000000 		.word	.LC0
 525              		.cfi_endproc
 526              	.LFE38:
 527              		.size	PrintAll, .-PrintAll
 528              		.section	.text.main,"ax",%progbits
 529              		.align	2
 530              		.global	main
 531              		.code	16
 532              		.thumb_func
 533              		.type	main, %function
 534              	main:
 535              	.LFB39:
 113:main.c        **** 
 114:main.c        **** int main(void)
 115:main.c        **** {
 536              		.loc 1 115 0
 537              		.cfi_startproc
 538              		@ Volatile: function does not return.
 539              		@ args = 0, pretend = 0, frame = 0
 540              		@ frame_needed = 0, uses_anonymous_args = 0
 541 0000 10B5     		push	{r4, lr}
 542              		.cfi_def_cfa_offset 8
 543              		.cfi_offset 4, -8
 544              		.cfi_offset 14, -4
 116:main.c        ****     CyGlobalIntEnable;
 545              		.loc 1 116 0
 546              		.syntax divided
 547              	@ 116 "main.c" 1
 548 0002 62B6     		CPSIE   i
 549              	@ 0 "" 2
 117:main.c        ****     
 118:main.c        ****     UART_Start();
 550              		.loc 1 118 0
 551              		.thumb
 552              		.syntax unified
 553 0004 FFF7FEFF 		bl	UART_Start
 554              	.LVL70:
 119:main.c        ****     print("Start!");
 555              		.loc 1 119 0
 556 0008 0748     		ldr	r0, .L30
 557 000a FFF7FEFF 		bl	print
 558              	.LVL71:
 120:main.c        ****     
 121:main.c        ****     CapSense_Start();
 559              		.loc 1 121 0
 560 000e FFF7FEFF 		bl	CapSense_Start
 561              	.LVL72:
 562              	.L29:
 122:main.c        ****     
ARM GAS  C:\Users\YUANFA~1\AppData\Local\Temp\ccmw9eEE.s 			page 13


 123:main.c        ****     for(;;)
 124:main.c        ****     {
 125:main.c        ****         CapSense_ProcessAllWidgets();
 563              		.loc 1 125 0 discriminator 1
 564 0012 FFF7FEFF 		bl	CapSense_ProcessAllWidgets
 565              	.LVL73:
 126:main.c        ****         
 127:main.c        ****         PrintAll();
 566              		.loc 1 127 0 discriminator 1
 567 0016 FFF7FEFF 		bl	PrintAll
 568              	.LVL74:
 128:main.c        ****         CyDelay(100);
 569              		.loc 1 128 0 discriminator 1
 570 001a 6420     		movs	r0, #100
 571 001c FFF7FEFF 		bl	CyDelay
 572              	.LVL75:
 129:main.c        ****         
 130:main.c        ****         CapSense_ScanAllWidgets();
 573              		.loc 1 130 0 discriminator 1
 574 0020 FFF7FEFF 		bl	CapSense_ScanAllWidgets
 575              	.LVL76:
 576 0024 F5E7     		b	.L29
 577              	.L31:
 578 0026 C046     		.align	2
 579              	.L30:
 580 0028 54000000 		.word	.LC27
 581              		.cfi_endproc
 582              	.LFE39:
 583              		.size	main, .-main
 584              		.section	.rodata.str1.4,"aMS",%progbits,1
 585              		.align	2
 586              	.LC0:
 587 0000 0D0A00   		.ascii	"\015\012\000"
 588 0003 00       		.space	1
 589              	.LC3:
 590 0004 53554343 		.ascii	"SUCCESS\000"
 590      45535300 
 591              	.LC5:
 592 000c 4241445F 		.ascii	"BAD_PARAM\000"
 592      50415241 
 592      4D00
 593 0016 0000     		.space	2
 594              	.LC7:
 595 0018 4C4F575F 		.ascii	"LOW_LIMIT\000"
 595      4C494D49 
 595      5400
 596 0022 0000     		.space	2
 597              	.LC9:
 598 0024 48494748 		.ascii	"HIGH_LIMIT\000"
 598      5F4C494D 
 598      495400
 599 002f 00       		.space	1
 600              	.LC11:
 601 0030 4552524F 		.ascii	"ERROR\000"
 601      5200
 602 0036 0000     		.space	2
 603              	.LC13:
ARM GAS  C:\Users\YUANFA~1\AppData\Local\Temp\ccmw9eEE.s 			page 14


 604 0038 77686174 		.ascii	"what?\000"
 604      3F00
 605 003e 0000     		.space	2
 606              	.LC15:
 607 0040 2000     		.ascii	" \000"
 608 0042 0000     		.space	2
 609              	.LC18:
 610 0044 53484F52 		.ascii	"SHORT\000"
 610      5400
 611 004a 0000     		.space	2
 612              	.LC20:
 613 004c 42414400 		.ascii	"BAD\000"
 614              	.LC23:
 615 0050 256C7500 		.ascii	"%lu\000"
 616              	.LC27:
 617 0054 53746172 		.ascii	"Start!\000"
 617      742100
 618              		.text
 619              	.Letext0:
 620              		.file 2 "Generated_Source\\PSoC4/cytypes.h"
 621              		.file 3 "Generated_Source\\PSoC4/CapSense_Structure.h"
 622              		.file 4 "Generated_Source\\PSoC4/UART_SPI_UART.h"
 623              		.file 5 "Generated_Source\\PSoC4/CapSense_SelfTest.h"
 624              		.file 6 "<built-in>"
 625              		.file 7 "Generated_Source\\PSoC4/UART.h"
 626              		.file 8 "Generated_Source\\PSoC4/CapSense_Control.h"
 627              		.file 9 "Generated_Source\\PSoC4/CyLib.h"
 628              		.file 10 "Generated_Source\\PSoC4/CapSense_Sensing.h"